
validation\performance\builds\teensy41_hot3d_rgb565_bench_teensy41_run1\RGB565Hot3DKernelBench.ino.elf:     file format elf32-littlearm


Disassembly of section .text.code:

60001400 <memory_copy>:
60001400:	4282      	cmp	r2, r0
60001402:	d005      	beq.n	60001410 <memory_copy+0x10>
60001404:	f851 3b04 	ldr.w	r3, [r1], #4
60001408:	f840 3b04 	str.w	r3, [r0], #4
6000140c:	4282      	cmp	r2, r0
6000140e:	d8f9      	bhi.n	60001404 <memory_copy+0x4>
60001410:	4770      	bx	lr
60001412:	bf00      	nop

60001414 <memory_clear.constprop.0>:
60001414:	4a04      	ldr	r2, [pc, #16]	; (60001428 <memory_clear.constprop.0+0x14>)
60001416:	4905      	ldr	r1, [pc, #20]	; (6000142c <memory_clear.constprop.0+0x18>)
60001418:	f04f 0300 	mov.w	r3, #0
6000141c:	f842 3b04 	str.w	r3, [r2], #4
60001420:	4291      	cmp	r1, r2
60001422:	d8fb      	bhi.n	6000141c <memory_clear.constprop.0+0x8>
60001424:	4770      	bx	lr
60001426:	bf00      	nop
60001428:	200016c0 	.word	0x200016c0
6000142c:	20009c40 	.word	0x20009c40

60001430 <ResetHandler2>:
60001430:	b580      	push	{r7, lr}
60001432:	f3bf 8f4f 	dsb	sy
60001436:	f000 f94b 	bl	600016d0 <startup_default_early_hook>
6000143a:	4c54      	ldr	r4, [pc, #336]	; (6000158c <ResetHandler2+0x15c>)
6000143c:	4b54      	ldr	r3, [pc, #336]	; (60001590 <ResetHandler2+0x160>)
6000143e:	2008      	movs	r0, #8
60001440:	4954      	ldr	r1, [pc, #336]	; (60001594 <ResetHandler2+0x164>)
60001442:	f8c3 0154 	str.w	r0, [r3, #340]	; 0x154
60001446:	4a54      	ldr	r2, [pc, #336]	; (60001598 <ResetHandler2+0x168>)
60001448:	f8c3 1100 	str.w	r1, [r3, #256]	; 0x100
6000144c:	4853      	ldr	r0, [pc, #332]	; (6000159c <ResetHandler2+0x16c>)
6000144e:	f8c3 40f0 	str.w	r4, [r3, #240]	; 0xf0
60001452:	4953      	ldr	r1, [pc, #332]	; (600015a0 <ResetHandler2+0x170>)
60001454:	f7ff ffd4 	bl	60001400 <memory_copy>
60001458:	4a52      	ldr	r2, [pc, #328]	; (600015a4 <ResetHandler2+0x174>)
6000145a:	4953      	ldr	r1, [pc, #332]	; (600015a8 <ResetHandler2+0x178>)
6000145c:	4853      	ldr	r0, [pc, #332]	; (600015ac <ResetHandler2+0x17c>)
6000145e:	f7ff ffcf 	bl	60001400 <memory_copy>
60001462:	4c53      	ldr	r4, [pc, #332]	; (600015b0 <ResetHandler2+0x180>)
60001464:	f7ff ffd6 	bl	60001414 <memory_clear.constprop.0>
60001468:	f44f 0070 	mov.w	r0, #15728640	; 0xf00000
6000146c:	f04f 21e0 	mov.w	r1, #3758153728	; 0xe000e000
60001470:	2300      	movs	r3, #0
60001472:	4a50      	ldr	r2, [pc, #320]	; (600015b4 <ResetHandler2+0x184>)
60001474:	f8c1 0d88 	str.w	r0, [r1, #3464]	; 0xd88
60001478:	f844 2023 	str.w	r2, [r4, r3, lsl #2]
6000147c:	3301      	adds	r3, #1
6000147e:	2bb0      	cmp	r3, #176	; 0xb0
60001480:	d1fa      	bne.n	60001478 <ResetHandler2+0x48>
60001482:	4b4d      	ldr	r3, [pc, #308]	; (600015b8 <ResetHandler2+0x188>)
60001484:	2180      	movs	r1, #128	; 0x80
60001486:	4a4d      	ldr	r2, [pc, #308]	; (600015bc <ResetHandler2+0x18c>)
60001488:	f803 1b01 	strb.w	r1, [r3], #1
6000148c:	4293      	cmp	r3, r2
6000148e:	d1fb      	bne.n	60001488 <ResetHandler2+0x58>
60001490:	f04f 25e0 	mov.w	r5, #3758153728	; 0xe000e000
60001494:	4f4a      	ldr	r7, [pc, #296]	; (600015c0 <ResetHandler2+0x190>)
60001496:	4a4b      	ldr	r2, [pc, #300]	; (600015c4 <ResetHandler2+0x194>)
60001498:	f04f 31ff 	mov.w	r1, #4294967295
6000149c:	f8c5 4d08 	str.w	r4, [r5, #3336]	; 0xd08
600014a0:	2600      	movs	r6, #0
600014a2:	f8d5 3d24 	ldr.w	r3, [r5, #3364]	; 0xd24
600014a6:	f443 23e0 	orr.w	r3, r3, #458752	; 0x70000
600014aa:	f8c5 3d24 	str.w	r3, [r5, #3364]	; 0xd24
600014ae:	69fb      	ldr	r3, [r7, #28]
600014b0:	f023 037f 	bic.w	r3, r3, #127	; 0x7f
600014b4:	f043 0340 	orr.w	r3, r3, #64	; 0x40
600014b8:	61fb      	str	r3, [r7, #28]
600014ba:	6a7b      	ldr	r3, [r7, #36]	; 0x24
600014bc:	f023 037f 	bic.w	r3, r3, #127	; 0x7f
600014c0:	f043 0340 	orr.w	r3, r3, #64	; 0x40
600014c4:	627b      	str	r3, [r7, #36]	; 0x24
600014c6:	6691      	str	r1, [r2, #104]	; 0x68
600014c8:	66d1      	str	r1, [r2, #108]	; 0x6c
600014ca:	6711      	str	r1, [r2, #112]	; 0x70
600014cc:	6751      	str	r1, [r2, #116]	; 0x74
600014ce:	f000 f907 	bl	600016e0 <configure_cache>
600014d2:	4b3d      	ldr	r3, [pc, #244]	; (600015c8 <ResetHandler2+0x198>)
600014d4:	2263      	movs	r2, #99	; 0x63
600014d6:	493d      	ldr	r1, [pc, #244]	; (600015cc <ResetHandler2+0x19c>)
600014d8:	63a3      	str	r3, [r4, #56]	; 0x38
600014da:	4b3d      	ldr	r3, [pc, #244]	; (600015d0 <ResetHandler2+0x1a0>)
600014dc:	63e3      	str	r3, [r4, #60]	; 0x3c
600014de:	2303      	movs	r3, #3
600014e0:	616a      	str	r2, [r5, #20]
600014e2:	4a3c      	ldr	r2, [pc, #240]	; (600015d4 <ResetHandler2+0x1a4>)
600014e4:	61ae      	str	r6, [r5, #24]
600014e6:	612b      	str	r3, [r5, #16]
600014e8:	f8c5 2d20 	str.w	r2, [r5, #3360]	; 0xd20
600014ec:	f8d5 2dfc 	ldr.w	r2, [r5, #3580]	; 0xdfc
600014f0:	4b39      	ldr	r3, [pc, #228]	; (600015d8 <ResetHandler2+0x1a8>)
600014f2:	f042 7280 	orr.w	r2, r2, #16777216	; 0x1000000
600014f6:	f8c5 2dfc 	str.w	r2, [r5, #3580]	; 0xdfc
600014fa:	681a      	ldr	r2, [r3, #0]
600014fc:	f042 0201 	orr.w	r2, r2, #1
60001500:	601a      	str	r2, [r3, #0]
60001502:	685b      	ldr	r3, [r3, #4]
60001504:	600b      	str	r3, [r1, #0]
60001506:	f000 faaf 	bl	60001a68 <usb_pll_start>
6000150a:	4834      	ldr	r0, [pc, #208]	; (600015dc <ResetHandler2+0x1ac>)
6000150c:	f000 fc4c 	bl	60001da8 <__set_arm_clock_veneer>
60001510:	6ef9      	ldr	r1, [r7, #108]	; 0x6c
60001512:	4b33      	ldr	r3, [pc, #204]	; (600015e0 <ResetHandler2+0x1b0>)
60001514:	4a33      	ldr	r2, [pc, #204]	; (600015e4 <ResetHandler2+0x1b4>)
60001516:	f441 5140 	orr.w	r1, r1, #12288	; 0x3000
6000151a:	66f9      	str	r1, [r7, #108]	; 0x6c
6000151c:	601e      	str	r6, [r3, #0]
6000151e:	f8c3 6108 	str.w	r6, [r3, #264]	; 0x108
60001522:	f8c3 6118 	str.w	r6, [r3, #280]	; 0x118
60001526:	f8c3 6128 	str.w	r6, [r3, #296]	; 0x128
6000152a:	f8c3 6138 	str.w	r6, [r3, #312]	; 0x138
6000152e:	6b93      	ldr	r3, [r2, #56]	; 0x38
60001530:	07db      	lsls	r3, r3, #31
60001532:	d408      	bmi.n	60001546 <ResetHandler2+0x116>
60001534:	f642 6315 	movw	r3, #11797	; 0x2e15
60001538:	492b      	ldr	r1, [pc, #172]	; (600015e8 <ResetHandler2+0x1b8>)
6000153a:	6551      	str	r1, [r2, #84]	; 0x54
6000153c:	6513      	str	r3, [r2, #80]	; 0x50
6000153e:	6b93      	ldr	r3, [r2, #56]	; 0x38
60001540:	f043 0301 	orr.w	r3, r3, #1
60001544:	6393      	str	r3, [r2, #56]	; 0x38
60001546:	4a27      	ldr	r2, [pc, #156]	; (600015e4 <ResetHandler2+0x1b4>)
60001548:	4c28      	ldr	r4, [pc, #160]	; (600015ec <ResetHandler2+0x1bc>)
6000154a:	6893      	ldr	r3, [r2, #8]
6000154c:	f043 1301 	orr.w	r3, r3, #65537	; 0x10001
60001550:	6093      	str	r3, [r2, #8]
60001552:	f000 f94f 	bl	600017f4 <configure_external_ram>
60001556:	f000 fbeb 	bl	60001d30 <analog_init>
6000155a:	f000 fc1d 	bl	60001d98 <__pwm_init_veneer>
6000155e:	f000 fab1 	bl	60001ac4 <tempmon_init>
60001562:	f000 f8b7 	bl	600016d4 <startup_default_middle_hook>
60001566:	6823      	ldr	r3, [r4, #0]
60001568:	2b13      	cmp	r3, #19
6000156a:	d9fc      	bls.n	60001566 <ResetHandler2+0x136>
6000156c:	f000 fb42 	bl	60001bf4 <usb_init>
60001570:	6823      	ldr	r3, [r4, #0]
60001572:	f5b3 7f96 	cmp.w	r3, #300	; 0x12c
60001576:	d3fb      	bcc.n	60001570 <ResetHandler2+0x140>
60001578:	f000 f8b0 	bl	600016dc <startup_debug_reset>
6000157c:	f000 f8ac 	bl	600016d8 <startup_default_late_hook>
60001580:	f000 fc0e 	bl	60001da0 <____libc_init_array_veneer>
60001584:	f000 fc1c 	bl	60001dc0 <__main_veneer>
60001588:	bf30      	wfi
6000158a:	e7fd      	b.n	60001588 <ResetHandler2+0x158>
6000158c:	13110d0c 	.word	0x13110d0c
60001590:	400d8000 	.word	0x400d8000
60001594:	2018101b 	.word	0x2018101b
60001598:	0000e940 	.word	0x0000e940
6000159c:	00000000 	.word	0x00000000
600015a0:	60001edc 	.word	0x60001edc
600015a4:	200016c0 	.word	0x200016c0
600015a8:	60010820 	.word	0x60010820
600015ac:	20000000 	.word	0x20000000
600015b0:	20001400 	.word	0x20001400
600015b4:	00006645 	.word	0x00006645
600015b8:	e000e400 	.word	0xe000e400
600015bc:	e000e4a0 	.word	0xe000e4a0
600015c0:	400fc000 	.word	0x400fc000
600015c4:	400ac000 	.word	0x400ac000
600015c8:	00007dcd 	.word	0x00007dcd
600015cc:	20009bcc 	.word	0x20009bcc
600015d0:	00007e19 	.word	0x00007e19
600015d4:	20200000 	.word	0x20200000
600015d8:	e0001000 	.word	0xe0001000
600015dc:	23c34600 	.word	0x23c34600
600015e0:	40084000 	.word	0x40084000
600015e4:	400d4000 	.word	0x400d4000
600015e8:	56c00000 	.word	0x56c00000
600015ec:	20009bd0 	.word	0x20009bd0

600015f0 <ResetHandler>:
600015f0:	4b05      	ldr	r3, [pc, #20]	; (60001608 <ResetHandler+0x18>)
600015f2:	f44f 012a 	mov.w	r1, #11141120	; 0xaa0000
600015f6:	4a05      	ldr	r2, [pc, #20]	; (6000160c <ResetHandler+0x1c>)
600015f8:	4805      	ldr	r0, [pc, #20]	; (60001610 <ResetHandler+0x20>)
600015fa:	645a      	str	r2, [r3, #68]	; 0x44
600015fc:	6418      	str	r0, [r3, #64]	; 0x40
600015fe:	4a05      	ldr	r2, [pc, #20]	; (60001614 <ResetHandler+0x24>)
60001600:	6399      	str	r1, [r3, #56]	; 0x38
60001602:	4695      	mov	sp, r2
60001604:	f7ff ff14 	bl	60001430 <ResetHandler2>
60001608:	400ac000 	.word	0x400ac000
6000160c:	aaaaaaaf 	.word	0xaaaaaaaf
60001610:	00200007 	.word	0x00200007
60001614:	20070000 	.word	0x20070000

60001618 <flexspi2_psram_size>:
60001618:	4a2b      	ldr	r2, [pc, #172]	; (600016c8 <flexspi2_psram_size+0xb0>)
6000161a:	2100      	movs	r1, #0
6000161c:	2301      	movs	r3, #1
6000161e:	b410      	push	{r4}
60001620:	f8c2 00a0 	str.w	r0, [r2, #160]	; 0xa0
60001624:	f8c2 10a4 	str.w	r1, [r2, #164]	; 0xa4
60001628:	f8c2 30b0 	str.w	r3, [r2, #176]	; 0xb0
6000162c:	6953      	ldr	r3, [r2, #20]
6000162e:	07db      	lsls	r3, r3, #31
60001630:	d5fc      	bpl.n	6000162c <flexspi2_psram_size+0x14>
60001632:	2301      	movs	r3, #1
60001634:	f44f 3480 	mov.w	r4, #65536	; 0x10000
60001638:	4923      	ldr	r1, [pc, #140]	; (600016c8 <flexspi2_psram_size+0xb0>)
6000163a:	6153      	str	r3, [r2, #20]
6000163c:	f8c2 00a0 	str.w	r0, [r2, #160]	; 0xa0
60001640:	f8c2 40a4 	str.w	r4, [r2, #164]	; 0xa4
60001644:	f8c2 30b0 	str.w	r3, [r2, #176]	; 0xb0
60001648:	694b      	ldr	r3, [r1, #20]
6000164a:	07dc      	lsls	r4, r3, #31
6000164c:	d5fc      	bpl.n	60001648 <flexspi2_psram_size+0x30>
6000164e:	2301      	movs	r3, #1
60001650:	f44f 3400 	mov.w	r4, #131072	; 0x20000
60001654:	4a1c      	ldr	r2, [pc, #112]	; (600016c8 <flexspi2_psram_size+0xb0>)
60001656:	614b      	str	r3, [r1, #20]
60001658:	f8c1 00a0 	str.w	r0, [r1, #160]	; 0xa0
6000165c:	f8c1 40a4 	str.w	r4, [r1, #164]	; 0xa4
60001660:	f8c1 30b0 	str.w	r3, [r1, #176]	; 0xb0
60001664:	6953      	ldr	r3, [r2, #20]
60001666:	07d9      	lsls	r1, r3, #31
60001668:	d5fc      	bpl.n	60001664 <flexspi2_psram_size+0x4c>
6000166a:	2301      	movs	r3, #1
6000166c:	4c17      	ldr	r4, [pc, #92]	; (600016cc <flexspi2_psram_size+0xb4>)
6000166e:	4916      	ldr	r1, [pc, #88]	; (600016c8 <flexspi2_psram_size+0xb0>)
60001670:	6153      	str	r3, [r2, #20]
60001672:	f8c2 00a0 	str.w	r0, [r2, #160]	; 0xa0
60001676:	f8c2 40a4 	str.w	r4, [r2, #164]	; 0xa4
6000167a:	f8c2 30b0 	str.w	r3, [r2, #176]	; 0xb0
6000167e:	694b      	ldr	r3, [r1, #20]
60001680:	07db      	lsls	r3, r3, #31
60001682:	d5fc      	bpl.n	6000167e <flexspi2_psram_size+0x66>
60001684:	f8d1 3100 	ldr.w	r3, [r1, #256]	; 0x100
60001688:	f645 500d 	movw	r0, #23821	; 0x5d0d
6000168c:	2421      	movs	r4, #33	; 0x21
6000168e:	b29a      	uxth	r2, r3
60001690:	614c      	str	r4, [r1, #20]
60001692:	4282      	cmp	r2, r0
60001694:	d014      	beq.n	600016c0 <flexspi2_psram_size+0xa8>
60001696:	f645 519d 	movw	r1, #23965	; 0x5d9d
6000169a:	428a      	cmp	r2, r1
6000169c:	d10c      	bne.n	600016b8 <flexspi2_psram_size+0xa0>
6000169e:	f3c3 5342 	ubfx	r3, r3, #21, #3
600016a2:	2b03      	cmp	r3, #3
600016a4:	d00c      	beq.n	600016c0 <flexspi2_psram_size+0xa8>
600016a6:	f1a3 0304 	sub.w	r3, r3, #4
600016aa:	f85d 4b04 	ldr.w	r4, [sp], #4
600016ae:	fab3 f383 	clz	r3, r3
600016b2:	095b      	lsrs	r3, r3, #5
600016b4:	0118      	lsls	r0, r3, #4
600016b6:	4770      	bx	lr
600016b8:	2000      	movs	r0, #0
600016ba:	f85d 4b04 	ldr.w	r4, [sp], #4
600016be:	4770      	bx	lr
600016c0:	2008      	movs	r0, #8
600016c2:	f85d 4b04 	ldr.w	r4, [sp], #4
600016c6:	4770      	bx	lr
600016c8:	402a4000 	.word	0x402a4000
600016cc:	00030004 	.word	0x00030004

600016d0 <startup_default_early_hook>:
600016d0:	4770      	bx	lr
600016d2:	bf00      	nop

600016d4 <startup_default_middle_hook>:
600016d4:	4770      	bx	lr
600016d6:	bf00      	nop

600016d8 <startup_default_late_hook>:
600016d8:	4770      	bx	lr
600016da:	bf00      	nop

600016dc <startup_debug_reset>:
600016dc:	bf00      	nop
600016de:	4770      	bx	lr

600016e0 <configure_cache>:
600016e0:	b410      	push	{r4}
600016e2:	f04f 23e0 	mov.w	r3, #3758153728	; 0xe000e000
600016e6:	2100      	movs	r1, #0
600016e8:	2410      	movs	r4, #16
600016ea:	4832      	ldr	r0, [pc, #200]	; (600017b4 <configure_cache+0xd4>)
600016ec:	f8c3 1d94 	str.w	r1, [r3, #3476]	; 0xd94
600016f0:	f8c3 4d9c 	str.w	r4, [r3, #3484]	; 0xd9c
600016f4:	2411      	movs	r4, #17
600016f6:	f8c3 0da0 	str.w	r0, [r3, #3488]	; 0xda0
600016fa:	482f      	ldr	r0, [pc, #188]	; (600017b8 <configure_cache+0xd8>)
600016fc:	f8c3 4d9c 	str.w	r4, [r3, #3484]	; 0xd9c
60001700:	2412      	movs	r4, #18
60001702:	f8c3 0da0 	str.w	r0, [r3, #3488]	; 0xda0
60001706:	482d      	ldr	r0, [pc, #180]	; (600017bc <configure_cache+0xdc>)
60001708:	f8c3 4d9c 	str.w	r4, [r3, #3484]	; 0xd9c
6000170c:	4a2c      	ldr	r2, [pc, #176]	; (600017c0 <configure_cache+0xe0>)
6000170e:	f8c3 0da0 	str.w	r0, [r3, #3488]	; 0xda0
60001712:	4c2c      	ldr	r4, [pc, #176]	; (600017c4 <configure_cache+0xe4>)
60001714:	f042 0215 	orr.w	r2, r2, #21
60001718:	482b      	ldr	r0, [pc, #172]	; (600017c8 <configure_cache+0xe8>)
6000171a:	f8c3 4d9c 	str.w	r4, [r3, #3484]	; 0xd9c
6000171e:	f8c3 0da0 	str.w	r0, [r3, #3488]	; 0xda0
60001722:	4c2a      	ldr	r4, [pc, #168]	; (600017cc <configure_cache+0xec>)
60001724:	482a      	ldr	r0, [pc, #168]	; (600017d0 <configure_cache+0xf0>)
60001726:	f8c3 4d9c 	str.w	r4, [r3, #3484]	; 0xd9c
6000172a:	f8c3 0da0 	str.w	r0, [r3, #3488]	; 0xda0
6000172e:	4c29      	ldr	r4, [pc, #164]	; (600017d4 <configure_cache+0xf4>)
60001730:	f8c3 2d9c 	str.w	r2, [r3, #3484]	; 0xd9c
60001734:	4828      	ldr	r0, [pc, #160]	; (600017d8 <configure_cache+0xf8>)
60001736:	4a29      	ldr	r2, [pc, #164]	; (600017dc <configure_cache+0xfc>)
60001738:	f8c3 4da0 	str.w	r4, [r3, #3488]	; 0xda0
6000173c:	f8c3 0d9c 	str.w	r0, [r3, #3484]	; 0xd9c
60001740:	f8c3 2da0 	str.w	r2, [r3, #3488]	; 0xda0
60001744:	f502 22a0 	add.w	r2, r2, #327680	; 0x50000
60001748:	4c25      	ldr	r4, [pc, #148]	; (600017e0 <configure_cache+0x100>)
6000174a:	320c      	adds	r2, #12
6000174c:	4825      	ldr	r0, [pc, #148]	; (600017e4 <configure_cache+0x104>)
6000174e:	f8c3 4d9c 	str.w	r4, [r3, #3484]	; 0xd9c
60001752:	f8c3 2da0 	str.w	r2, [r3, #3488]	; 0xda0
60001756:	4a24      	ldr	r2, [pc, #144]	; (600017e8 <configure_cache+0x108>)
60001758:	f8c3 0d9c 	str.w	r0, [r3, #3484]	; 0xd9c
6000175c:	f8c3 2da0 	str.w	r2, [r3, #3488]	; 0xda0
60001760:	f102 6240 	add.w	r2, r2, #201326592	; 0xc000000
60001764:	4c21      	ldr	r4, [pc, #132]	; (600017ec <configure_cache+0x10c>)
60001766:	3202      	adds	r2, #2
60001768:	4821      	ldr	r0, [pc, #132]	; (600017f0 <configure_cache+0x110>)
6000176a:	f8c3 4d9c 	str.w	r4, [r3, #3484]	; 0xd9c
6000176e:	f8c3 2da0 	str.w	r2, [r3, #3488]	; 0xda0
60001772:	320a      	adds	r2, #10
60001774:	f8c3 0d9c 	str.w	r0, [r3, #3484]	; 0xd9c
60001778:	f8c3 2da0 	str.w	r2, [r3, #3488]	; 0xda0
6000177c:	bf00      	nop
6000177e:	bf00      	nop
60001780:	bf00      	nop
60001782:	bf00      	nop
60001784:	bf00      	nop
60001786:	2201      	movs	r2, #1
60001788:	f8c3 2d94 	str.w	r2, [r3, #3476]	; 0xd94
6000178c:	f3bf 8f4f 	dsb	sy
60001790:	f3bf 8f6f 	isb	sy
60001794:	f8c3 1f50 	str.w	r1, [r3, #3920]	; 0xf50
60001798:	f3bf 8f4f 	dsb	sy
6000179c:	f3bf 8f6f 	isb	sy
600017a0:	f8d3 2d14 	ldr.w	r2, [r3, #3348]	; 0xd14
600017a4:	f85d 4b04 	ldr.w	r4, [sp], #4
600017a8:	f442 3240 	orr.w	r2, r2, #196608	; 0x30000
600017ac:	f8c3 2d14 	str.w	r2, [r3, #3348]	; 0xd14
600017b0:	4770      	bx	lr
600017b2:	bf00      	nop
600017b4:	1000003f 	.word	0x1000003f
600017b8:	07080025 	.word	0x07080025
600017bc:	00100009 	.word	0x00100009
600017c0:	20009c40 	.word	0x20009c40
600017c4:	00200013 	.word	0x00200013
600017c8:	07020021 	.word	0x07020021
600017cc:	20000014 	.word	0x20000014
600017d0:	13080025 	.word	0x13080025
600017d4:	10000009 	.word	0x10000009
600017d8:	20200016 	.word	0x20200016
600017dc:	130b0027 	.word	0x130b0027
600017e0:	40000017 	.word	0x40000017
600017e4:	60000018 	.word	0x60000018
600017e8:	070b002f 	.word	0x070b002f
600017ec:	70000019 	.word	0x70000019
600017f0:	8000001a 	.word	0x8000001a

600017f4 <configure_external_ram>:
600017f4:	b5f0      	push	{r4, r5, r6, r7, lr}
600017f6:	4b82      	ldr	r3, [pc, #520]	; (60001a00 <configure_external_ram+0x20c>)
600017f8:	2218      	movs	r2, #24
600017fa:	4d82      	ldr	r5, [pc, #520]	; (60001a04 <configure_external_ram+0x210>)
600017fc:	2001      	movs	r0, #1
600017fe:	4f82      	ldr	r7, [pc, #520]	; (60001a08 <configure_external_ram+0x214>)
60001800:	b083      	sub	sp, #12
60001802:	f8c3 525c 	str.w	r5, [r3, #604]	; 0x25c
60001806:	4981      	ldr	r1, [pc, #516]	; (60001a0c <configure_external_ram+0x218>)
60001808:	f8c3 7260 	str.w	r7, [r3, #608]	; 0x260
6000180c:	4c80      	ldr	r4, [pc, #512]	; (60001a10 <configure_external_ram+0x21c>)
6000180e:	f8c3 5264 	str.w	r5, [r3, #612]	; 0x264
60001812:	f5a5 4530 	sub.w	r5, r5, #45056	; 0xb000
60001816:	4e7f      	ldr	r6, [pc, #508]	; (60001a14 <configure_external_ram+0x220>)
60001818:	f8c3 5268 	str.w	r5, [r3, #616]	; 0x268
6000181c:	f248 750c 	movw	r5, #34572	; 0x870c
60001820:	f8c3 426c 	str.w	r4, [r3, #620]	; 0x26c
60001824:	f8c3 4270 	str.w	r4, [r3, #624]	; 0x270
60001828:	f8c3 4274 	str.w	r4, [r3, #628]	; 0x274
6000182c:	f8c3 4278 	str.w	r4, [r3, #632]	; 0x278
60001830:	f04f 34ff 	mov.w	r4, #4294967295
60001834:	66da      	str	r2, [r3, #108]	; 0x6c
60001836:	671a      	str	r2, [r3, #112]	; 0x70
60001838:	675a      	str	r2, [r3, #116]	; 0x74
6000183a:	679a      	str	r2, [r3, #120]	; 0x78
6000183c:	67da      	str	r2, [r3, #124]	; 0x7c
6000183e:	f8c3 2080 	str.w	r2, [r3, #128]	; 0x80
60001842:	f8c3 2084 	str.w	r2, [r3, #132]	; 0x84
60001846:	f8c3 2088 	str.w	r2, [r3, #136]	; 0x88
6000184a:	f8c1 032c 	str.w	r0, [r1, #812]	; 0x32c
6000184e:	4a72      	ldr	r2, [pc, #456]	; (60001a18 <configure_external_ram+0x224>)
60001850:	f8c1 0330 	str.w	r0, [r1, #816]	; 0x330
60001854:	f8c1 0334 	str.w	r0, [r1, #820]	; 0x334
60001858:	f8c1 0338 	str.w	r0, [r1, #824]	; 0x338
6000185c:	f8c1 033c 	str.w	r0, [r1, #828]	; 0x33c
60001860:	f8c1 0350 	str.w	r0, [r1, #848]	; 0x350
60001864:	69b1      	ldr	r1, [r6, #24]
60001866:	4b6d      	ldr	r3, [pc, #436]	; (60001a1c <configure_external_ram+0x228>)
60001868:	400a      	ands	r2, r1
6000186a:	486d      	ldr	r0, [pc, #436]	; (60001a20 <configure_external_ram+0x22c>)
6000186c:	496d      	ldr	r1, [pc, #436]	; (60001a24 <configure_external_ram+0x230>)
6000186e:	4313      	orrs	r3, r2
60001870:	4a6d      	ldr	r2, [pc, #436]	; (60001a28 <configure_external_ram+0x234>)
60001872:	61b3      	str	r3, [r6, #24]
60001874:	f8d6 3084 	ldr.w	r3, [r6, #132]	; 0x84
60001878:	f043 030c 	orr.w	r3, r3, #12
6000187c:	f8c6 3084 	str.w	r3, [r6, #132]	; 0x84
60001880:	6803      	ldr	r3, [r0, #0]
60001882:	f043 0302 	orr.w	r3, r3, #2
60001886:	6003      	str	r3, [r0, #0]
60001888:	6803      	ldr	r3, [r0, #0]
6000188a:	402b      	ands	r3, r5
6000188c:	2521      	movs	r5, #33	; 0x21
6000188e:	431a      	orrs	r2, r3
60001890:	4b66      	ldr	r3, [pc, #408]	; (60001a2c <configure_external_ram+0x238>)
60001892:	6002      	str	r2, [r0, #0]
60001894:	6044      	str	r4, [r0, #4]
60001896:	688a      	ldr	r2, [r1, #8]
60001898:	4c65      	ldr	r4, [pc, #404]	; (60001a30 <configure_external_ram+0x23c>)
6000189a:	4013      	ands	r3, r2
6000189c:	4a65      	ldr	r2, [pc, #404]	; (60001a34 <configure_external_ram+0x240>)
6000189e:	f043 5300 	orr.w	r3, r3, #536870912	; 0x20000000
600018a2:	6083      	str	r3, [r0, #8]
600018a4:	68c3      	ldr	r3, [r0, #12]
600018a6:	f023 0378 	bic.w	r3, r3, #120	; 0x78
600018aa:	60c3      	str	r3, [r0, #12]
600018ac:	6a03      	ldr	r3, [r0, #32]
600018ae:	4013      	ands	r3, r2
600018b0:	4323      	orrs	r3, r4
600018b2:	6203      	str	r3, [r0, #32]
600018b4:	6a03      	ldr	r3, [r0, #32]
600018b6:	4013      	ands	r3, r2
600018b8:	4a5f      	ldr	r2, [pc, #380]	; (60001a38 <configure_external_ram+0x244>)
600018ba:	4323      	orrs	r3, r4
600018bc:	f240 6405 	movw	r4, #1541	; 0x605
600018c0:	6243      	str	r3, [r0, #36]	; 0x24
600018c2:	6282      	str	r2, [r0, #40]	; 0x28
600018c4:	62c2      	str	r2, [r0, #44]	; 0x2c
600018c6:	2200      	movs	r2, #0
600018c8:	f8d1 30b8 	ldr.w	r3, [r1, #184]	; 0xb8
600018cc:	f023 033f 	bic.w	r3, r3, #63	; 0x3f
600018d0:	f043 0301 	orr.w	r3, r3, #1
600018d4:	f8c0 30b8 	str.w	r3, [r0, #184]	; 0xb8
600018d8:	f8d1 30bc 	ldr.w	r3, [r1, #188]	; 0xbc
600018dc:	4957      	ldr	r1, [pc, #348]	; (60001a3c <configure_external_ram+0x248>)
600018de:	f023 033f 	bic.w	r3, r3, #63	; 0x3f
600018e2:	f043 0301 	orr.w	r3, r3, #1
600018e6:	f8c0 30bc 	str.w	r3, [r0, #188]	; 0xbc
600018ea:	6102      	str	r2, [r0, #16]
600018ec:	6705      	str	r5, [r0, #112]	; 0x70
600018ee:	f8c0 4080 	str.w	r4, [r0, #128]	; 0x80
600018f2:	6745      	str	r5, [r0, #116]	; 0x74
600018f4:	f8c0 4084 	str.w	r4, [r0, #132]	; 0x84
600018f8:	2402      	movs	r4, #2
600018fa:	6803      	ldr	r3, [r0, #0]
600018fc:	f023 0302 	bic.w	r3, r3, #2
60001900:	6003      	str	r3, [r0, #0]
60001902:	6181      	str	r1, [r0, #24]
60001904:	4b4e      	ldr	r3, [pc, #312]	; (60001a40 <configure_external_ram+0x24c>)
60001906:	494f      	ldr	r1, [pc, #316]	; (60001a44 <configure_external_ram+0x250>)
60001908:	61c4      	str	r4, [r0, #28]
6000190a:	f843 2b04 	str.w	r2, [r3], #4
6000190e:	428b      	cmp	r3, r1
60001910:	d1fb      	bne.n	6000190a <configure_external_ram+0x116>
60001912:	4d43      	ldr	r5, [pc, #268]	; (60001a20 <configure_external_ram+0x22c>)
60001914:	682b      	ldr	r3, [r5, #0]
60001916:	f043 0301 	orr.w	r3, r3, #1
6000191a:	602b      	str	r3, [r5, #0]
6000191c:	682c      	ldr	r4, [r5, #0]
6000191e:	f014 0401 	ands.w	r4, r4, #1
60001922:	d1fb      	bne.n	6000191c <configure_external_ram+0x128>
60001924:	4945      	ldr	r1, [pc, #276]	; (60001a3c <configure_external_ram+0x248>)
60001926:	2302      	movs	r3, #2
60001928:	f240 62f5 	movw	r2, #1781	; 0x6f5
6000192c:	4620      	mov	r0, r4
6000192e:	61a9      	str	r1, [r5, #24]
60001930:	f240 4199 	movw	r1, #1177	; 0x499
60001934:	61eb      	str	r3, [r5, #28]
60001936:	f240 4366 	movw	r3, #1126	; 0x466
6000193a:	f8c5 2200 	str.w	r2, [r5, #512]	; 0x200
6000193e:	f242 4201 	movw	r2, #9217	; 0x2401
60001942:	f8c5 3210 	str.w	r3, [r5, #528]	; 0x210
60001946:	4b40      	ldr	r3, [pc, #256]	; (60001a48 <configure_external_ram+0x254>)
60001948:	f8c5 1220 	str.w	r1, [r5, #544]	; 0x220
6000194c:	f8c5 3230 	str.w	r3, [r5, #560]	; 0x230
60001950:	f240 4335 	movw	r3, #1077	; 0x435
60001954:	f8c5 2234 	str.w	r2, [r5, #564]	; 0x234
60001958:	493c      	ldr	r1, [pc, #240]	; (60001a4c <configure_external_ram+0x258>)
6000195a:	f8c5 3240 	str.w	r3, [r5, #576]	; 0x240
6000195e:	4b3c      	ldr	r3, [pc, #240]	; (60001a50 <configure_external_ram+0x25c>)
60001960:	f8c5 1250 	str.w	r1, [r5, #592]	; 0x250
60001964:	4a3b      	ldr	r2, [pc, #236]	; (60001a54 <configure_external_ram+0x260>)
60001966:	f8c5 3254 	str.w	r3, [r5, #596]	; 0x254
6000196a:	f242 2301 	movw	r3, #8705	; 0x2201
6000196e:	f8c5 2260 	str.w	r2, [r5, #608]	; 0x260
60001972:	f8c5 3264 	str.w	r3, [r5, #612]	; 0x264
60001976:	f7ff fe4f 	bl	60001618 <flexspi2_psram_size>
6000197a:	4606      	mov	r6, r0
6000197c:	2800      	cmp	r0, #0
6000197e:	d036      	beq.n	600019ee <configure_external_ram+0x1fa>
60001980:	0283      	lsls	r3, r0, #10
60001982:	f44f 2280 	mov.w	r2, #262144	; 0x40000
60001986:	662b      	str	r3, [r5, #96]	; 0x60
60001988:	2301      	movs	r3, #1
6000198a:	f8c5 40a0 	str.w	r4, [r5, #160]	; 0xa0
6000198e:	4c24      	ldr	r4, [pc, #144]	; (60001a20 <configure_external_ram+0x22c>)
60001990:	f8c5 20a4 	str.w	r2, [r5, #164]	; 0xa4
60001994:	f8c5 30b0 	str.w	r3, [r5, #176]	; 0xb0
60001998:	6963      	ldr	r3, [r4, #20]
6000199a:	07da      	lsls	r2, r3, #31
6000199c:	d5fc      	bpl.n	60001998 <configure_external_ram+0x1a4>
6000199e:	2501      	movs	r5, #1
600019a0:	0537      	lsls	r7, r6, #20
600019a2:	6165      	str	r5, [r4, #20]
600019a4:	4638      	mov	r0, r7
600019a6:	f7ff fe37 	bl	60001618 <flexspi2_psram_size>
600019aa:	1832      	adds	r2, r6, r0
600019ac:	4b2a      	ldr	r3, [pc, #168]	; (60001a58 <configure_external_ram+0x264>)
600019ae:	b2d2      	uxtb	r2, r2
600019b0:	701a      	strb	r2, [r3, #0]
600019b2:	b178      	cbz	r0, 600019d4 <configure_external_ram+0x1e0>
600019b4:	0280      	lsls	r0, r0, #10
600019b6:	f44f 2380 	mov.w	r3, #262144	; 0x40000
600019ba:	4919      	ldr	r1, [pc, #100]	; (60001a20 <configure_external_ram+0x22c>)
600019bc:	6660      	str	r0, [r4, #100]	; 0x64
600019be:	f8c4 70a0 	str.w	r7, [r4, #160]	; 0xa0
600019c2:	f8c4 30a4 	str.w	r3, [r4, #164]	; 0xa4
600019c6:	f8c4 50b0 	str.w	r5, [r4, #176]	; 0xb0
600019ca:	694b      	ldr	r3, [r1, #20]
600019cc:	07db      	lsls	r3, r3, #31
600019ce:	d5fc      	bpl.n	600019ca <configure_external_ram+0x1d6>
600019d0:	2301      	movs	r3, #1
600019d2:	614b      	str	r3, [r1, #20]
600019d4:	4921      	ldr	r1, [pc, #132]	; (60001a5c <configure_external_ram+0x268>)
600019d6:	2400      	movs	r4, #0
600019d8:	4821      	ldr	r0, [pc, #132]	; (60001a60 <configure_external_ram+0x26c>)
600019da:	2301      	movs	r3, #1
600019dc:	9400      	str	r4, [sp, #0]
600019de:	1a40      	subs	r0, r0, r1
600019e0:	eb00 5202 	add.w	r2, r0, r2, lsl #20
600019e4:	481f      	ldr	r0, [pc, #124]	; (60001a64 <configure_external_ram+0x270>)
600019e6:	f000 f9e3 	bl	60001db0 <__sm_set_pool_veneer>
600019ea:	b003      	add	sp, #12
600019ec:	bdf0      	pop	{r4, r5, r6, r7, pc}
600019ee:	4b1d      	ldr	r3, [pc, #116]	; (60001a64 <configure_external_ram+0x270>)
600019f0:	4a19      	ldr	r2, [pc, #100]	; (60001a58 <configure_external_ram+0x264>)
600019f2:	6018      	str	r0, [r3, #0]
600019f4:	7010      	strb	r0, [r2, #0]
600019f6:	60d8      	str	r0, [r3, #12]
600019f8:	e9c3 0001 	strd	r0, r0, [r3, #4]
600019fc:	b003      	add	sp, #12
600019fe:	bdf0      	pop	{r4, r5, r6, r7, pc}
60001a00:	401f8000 	.word	0x401f8000
60001a04:	0001b0f9 	.word	0x0001b0f9
60001a08:	000110f9 	.word	0x000110f9
60001a0c:	401f8400 	.word	0x401f8400
60001a10:	000170f9 	.word	0x000170f9
60001a14:	400fc000 	.word	0x400fc000
60001a18:	1ffffcff 	.word	0x1ffffcff
60001a1c:	80000300 	.word	0x80000300
60001a20:	402a4000 	.word	0x402a4000
60001a24:	402a8000 	.word	0x402a8000
60001a28:	ffff0012 	.word	0xffff0012
60001a2c:	00f737ff 	.word	0x00f737ff
60001a30:	80000040 	.word	0x80000040
60001a34:	7cf0ff00 	.word	0x7cf0ff00
60001a38:	830f00ff 	.word	0x830f00ff
60001a3c:	5af05af0 	.word	0x5af05af0
60001a40:	402a4200 	.word	0x402a4200
60001a44:	402a4300 	.word	0x402a4300
60001a48:	3018049f 	.word	0x3018049f
60001a4c:	0a1806eb 	.word	0x0a1806eb
60001a50:	26013206 	.word	0x26013206
60001a54:	0a180638 	.word	0x0a180638
60001a58:	20009bf6 	.word	0x20009bf6
60001a5c:	70000000 	.word	0x70000000
60001a60:	70000000 	.word	0x70000000
60001a64:	20009b58 	.word	0x20009b58

60001a68 <usb_pll_start>:
60001a68:	b4f0      	push	{r4, r5, r6, r7}
60001a6a:	4a15      	ldr	r2, [pc, #84]	; (60001ac0 <usb_pll_start+0x58>)
60001a6c:	2740      	movs	r7, #64	; 0x40
60001a6e:	f44f 3180 	mov.w	r1, #65536	; 0x10000
60001a72:	f44f 5680 	mov.w	r6, #4096	; 0x1000
60001a76:	f44f 5500 	mov.w	r5, #8192	; 0x2000
60001a7a:	f44f 4440 	mov.w	r4, #49152	; 0xc000
60001a7e:	f243 0042 	movw	r0, #12354	; 0x3042
60001a82:	6913      	ldr	r3, [r2, #16]
60001a84:	f013 0f02 	tst.w	r3, #2
60001a88:	d10e      	bne.n	60001aa8 <usb_pll_start+0x40>
60001a8a:	f413 5f00 	tst.w	r3, #8192	; 0x2000
60001a8e:	d00f      	beq.n	60001ab0 <usb_pll_start+0x48>
60001a90:	f413 5f80 	tst.w	r3, #4096	; 0x1000
60001a94:	d00e      	beq.n	60001ab4 <usb_pll_start+0x4c>
60001a96:	2b00      	cmp	r3, #0
60001a98:	daf3      	bge.n	60001a82 <usb_pll_start+0x1a>
60001a9a:	f413 3f80 	tst.w	r3, #65536	; 0x10000
60001a9e:	d10b      	bne.n	60001ab8 <usb_pll_start+0x50>
60001aa0:	065b      	lsls	r3, r3, #25
60001aa2:	d50b      	bpl.n	60001abc <usb_pll_start+0x54>
60001aa4:	bcf0      	pop	{r4, r5, r6, r7}
60001aa6:	4770      	bx	lr
60001aa8:	6194      	str	r4, [r2, #24]
60001aaa:	6151      	str	r1, [r2, #20]
60001aac:	6190      	str	r0, [r2, #24]
60001aae:	e7e8      	b.n	60001a82 <usb_pll_start+0x1a>
60001ab0:	6155      	str	r5, [r2, #20]
60001ab2:	e7e6      	b.n	60001a82 <usb_pll_start+0x1a>
60001ab4:	6156      	str	r6, [r2, #20]
60001ab6:	e7e4      	b.n	60001a82 <usb_pll_start+0x1a>
60001ab8:	6191      	str	r1, [r2, #24]
60001aba:	e7e2      	b.n	60001a82 <usb_pll_start+0x1a>
60001abc:	6157      	str	r7, [r2, #20]
60001abe:	e7e0      	b.n	60001a82 <usb_pll_start+0x1a>
60001ac0:	400d8000 	.word	0x400d8000

60001ac4 <tempmon_init>:
60001ac4:	4a3f      	ldr	r2, [pc, #252]	; (60001bc4 <tempmon_init+0x100>)
60001ac6:	2003      	movs	r0, #3
60001ac8:	493f      	ldr	r1, [pc, #252]	; (60001bc8 <tempmon_init+0x104>)
60001aca:	eef3 5a09 	vmov.f32	s11, #57	; 0x41c80000  25.0
60001ace:	f8d2 3080 	ldr.w	r3, [r2, #128]	; 0x80
60001ad2:	f04f 0c00 	mov.w	ip, #0
60001ad6:	ed9f 6a3d 	vldr	s12, [pc, #244]	; 60001bcc <tempmon_init+0x108>
60001ada:	f023 0301 	bic.w	r3, r3, #1
60001ade:	ed9f 5a3c 	vldr	s10, [pc, #240]	; 60001bd0 <tempmon_init+0x10c>
60001ae2:	b430      	push	{r4, r5}
60001ae4:	f8c2 3080 	str.w	r3, [r2, #128]	; 0x80
60001ae8:	f8c2 0090 	str.w	r0, [r2, #144]	; 0x90
60001aec:	f8d1 10e0 	ldr.w	r1, [r1, #224]	; 0xe0
60001af0:	4d38      	ldr	r5, [pc, #224]	; (60001bd4 <tempmon_init+0x110>)
60001af2:	b2cb      	uxtb	r3, r1
60001af4:	4c38      	ldr	r4, [pc, #224]	; (60001bd8 <tempmon_init+0x114>)
60001af6:	4839      	ldr	r0, [pc, #228]	; (60001bdc <tempmon_init+0x118>)
60001af8:	602b      	str	r3, [r5, #0]
60001afa:	ee07 3a90 	vmov	s15, r3
60001afe:	0d0b      	lsrs	r3, r1, #20
60001b00:	f3c1 210b 	ubfx	r1, r1, #8, #12
60001b04:	eef8 7ae7 	vcvt.f32.s32	s15, s15
60001b08:	ee06 3a90 	vmov	s13, r3
60001b0c:	ee07 1a10 	vmov	s14, r1
60001b10:	4b33      	ldr	r3, [pc, #204]	; (60001be0 <tempmon_init+0x11c>)
60001b12:	eeb8 7ac7 	vcvt.f32.s32	s14, s14
60001b16:	6021      	str	r1, [r4, #0]
60001b18:	eef8 6ae6 	vcvt.f32.s32	s13, s13
60001b1c:	4931      	ldr	r1, [pc, #196]	; (60001be4 <tempmon_init+0x120>)
60001b1e:	ee37 6ac6 	vsub.f32	s12, s15, s12
60001b22:	ee37 5ac5 	vsub.f32	s10, s15, s10
60001b26:	ee76 6ac7 	vsub.f32	s13, s13, s14
60001b2a:	ee77 7ae5 	vsub.f32	s15, s15, s11
60001b2e:	ee26 6a26 	vmul.f32	s12, s12, s13
60001b32:	edc3 6a00 	vstr	s13, [r3]
60001b36:	ee25 5a26 	vmul.f32	s10, s10, s13
60001b3a:	f8d2 3080 	ldr.w	r3, [r2, #128]	; 0x80
60001b3e:	ee67 4aa6 	vmul.f32	s9, s15, s13
60001b42:	edc0 7a00 	vstr	s15, [r0]
60001b46:	eec6 5a27 	vdiv.f32	s11, s12, s15
60001b4a:	4827      	ldr	r0, [pc, #156]	; (60001be8 <tempmon_init+0x124>)
60001b4c:	ee85 6a27 	vdiv.f32	s12, s10, s15
60001b50:	eec4 6aa7 	vdiv.f32	s13, s9, s15
60001b54:	ee75 5a87 	vadd.f32	s11, s11, s14
60001b58:	eefc 5ae5 	vcvt.u32.f32	s11, s11
60001b5c:	ee36 6a07 	vadd.f32	s12, s12, s14
60001b60:	ee15 4a90 	vmov	r4, s11
60001b64:	eebc 6ac6 	vcvt.u32.f32	s12, s12
60001b68:	ea43 5304 	orr.w	r3, r3, r4, lsl #20
60001b6c:	ee76 7a87 	vadd.f32	s15, s13, s14
60001b70:	f8c2 3080 	str.w	r3, [r2, #128]	; 0x80
60001b74:	ee16 3a10 	vmov	r3, s12
60001b78:	f8d2 4190 	ldr.w	r4, [r2, #400]	; 0x190
60001b7c:	eefc 7ae7 	vcvt.u32.f32	s15, s15
60001b80:	ea01 4103 	and.w	r1, r1, r3, lsl #16
60001b84:	4321      	orrs	r1, r4
60001b86:	ee17 3a90 	vmov	r3, s15
60001b8a:	f8c2 1190 	str.w	r1, [r2, #400]	; 0x190
60001b8e:	f3c3 030b 	ubfx	r3, r3, #0, #12
60001b92:	f8d2 1190 	ldr.w	r1, [r2, #400]	; 0x190
60001b96:	430b      	orrs	r3, r1
60001b98:	4914      	ldr	r1, [pc, #80]	; (60001bec <tempmon_init+0x128>)
60001b9a:	f8c2 3190 	str.w	r3, [r2, #400]	; 0x190
60001b9e:	f8d2 3080 	ldr.w	r3, [r2, #128]	; 0x80
60001ba2:	f043 0302 	orr.w	r3, r3, #2
60001ba6:	f8c2 3080 	str.w	r3, [r2, #128]	; 0x80
60001baa:	4b11      	ldr	r3, [pc, #68]	; (60001bf0 <tempmon_init+0x12c>)
60001bac:	f880 c040 	strb.w	ip, [r0, #64]	; 0x40
60001bb0:	f8c1 3140 	str.w	r3, [r1, #320]	; 0x140
60001bb4:	f04f 23e0 	mov.w	r3, #3758153728	; 0xe000e000
60001bb8:	2201      	movs	r2, #1
60001bba:	bc30      	pop	{r4, r5}
60001bbc:	f8c3 2108 	str.w	r2, [r3, #264]	; 0x108
60001bc0:	4770      	bx	lr
60001bc2:	bf00      	nop
60001bc4:	400d8100 	.word	0x400d8100
60001bc8:	401f4400 	.word	0x401f4400
60001bcc:	42aa0000 	.word	0x42aa0000
60001bd0:	42b40000 	.word	0x42b40000
60001bd4:	20009bbc 	.word	0x20009bbc
60001bd8:	20009bb8 	.word	0x20009bb8
60001bdc:	20009bc0 	.word	0x20009bc0
60001be0:	20009bc4 	.word	0x20009bc4
60001be4:	0fff0000 	.word	0x0fff0000
60001be8:	e000e400 	.word	0xe000e400
60001bec:	20001400 	.word	0x20001400
60001bf0:	00006825 	.word	0x00006825

60001bf4 <usb_init>:
60001bf4:	4b31      	ldr	r3, [pc, #196]	; (60001cbc <usb_init+0xc8>)
60001bf6:	f640 7261 	movw	r2, #3937	; 0xf61
60001bfa:	b510      	push	{r4, lr}
60001bfc:	f8c3 2120 	str.w	r2, [r3, #288]	; 0x120
60001c00:	f240 4404 	movw	r4, #1028	; 0x404
60001c04:	f000 f8d8 	bl	60001db8 <__usb_init_serialnumber_veneer>
60001c08:	4a2d      	ldr	r2, [pc, #180]	; (60001cc0 <usb_init+0xcc>)
60001c0a:	492e      	ldr	r1, [pc, #184]	; (60001cc4 <usb_init+0xd0>)
60001c0c:	f8d2 3080 	ldr.w	r3, [r2, #128]	; 0x80
60001c10:	482d      	ldr	r0, [pc, #180]	; (60001cc8 <usb_init+0xd4>)
60001c12:	f043 0303 	orr.w	r3, r3, #3
60001c16:	f8c2 3080 	str.w	r3, [r2, #128]	; 0x80
60001c1a:	4b2c      	ldr	r3, [pc, #176]	; (60001ccc <usb_init+0xd8>)
60001c1c:	f8c1 4160 	str.w	r4, [r1, #352]	; 0x160
60001c20:	6802      	ldr	r2, [r0, #0]
60001c22:	421a      	tst	r2, r3
60001c24:	d103      	bne.n	60001c2e <usb_init+0x3a>
60001c26:	f8d1 31a8 	ldr.w	r3, [r1, #424]	; 0x1a8
60001c2a:	079a      	lsls	r2, r3, #30
60001c2c:	d01b      	beq.n	60001c66 <usb_init+0x72>
60001c2e:	4a25      	ldr	r2, [pc, #148]	; (60001cc4 <usb_init+0xd0>)
60001c30:	f04f 4100 	mov.w	r1, #2147483648	; 0x80000000
60001c34:	4b24      	ldr	r3, [pc, #144]	; (60001cc8 <usb_init+0xd4>)
60001c36:	6359      	str	r1, [r3, #52]	; 0x34
60001c38:	f8d2 3140 	ldr.w	r3, [r2, #320]	; 0x140
60001c3c:	f043 0302 	orr.w	r3, r3, #2
60001c40:	f8c2 3140 	str.w	r3, [r2, #320]	; 0x140
60001c44:	f8d2 3140 	ldr.w	r3, [r2, #320]	; 0x140
60001c48:	079b      	lsls	r3, r3, #30
60001c4a:	d4fb      	bmi.n	60001c44 <usb_init+0x50>
60001c4c:	f44f 3000 	mov.w	r0, #131072	; 0x20000
60001c50:	f04f 21e0 	mov.w	r1, #3758153728	; 0xe000e000
60001c54:	4b1c      	ldr	r3, [pc, #112]	; (60001cc8 <usb_init+0xd4>)
60001c56:	f04f 4200 	mov.w	r2, #2147483648	; 0x80000000
60001c5a:	f8c1 028c 	str.w	r0, [r1, #652]	; 0x28c
60001c5e:	2019      	movs	r0, #25
60001c60:	639a      	str	r2, [r3, #56]	; 0x38
60001c62:	f000 f8b1 	bl	60001dc8 <__delay_veneer>
60001c66:	4a18      	ldr	r2, [pc, #96]	; (60001cc8 <usb_init+0xd4>)
60001c68:	f04f 4080 	mov.w	r0, #1073741824	; 0x40000000
60001c6c:	4c15      	ldr	r4, [pc, #84]	; (60001cc4 <usb_init+0xd0>)
60001c6e:	2100      	movs	r1, #0
60001c70:	6390      	str	r0, [r2, #56]	; 0x38
60001c72:	200a      	movs	r0, #10
60001c74:	4b16      	ldr	r3, [pc, #88]	; (60001cd0 <usb_init+0xdc>)
60001c76:	6011      	str	r1, [r2, #0]
60001c78:	f44f 7220 	mov.w	r2, #640	; 0x280
60001c7c:	f8c4 01a8 	str.w	r0, [r4, #424]	; 0x1a8
60001c80:	4618      	mov	r0, r3
60001c82:	f000 f885 	bl	60001d90 <__memset_veneer>
60001c86:	f44f 0280 	mov.w	r2, #4194304	; 0x400000
60001c8a:	4603      	mov	r3, r0
60001c8c:	f44f 0081 	mov.w	r0, #4227072	; 0x408000
60001c90:	f240 1143 	movw	r1, #323	; 0x143
60001c94:	6018      	str	r0, [r3, #0]
60001c96:	f8c4 3158 	str.w	r3, [r4, #344]	; 0x158
60001c9a:	641a      	str	r2, [r3, #64]	; 0x40
60001c9c:	4b0d      	ldr	r3, [pc, #52]	; (60001cd4 <usb_init+0xe0>)
60001c9e:	4a0e      	ldr	r2, [pc, #56]	; (60001cd8 <usb_init+0xe4>)
60001ca0:	f8c4 1148 	str.w	r1, [r4, #328]	; 0x148
60001ca4:	f8c3 2204 	str.w	r2, [r3, #516]	; 0x204
60001ca8:	f04f 22e0 	mov.w	r2, #3758153728	; 0xe000e000
60001cac:	f44f 3100 	mov.w	r1, #131072	; 0x20000
60001cb0:	2301      	movs	r3, #1
60001cb2:	f8c2 110c 	str.w	r1, [r2, #268]	; 0x10c
60001cb6:	f8c4 3140 	str.w	r3, [r4, #320]	; 0x140
60001cba:	bd10      	pop	{r4, pc}
60001cbc:	400d8000 	.word	0x400d8000
60001cc0:	400fc000 	.word	0x400fc000
60001cc4:	402e0000 	.word	0x402e0000
60001cc8:	400d9000 	.word	0x400d9000
60001ccc:	001e1c00 	.word	0x001e1c00
60001cd0:	20000000 	.word	0x20000000
60001cd4:	20001400 	.word	0x20001400
60001cd8:	00006889 	.word	0x00006889

60001cdc <_reboot_Teensyduino_>:
60001cdc:	b508      	push	{r3, lr}
60001cde:	4b0e      	ldr	r3, [pc, #56]	; (60001d18 <_reboot_Teensyduino_+0x3c>)
60001ce0:	6e1b      	ldr	r3, [r3, #96]	; 0x60
60001ce2:	079b      	lsls	r3, r3, #30
60001ce4:	d400      	bmi.n	60001ce8 <_reboot_Teensyduino_+0xc>
60001ce6:	befb      	bkpt	0x00fb
60001ce8:	b672      	cpsid	i
60001cea:	4b0c      	ldr	r3, [pc, #48]	; (60001d1c <_reboot_Teensyduino_+0x40>)
60001cec:	2000      	movs	r0, #0
60001cee:	4a0c      	ldr	r2, [pc, #48]	; (60001d20 <_reboot_Teensyduino_+0x44>)
60001cf0:	f8c3 0140 	str.w	r0, [r3, #320]	; 0x140
60001cf4:	f103 4360 	add.w	r3, r3, #3758096384	; 0xe0000000
60001cf8:	490a      	ldr	r1, [pc, #40]	; (60001d24 <_reboot_Teensyduino_+0x48>)
60001cfa:	f5a3 235f 	sub.w	r3, r3, #913408	; 0xdf000
60001cfe:	6411      	str	r1, [r2, #64]	; 0x40
60001d00:	469d      	mov	sp, r3
60001d02:	f3bf 8f4f 	dsb	sy
60001d06:	f44f 1300 	mov.w	r3, #2097152	; 0x200000
60001d0a:	4807      	ldr	r0, [pc, #28]	; (60001d28 <_reboot_Teensyduino_+0x4c>)
60001d0c:	4a07      	ldr	r2, [pc, #28]	; (60001d2c <_reboot_Teensyduino_+0x50>)
60001d0e:	69db      	ldr	r3, [r3, #28]
60001d10:	6002      	str	r2, [r0, #0]
60001d12:	689b      	ldr	r3, [r3, #8]
60001d14:	4798      	blx	r3
60001d16:	bf00      	nop
60001d18:	401f4400 	.word	0x401f4400
60001d1c:	402e0000 	.word	0x402e0000
60001d20:	400ac000 	.word	0x400ac000
60001d24:	00200003 	.word	0x00200003
60001d28:	20208000 	.word	0x20208000
60001d2c:	eb120000 	.word	0xeb120000

60001d30 <analog_init>:
60001d30:	4b10      	ldr	r3, [pc, #64]	; (60001d74 <analog_init+0x44>)
60001d32:	20a0      	movs	r0, #160	; 0xa0
60001d34:	4a10      	ldr	r2, [pc, #64]	; (60001d78 <analog_init+0x48>)
60001d36:	6ed9      	ldr	r1, [r3, #108]	; 0x6c
60001d38:	f441 3140 	orr.w	r1, r1, #196608	; 0x30000
60001d3c:	b410      	push	{r4}
60001d3e:	66d9      	str	r1, [r3, #108]	; 0x6c
60001d40:	f240 6437 	movw	r4, #1591	; 0x637
60001d44:	6ed9      	ldr	r1, [r3, #108]	; 0x6c
60001d46:	f441 7140 	orr.w	r1, r1, #768	; 0x300
60001d4a:	66d9      	str	r1, [r3, #108]	; 0x6c
60001d4c:	6454      	str	r4, [r2, #68]	; 0x44
60001d4e:	6490      	str	r0, [r2, #72]	; 0x48
60001d50:	6c93      	ldr	r3, [r2, #72]	; 0x48
60001d52:	061b      	lsls	r3, r3, #24
60001d54:	d4fc      	bmi.n	60001d50 <analog_init+0x20>
60001d56:	4a09      	ldr	r2, [pc, #36]	; (60001d7c <analog_init+0x4c>)
60001d58:	f240 6137 	movw	r1, #1591	; 0x637
60001d5c:	23a0      	movs	r3, #160	; 0xa0
60001d5e:	6451      	str	r1, [r2, #68]	; 0x44
60001d60:	6493      	str	r3, [r2, #72]	; 0x48
60001d62:	6c93      	ldr	r3, [r2, #72]	; 0x48
60001d64:	f013 0380 	ands.w	r3, r3, #128	; 0x80
60001d68:	d1fb      	bne.n	60001d62 <analog_init+0x32>
60001d6a:	4a05      	ldr	r2, [pc, #20]	; (60001d80 <analog_init+0x50>)
60001d6c:	7013      	strb	r3, [r2, #0]
60001d6e:	f85d 4b04 	ldr.w	r4, [sp], #4
60001d72:	4770      	bx	lr
60001d74:	400fc000 	.word	0x400fc000
60001d78:	400c4000 	.word	0x400c4000
60001d7c:	400c8000 	.word	0x400c8000
60001d80:	20009bf5 	.word	0x20009bf5

60001d84 <_init>:
60001d84:	b5f8      	push	{r3, r4, r5, r6, r7, lr}
60001d86:	bf00      	nop
60001d88:	bcf8      	pop	{r3, r4, r5, r6, r7}
60001d8a:	bc08      	pop	{r3}
60001d8c:	469e      	mov	lr, r3
60001d8e:	4770      	bx	lr

60001d90 <__memset_veneer>:
60001d90:	f85f f000 	ldr.w	pc, [pc]	; 60001d94 <__memset_veneer+0x4>
60001d94:	00009425 	.word	0x00009425

60001d98 <__pwm_init_veneer>:
60001d98:	f85f f000 	ldr.w	pc, [pc]	; 60001d9c <__pwm_init_veneer+0x4>
60001d9c:	00008155 	.word	0x00008155

60001da0 <____libc_init_array_veneer>:
60001da0:	f85f f000 	ldr.w	pc, [pc]	; 60001da4 <____libc_init_array_veneer+0x4>
60001da4:	00009611 	.word	0x00009611

60001da8 <__set_arm_clock_veneer>:
60001da8:	f85f f000 	ldr.w	pc, [pc]	; 60001dac <__set_arm_clock_veneer+0x4>
60001dac:	00007e39 	.word	0x00007e39

60001db0 <__sm_set_pool_veneer>:
60001db0:	f85f f000 	ldr.w	pc, [pc]	; 60001db4 <__sm_set_pool_veneer+0x4>
60001db4:	00008665 	.word	0x00008665

60001db8 <__usb_init_serialnumber_veneer>:
60001db8:	f85f f000 	ldr.w	pc, [pc]	; 60001dbc <__usb_init_serialnumber_veneer+0x4>
60001dbc:	00007369 	.word	0x00007369

60001dc0 <__main_veneer>:
60001dc0:	f85f f000 	ldr.w	pc, [pc]	; 60001dc4 <__main_veneer+0x4>
60001dc4:	0000649d 	.word	0x0000649d

60001dc8 <__delay_veneer>:
60001dc8:	f85f f000 	ldr.w	pc, [pc]	; 60001dcc <__delay_veneer+0x4>
60001dcc:	000063a1 	.word	0x000063a1

60001dd0 <__frame_dummy_init_array_entry>:
60001dd0:	00000045                                E...

Disassembly of section .text.itcm:

00000000 <_stext>:
	...

00000020 <register_tm_clones>:
      20:	4805      	ldr	r0, [pc, #20]	; (38 <_teensy_model_identifier+0x13>)
      22:	4b06      	ldr	r3, [pc, #24]	; (3c <_teensy_model_identifier+0x17>)
      24:	1a1b      	subs	r3, r3, r0
      26:	0fd9      	lsrs	r1, r3, #31
      28:	eb01 01a3 	add.w	r1, r1, r3, asr #2
      2c:	1049      	asrs	r1, r1, #1
      2e:	d002      	beq.n	36 <_teensy_model_identifier+0x11>
      30:	4b03      	ldr	r3, [pc, #12]	; (40 <_teensy_model_identifier+0x1b>)
      32:	b103      	cbz	r3, 36 <_teensy_model_identifier+0x11>
      34:	4718      	bx	r3
      36:	4770      	bx	lr
      38:	200016c0 	.word	0x200016c0
      3c:	200016c0 	.word	0x200016c0
      40:	00000000 	.word	0x00000000

00000044 <frame_dummy>:
      44:	b508      	push	{r3, lr}
      46:	4b05      	ldr	r3, [pc, #20]	; (5c <frame_dummy+0x18>)
      48:	b11b      	cbz	r3, 52 <frame_dummy+0xe>
      4a:	4905      	ldr	r1, [pc, #20]	; (60 <frame_dummy+0x1c>)
      4c:	4805      	ldr	r0, [pc, #20]	; (64 <frame_dummy+0x20>)
      4e:	f3af 8000 	nop.w
      52:	e8bd 4008 	ldmia.w	sp!, {r3, lr}
      56:	f7ff bfe3 	b.w	20 <register_tm_clones>
      5a:	bf00      	nop
      5c:	00000000 	.word	0x00000000
      60:	20009b68 	.word	0x20009b68
      64:	60012c00 	.word	0x60012c00

00000068 <refMean4(unsigned short, unsigned short, unsigned short, unsigned short)>:
      68:	b510      	push	{r4, lr}
      6a:	f000 0c1f 	and.w	ip, r0, #31
      6e:	f001 041f 	and.w	r4, r1, #31
      72:	f3c0 1e45 	ubfx	lr, r0, #5, #6
      76:	44a4      	add	ip, r4
      78:	f3c1 1445 	ubfx	r4, r1, #5, #6
      7c:	0ac9      	lsrs	r1, r1, #11
      7e:	44a6      	add	lr, r4
      80:	eb01 20d0 	add.w	r0, r1, r0, lsr #11
      84:	eb00 21d2 	add.w	r1, r0, r2, lsr #11
      88:	f002 001f 	and.w	r0, r2, #31
      8c:	f3c2 1245 	ubfx	r2, r2, #5, #6
      90:	eb01 21d3 	add.w	r1, r1, r3, lsr #11
      94:	4460      	add	r0, ip
      96:	4472      	add	r2, lr
      98:	f3c3 1c45 	ubfx	ip, r3, #5, #6
      9c:	f003 031f 	and.w	r3, r3, #31
      a0:	1089      	asrs	r1, r1, #2
      a2:	4462      	add	r2, ip
      a4:	4418      	add	r0, r3
      a6:	1092      	asrs	r2, r2, #2
      a8:	1080      	asrs	r0, r0, #2
      aa:	ea40 1042 	orr.w	r0, r0, r2, lsl #5
      ae:	ea40 20c1 	orr.w	r0, r0, r1, lsl #11
      b2:	b280      	uxth	r0, r0
      b4:	bd10      	pop	{r4, pc}
      b6:	bf00      	nop

000000b8 <refBilinear(unsigned short, unsigned short, unsigned short, unsigned short, float, float)>:
      b8:	eef0 7a40 	vmov.f32	s15, s0
      bc:	e92d 43f0 	stmdb	sp!, {r4, r5, r6, r7, r8, r9, lr}
      c0:	eefe 7acc 	vcvt.s32.f32	s15, s15, #8
      c4:	f3c3 1e45 	ubfx	lr, r3, #5, #6
      c8:	f3c1 1545 	ubfx	r5, r1, #5, #6
      cc:	f003 091f 	and.w	r9, r3, #31
      d0:	f3c2 1845 	ubfx	r8, r2, #5, #6
      d4:	f002 071f 	and.w	r7, r2, #31
      d8:	ee17 6a90 	vmov	r6, s15
      dc:	eef0 7a60 	vmov.f32	s15, s1
      e0:	0ad2      	lsrs	r2, r2, #11
      e2:	0adb      	lsrs	r3, r3, #11
      e4:	eefe 7acc 	vcvt.s32.f32	s15, s15, #8
      e8:	ee17 ca90 	vmov	ip, s15
      ec:	f5cc 7480 	rsb	r4, ip, #256	; 0x100
      f0:	fb0c fe0e 	mul.w	lr, ip, lr
      f4:	fb0c f909 	mul.w	r9, ip, r9
      f8:	fb04 ee05 	mla	lr, r4, r5, lr
      fc:	fb0c f502 	mul.w	r5, ip, r2
     100:	f001 021f 	and.w	r2, r1, #31
     104:	fb0c f303 	mul.w	r3, ip, r3
     108:	0ac9      	lsrs	r1, r1, #11
     10a:	fb0c f808 	mul.w	r8, ip, r8
     10e:	fb0c f707 	mul.w	r7, ip, r7
     112:	fb04 9c02 	mla	ip, r4, r2, r9
     116:	fb04 3201 	mla	r2, r4, r1, r3
     11a:	f3c0 1145 	ubfx	r1, r0, #5, #6
     11e:	fb06 f30c 	mul.w	r3, r6, ip
     122:	f000 0c1f 	and.w	ip, r0, #31
     126:	fb06 fe0e 	mul.w	lr, r6, lr
     12a:	0ac0      	lsrs	r0, r0, #11
     12c:	fb06 f202 	mul.w	r2, r6, r2
     130:	f5c6 7680 	rsb	r6, r6, #256	; 0x100
     134:	fb04 8101 	mla	r1, r4, r1, r8
     138:	fb04 7c0c 	mla	ip, r4, ip, r7
     13c:	fb04 5000 	mla	r0, r4, r0, r5
     140:	fb06 330c 	mla	r3, r6, ip, r3
     144:	fb06 e101 	mla	r1, r6, r1, lr
     148:	fb06 2200 	mla	r2, r6, r0, r2
     14c:	f3c3 4004 	ubfx	r0, r3, #16, #5
     150:	f3c1 4105 	ubfx	r1, r1, #16, #6
     154:	1413      	asrs	r3, r2, #16
     156:	ea40 1041 	orr.w	r0, r0, r1, lsl #5
     15a:	ea40 20c3 	orr.w	r0, r0, r3, lsl #11
     15e:	b280      	uxth	r0, r0
     160:	e8bd 83f0 	ldmia.w	sp!, {r4, r5, r6, r7, r8, r9, pc}

00000164 <spanTriangleRef(unsigned short*, unsigned short const*, unsigned short const*, unsigned short const*, unsigned long)>:
     164:	e92d 4ff0 	stmdb	sp!, {r4, r5, r6, r7, r8, r9, sl, fp, lr}
     168:	9d09      	ldr	r5, [sp, #36]	; 0x24
     16a:	2d00      	cmp	r5, #0
     16c:	d03d      	beq.n	1ea <spanTriangleRef(unsigned short*, unsigned short const*, unsigned short const*, unsigned short const*, unsigned long)+0x86>
     16e:	f1a1 0c02 	sub.w	ip, r1, #2
     172:	1e94      	subs	r4, r2, #2
     174:	f1a3 0e02 	sub.w	lr, r3, #2
     178:	3802      	subs	r0, #2
     17a:	eb0c 0845 	add.w	r8, ip, r5, lsl #1
     17e:	4f1c      	ldr	r7, [pc, #112]	; (1f0 <spanTriangleRef(unsigned short*, unsigned short const*, unsigned short const*, unsigned short const*, unsigned long)+0x8c>)
     180:	4e1c      	ldr	r6, [pc, #112]	; (1f4 <spanTriangleRef(unsigned short*, unsigned short const*, unsigned short const*, unsigned short const*, unsigned long)+0x90>)
     182:	4d1d      	ldr	r5, [pc, #116]	; (1f8 <spanTriangleRef(unsigned short*, unsigned short const*, unsigned short const*, unsigned short const*, unsigned long)+0x94>)
     184:	491d      	ldr	r1, [pc, #116]	; (1fc <spanTriangleRef(unsigned short*, unsigned short const*, unsigned short const*, unsigned short const*, unsigned long)+0x98>)
     186:	f856 2b04 	ldr.w	r2, [r6], #4
     18a:	f857 9b04 	ldr.w	r9, [r7], #4
     18e:	f855 3b04 	ldr.w	r3, [r5], #4
     192:	ea4f 1a42 	mov.w	sl, r2, lsl #5
     196:	ea4f 1949 	mov.w	r9, r9, lsl #5
     19a:	f834 2f02 	ldrh.w	r2, [r4, #2]!
     19e:	f83c bf02 	ldrh.w	fp, [ip, #2]!
     1a2:	fb99 f9f3 	sdiv	r9, r9, r3
     1a6:	fb9a faf3 	sdiv	sl, sl, r3
     1aa:	ea42 4302 	orr.w	r3, r2, r2, lsl #16
     1ae:	f83e 2f02 	ldrh.w	r2, [lr, #2]!
     1b2:	ea4b 4b0b 	orr.w	fp, fp, fp, lsl #16
     1b6:	45e0      	cmp	r8, ip
     1b8:	ea03 0301 	and.w	r3, r3, r1
     1bc:	ea42 4202 	orr.w	r2, r2, r2, lsl #16
     1c0:	ea0b 0b01 	and.w	fp, fp, r1
     1c4:	fb0a f303 	mul.w	r3, sl, r3
     1c8:	ea02 0201 	and.w	r2, r2, r1
     1cc:	fb09 330b 	mla	r3, r9, fp, r3
     1d0:	f1c9 0920 	rsb	r9, r9, #32
     1d4:	eba9 090a 	sub.w	r9, r9, sl
     1d8:	fb09 3302 	mla	r3, r9, r2, r3
     1dc:	ea01 1353 	and.w	r3, r1, r3, lsr #5
     1e0:	ea43 4313 	orr.w	r3, r3, r3, lsr #16
     1e4:	f820 3f02 	strh.w	r3, [r0, #2]!
     1e8:	d1cd      	bne.n	186 <spanTriangleRef(unsigned short*, unsigned short const*, unsigned short const*, unsigned short const*, unsigned long)+0x22>
     1ea:	e8bd 8ff0 	ldmia.w	sp!, {r4, r5, r6, r7, r8, r9, sl, fp, pc}
     1ee:	bf00      	nop
     1f0:	200038c8 	.word	0x200038c8
     1f4:	200040d8 	.word	0x200040d8
     1f8:	20006928 	.word	0x20006928
     1fc:	07e0f81f 	.word	0x07e0f81f

00000200 <spanTrianglePacked(unsigned short*, unsigned short const*, unsigned short const*, unsigned short const*, unsigned long)>:
     200:	e92d 4ff0 	stmdb	sp!, {r4, r5, r6, r7, r8, r9, sl, fp, lr}
     204:	9d09      	ldr	r5, [sp, #36]	; 0x24
     206:	2d00      	cmp	r5, #0
     208:	d03d      	beq.n	286 <spanTrianglePacked(unsigned short*, unsigned short const*, unsigned short const*, unsigned short const*, unsigned long)+0x86>
     20a:	f1a1 0c02 	sub.w	ip, r1, #2
     20e:	1e94      	subs	r4, r2, #2
     210:	f1a3 0e02 	sub.w	lr, r3, #2
     214:	3802      	subs	r0, #2
     216:	eb0c 0845 	add.w	r8, ip, r5, lsl #1
     21a:	4f1c      	ldr	r7, [pc, #112]	; (28c <spanTrianglePacked(unsigned short*, unsigned short const*, unsigned short const*, unsigned short const*, unsigned long)+0x8c>)
     21c:	4e1c      	ldr	r6, [pc, #112]	; (290 <spanTrianglePacked(unsigned short*, unsigned short const*, unsigned short const*, unsigned short const*, unsigned long)+0x90>)
     21e:	4d1d      	ldr	r5, [pc, #116]	; (294 <spanTrianglePacked(unsigned short*, unsigned short const*, unsigned short const*, unsigned short const*, unsigned long)+0x94>)
     220:	491d      	ldr	r1, [pc, #116]	; (298 <spanTrianglePacked(unsigned short*, unsigned short const*, unsigned short const*, unsigned short const*, unsigned long)+0x98>)
     222:	f856 2b04 	ldr.w	r2, [r6], #4
     226:	f857 9b04 	ldr.w	r9, [r7], #4
     22a:	f855 3b04 	ldr.w	r3, [r5], #4
     22e:	ea4f 1a42 	mov.w	sl, r2, lsl #5
     232:	ea4f 1949 	mov.w	r9, r9, lsl #5
     236:	f834 2f02 	ldrh.w	r2, [r4, #2]!
     23a:	f83c bf02 	ldrh.w	fp, [ip, #2]!
     23e:	fb99 f9f3 	sdiv	r9, r9, r3
     242:	fb9a faf3 	sdiv	sl, sl, r3
     246:	ea42 4302 	orr.w	r3, r2, r2, lsl #16
     24a:	f83e 2f02 	ldrh.w	r2, [lr, #2]!
     24e:	ea4b 4b0b 	orr.w	fp, fp, fp, lsl #16
     252:	45e0      	cmp	r8, ip
     254:	ea03 0301 	and.w	r3, r3, r1
     258:	ea42 4202 	orr.w	r2, r2, r2, lsl #16
     25c:	ea0b 0b01 	and.w	fp, fp, r1
     260:	fb0a f303 	mul.w	r3, sl, r3
     264:	ea02 0201 	and.w	r2, r2, r1
     268:	fb09 330b 	mla	r3, r9, fp, r3
     26c:	f1c9 0920 	rsb	r9, r9, #32
     270:	eba9 090a 	sub.w	r9, r9, sl
     274:	fb09 3302 	mla	r3, r9, r2, r3
     278:	ea01 1353 	and.w	r3, r1, r3, lsr #5
     27c:	ea43 4313 	orr.w	r3, r3, r3, lsr #16
     280:	f820 3f02 	strh.w	r3, [r0, #2]!
     284:	d1cd      	bne.n	222 <spanTrianglePacked(unsigned short*, unsigned short const*, unsigned short const*, unsigned short const*, unsigned long)+0x22>
     286:	e8bd 8ff0 	ldmia.w	sp!, {r4, r5, r6, r7, r8, r9, sl, fp, pc}
     28a:	bf00      	nop
     28c:	200038c8 	.word	0x200038c8
     290:	200040d8 	.word	0x200040d8
     294:	20006928 	.word	0x20006928
     298:	07e0f81f 	.word	0x07e0f81f

0000029c <spanTriangleScalar(unsigned short*, unsigned short const*, unsigned short const*, unsigned short const*, unsigned long)>:
     29c:	e92d 4ff0 	stmdb	sp!, {r4, r5, r6, r7, r8, r9, sl, fp, lr}
     2a0:	b083      	sub	sp, #12
     2a2:	9c0c      	ldr	r4, [sp, #48]	; 0x30
     2a4:	2c00      	cmp	r4, #0
     2a6:	d056      	beq.n	356 <spanTriangleScalar(unsigned short*, unsigned short const*, unsigned short const*, unsigned short const*, unsigned long)+0xba>
     2a8:	1e8d      	subs	r5, r1, #2
     2aa:	1e9f      	subs	r7, r3, #2
     2ac:	f1a2 0802 	sub.w	r8, r2, #2
     2b0:	1e86      	subs	r6, r0, #2
     2b2:	eb05 0344 	add.w	r3, r5, r4, lsl #1
     2b6:	f8df a0a8 	ldr.w	sl, [pc, #168]	; 360 <spanTriangleScalar(unsigned short*, unsigned short const*, unsigned short const*, unsigned short const*, unsigned long)+0xc4>
     2ba:	f8df 90a8 	ldr.w	r9, [pc, #168]	; 364 <spanTriangleScalar(unsigned short*, unsigned short const*, unsigned short const*, unsigned short const*, unsigned long)+0xc8>
     2be:	9301      	str	r3, [sp, #4]
     2c0:	4b26      	ldr	r3, [pc, #152]	; (35c <spanTriangleScalar(unsigned short*, unsigned short const*, unsigned short const*, unsigned short const*, unsigned long)+0xc0>)
     2c2:	9300      	str	r3, [sp, #0]
     2c4:	9a00      	ldr	r2, [sp, #0]
     2c6:	f85a 1b04 	ldr.w	r1, [sl], #4
     2ca:	f852 4b04 	ldr.w	r4, [r2], #4
     2ce:	f859 3b04 	ldr.w	r3, [r9], #4
     2d2:	0149      	lsls	r1, r1, #5
     2d4:	f838 0f02 	ldrh.w	r0, [r8, #2]!
     2d8:	015b      	lsls	r3, r3, #5
     2da:	9200      	str	r2, [sp, #0]
     2dc:	f3c0 1b45 	ubfx	fp, r0, #5, #6
     2e0:	f835 2f02 	ldrh.w	r2, [r5, #2]!
     2e4:	ea4f 2ed0 	mov.w	lr, r0, lsr #11
     2e8:	f000 001f 	and.w	r0, r0, #31
     2ec:	fb91 f1f4 	sdiv	r1, r1, r4
     2f0:	fb93 f3f4 	sdiv	r3, r3, r4
     2f4:	f1c1 0c20 	rsb	ip, r1, #32
     2f8:	fb03 fb0b 	mul.w	fp, r3, fp
     2fc:	fb03 fe0e 	mul.w	lr, r3, lr
     300:	f837 4f02 	ldrh.w	r4, [r7, #2]!
     304:	ebac 0c03 	sub.w	ip, ip, r3
     308:	fb03 f000 	mul.w	r0, r3, r0
     30c:	f3c2 1345 	ubfx	r3, r2, #5, #6
     310:	fb01 b303 	mla	r3, r1, r3, fp
     314:	ea4f 2bd2 	mov.w	fp, r2, lsr #11
     318:	f002 021f 	and.w	r2, r2, #31
     31c:	fb01 eb0b 	mla	fp, r1, fp, lr
     320:	fb01 0202 	mla	r2, r1, r2, r0
     324:	f3c4 1145 	ubfx	r1, r4, #5, #6
     328:	fb0c 3301 	mla	r3, ip, r1, r3
     32c:	0ae1      	lsrs	r1, r4, #11
     32e:	f004 041f 	and.w	r4, r4, #31
     332:	fb0c b101 	mla	r1, ip, r1, fp
     336:	f403 63fc 	and.w	r3, r3, #2016	; 0x7e0
     33a:	fb0c 2204 	mla	r2, ip, r4, r2
     33e:	f3c1 1144 	ubfx	r1, r1, #5, #5
     342:	f3c2 1244 	ubfx	r2, r2, #5, #5
     346:	ea43 23c1 	orr.w	r3, r3, r1, lsl #11
     34a:	4313      	orrs	r3, r2
     34c:	f826 3f02 	strh.w	r3, [r6, #2]!
     350:	9b01      	ldr	r3, [sp, #4]
     352:	42ab      	cmp	r3, r5
     354:	d1b6      	bne.n	2c4 <spanTriangleScalar(unsigned short*, unsigned short const*, unsigned short const*, unsigned short const*, unsigned long)+0x28>
     356:	b003      	add	sp, #12
     358:	e8bd 8ff0 	ldmia.w	sp!, {r4, r5, r6, r7, r8, r9, sl, fp, pc}
     35c:	20006928 	.word	0x20006928
     360:	200038c8 	.word	0x200038c8
     364:	200040d8 	.word	0x200040d8

00000368 <spanBilinearRef(unsigned short*, unsigned short const*, unsigned short const*, unsigned short const*, unsigned short const*, unsigned long)>:
     368:	e92d 4ff0 	stmdb	sp!, {r4, r5, r6, r7, r8, r9, sl, fp, lr}
     36c:	b085      	sub	sp, #20
     36e:	9c0f      	ldr	r4, [sp, #60]	; 0x3c
     370:	2c00      	cmp	r4, #0
     372:	d079      	beq.n	468 <spanBilinearRef(unsigned short*, unsigned short const*, unsigned short const*, unsigned short const*, unsigned short const*, unsigned long)+0x100>
     374:	1e8d      	subs	r5, r1, #2
     376:	1e9f      	subs	r7, r3, #2
     378:	f1a2 0802 	sub.w	r8, r2, #2
     37c:	1e86      	subs	r6, r0, #2
     37e:	eb05 0344 	add.w	r3, r5, r4, lsl #1
     382:	9303      	str	r3, [sp, #12]
     384:	9b0e      	ldr	r3, [sp, #56]	; 0x38
     386:	3b02      	subs	r3, #2
     388:	9302      	str	r3, [sp, #8]
     38a:	4b39      	ldr	r3, [pc, #228]	; (470 <spanBilinearRef(unsigned short*, unsigned short const*, unsigned short const*, unsigned short const*, unsigned short const*, unsigned long)+0x108>)
     38c:	9301      	str	r3, [sp, #4]
     38e:	4b39      	ldr	r3, [pc, #228]	; (474 <spanBilinearRef(unsigned short*, unsigned short const*, unsigned short const*, unsigned short const*, unsigned short const*, unsigned long)+0x10c>)
     390:	9300      	str	r3, [sp, #0]
     392:	9b00      	ldr	r3, [sp, #0]
     394:	9a02      	ldr	r2, [sp, #8]
     396:	ecf3 7a01 	vldmia	r3!, {s15}
     39a:	9901      	ldr	r1, [sp, #4]
     39c:	eeb0 7a67 	vmov.f32	s14, s15
     3a0:	9300      	str	r3, [sp, #0]
     3a2:	f832 3f02 	ldrh.w	r3, [r2, #2]!
     3a6:	f838 bf02 	ldrh.w	fp, [r8, #2]!
     3aa:	eebe 7acc 	vcvt.s32.f32	s14, s14, #8
     3ae:	ecf1 7a01 	vldmia	r1!, {s15}
     3b2:	f3c3 1045 	ubfx	r0, r3, #5, #6
     3b6:	9202      	str	r2, [sp, #8]
     3b8:	f837 9f02 	ldrh.w	r9, [r7, #2]!
     3bc:	f003 0a1f 	and.w	sl, r3, #31
     3c0:	ee17 2a10 	vmov	r2, s14
     3c4:	9101      	str	r1, [sp, #4]
     3c6:	eeb0 7a67 	vmov.f32	s14, s15
     3ca:	f3cb 1145 	ubfx	r1, fp, #5, #6
     3ce:	f5c2 7480 	rsb	r4, r2, #256	; 0x100
     3d2:	fb02 f000 	mul.w	r0, r2, r0
     3d6:	f3c9 1e45 	ubfx	lr, r9, #5, #6
     3da:	0adb      	lsrs	r3, r3, #11
     3dc:	fb04 0001 	mla	r0, r4, r1, r0
     3e0:	f009 011f 	and.w	r1, r9, #31
     3e4:	ea4f 29d9 	mov.w	r9, r9, lsr #11
     3e8:	eebe 7acc 	vcvt.s32.f32	s14, s14, #8
     3ec:	f835 cf02 	ldrh.w	ip, [r5, #2]!
     3f0:	fb02 fa0a 	mul.w	sl, r2, sl
     3f4:	fb02 f303 	mul.w	r3, r2, r3
     3f8:	fb02 fe0e 	mul.w	lr, r2, lr
     3fc:	fb02 f101 	mul.w	r1, r2, r1
     400:	fb02 f909 	mul.w	r9, r2, r9
     404:	f00b 021f 	and.w	r2, fp, #31
     408:	ea4f 2bdb 	mov.w	fp, fp, lsr #11
     40c:	fb04 aa02 	mla	sl, r4, r2, sl
     410:	ee17 2a10 	vmov	r2, s14
     414:	fb04 330b 	mla	r3, r4, fp, r3
     418:	f3cc 1b45 	ubfx	fp, ip, #5, #6
     41c:	fb02 f000 	mul.w	r0, r2, r0
     420:	fb02 fa0a 	mul.w	sl, r2, sl
     424:	fb02 f303 	mul.w	r3, r2, r3
     428:	f5c2 7280 	rsb	r2, r2, #256	; 0x100
     42c:	fb04 ee0b 	mla	lr, r4, fp, lr
     430:	fb02 000e 	mla	r0, r2, lr, r0
     434:	f00c 0e1f 	and.w	lr, ip, #31
     438:	ea4f 2cdc 	mov.w	ip, ip, lsr #11
     43c:	fb04 110e 	mla	r1, r4, lr, r1
     440:	f3c0 4005 	ubfx	r0, r0, #16, #6
     444:	fb04 990c 	mla	r9, r4, ip, r9
     448:	fb02 a101 	mla	r1, r2, r1, sl
     44c:	fb02 3309 	mla	r3, r2, r9, r3
     450:	f3c1 4104 	ubfx	r1, r1, #16, #5
     454:	141b      	asrs	r3, r3, #16
     456:	ea41 1140 	orr.w	r1, r1, r0, lsl #5
     45a:	ea41 21c3 	orr.w	r1, r1, r3, lsl #11
     45e:	9b03      	ldr	r3, [sp, #12]
     460:	429d      	cmp	r5, r3
     462:	f826 1f02 	strh.w	r1, [r6, #2]!
     466:	d194      	bne.n	392 <spanBilinearRef(unsigned short*, unsigned short const*, unsigned short const*, unsigned short const*, unsigned short const*, unsigned long)+0x2a>
     468:	b005      	add	sp, #20
     46a:	e8bd 8ff0 	ldmia.w	sp!, {r4, r5, r6, r7, r8, r9, sl, fp, pc}
     46e:	bf00      	nop
     470:	200028a8 	.word	0x200028a8
     474:	200030b8 	.word	0x200030b8

00000478 <printResult(char const*, char const*, unsigned long, unsigned long, unsigned long, unsigned long, unsigned long, unsigned long, unsigned long, char const*) [clone .constprop.1]>:
     478:	e92d 4ff0 	stmdb	sp!, {r4, r5, r6, r7, r8, r9, sl, fp, lr}
     47c:	4683      	mov	fp, r0
     47e:	b083      	sub	sp, #12
     480:	460c      	mov	r4, r1
     482:	4836      	ldr	r0, [pc, #216]	; (55c <printResult(char const*, char const*, unsigned long, unsigned long, unsigned long, unsigned long, unsigned long, unsigned long, unsigned long, char const*) [clone .constprop.1]+0xe4>)
     484:	2107      	movs	r1, #7
     486:	461d      	mov	r5, r3
     488:	9201      	str	r2, [sp, #4]
     48a:	f8dd a030 	ldr.w	sl, [sp, #48]	; 0x30
     48e:	e9dd 980d 	ldrd	r9, r8, [sp, #52]	; 0x34
     492:	e9dd 760f 	ldrd	r7, r6, [sp, #60]	; 0x3c
     496:	f007 fba9 	bl	7bec <usb_serial_write>
     49a:	4658      	mov	r0, fp
     49c:	f009 f8f0 	bl	9680 <strlen>
     4a0:	4601      	mov	r1, r0
     4a2:	4658      	mov	r0, fp
     4a4:	f007 fba2 	bl	7bec <usb_serial_write>
     4a8:	2109      	movs	r1, #9
     4aa:	482d      	ldr	r0, [pc, #180]	; (560 <printResult(char const*, char const*, unsigned long, unsigned long, unsigned long, unsigned long, unsigned long, unsigned long, unsigned long, char const*) [clone .constprop.1]+0xe8>)
     4ac:	f007 fb9e 	bl	7bec <usb_serial_write>
     4b0:	4620      	mov	r0, r4
     4b2:	f009 f8e5 	bl	9680 <strlen>
     4b6:	4601      	mov	r1, r0
     4b8:	4620      	mov	r0, r4
     4ba:	4c2a      	ldr	r4, [pc, #168]	; (564 <printResult(char const*, char const*, unsigned long, unsigned long, unsigned long, unsigned long, unsigned long, unsigned long, unsigned long, char const*) [clone .constprop.1]+0xec>)
     4bc:	f007 fb96 	bl	7bec <usb_serial_write>
     4c0:	2109      	movs	r1, #9
     4c2:	4829      	ldr	r0, [pc, #164]	; (568 <printResult(char const*, char const*, unsigned long, unsigned long, unsigned long, unsigned long, unsigned long, unsigned long, unsigned long, char const*) [clone .constprop.1]+0xf0>)
     4c4:	f007 fb92 	bl	7bec <usb_serial_write>
     4c8:	9a01      	ldr	r2, [sp, #4]
     4ca:	2300      	movs	r3, #0
     4cc:	4620      	mov	r0, r4
     4ce:	4611      	mov	r1, r2
     4d0:	220a      	movs	r2, #10
     4d2:	f005 ff11 	bl	62f8 <Print::printNumber(unsigned long, unsigned char, unsigned char)>
     4d6:	210c      	movs	r1, #12
     4d8:	4824      	ldr	r0, [pc, #144]	; (56c <printResult(char const*, char const*, unsigned long, unsigned long, unsigned long, unsigned long, unsigned long, unsigned long, unsigned long, char const*) [clone .constprop.1]+0xf4>)
     4da:	f007 fb87 	bl	7bec <usb_serial_write>
     4de:	4629      	mov	r1, r5
     4e0:	2300      	movs	r3, #0
     4e2:	220a      	movs	r2, #10
     4e4:	4620      	mov	r0, r4
     4e6:	f005 ff07 	bl	62f8 <Print::printNumber(unsigned long, unsigned char, unsigned char)>
     4ea:	2109      	movs	r1, #9
     4ec:	4820      	ldr	r0, [pc, #128]	; (570 <printResult(char const*, char const*, unsigned long, unsigned long, unsigned long, unsigned long, unsigned long, unsigned long, unsigned long, char const*) [clone .constprop.1]+0xf8>)
     4ee:	f007 fb7d 	bl	7bec <usb_serial_write>
     4f2:	4651      	mov	r1, sl
     4f4:	2300      	movs	r3, #0
     4f6:	220a      	movs	r2, #10
     4f8:	4620      	mov	r0, r4
     4fa:	f005 fefd 	bl	62f8 <Print::printNumber(unsigned long, unsigned char, unsigned char)>
     4fe:	2108      	movs	r1, #8
     500:	481c      	ldr	r0, [pc, #112]	; (574 <printResult(char const*, char const*, unsigned long, unsigned long, unsigned long, unsigned long, unsigned long, unsigned long, unsigned long, char const*) [clone .constprop.1]+0xfc>)
     502:	f007 fb73 	bl	7bec <usb_serial_write>
     506:	4649      	mov	r1, r9
     508:	2300      	movs	r3, #0
     50a:	220a      	movs	r2, #10
     50c:	4620      	mov	r0, r4
     50e:	f005 fef3 	bl	62f8 <Print::printNumber(unsigned long, unsigned char, unsigned char)>
     512:	210c      	movs	r1, #12
     514:	4818      	ldr	r0, [pc, #96]	; (578 <printResult(char const*, char const*, unsigned long, unsigned long, unsigned long, unsigned long, unsigned long, unsigned long, unsigned long, char const*) [clone .constprop.1]+0x100>)
     516:	f007 fb69 	bl	7bec <usb_serial_write>
     51a:	2300      	movs	r3, #0
     51c:	4641      	mov	r1, r8
     51e:	220a      	movs	r2, #10
     520:	4620      	mov	r0, r4
     522:	f005 fee9 	bl	62f8 <Print::printNumber(unsigned long, unsigned char, unsigned char)>
     526:	2107      	movs	r1, #7
     528:	4814      	ldr	r0, [pc, #80]	; (57c <printResult(char const*, char const*, unsigned long, unsigned long, unsigned long, unsigned long, unsigned long, unsigned long, unsigned long, char const*) [clone .constprop.1]+0x104>)
     52a:	f007 fb5f 	bl	7bec <usb_serial_write>
     52e:	2300      	movs	r3, #0
     530:	220a      	movs	r2, #10
     532:	4639      	mov	r1, r7
     534:	4620      	mov	r0, r4
     536:	f005 fedf 	bl	62f8 <Print::printNumber(unsigned long, unsigned char, unsigned char)>
     53a:	210c      	movs	r1, #12
     53c:	4810      	ldr	r0, [pc, #64]	; (580 <printResult(char const*, char const*, unsigned long, unsigned long, unsigned long, unsigned long, unsigned long, unsigned long, unsigned long, char const*) [clone .constprop.1]+0x108>)
     53e:	f007 fb55 	bl	7bec <usb_serial_write>
     542:	2300      	movs	r3, #0
     544:	2210      	movs	r2, #16
     546:	4631      	mov	r1, r6
     548:	4620      	mov	r0, r4
     54a:	f005 fed5 	bl	62f8 <Print::printNumber(unsigned long, unsigned char, unsigned char)>
     54e:	4620      	mov	r0, r4
     550:	b003      	add	sp, #12
     552:	e8bd 4ff0 	ldmia.w	sp!, {r4, r5, r6, r7, r8, r9, sl, fp, lr}
     556:	f005 beb3 	b.w	62c0 <Print::println()>
     55a:	bf00      	nop
     55c:	20000424 	.word	0x20000424
     560:	2000042c 	.word	0x2000042c
     564:	20000ca0 	.word	0x20000ca0
     568:	20000438 	.word	0x20000438
     56c:	20000444 	.word	0x20000444
     570:	20000454 	.word	0x20000454
     574:	20000460 	.word	0x20000460
     578:	2000046c 	.word	0x2000046c
     57c:	2000047c 	.word	0x2000047c
     580:	20000484 	.word	0x20000484

00000584 <void runBilinear<BilinearTwoStage>(char const*) [clone .constprop.0]>:
     584:	e92d 4ff0 	stmdb	sp!, {r4, r5, r6, r7, r8, r9, sl, fp, lr}
     588:	4bc7      	ldr	r3, [pc, #796]	; (8a8 <void runBilinear<BilinearTwoStage>(char const*) [clone .constprop.0]+0x324>)
     58a:	b095      	sub	sp, #84	; 0x54
     58c:	4ac7      	ldr	r2, [pc, #796]	; (8ac <void runBilinear<BilinearTwoStage>(char const*) [clone .constprop.0]+0x328>)
     58e:	9313      	str	r3, [sp, #76]	; 0x4c
     590:	49c7      	ldr	r1, [pc, #796]	; (8b0 <void runBilinear<BilinearTwoStage>(char const*) [clone .constprop.0]+0x32c>)
     592:	9212      	str	r2, [sp, #72]	; 0x48
     594:	9109      	str	r1, [sp, #36]	; 0x24
     596:	e9cd 2307 	strd	r2, r3, [sp, #28]
     59a:	4bc6      	ldr	r3, [pc, #792]	; (8b4 <void runBilinear<BilinearTwoStage>(char const*) [clone .constprop.0]+0x330>)
     59c:	930a      	str	r3, [sp, #40]	; 0x28
     59e:	4bc6      	ldr	r3, [pc, #792]	; (8b8 <void runBilinear<BilinearTwoStage>(char const*) [clone .constprop.0]+0x334>)
     5a0:	930b      	str	r3, [sp, #44]	; 0x2c
     5a2:	4bc6      	ldr	r3, [pc, #792]	; (8bc <void runBilinear<BilinearTwoStage>(char const*) [clone .constprop.0]+0x338>)
     5a4:	930c      	str	r3, [sp, #48]	; 0x30
     5a6:	4bc6      	ldr	r3, [pc, #792]	; (8c0 <void runBilinear<BilinearTwoStage>(char const*) [clone .constprop.0]+0x33c>)
     5a8:	930d      	str	r3, [sp, #52]	; 0x34
     5aa:	4bc6      	ldr	r3, [pc, #792]	; (8c4 <void runBilinear<BilinearTwoStage>(char const*) [clone .constprop.0]+0x340>)
     5ac:	9306      	str	r3, [sp, #24]
     5ae:	9b0a      	ldr	r3, [sp, #40]	; 0x28
     5b0:	9a0c      	ldr	r2, [sp, #48]	; 0x30
     5b2:	ecb3 7a01 	vldmia	r3!, {s14}
     5b6:	9906      	ldr	r1, [sp, #24]
     5b8:	930a      	str	r3, [sp, #40]	; 0x28
     5ba:	eef0 6a47 	vmov.f32	s13, s14
     5be:	9b09      	ldr	r3, [sp, #36]	; 0x24
     5c0:	f831 8f02 	ldrh.w	r8, [r1, #2]!
     5c4:	ecf3 7a01 	vldmia	r3!, {s15}
     5c8:	eefe 6acc 	vcvt.s32.f32	s13, s13, #8
     5cc:	9106      	str	r1, [sp, #24]
     5ce:	9309      	str	r3, [sp, #36]	; 0x24
     5d0:	eeb0 7a67 	vmov.f32	s14, s15
     5d4:	9b0b      	ldr	r3, [sp, #44]	; 0x2c
     5d6:	ee16 6a90 	vmov	r6, s13
     5da:	f833 7f02 	ldrh.w	r7, [r3, #2]!
     5de:	f5c6 7e80 	rsb	lr, r6, #256	; 0x100
     5e2:	eebe 7acc 	vcvt.s32.f32	s14, s14, #8
     5e6:	930b      	str	r3, [sp, #44]	; 0x2c
     5e8:	f3c7 1045 	ubfx	r0, r7, #5, #6
     5ec:	9b0d      	ldr	r3, [sp, #52]	; 0x34
     5ee:	f3c7 1a45 	ubfx	sl, r7, #5, #6
     5f2:	fb06 f000 	mul.w	r0, r6, r0
     5f6:	ee17 5a10 	vmov	r5, s14
     5fa:	f833 4f02 	ldrh.w	r4, [r3, #2]!
     5fe:	fb05 fa0a 	mul.w	sl, r5, sl
     602:	930d      	str	r3, [sp, #52]	; 0x34
     604:	ea4f 2cd4 	mov.w	ip, r4, lsr #11
     608:	f832 3f02 	ldrh.w	r3, [r2, #2]!
     60c:	f3c4 1945 	ubfx	r9, r4, #5, #6
     610:	fb06 fc0c 	mul.w	ip, r6, ip
     614:	f3c3 1b45 	ubfx	fp, r3, #5, #6
     618:	920c      	str	r2, [sp, #48]	; 0x30
     61a:	0afa      	lsrs	r2, r7, #11
     61c:	fb06 f909 	mul.w	r9, r6, r9
     620:	0ad9      	lsrs	r1, r3, #11
     622:	fb0e 000b 	mla	r0, lr, fp, r0
     626:	fb06 f202 	mul.w	r2, r6, r2
     62a:	ea4f 2bd8 	mov.w	fp, r8, lsr #11
     62e:	1200      	asrs	r0, r0, #8
     630:	fb0e 2101 	mla	r1, lr, r1, r2
     634:	f007 021f 	and.w	r2, r7, #31
     638:	fb0e cc0b 	mla	ip, lr, fp, ip
     63c:	fb05 f202 	mul.w	r2, r5, r2
     640:	1209      	asrs	r1, r1, #8
     642:	ea4f 2b2c 	mov.w	fp, ip, asr #8
     646:	f007 0c1f 	and.w	ip, r7, #31
     64a:	9210      	str	r2, [sp, #64]	; 0x40
     64c:	0aff      	lsrs	r7, r7, #11
     64e:	fb06 f20c 	mul.w	r2, r6, ip
     652:	f5c5 7c80 	rsb	ip, r5, #256	; 0x100
     656:	fb05 f101 	mul.w	r1, r5, r1
     65a:	9211      	str	r2, [sp, #68]	; 0x44
     65c:	fb0c 110b 	mla	r1, ip, fp, r1
     660:	f3c3 1b45 	ubfx	fp, r3, #5, #6
     664:	fb05 f000 	mul.w	r0, r5, r0
     668:	fb05 f20b 	mul.w	r2, r5, fp
     66c:	f3c4 1b45 	ubfx	fp, r4, #5, #6
     670:	f3c1 2104 	ubfx	r1, r1, #8, #5
     674:	fb05 f707 	mul.w	r7, r5, r7
     678:	fb0c aa0b 	mla	sl, ip, fp, sl
     67c:	920e      	str	r2, [sp, #56]	; 0x38
     67e:	02c9      	lsls	r1, r1, #11
     680:	fb06 fb0a 	mul.w	fp, r6, sl
     684:	f003 0a1f 	and.w	sl, r3, #31
     688:	9a10      	ldr	r2, [sp, #64]	; 0x40
     68a:	fb05 fa0a 	mul.w	sl, r5, sl
     68e:	f8cd a03c 	str.w	sl, [sp, #60]	; 0x3c
     692:	f004 0a1f 	and.w	sl, r4, #31
     696:	fb0c 220a 	mla	r2, ip, sl, r2
     69a:	f3c8 1a45 	ubfx	sl, r8, #5, #6
     69e:	fb0e 990a 	mla	r9, lr, sl, r9
     6a2:	fb06 f202 	mul.w	r2, r6, r2
     6a6:	ea4f 2929 	mov.w	r9, r9, asr #8
     6aa:	9210      	str	r2, [sp, #64]	; 0x40
     6ac:	fb0c 0009 	mla	r0, ip, r9, r0
     6b0:	9a0f      	ldr	r2, [sp, #60]	; 0x3c
     6b2:	f3c0 2005 	ubfx	r0, r0, #8, #6
     6b6:	ea41 1040 	orr.w	r0, r1, r0, lsl #5
     6ba:	f004 011f 	and.w	r1, r4, #31
     6be:	0ae4      	lsrs	r4, r4, #11
     6c0:	fb06 f101 	mul.w	r1, r6, r1
     6c4:	fb0c 7404 	mla	r4, ip, r4, r7
     6c8:	9f11      	ldr	r7, [sp, #68]	; 0x44
     6ca:	fb06 f404 	mul.w	r4, r6, r4
     6ce:	f003 061f 	and.w	r6, r3, #31
     6d2:	0adb      	lsrs	r3, r3, #11
     6d4:	fb0e 7606 	mla	r6, lr, r6, r7
     6d8:	9f0e      	ldr	r7, [sp, #56]	; 0x38
     6da:	fb05 f303 	mul.w	r3, r5, r3
     6de:	1236      	asrs	r6, r6, #8
     6e0:	fb05 f606 	mul.w	r6, r5, r6
     6e4:	fb0c 750a 	mla	r5, ip, sl, r7
     6e8:	f008 071f 	and.w	r7, r8, #31
     6ec:	fb0c 2707 	mla	r7, ip, r7, r2
     6f0:	9a10      	ldr	r2, [sp, #64]	; 0x40
     6f2:	fb0e b505 	mla	r5, lr, r5, fp
     6f6:	fb0e 2207 	mla	r2, lr, r7, r2
     6fa:	f3c5 4505 	ubfx	r5, r5, #16, #6
     6fe:	f3c2 4204 	ubfx	r2, r2, #16, #5
     702:	ea42 1245 	orr.w	r2, r2, r5, lsl #5
     706:	f008 051f 	and.w	r5, r8, #31
     70a:	ea4f 28d8 	mov.w	r8, r8, lsr #11
     70e:	fb0e 1505 	mla	r5, lr, r5, r1
     712:	fb0c 3308 	mla	r3, ip, r8, r3
     716:	122d      	asrs	r5, r5, #8
     718:	fb0e 4303 	mla	r3, lr, r3, r4
     71c:	fb0c 6605 	mla	r6, ip, r5, r6
     720:	141b      	asrs	r3, r3, #16
     722:	ea42 22c3 	orr.w	r2, r2, r3, lsl #11
     726:	9b08      	ldr	r3, [sp, #32]
     728:	f823 2f02 	strh.w	r2, [r3, #2]!
     72c:	9308      	str	r3, [sp, #32]
     72e:	f3c6 2304 	ubfx	r3, r6, #8, #5
     732:	4318      	orrs	r0, r3
     734:	9b07      	ldr	r3, [sp, #28]
     736:	f823 0f02 	strh.w	r0, [r3, #2]!
     73a:	9906      	ldr	r1, [sp, #24]
     73c:	9307      	str	r3, [sp, #28]
     73e:	4b62      	ldr	r3, [pc, #392]	; (8c8 <void runBilinear<BilinearTwoStage>(char const*) [clone .constprop.0]+0x344>)
     740:	428b      	cmp	r3, r1
     742:	f47f af34 	bne.w	5ae <void runBilinear<BilinearTwoStage>(char const*) [clone .constprop.0]+0x2a>
     746:	4a61      	ldr	r2, [pc, #388]	; (8cc <void runBilinear<BilinearTwoStage>(char const*) [clone .constprop.0]+0x348>)
     748:	2000      	movs	r0, #0
     74a:	9b12      	ldr	r3, [sp, #72]	; 0x48
     74c:	9913      	ldr	r1, [sp, #76]	; 0x4c
     74e:	f831 4f02 	ldrh.w	r4, [r1, #2]!
     752:	f833 5f02 	ldrh.w	r5, [r3, #2]!
     756:	42a5      	cmp	r5, r4
     758:	bf18      	it	ne
     75a:	3001      	addne	r0, #1
     75c:	428a      	cmp	r2, r1
     75e:	d1f6      	bne.n	74e <void runBilinear<BilinearTwoStage>(char const*) [clone .constprop.0]+0x1ca>
     760:	4b5b      	ldr	r3, [pc, #364]	; (8d0 <void runBilinear<BilinearTwoStage>(char const*) [clone .constprop.0]+0x34c>)
     762:	2400      	movs	r4, #0
     764:	900a      	str	r0, [sp, #40]	; 0x28
     766:	685b      	ldr	r3, [r3, #4]
     768:	4627      	mov	r7, r4
     76a:	930b      	str	r3, [sp, #44]	; 0x2c
     76c:	f005 fe6c 	bl	6448 <micros>
     770:	2380      	movs	r3, #128	; 0x80
     772:	900c      	str	r0, [sp, #48]	; 0x30
     774:	9309      	str	r3, [sp, #36]	; 0x24
     776:	4b4e      	ldr	r3, [pc, #312]	; (8b0 <void runBilinear<BilinearTwoStage>(char const*) [clone .constprop.0]+0x32c>)
     778:	f8df a140 	ldr.w	sl, [pc, #320]	; 8bc <void runBilinear<BilinearTwoStage>(char const*) [clone .constprop.0]+0x338>
     77c:	9307      	str	r3, [sp, #28]
     77e:	4b4d      	ldr	r3, [pc, #308]	; (8b4 <void runBilinear<BilinearTwoStage>(char const*) [clone .constprop.0]+0x330>)
     780:	f8df 913c 	ldr.w	r9, [pc, #316]	; 8c0 <void runBilinear<BilinearTwoStage>(char const*) [clone .constprop.0]+0x33c>
     784:	9306      	str	r3, [sp, #24]
     786:	f8df 813c 	ldr.w	r8, [pc, #316]	; 8c4 <void runBilinear<BilinearTwoStage>(char const*) [clone .constprop.0]+0x340>
     78a:	4b4b      	ldr	r3, [pc, #300]	; (8b8 <void runBilinear<BilinearTwoStage>(char const*) [clone .constprop.0]+0x334>)
     78c:	9308      	str	r3, [sp, #32]
     78e:	9b06      	ldr	r3, [sp, #24]
     790:	eb07 1747 	add.w	r7, r7, r7, lsl #5
     794:	f83a 2f02 	ldrh.w	r2, [sl, #2]!
     798:	ecb3 7a01 	vldmia	r3!, {s14}
     79c:	f839 1f02 	ldrh.w	r1, [r9, #2]!
     7a0:	ea4f 2ed2 	mov.w	lr, r2, lsr #11
     7a4:	9306      	str	r3, [sp, #24]
     7a6:	eef0 6a47 	vmov.f32	s13, s14
     7aa:	9b07      	ldr	r3, [sp, #28]
     7ac:	0acd      	lsrs	r5, r1, #11
     7ae:	f838 0f02 	ldrh.w	r0, [r8, #2]!
     7b2:	ecf3 7a01 	vldmia	r3!, {s15}
     7b6:	eefe 6acc 	vcvt.s32.f32	s13, s13, #8
     7ba:	9307      	str	r3, [sp, #28]
     7bc:	eeb0 7a67 	vmov.f32	s14, s15
     7c0:	9b08      	ldr	r3, [sp, #32]
     7c2:	ee16 4a90 	vmov	r4, s13
     7c6:	f833 6f02 	ldrh.w	r6, [r3, #2]!
     7ca:	f5c4 7c80 	rsb	ip, r4, #256	; 0x100
     7ce:	fb04 f505 	mul.w	r5, r4, r5
     7d2:	eebe 7acc 	vcvt.s32.f32	s14, s14, #8
     7d6:	9308      	str	r3, [sp, #32]
     7d8:	0af3      	lsrs	r3, r6, #11
     7da:	f3c6 1b45 	ubfx	fp, r6, #5, #6
     7de:	f006 061f 	and.w	r6, r6, #31
     7e2:	fb04 f303 	mul.w	r3, r4, r3
     7e6:	fb04 f606 	mul.w	r6, r4, r6
     7ea:	fb0c 330e 	mla	r3, ip, lr, r3
     7ee:	f3c1 1e45 	ubfx	lr, r1, #5, #6
     7f2:	f001 011f 	and.w	r1, r1, #31
     7f6:	fb04 fb0b 	mul.w	fp, r4, fp
     7fa:	fb04 fe0e 	mul.w	lr, r4, lr
     7fe:	121b      	asrs	r3, r3, #8
     800:	fb01 f404 	mul.w	r4, r1, r4
     804:	f3c2 1145 	ubfx	r1, r2, #5, #6
     808:	f002 021f 	and.w	r2, r2, #31
     80c:	fb0c b101 	mla	r1, ip, r1, fp
     810:	fb0c 6202 	mla	r2, ip, r2, r6
     814:	0ac6      	lsrs	r6, r0, #11
     816:	1209      	asrs	r1, r1, #8
     818:	fb0c 5506 	mla	r5, ip, r6, r5
     81c:	1212      	asrs	r2, r2, #8
     81e:	ee17 6a10 	vmov	r6, s14
     822:	122d      	asrs	r5, r5, #8
     824:	fb06 f303 	mul.w	r3, r6, r3
     828:	fb06 f101 	mul.w	r1, r6, r1
     82c:	fb06 f202 	mul.w	r2, r6, r2
     830:	f5c6 7680 	rsb	r6, r6, #256	; 0x100
     834:	fb06 3305 	mla	r3, r6, r5, r3
     838:	f3c0 1545 	ubfx	r5, r0, #5, #6
     83c:	f000 001f 	and.w	r0, r0, #31
     840:	fb0c e505 	mla	r5, ip, r5, lr
     844:	f3c3 2304 	ubfx	r3, r3, #8, #5
     848:	fb0c 4000 	mla	r0, ip, r0, r4
     84c:	122d      	asrs	r5, r5, #8
     84e:	1200      	asrs	r0, r0, #8
     850:	fb06 1105 	mla	r1, r6, r5, r1
     854:	02db      	lsls	r3, r3, #11
     856:	fb06 2200 	mla	r2, r6, r0, r2
     85a:	f3c1 2105 	ubfx	r1, r1, #8, #6
     85e:	f3c2 2204 	ubfx	r2, r2, #8, #5
     862:	ea43 1341 	orr.w	r3, r3, r1, lsl #5
     866:	4313      	orrs	r3, r2
     868:	405f      	eors	r7, r3
     86a:	4b17      	ldr	r3, [pc, #92]	; (8c8 <void runBilinear<BilinearTwoStage>(char const*) [clone .constprop.0]+0x344>)
     86c:	4598      	cmp	r8, r3
     86e:	d18e      	bne.n	78e <void runBilinear<BilinearTwoStage>(char const*) [clone .constprop.0]+0x20a>
     870:	9b09      	ldr	r3, [sp, #36]	; 0x24
     872:	3b01      	subs	r3, #1
     874:	9309      	str	r3, [sp, #36]	; 0x24
     876:	f47f af7e 	bne.w	776 <void runBilinear<BilinearTwoStage>(char const*) [clone .constprop.0]+0x1f2>
     87a:	f005 fde5 	bl	6448 <micros>
     87e:	9b0c      	ldr	r3, [sp, #48]	; 0x30
     880:	4a13      	ldr	r2, [pc, #76]	; (8d0 <void runBilinear<BilinearTwoStage>(char const*) [clone .constprop.0]+0x34c>)
     882:	463c      	mov	r4, r7
     884:	1ac0      	subs	r0, r0, r3
     886:	4b13      	ldr	r3, [pc, #76]	; (8d4 <void runBilinear<BilinearTwoStage>(char const*) [clone .constprop.0]+0x350>)
     888:	6855      	ldr	r5, [r2, #4]
     88a:	9a0b      	ldr	r2, [sp, #44]	; 0x2c
     88c:	4e12      	ldr	r6, [pc, #72]	; (8d8 <void runBilinear<BilinearTwoStage>(char const*) [clone .constprop.0]+0x354>)
     88e:	1aad      	subs	r5, r5, r2
     890:	681a      	ldr	r2, [r3, #0]
     892:	4912      	ldr	r1, [pc, #72]	; (8dc <void runBilinear<BilinearTwoStage>(char const*) [clone .constprop.0]+0x358>)
     894:	4054      	eors	r4, r2
     896:	601c      	str	r4, [r3, #0]
     898:	9b0a      	ldr	r3, [sp, #40]	; 0x28
     89a:	4c11      	ldr	r4, [pc, #68]	; (8e0 <void runBilinear<BilinearTwoStage>(char const*) [clone .constprop.0]+0x35c>)
     89c:	fab3 f283 	clz	r2, r3
     8a0:	9b12      	ldr	r3, [sp, #72]	; 0x48
     8a2:	0952      	lsrs	r2, r2, #5
     8a4:	e01e      	b.n	8e4 <void runBilinear<BilinearTwoStage>(char const*) [clone .constprop.0]+0x360>
     8a6:	bf00      	nop
     8a8:	2000651e 	.word	0x2000651e
     8ac:	20006116 	.word	0x20006116
     8b0:	200030b8 	.word	0x200030b8
     8b4:	200028a8 	.word	0x200028a8
     8b8:	2000249e 	.word	0x2000249e
     8bc:	20002096 	.word	0x20002096
     8c0:	20001c8e 	.word	0x20001c8e
     8c4:	20001886 	.word	0x20001886
     8c8:	20001c86 	.word	0x20001c86
     8cc:	2000691e 	.word	0x2000691e
     8d0:	e0001000 	.word	0xe0001000
     8d4:	20007138 	.word	0x20007138
     8d8:	20006516 	.word	0x20006516
     8dc:	811c9dc5 	.word	0x811c9dc5
     8e0:	01000193 	.word	0x01000193
     8e4:	f833 7f02 	ldrh.w	r7, [r3, #2]!
     8e8:	4079      	eors	r1, r7
     8ea:	429e      	cmp	r6, r3
     8ec:	fb04 f101 	mul.w	r1, r4, r1
     8f0:	d1f8      	bne.n	8e4 <void runBilinear<BilinearTwoStage>(char const*) [clone .constprop.0]+0x360>
     8f2:	f44f 7400 	mov.w	r4, #512	; 0x200
     8f6:	9104      	str	r1, [sp, #16]
     8f8:	9000      	str	r0, [sp, #0]
     8fa:	9403      	str	r4, [sp, #12]
     8fc:	2480      	movs	r4, #128	; 0x80
     8fe:	9b0a      	ldr	r3, [sp, #40]	; 0x28
     900:	4904      	ldr	r1, [pc, #16]	; (914 <void runBilinear<BilinearTwoStage>(char const*) [clone .constprop.0]+0x390>)
     902:	4805      	ldr	r0, [pc, #20]	; (918 <void runBilinear<BilinearTwoStage>(char const*) [clone .constprop.0]+0x394>)
     904:	9501      	str	r5, [sp, #4]
     906:	9402      	str	r4, [sp, #8]
     908:	f7ff fdb6 	bl	478 <printResult(char const*, char const*, unsigned long, unsigned long, unsigned long, unsigned long, unsigned long, unsigned long, unsigned long, char const*) [clone .constprop.1]>
     90c:	b015      	add	sp, #84	; 0x54
     90e:	e8bd 8ff0 	ldmia.w	sp!, {r4, r5, r6, r7, r8, r9, sl, fp, pc}
     912:	bf00      	nop
     914:	200003c8 	.word	0x200003c8
     918:	200003dc 	.word	0x200003dc

0000091c <void runBilinear<BilinearScalar>(char const*) [clone .constprop.0]>:
     91c:	e92d 4ff0 	stmdb	sp!, {r4, r5, r6, r7, r8, r9, sl, fp, lr}
     920:	4bc7      	ldr	r3, [pc, #796]	; (c40 <void runBilinear<BilinearScalar>(char const*) [clone .constprop.0]+0x324>)
     922:	b097      	sub	sp, #92	; 0x5c
     924:	4ac7      	ldr	r2, [pc, #796]	; (c44 <void runBilinear<BilinearScalar>(char const*) [clone .constprop.0]+0x328>)
     926:	9315      	str	r3, [sp, #84]	; 0x54
     928:	49c7      	ldr	r1, [pc, #796]	; (c48 <void runBilinear<BilinearScalar>(char const*) [clone .constprop.0]+0x32c>)
     92a:	9214      	str	r2, [sp, #80]	; 0x50
     92c:	910a      	str	r1, [sp, #40]	; 0x28
     92e:	e9cd 2308 	strd	r2, r3, [sp, #32]
     932:	4bc6      	ldr	r3, [pc, #792]	; (c4c <void runBilinear<BilinearScalar>(char const*) [clone .constprop.0]+0x330>)
     934:	930b      	str	r3, [sp, #44]	; 0x2c
     936:	4bc6      	ldr	r3, [pc, #792]	; (c50 <void runBilinear<BilinearScalar>(char const*) [clone .constprop.0]+0x334>)
     938:	930c      	str	r3, [sp, #48]	; 0x30
     93a:	4bc6      	ldr	r3, [pc, #792]	; (c54 <void runBilinear<BilinearScalar>(char const*) [clone .constprop.0]+0x338>)
     93c:	930d      	str	r3, [sp, #52]	; 0x34
     93e:	4bc6      	ldr	r3, [pc, #792]	; (c58 <void runBilinear<BilinearScalar>(char const*) [clone .constprop.0]+0x33c>)
     940:	930e      	str	r3, [sp, #56]	; 0x38
     942:	4bc6      	ldr	r3, [pc, #792]	; (c5c <void runBilinear<BilinearScalar>(char const*) [clone .constprop.0]+0x340>)
     944:	9307      	str	r3, [sp, #28]
     946:	9b0a      	ldr	r3, [sp, #40]	; 0x28
     948:	9a0e      	ldr	r2, [sp, #56]	; 0x38
     94a:	ecb3 7a01 	vldmia	r3!, {s14}
     94e:	930a      	str	r3, [sp, #40]	; 0x28
     950:	eef0 6a47 	vmov.f32	s13, s14
     954:	9b0b      	ldr	r3, [sp, #44]	; 0x2c
     956:	ecf3 7a01 	vldmia	r3!, {s15}
     95a:	eefe 6acc 	vcvt.s32.f32	s13, s13, #8
     95e:	930b      	str	r3, [sp, #44]	; 0x2c
     960:	eeb0 7a67 	vmov.f32	s14, s15
     964:	9b0c      	ldr	r3, [sp, #48]	; 0x30
     966:	ee16 1a90 	vmov	r1, s13
     96a:	f833 ef02 	ldrh.w	lr, [r3, #2]!
     96e:	f5c1 7480 	rsb	r4, r1, #256	; 0x100
     972:	eebe 7acc 	vcvt.s32.f32	s14, s14, #8
     976:	930c      	str	r3, [sp, #48]	; 0x30
     978:	ea4f 27de 	mov.w	r7, lr, lsr #11
     97c:	f832 3f02 	ldrh.w	r3, [r2, #2]!
     980:	f3ce 1645 	ubfx	r6, lr, #5, #6
     984:	fb01 f707 	mul.w	r7, r1, r7
     988:	920e      	str	r2, [sp, #56]	; 0x38
     98a:	f003 0b1f 	and.w	fp, r3, #31
     98e:	9a0d      	ldr	r2, [sp, #52]	; 0x34
     990:	0add      	lsrs	r5, r3, #11
     992:	fb01 f606 	mul.w	r6, r1, r6
     996:	f832 0f02 	ldrh.w	r0, [r2, #2]!
     99a:	fb04 7505 	mla	r5, r4, r5, r7
     99e:	ee17 7a10 	vmov	r7, s14
     9a2:	920d      	str	r2, [sp, #52]	; 0x34
     9a4:	f3c0 1845 	ubfx	r8, r0, #5, #6
     9a8:	9a07      	ldr	r2, [sp, #28]
     9aa:	fb07 f505 	mul.w	r5, r7, r5
     9ae:	ea4f 2ad0 	mov.w	sl, r0, lsr #11
     9b2:	f832 cf02 	ldrh.w	ip, [r2, #2]!
     9b6:	fb01 fa0a 	mul.w	sl, r1, sl
     9ba:	9207      	str	r2, [sp, #28]
     9bc:	f00e 021f 	and.w	r2, lr, #31
     9c0:	9512      	str	r5, [sp, #72]	; 0x48
     9c2:	ea4f 29dc 	mov.w	r9, ip, lsr #11
     9c6:	fb01 f202 	mul.w	r2, r1, r2
     9ca:	fb01 f508 	mul.w	r5, r1, r8
     9ce:	f3c3 1845 	ubfx	r8, r3, #5, #6
     9d2:	fb04 220b 	mla	r2, r4, fp, r2
     9d6:	ea4f 2bde 	mov.w	fp, lr, lsr #11
     9da:	f00e 0e1f 	and.w	lr, lr, #31
     9de:	fb04 a909 	mla	r9, r4, r9, sl
     9e2:	950f      	str	r5, [sp, #60]	; 0x3c
     9e4:	fb01 fe0e 	mul.w	lr, r1, lr
     9e8:	9d12      	ldr	r5, [sp, #72]	; 0x48
     9ea:	fb04 6608 	mla	r6, r4, r8, r6
     9ee:	f000 081f 	and.w	r8, r0, #31
     9f2:	f8cd e04c 	str.w	lr, [sp, #76]	; 0x4c
     9f6:	f3c0 1e45 	ubfx	lr, r0, #5, #6
     9fa:	fb07 f606 	mul.w	r6, r7, r6
     9fe:	fb01 fe0e 	mul.w	lr, r1, lr
     a02:	9611      	str	r6, [sp, #68]	; 0x44
     a04:	f8cd e040 	str.w	lr, [sp, #64]	; 0x40
     a08:	f5c7 7e80 	rsb	lr, r7, #256	; 0x100
     a0c:	fb01 f808 	mul.w	r8, r1, r8
     a10:	fb0e 5509 	mla	r5, lr, r9, r5
     a14:	f3cc 1945 	ubfx	r9, ip, #5, #6
     a18:	fb07 f202 	mul.w	r2, r7, r2
     a1c:	f3c5 4504 	ubfx	r5, r5, #16, #5
     a20:	fb01 fb0b 	mul.w	fp, r1, fp
     a24:	ea4f 2ac5 	mov.w	sl, r5, lsl #11
     a28:	9d0f      	ldr	r5, [sp, #60]	; 0x3c
     a2a:	fb04 5909 	mla	r9, r4, r9, r5
     a2e:	9d13      	ldr	r5, [sp, #76]	; 0x4c
     a30:	fb0e 6609 	mla	r6, lr, r9, r6
     a34:	f00c 091f 	and.w	r9, ip, #31
     a38:	fb04 8809 	mla	r8, r4, r9, r8
     a3c:	f3c6 4605 	ubfx	r6, r6, #16, #6
     a40:	fb0e 2208 	mla	r2, lr, r8, r2
     a44:	f3c2 4204 	ubfx	r2, r2, #16, #5
     a48:	ea42 1246 	orr.w	r2, r2, r6, lsl #5
     a4c:	0ac6      	lsrs	r6, r0, #11
     a4e:	fb01 f606 	mul.w	r6, r1, r6
     a52:	0ad9      	lsrs	r1, r3, #11
     a54:	f003 031f 	and.w	r3, r3, #31
     a58:	fb04 b101 	mla	r1, r4, r1, fp
     a5c:	fb04 5303 	mla	r3, r4, r3, r5
     a60:	9d10      	ldr	r5, [sp, #64]	; 0x40
     a62:	fb07 f101 	mul.w	r1, r7, r1
     a66:	fb07 f303 	mul.w	r3, r7, r3
     a6a:	f3cc 1745 	ubfx	r7, ip, #5, #6
     a6e:	fb04 5707 	mla	r7, r4, r7, r5
     a72:	9d11      	ldr	r5, [sp, #68]	; 0x44
     a74:	fb0e 3308 	mla	r3, lr, r8, r3
     a78:	fb0e 5707 	mla	r7, lr, r7, r5
     a7c:	f3c3 4304 	ubfx	r3, r3, #16, #5
     a80:	f3c7 4705 	ubfx	r7, r7, #16, #6
     a84:	ea4a 1547 	orr.w	r5, sl, r7, lsl #5
     a88:	ea4f 27dc 	mov.w	r7, ip, lsr #11
     a8c:	431d      	orrs	r5, r3
     a8e:	9b08      	ldr	r3, [sp, #32]
     a90:	fb04 6607 	mla	r6, r4, r7, r6
     a94:	fb0e 1606 	mla	r6, lr, r6, r1
     a98:	9909      	ldr	r1, [sp, #36]	; 0x24
     a9a:	1436      	asrs	r6, r6, #16
     a9c:	ea42 22c6 	orr.w	r2, r2, r6, lsl #11
     aa0:	f821 2f02 	strh.w	r2, [r1, #2]!
     aa4:	9109      	str	r1, [sp, #36]	; 0x24
     aa6:	f823 5f02 	strh.w	r5, [r3, #2]!
     aaa:	9a07      	ldr	r2, [sp, #28]
     aac:	9308      	str	r3, [sp, #32]
     aae:	4b6c      	ldr	r3, [pc, #432]	; (c60 <void runBilinear<BilinearScalar>(char const*) [clone .constprop.0]+0x344>)
     ab0:	4293      	cmp	r3, r2
     ab2:	f47f af48 	bne.w	946 <void runBilinear<BilinearScalar>(char const*) [clone .constprop.0]+0x2a>
     ab6:	4a6b      	ldr	r2, [pc, #428]	; (c64 <void runBilinear<BilinearScalar>(char const*) [clone .constprop.0]+0x348>)
     ab8:	2000      	movs	r0, #0
     aba:	9b14      	ldr	r3, [sp, #80]	; 0x50
     abc:	9915      	ldr	r1, [sp, #84]	; 0x54
     abe:	f831 4f02 	ldrh.w	r4, [r1, #2]!
     ac2:	f833 5f02 	ldrh.w	r5, [r3, #2]!
     ac6:	42a5      	cmp	r5, r4
     ac8:	bf18      	it	ne
     aca:	3001      	addne	r0, #1
     acc:	428a      	cmp	r2, r1
     ace:	d1f6      	bne.n	abe <void runBilinear<BilinearScalar>(char const*) [clone .constprop.0]+0x1a2>
     ad0:	4b65      	ldr	r3, [pc, #404]	; (c68 <void runBilinear<BilinearScalar>(char const*) [clone .constprop.0]+0x34c>)
     ad2:	f04f 0b00 	mov.w	fp, #0
     ad6:	900c      	str	r0, [sp, #48]	; 0x30
     ad8:	685b      	ldr	r3, [r3, #4]
     ada:	930d      	str	r3, [sp, #52]	; 0x34
     adc:	f005 fcb4 	bl	6448 <micros>
     ae0:	2380      	movs	r3, #128	; 0x80
     ae2:	46de      	mov	lr, fp
     ae4:	900e      	str	r0, [sp, #56]	; 0x38
     ae6:	930b      	str	r3, [sp, #44]	; 0x2c
     ae8:	4b57      	ldr	r3, [pc, #348]	; (c48 <void runBilinear<BilinearScalar>(char const*) [clone .constprop.0]+0x32c>)
     aea:	f8df a168 	ldr.w	sl, [pc, #360]	; c54 <void runBilinear<BilinearScalar>(char const*) [clone .constprop.0]+0x338>
     aee:	9309      	str	r3, [sp, #36]	; 0x24
     af0:	4b56      	ldr	r3, [pc, #344]	; (c4c <void runBilinear<BilinearScalar>(char const*) [clone .constprop.0]+0x330>)
     af2:	f8df 9168 	ldr.w	r9, [pc, #360]	; c5c <void runBilinear<BilinearScalar>(char const*) [clone .constprop.0]+0x340>
     af6:	9307      	str	r3, [sp, #28]
     af8:	4b55      	ldr	r3, [pc, #340]	; (c50 <void runBilinear<BilinearScalar>(char const*) [clone .constprop.0]+0x334>)
     afa:	930a      	str	r3, [sp, #40]	; 0x28
     afc:	4b56      	ldr	r3, [pc, #344]	; (c58 <void runBilinear<BilinearScalar>(char const*) [clone .constprop.0]+0x33c>)
     afe:	9308      	str	r3, [sp, #32]
     b00:	9b09      	ldr	r3, [sp, #36]	; 0x24
     b02:	eb0e 1e4e 	add.w	lr, lr, lr, lsl #5
     b06:	f83a 4f02 	ldrh.w	r4, [sl, #2]!
     b0a:	ecb3 7a01 	vldmia	r3!, {s14}
     b0e:	ea4f 2cd4 	mov.w	ip, r4, lsr #11
     b12:	f3c4 1045 	ubfx	r0, r4, #5, #6
     b16:	9309      	str	r3, [sp, #36]	; 0x24
     b18:	eef0 6a47 	vmov.f32	s13, s14
     b1c:	9b07      	ldr	r3, [sp, #28]
     b1e:	f004 041f 	and.w	r4, r4, #31
     b22:	f839 7f02 	ldrh.w	r7, [r9, #2]!
     b26:	ecf3 7a01 	vldmia	r3!, {s15}
     b2a:	eefe 6acc 	vcvt.s32.f32	s13, s13, #8
     b2e:	9307      	str	r3, [sp, #28]
     b30:	eeb0 7a67 	vmov.f32	s14, s15
     b34:	9b0a      	ldr	r3, [sp, #40]	; 0x28
     b36:	ee16 ba90 	vmov	fp, s13
     b3a:	f833 5f02 	ldrh.w	r5, [r3, #2]!
     b3e:	eebe 7acc 	vcvt.s32.f32	s14, s14, #8
     b42:	f5cb 7680 	rsb	r6, fp, #256	; 0x100
     b46:	fb0b fc0c 	mul.w	ip, fp, ip
     b4a:	930a      	str	r3, [sp, #40]	; 0x28
     b4c:	0ae9      	lsrs	r1, r5, #11
     b4e:	9b08      	ldr	r3, [sp, #32]
     b50:	f3c5 1845 	ubfx	r8, r5, #5, #6
     b54:	f005 051f 	and.w	r5, r5, #31
     b58:	fb0b f101 	mul.w	r1, fp, r1
     b5c:	f833 2f02 	ldrh.w	r2, [r3, #2]!
     b60:	fb0b f808 	mul.w	r8, fp, r8
     b64:	fb0b f505 	mul.w	r5, fp, r5
     b68:	fb0b f000 	mul.w	r0, fp, r0
     b6c:	fb0b f404 	mul.w	r4, fp, r4
     b70:	f3c2 1b45 	ubfx	fp, r2, #5, #6
     b74:	9308      	str	r3, [sp, #32]
     b76:	0ad3      	lsrs	r3, r2, #11
     b78:	f002 021f 	and.w	r2, r2, #31
     b7c:	fb06 8b0b 	mla	fp, r6, fp, r8
     b80:	fb06 1303 	mla	r3, r6, r3, r1
     b84:	ee17 1a10 	vmov	r1, s14
     b88:	fb06 5202 	mla	r2, r6, r2, r5
     b8c:	0afd      	lsrs	r5, r7, #11
     b8e:	fb01 f303 	mul.w	r3, r1, r3
     b92:	fb01 fb0b 	mul.w	fp, r1, fp
     b96:	fb01 f202 	mul.w	r2, r1, r2
     b9a:	f5c1 7180 	rsb	r1, r1, #256	; 0x100
     b9e:	fb06 cc05 	mla	ip, r6, r5, ip
     ba2:	f3c7 1545 	ubfx	r5, r7, #5, #6
     ba6:	f007 071f 	and.w	r7, r7, #31
     baa:	fb01 330c 	mla	r3, r1, ip, r3
     bae:	fb06 0005 	mla	r0, r6, r5, r0
     bb2:	f3c3 4304 	ubfx	r3, r3, #16, #5
     bb6:	fb06 4407 	mla	r4, r6, r7, r4
     bba:	fb01 b000 	mla	r0, r1, r0, fp
     bbe:	02db      	lsls	r3, r3, #11
     bc0:	fb01 2204 	mla	r2, r1, r4, r2
     bc4:	f3c0 4005 	ubfx	r0, r0, #16, #6
     bc8:	f3c2 4204 	ubfx	r2, r2, #16, #5
     bcc:	ea43 1340 	orr.w	r3, r3, r0, lsl #5
     bd0:	4313      	orrs	r3, r2
     bd2:	ea83 0e0e 	eor.w	lr, r3, lr
     bd6:	4b22      	ldr	r3, [pc, #136]	; (c60 <void runBilinear<BilinearScalar>(char const*) [clone .constprop.0]+0x344>)
     bd8:	4599      	cmp	r9, r3
     bda:	d191      	bne.n	b00 <void runBilinear<BilinearScalar>(char const*) [clone .constprop.0]+0x1e4>
     bdc:	9b0b      	ldr	r3, [sp, #44]	; 0x2c
     bde:	3b01      	subs	r3, #1
     be0:	930b      	str	r3, [sp, #44]	; 0x2c
     be2:	d181      	bne.n	ae8 <void runBilinear<BilinearScalar>(char const*) [clone .constprop.0]+0x1cc>
     be4:	46f3      	mov	fp, lr
     be6:	f005 fc2f 	bl	6448 <micros>
     bea:	9b0e      	ldr	r3, [sp, #56]	; 0x38
     bec:	4a1f      	ldr	r2, [pc, #124]	; (c6c <void runBilinear<BilinearScalar>(char const*) [clone .constprop.0]+0x350>)
     bee:	1ac0      	subs	r0, r0, r3
     bf0:	4b1d      	ldr	r3, [pc, #116]	; (c68 <void runBilinear<BilinearScalar>(char const*) [clone .constprop.0]+0x34c>)
     bf2:	4e1f      	ldr	r6, [pc, #124]	; (c70 <void runBilinear<BilinearScalar>(char const*) [clone .constprop.0]+0x354>)
     bf4:	685c      	ldr	r4, [r3, #4]
     bf6:	9b0d      	ldr	r3, [sp, #52]	; 0x34
     bf8:	491e      	ldr	r1, [pc, #120]	; (c74 <void runBilinear<BilinearScalar>(char const*) [clone .constprop.0]+0x358>)
     bfa:	1ae4      	subs	r4, r4, r3
     bfc:	6813      	ldr	r3, [r2, #0]
     bfe:	4d1e      	ldr	r5, [pc, #120]	; (c78 <void runBilinear<BilinearScalar>(char const*) [clone .constprop.0]+0x35c>)
     c00:	ea8b 0303 	eor.w	r3, fp, r3
     c04:	6013      	str	r3, [r2, #0]
     c06:	9b0c      	ldr	r3, [sp, #48]	; 0x30
     c08:	fab3 f283 	clz	r2, r3
     c0c:	9b14      	ldr	r3, [sp, #80]	; 0x50
     c0e:	0952      	lsrs	r2, r2, #5
     c10:	f833 7f02 	ldrh.w	r7, [r3, #2]!
     c14:	4079      	eors	r1, r7
     c16:	429e      	cmp	r6, r3
     c18:	fb05 f101 	mul.w	r1, r5, r1
     c1c:	d1f8      	bne.n	c10 <void runBilinear<BilinearScalar>(char const*) [clone .constprop.0]+0x2f4>
     c1e:	9401      	str	r4, [sp, #4]
     c20:	f44f 7500 	mov.w	r5, #512	; 0x200
     c24:	2480      	movs	r4, #128	; 0x80
     c26:	9104      	str	r1, [sp, #16]
     c28:	9000      	str	r0, [sp, #0]
     c2a:	9b0c      	ldr	r3, [sp, #48]	; 0x30
     c2c:	4913      	ldr	r1, [pc, #76]	; (c7c <void runBilinear<BilinearScalar>(char const*) [clone .constprop.0]+0x360>)
     c2e:	4814      	ldr	r0, [pc, #80]	; (c80 <void runBilinear<BilinearScalar>(char const*) [clone .constprop.0]+0x364>)
     c30:	9503      	str	r5, [sp, #12]
     c32:	9402      	str	r4, [sp, #8]
     c34:	f7ff fc20 	bl	478 <printResult(char const*, char const*, unsigned long, unsigned long, unsigned long, unsigned long, unsigned long, unsigned long, unsigned long, char const*) [clone .constprop.1]>
     c38:	b017      	add	sp, #92	; 0x5c
     c3a:	e8bd 8ff0 	ldmia.w	sp!, {r4, r5, r6, r7, r8, r9, sl, fp, pc}
     c3e:	bf00      	nop
     c40:	2000651e 	.word	0x2000651e
     c44:	20006116 	.word	0x20006116
     c48:	200030b8 	.word	0x200030b8
     c4c:	200028a8 	.word	0x200028a8
     c50:	2000249e 	.word	0x2000249e
     c54:	20002096 	.word	0x20002096
     c58:	20001c8e 	.word	0x20001c8e
     c5c:	20001886 	.word	0x20001886
     c60:	20001c86 	.word	0x20001c86
     c64:	2000691e 	.word	0x2000691e
     c68:	e0001000 	.word	0xe0001000
     c6c:	20007138 	.word	0x20007138
     c70:	20006516 	.word	0x20006516
     c74:	811c9dc5 	.word	0x811c9dc5
     c78:	01000193 	.word	0x01000193
     c7c:	200003b8 	.word	0x200003b8
     c80:	200003dc 	.word	0x200003dc

00000c84 <printResult(char const*, char const*, unsigned long, unsigned long, unsigned long, unsigned long, unsigned long, unsigned long, unsigned long, char const*) [clone .constprop.0]>:
     c84:	e92d 4ff8 	stmdb	sp!, {r3, r4, r5, r6, r7, r8, r9, sl, fp, lr}
     c88:	4605      	mov	r5, r0
     c8a:	460c      	mov	r4, r1
     c8c:	4834      	ldr	r0, [pc, #208]	; (d60 <printResult(char const*, char const*, unsigned long, unsigned long, unsigned long, unsigned long, unsigned long, unsigned long, unsigned long, char const*) [clone .constprop.0]+0xdc>)
     c8e:	2107      	movs	r1, #7
     c90:	4693      	mov	fp, r2
     c92:	461e      	mov	r6, r3
     c94:	f8dd a028 	ldr.w	sl, [sp, #40]	; 0x28
     c98:	9f0d      	ldr	r7, [sp, #52]	; 0x34
     c9a:	e9dd 980b 	ldrd	r9, r8, [sp, #44]	; 0x2c
     c9e:	f006 ffa5 	bl	7bec <usb_serial_write>
     ca2:	4628      	mov	r0, r5
     ca4:	f008 fcec 	bl	9680 <strlen>
     ca8:	4601      	mov	r1, r0
     caa:	4628      	mov	r0, r5
     cac:	f006 ff9e 	bl	7bec <usb_serial_write>
     cb0:	2109      	movs	r1, #9
     cb2:	482c      	ldr	r0, [pc, #176]	; (d64 <printResult(char const*, char const*, unsigned long, unsigned long, unsigned long, unsigned long, unsigned long, unsigned long, unsigned long, char const*) [clone .constprop.0]+0xe0>)
     cb4:	f006 ff9a 	bl	7bec <usb_serial_write>
     cb8:	4620      	mov	r0, r4
     cba:	f008 fce1 	bl	9680 <strlen>
     cbe:	4601      	mov	r1, r0
     cc0:	4620      	mov	r0, r4
     cc2:	4c29      	ldr	r4, [pc, #164]	; (d68 <printResult(char const*, char const*, unsigned long, unsigned long, unsigned long, unsigned long, unsigned long, unsigned long, unsigned long, char const*) [clone .constprop.0]+0xe4>)
     cc4:	f006 ff92 	bl	7bec <usb_serial_write>
     cc8:	2109      	movs	r1, #9
     cca:	4828      	ldr	r0, [pc, #160]	; (d6c <printResult(char const*, char const*, unsigned long, unsigned long, unsigned long, unsigned long, unsigned long, unsigned long, unsigned long, char const*) [clone .constprop.0]+0xe8>)
     ccc:	f006 ff8e 	bl	7bec <usb_serial_write>
     cd0:	4659      	mov	r1, fp
     cd2:	2300      	movs	r3, #0
     cd4:	220a      	movs	r2, #10
     cd6:	4620      	mov	r0, r4
     cd8:	f005 fb0e 	bl	62f8 <Print::printNumber(unsigned long, unsigned char, unsigned char)>
     cdc:	210c      	movs	r1, #12
     cde:	4824      	ldr	r0, [pc, #144]	; (d70 <printResult(char const*, char const*, unsigned long, unsigned long, unsigned long, unsigned long, unsigned long, unsigned long, unsigned long, char const*) [clone .constprop.0]+0xec>)
     ce0:	f006 ff84 	bl	7bec <usb_serial_write>
     ce4:	4631      	mov	r1, r6
     ce6:	2300      	movs	r3, #0
     ce8:	220a      	movs	r2, #10
     cea:	4620      	mov	r0, r4
     cec:	f005 fb04 	bl	62f8 <Print::printNumber(unsigned long, unsigned char, unsigned char)>
     cf0:	2109      	movs	r1, #9
     cf2:	4820      	ldr	r0, [pc, #128]	; (d74 <printResult(char const*, char const*, unsigned long, unsigned long, unsigned long, unsigned long, unsigned long, unsigned long, unsigned long, char const*) [clone .constprop.0]+0xf0>)
     cf4:	f006 ff7a 	bl	7bec <usb_serial_write>
     cf8:	4651      	mov	r1, sl
     cfa:	2300      	movs	r3, #0
     cfc:	220a      	movs	r2, #10
     cfe:	4620      	mov	r0, r4
     d00:	f005 fafa 	bl	62f8 <Print::printNumber(unsigned long, unsigned char, unsigned char)>
     d04:	2108      	movs	r1, #8
     d06:	481c      	ldr	r0, [pc, #112]	; (d78 <printResult(char const*, char const*, unsigned long, unsigned long, unsigned long, unsigned long, unsigned long, unsigned long, unsigned long, char const*) [clone .constprop.0]+0xf4>)
     d08:	f006 ff70 	bl	7bec <usb_serial_write>
     d0c:	2300      	movs	r3, #0
     d0e:	4649      	mov	r1, r9
     d10:	220a      	movs	r2, #10
     d12:	4620      	mov	r0, r4
     d14:	f005 faf0 	bl	62f8 <Print::printNumber(unsigned long, unsigned char, unsigned char)>
     d18:	210c      	movs	r1, #12
     d1a:	4818      	ldr	r0, [pc, #96]	; (d7c <printResult(char const*, char const*, unsigned long, unsigned long, unsigned long, unsigned long, unsigned long, unsigned long, unsigned long, char const*) [clone .constprop.0]+0xf8>)
     d1c:	f006 ff66 	bl	7bec <usb_serial_write>
     d20:	2300      	movs	r3, #0
     d22:	220a      	movs	r2, #10
     d24:	f44f 7100 	mov.w	r1, #512	; 0x200
     d28:	4620      	mov	r0, r4
     d2a:	f005 fae5 	bl	62f8 <Print::printNumber(unsigned long, unsigned char, unsigned char)>
     d2e:	2107      	movs	r1, #7
     d30:	4813      	ldr	r0, [pc, #76]	; (d80 <printResult(char const*, char const*, unsigned long, unsigned long, unsigned long, unsigned long, unsigned long, unsigned long, unsigned long, char const*) [clone .constprop.0]+0xfc>)
     d32:	f006 ff5b 	bl	7bec <usb_serial_write>
     d36:	2300      	movs	r3, #0
     d38:	220a      	movs	r2, #10
     d3a:	4641      	mov	r1, r8
     d3c:	4620      	mov	r0, r4
     d3e:	f005 fadb 	bl	62f8 <Print::printNumber(unsigned long, unsigned char, unsigned char)>
     d42:	210c      	movs	r1, #12
     d44:	480f      	ldr	r0, [pc, #60]	; (d84 <printResult(char const*, char const*, unsigned long, unsigned long, unsigned long, unsigned long, unsigned long, unsigned long, unsigned long, char const*) [clone .constprop.0]+0x100>)
     d46:	f006 ff51 	bl	7bec <usb_serial_write>
     d4a:	2300      	movs	r3, #0
     d4c:	4639      	mov	r1, r7
     d4e:	4620      	mov	r0, r4
     d50:	2210      	movs	r2, #16
     d52:	f005 fad1 	bl	62f8 <Print::printNumber(unsigned long, unsigned char, unsigned char)>
     d56:	4620      	mov	r0, r4
     d58:	e8bd 4ff8 	ldmia.w	sp!, {r3, r4, r5, r6, r7, r8, r9, sl, fp, lr}
     d5c:	f005 bab0 	b.w	62c0 <Print::println()>
     d60:	20000424 	.word	0x20000424
     d64:	2000042c 	.word	0x2000042c
     d68:	20000ca0 	.word	0x20000ca0
     d6c:	20000438 	.word	0x20000438
     d70:	20000444 	.word	0x20000444
     d74:	20000454 	.word	0x20000454
     d78:	20000460 	.word	0x20000460
     d7c:	2000046c 	.word	0x2000046c
     d80:	2000047c 	.word	0x2000047c
     d84:	20000484 	.word	0x20000484

00000d88 <void runMean2<Mean2Packed>(char const*)>:
     d88:	e92d 4ff0 	stmdb	sp!, {r4, r5, r6, r7, r8, r9, sl, fp, lr}
     d8c:	4e3e      	ldr	r6, [pc, #248]	; (e88 <void runMean2<Mean2Packed>(char const*)+0x100>)
     d8e:	4601      	mov	r1, r0
     d90:	4f3e      	ldr	r7, [pc, #248]	; (e8c <void runMean2<Mean2Packed>(char const*)+0x104>)
     d92:	b089      	sub	sp, #36	; 0x24
     d94:	f8df e114 	ldr.w	lr, [pc, #276]	; eac <void runMean2<Mean2Packed>(char const*)+0x124>
     d98:	f506 6580 	add.w	r5, r6, #1024	; 0x400
     d9c:	f8df 8110 	ldr.w	r8, [pc, #272]	; eb0 <void runMean2<Mean2Packed>(char const*)+0x128>
     da0:	4638      	mov	r0, r7
     da2:	46f4      	mov	ip, lr
     da4:	4632      	mov	r2, r6
     da6:	4644      	mov	r4, r8
     da8:	f647 39ef 	movw	r9, #31727	; 0x7bef
     dac:	f832 af02 	ldrh.w	sl, [r2, #2]!
     db0:	f830 bf02 	ldrh.w	fp, [r0, #2]!
     db4:	4295      	cmp	r5, r2
     db6:	ea8a 030b 	eor.w	r3, sl, fp
     dba:	ea0a 0a0b 	and.w	sl, sl, fp
     dbe:	ea09 0353 	and.w	r3, r9, r3, lsr #1
     dc2:	4453      	add	r3, sl
     dc4:	b29b      	uxth	r3, r3
     dc6:	f82c 3f02 	strh.w	r3, [ip, #2]!
     dca:	f824 3f02 	strh.w	r3, [r4, #2]!
     dce:	d1ed      	bne.n	dac <void runMean2<Mean2Packed>(char const*)+0x24>
     dd0:	4a2f      	ldr	r2, [pc, #188]	; (e90 <void runMean2<Mean2Packed>(char const*)+0x108>)
     dd2:	4643      	mov	r3, r8
     dd4:	f04f 0900 	mov.w	r9, #0
     dd8:	f83e 0f02 	ldrh.w	r0, [lr, #2]!
     ddc:	f833 4f02 	ldrh.w	r4, [r3, #2]!
     de0:	4284      	cmp	r4, r0
     de2:	bf18      	it	ne
     de4:	f109 0901 	addne.w	r9, r9, #1
     de8:	4572      	cmp	r2, lr
     dea:	d1f5      	bne.n	dd8 <void runMean2<Mean2Packed>(char const*)+0x50>
     dec:	4b29      	ldr	r3, [pc, #164]	; (e94 <void runMean2<Mean2Packed>(char const*)+0x10c>)
     dee:	f44f 7a00 	mov.w	sl, #512	; 0x200
     df2:	9107      	str	r1, [sp, #28]
     df4:	f04f 0b00 	mov.w	fp, #0
     df8:	685b      	ldr	r3, [r3, #4]
     dfa:	9306      	str	r3, [sp, #24]
     dfc:	f005 fb24 	bl	6448 <micros>
     e00:	9907      	ldr	r1, [sp, #28]
     e02:	9005      	str	r0, [sp, #20]
     e04:	f647 30ef 	movw	r0, #31727	; 0x7bef
     e08:	463c      	mov	r4, r7
     e0a:	4632      	mov	r2, r6
     e0c:	f832 cf02 	ldrh.w	ip, [r2, #2]!
     e10:	eb0b 1b4b 	add.w	fp, fp, fp, lsl #5
     e14:	f834 ef02 	ldrh.w	lr, [r4, #2]!
     e18:	4295      	cmp	r5, r2
     e1a:	ea8c 030e 	eor.w	r3, ip, lr
     e1e:	ea0c 0c0e 	and.w	ip, ip, lr
     e22:	ea00 0353 	and.w	r3, r0, r3, lsr #1
     e26:	4463      	add	r3, ip
     e28:	b29b      	uxth	r3, r3
     e2a:	ea83 0b0b 	eor.w	fp, r3, fp
     e2e:	d1ed      	bne.n	e0c <void runMean2<Mean2Packed>(char const*)+0x84>
     e30:	f1ba 0a01 	subs.w	sl, sl, #1
     e34:	d1e8      	bne.n	e08 <void runMean2<Mean2Packed>(char const*)+0x80>
     e36:	9107      	str	r1, [sp, #28]
     e38:	f005 fb06 	bl	6448 <micros>
     e3c:	9b05      	ldr	r3, [sp, #20]
     e3e:	4a16      	ldr	r2, [pc, #88]	; (e98 <void runMean2<Mean2Packed>(char const*)+0x110>)
     e40:	1ac5      	subs	r5, r0, r3
     e42:	4b14      	ldr	r3, [pc, #80]	; (e94 <void runMean2<Mean2Packed>(char const*)+0x10c>)
     e44:	4f15      	ldr	r7, [pc, #84]	; (e9c <void runMean2<Mean2Packed>(char const*)+0x114>)
     e46:	6858      	ldr	r0, [r3, #4]
     e48:	9b06      	ldr	r3, [sp, #24]
     e4a:	4e15      	ldr	r6, [pc, #84]	; (ea0 <void runMean2<Mean2Packed>(char const*)+0x118>)
     e4c:	1ac0      	subs	r0, r0, r3
     e4e:	6813      	ldr	r3, [r2, #0]
     e50:	9907      	ldr	r1, [sp, #28]
     e52:	ea83 030b 	eor.w	r3, r3, fp
     e56:	6013      	str	r3, [r2, #0]
     e58:	fab9 f289 	clz	r2, r9
     e5c:	4b11      	ldr	r3, [pc, #68]	; (ea4 <void runMean2<Mean2Packed>(char const*)+0x11c>)
     e5e:	0952      	lsrs	r2, r2, #5
     e60:	f838 4f02 	ldrh.w	r4, [r8, #2]!
     e64:	4063      	eors	r3, r4
     e66:	4547      	cmp	r7, r8
     e68:	fb06 f303 	mul.w	r3, r6, r3
     e6c:	d1f8      	bne.n	e60 <void runMean2<Mean2Packed>(char const*)+0xd8>
     e6e:	f44f 7400 	mov.w	r4, #512	; 0x200
     e72:	9303      	str	r3, [sp, #12]
     e74:	9001      	str	r0, [sp, #4]
     e76:	464b      	mov	r3, r9
     e78:	480b      	ldr	r0, [pc, #44]	; (ea8 <void runMean2<Mean2Packed>(char const*)+0x120>)
     e7a:	9500      	str	r5, [sp, #0]
     e7c:	9402      	str	r4, [sp, #8]
     e7e:	f7ff ff01 	bl	c84 <printResult(char const*, char const*, unsigned long, unsigned long, unsigned long, unsigned long, unsigned long, unsigned long, unsigned long, char const*) [clone .constprop.0]>
     e82:	b009      	add	sp, #36	; 0x24
     e84:	e8bd 8ff0 	ldmia.w	sp!, {r4, r5, r6, r7, r8, r9, sl, fp, pc}
     e88:	20001886 	.word	0x20001886
     e8c:	20001c8e 	.word	0x20001c8e
     e90:	2000691e 	.word	0x2000691e
     e94:	e0001000 	.word	0xe0001000
     e98:	20007138 	.word	0x20007138
     e9c:	20006516 	.word	0x20006516
     ea0:	01000193 	.word	0x01000193
     ea4:	811c9dc5 	.word	0x811c9dc5
     ea8:	20000418 	.word	0x20000418
     eac:	2000651e 	.word	0x2000651e
     eb0:	20006116 	.word	0x20006116

00000eb4 <void runBlendRandom<BlendPacked>(char const*)>:
     eb4:	e92d 4ff0 	stmdb	sp!, {r4, r5, r6, r7, r8, r9, sl, fp, lr}
     eb8:	4b52      	ldr	r3, [pc, #328]	; (1004 <void runBlendRandom<BlendPacked>(char const*)+0x150>)
     eba:	4e53      	ldr	r6, [pc, #332]	; (1008 <void runBlendRandom<BlendPacked>(char const*)+0x154>)
     ebc:	f8df 8170 	ldr.w	r8, [pc, #368]	; 1030 <void runBlendRandom<BlendPacked>(char const*)+0x17c>
     ec0:	461d      	mov	r5, r3
     ec2:	4f52      	ldr	r7, [pc, #328]	; (100c <void runBlendRandom<BlendPacked>(char const*)+0x158>)
     ec4:	f506 6480 	add.w	r4, r6, #1024	; 0x400
     ec8:	f8df b168 	ldr.w	fp, [pc, #360]	; 1034 <void runBlendRandom<BlendPacked>(char const*)+0x180>
     ecc:	46c6      	mov	lr, r8
     ece:	46b9      	mov	r9, r7
     ed0:	46b4      	mov	ip, r6
     ed2:	46da      	mov	sl, fp
     ed4:	ed2d 8b02 	vpush	{d8}
     ed8:	ee08 0a10 	vmov	s16, r0
     edc:	b089      	sub	sp, #36	; 0x24
     ede:	484c      	ldr	r0, [pc, #304]	; (1010 <void runBlendRandom<BlendPacked>(char const*)+0x15c>)
     ee0:	9304      	str	r3, [sp, #16]
     ee2:	f83c 3f02 	ldrh.w	r3, [ip, #2]!
     ee6:	f83e 2f02 	ldrh.w	r2, [lr, #2]!
     eea:	ea43 4303 	orr.w	r3, r3, r3, lsl #16
     eee:	f859 1f04 	ldr.w	r1, [r9, #4]!
     ef2:	ea42 4202 	orr.w	r2, r2, r2, lsl #16
     ef6:	4564      	cmp	r4, ip
     ef8:	ea03 0300 	and.w	r3, r3, r0
     efc:	ea4f 01d1 	mov.w	r1, r1, lsr #3
     f00:	ea02 0200 	and.w	r2, r2, r0
     f04:	eba2 0203 	sub.w	r2, r2, r3
     f08:	fb01 f202 	mul.w	r2, r1, r2
     f0c:	eb03 1352 	add.w	r3, r3, r2, lsr #5
     f10:	ea03 0300 	and.w	r3, r3, r0
     f14:	ea43 4313 	orr.w	r3, r3, r3, lsr #16
     f18:	b29b      	uxth	r3, r3
     f1a:	f82a 3f02 	strh.w	r3, [sl, #2]!
     f1e:	f825 3f02 	strh.w	r3, [r5, #2]!
     f22:	d1de      	bne.n	ee2 <void runBlendRandom<BlendPacked>(char const*)+0x2e>
     f24:	4a3b      	ldr	r2, [pc, #236]	; (1014 <void runBlendRandom<BlendPacked>(char const*)+0x160>)
     f26:	2100      	movs	r1, #0
     f28:	9b04      	ldr	r3, [sp, #16]
     f2a:	f83b 0f02 	ldrh.w	r0, [fp, #2]!
     f2e:	f833 5f02 	ldrh.w	r5, [r3, #2]!
     f32:	4285      	cmp	r5, r0
     f34:	bf18      	it	ne
     f36:	3101      	addne	r1, #1
     f38:	455a      	cmp	r2, fp
     f3a:	d1f6      	bne.n	f2a <void runBlendRandom<BlendPacked>(char const*)+0x76>
     f3c:	4b36      	ldr	r3, [pc, #216]	; (1018 <void runBlendRandom<BlendPacked>(char const*)+0x164>)
     f3e:	f04f 0b00 	mov.w	fp, #0
     f42:	9105      	str	r1, [sp, #20]
     f44:	f44f 7a00 	mov.w	sl, #512	; 0x200
     f48:	685b      	ldr	r3, [r3, #4]
     f4a:	9307      	str	r3, [sp, #28]
     f4c:	f005 fa7c 	bl	6448 <micros>
     f50:	f8df c0bc 	ldr.w	ip, [pc, #188]	; 1010 <void runBlendRandom<BlendPacked>(char const*)+0x15c>
     f54:	465a      	mov	r2, fp
     f56:	9006      	str	r0, [sp, #24]
     f58:	463d      	mov	r5, r7
     f5a:	4640      	mov	r0, r8
     f5c:	4631      	mov	r1, r6
     f5e:	f831 3f02 	ldrh.w	r3, [r1, #2]!
     f62:	eb02 1242 	add.w	r2, r2, r2, lsl #5
     f66:	f830 ef02 	ldrh.w	lr, [r0, #2]!
     f6a:	ea43 4303 	orr.w	r3, r3, r3, lsl #16
     f6e:	f855 9f04 	ldr.w	r9, [r5, #4]!
     f72:	ea4e 4e0e 	orr.w	lr, lr, lr, lsl #16
     f76:	42a1      	cmp	r1, r4
     f78:	ea03 030c 	and.w	r3, r3, ip
     f7c:	ea4f 09d9 	mov.w	r9, r9, lsr #3
     f80:	ea0e 0e0c 	and.w	lr, lr, ip
     f84:	ebae 0e03 	sub.w	lr, lr, r3
     f88:	fb09 fe0e 	mul.w	lr, r9, lr
     f8c:	eb03 135e 	add.w	r3, r3, lr, lsr #5
     f90:	ea03 030c 	and.w	r3, r3, ip
     f94:	ea43 4313 	orr.w	r3, r3, r3, lsr #16
     f98:	b29b      	uxth	r3, r3
     f9a:	ea82 0203 	eor.w	r2, r2, r3
     f9e:	d1de      	bne.n	f5e <void runBlendRandom<BlendPacked>(char const*)+0xaa>
     fa0:	f1ba 0a01 	subs.w	sl, sl, #1
     fa4:	d1d8      	bne.n	f58 <void runBlendRandom<BlendPacked>(char const*)+0xa4>
     fa6:	4693      	mov	fp, r2
     fa8:	f005 fa4e 	bl	6448 <micros>
     fac:	9b06      	ldr	r3, [sp, #24]
     fae:	4a1b      	ldr	r2, [pc, #108]	; (101c <void runBlendRandom<BlendPacked>(char const*)+0x168>)
     fb0:	1ac4      	subs	r4, r0, r3
     fb2:	4b19      	ldr	r3, [pc, #100]	; (1018 <void runBlendRandom<BlendPacked>(char const*)+0x164>)
     fb4:	4e1a      	ldr	r6, [pc, #104]	; (1020 <void runBlendRandom<BlendPacked>(char const*)+0x16c>)
     fb6:	6858      	ldr	r0, [r3, #4]
     fb8:	9b07      	ldr	r3, [sp, #28]
     fba:	4d1a      	ldr	r5, [pc, #104]	; (1024 <void runBlendRandom<BlendPacked>(char const*)+0x170>)
     fbc:	1ac0      	subs	r0, r0, r3
     fbe:	6813      	ldr	r3, [r2, #0]
     fc0:	9904      	ldr	r1, [sp, #16]
     fc2:	ea83 030b 	eor.w	r3, r3, fp
     fc6:	6013      	str	r3, [r2, #0]
     fc8:	9b05      	ldr	r3, [sp, #20]
     fca:	fab3 f283 	clz	r2, r3
     fce:	4b16      	ldr	r3, [pc, #88]	; (1028 <void runBlendRandom<BlendPacked>(char const*)+0x174>)
     fd0:	0952      	lsrs	r2, r2, #5
     fd2:	f831 7f02 	ldrh.w	r7, [r1, #2]!
     fd6:	407b      	eors	r3, r7
     fd8:	428e      	cmp	r6, r1
     fda:	fb05 f303 	mul.w	r3, r5, r3
     fde:	d1f8      	bne.n	fd2 <void runBlendRandom<BlendPacked>(char const*)+0x11e>
     fe0:	9400      	str	r4, [sp, #0]
     fe2:	f44f 7400 	mov.w	r4, #512	; 0x200
     fe6:	9303      	str	r3, [sp, #12]
     fe8:	ee18 1a10 	vmov	r1, s16
     fec:	9001      	str	r0, [sp, #4]
     fee:	9b05      	ldr	r3, [sp, #20]
     ff0:	480e      	ldr	r0, [pc, #56]	; (102c <void runBlendRandom<BlendPacked>(char const*)+0x178>)
     ff2:	9402      	str	r4, [sp, #8]
     ff4:	f7ff fe46 	bl	c84 <printResult(char const*, char const*, unsigned long, unsigned long, unsigned long, unsigned long, unsigned long, unsigned long, unsigned long, char const*) [clone .constprop.0]>
     ff8:	b009      	add	sp, #36	; 0x24
     ffa:	ecbd 8b02 	vpop	{d8}
     ffe:	e8bd 8ff0 	ldmia.w	sp!, {r4, r5, r6, r7, r8, r9, sl, fp, pc}
    1002:	bf00      	nop
    1004:	20006116 	.word	0x20006116
    1008:	20001886 	.word	0x20001886
    100c:	20007138 	.word	0x20007138
    1010:	07e0f81f 	.word	0x07e0f81f
    1014:	2000691e 	.word	0x2000691e
    1018:	e0001000 	.word	0xe0001000
    101c:	20007138 	.word	0x20007138
    1020:	20006516 	.word	0x20006516
    1024:	01000193 	.word	0x01000193
    1028:	811c9dc5 	.word	0x811c9dc5
    102c:	20000400 	.word	0x20000400
    1030:	20001c8e 	.word	0x20001c8e
    1034:	2000651e 	.word	0x2000651e

00001038 <void runBlendFixed<BlendPacked>(char const*, unsigned long)>:
    1038:	e92d 4ff0 	stmdb	sp!, {r4, r5, r6, r7, r8, r9, sl, fp, lr}
    103c:	f8df c15c 	ldr.w	ip, [pc, #348]	; 119c <void runBlendFixed<BlendPacked>(char const*, unsigned long)+0x164>
    1040:	4688      	mov	r8, r1
    1042:	f8df a15c 	ldr.w	sl, [pc, #348]	; 11a0 <void runBlendFixed<BlendPacked>(char const*, unsigned long)+0x168>
    1046:	08cd      	lsrs	r5, r1, #3
    1048:	f8df b158 	ldr.w	fp, [pc, #344]	; 11a4 <void runBlendFixed<BlendPacked>(char const*, unsigned long)+0x16c>
    104c:	46e6      	mov	lr, ip
    104e:	4e4a      	ldr	r6, [pc, #296]	; (1178 <void runBlendFixed<BlendPacked>(char const*, unsigned long)+0x140>)
    1050:	f50a 6980 	add.w	r9, sl, #1024	; 0x400
    1054:	465c      	mov	r4, fp
    1056:	4949      	ldr	r1, [pc, #292]	; (117c <void runBlendFixed<BlendPacked>(char const*, unsigned long)+0x144>)
    1058:	4637      	mov	r7, r6
    105a:	ed2d 8b02 	vpush	{d8}
    105e:	ee08 0a10 	vmov	s16, r0
    1062:	b08f      	sub	sp, #60	; 0x3c
    1064:	4650      	mov	r0, sl
    1066:	f830 3f02 	ldrh.w	r3, [r0, #2]!
    106a:	f834 2f02 	ldrh.w	r2, [r4, #2]!
    106e:	ea43 4303 	orr.w	r3, r3, r3, lsl #16
    1072:	4581      	cmp	r9, r0
    1074:	ea42 4202 	orr.w	r2, r2, r2, lsl #16
    1078:	ea03 0301 	and.w	r3, r3, r1
    107c:	ea02 0201 	and.w	r2, r2, r1
    1080:	eba2 0203 	sub.w	r2, r2, r3
    1084:	fb05 f202 	mul.w	r2, r5, r2
    1088:	eb03 1352 	add.w	r3, r3, r2, lsr #5
    108c:	ea03 0301 	and.w	r3, r3, r1
    1090:	ea43 4313 	orr.w	r3, r3, r3, lsr #16
    1094:	b29b      	uxth	r3, r3
    1096:	f82e 3f02 	strh.w	r3, [lr, #2]!
    109a:	f827 3f02 	strh.w	r3, [r7, #2]!
    109e:	d1e2      	bne.n	1066 <void runBlendFixed<BlendPacked>(char const*, unsigned long)+0x2e>
    10a0:	4a37      	ldr	r2, [pc, #220]	; (1180 <void runBlendFixed<BlendPacked>(char const*, unsigned long)+0x148>)
    10a2:	4633      	mov	r3, r6
    10a4:	2700      	movs	r7, #0
    10a6:	f83c 1f02 	ldrh.w	r1, [ip, #2]!
    10aa:	f833 0f02 	ldrh.w	r0, [r3, #2]!
    10ae:	4288      	cmp	r0, r1
    10b0:	bf18      	it	ne
    10b2:	3701      	addne	r7, #1
    10b4:	4562      	cmp	r2, ip
    10b6:	d1f6      	bne.n	10a6 <void runBlendFixed<BlendPacked>(char const*, unsigned long)+0x6e>
    10b8:	4b32      	ldr	r3, [pc, #200]	; (1184 <void runBlendFixed<BlendPacked>(char const*, unsigned long)+0x14c>)
    10ba:	2400      	movs	r4, #0
    10bc:	685b      	ldr	r3, [r3, #4]
    10be:	9305      	str	r3, [sp, #20]
    10c0:	f005 f9c2 	bl	6448 <micros>
    10c4:	f44f 7e00 	mov.w	lr, #512	; 0x200
    10c8:	9004      	str	r0, [sp, #16]
    10ca:	4622      	mov	r2, r4
    10cc:	482b      	ldr	r0, [pc, #172]	; (117c <void runBlendFixed<BlendPacked>(char const*, unsigned long)+0x144>)
    10ce:	46dc      	mov	ip, fp
    10d0:	4651      	mov	r1, sl
    10d2:	f831 3f02 	ldrh.w	r3, [r1, #2]!
    10d6:	eb02 1242 	add.w	r2, r2, r2, lsl #5
    10da:	f83c 4f02 	ldrh.w	r4, [ip, #2]!
    10de:	ea43 4303 	orr.w	r3, r3, r3, lsl #16
    10e2:	4549      	cmp	r1, r9
    10e4:	ea44 4404 	orr.w	r4, r4, r4, lsl #16
    10e8:	ea03 0300 	and.w	r3, r3, r0
    10ec:	ea04 0400 	and.w	r4, r4, r0
    10f0:	eba4 0403 	sub.w	r4, r4, r3
    10f4:	fb05 f404 	mul.w	r4, r5, r4
    10f8:	eb03 1354 	add.w	r3, r3, r4, lsr #5
    10fc:	ea03 0300 	and.w	r3, r3, r0
    1100:	ea43 4313 	orr.w	r3, r3, r3, lsr #16
    1104:	b29b      	uxth	r3, r3
    1106:	ea82 0203 	eor.w	r2, r2, r3
    110a:	d1e2      	bne.n	10d2 <void runBlendFixed<BlendPacked>(char const*, unsigned long)+0x9a>
    110c:	f1be 0e01 	subs.w	lr, lr, #1
    1110:	d1dd      	bne.n	10ce <void runBlendFixed<BlendPacked>(char const*, unsigned long)+0x96>
    1112:	4614      	mov	r4, r2
    1114:	f005 f998 	bl	6448 <micros>
    1118:	9b04      	ldr	r3, [sp, #16]
    111a:	4a1a      	ldr	r2, [pc, #104]	; (1184 <void runBlendFixed<BlendPacked>(char const*, unsigned long)+0x14c>)
    111c:	491a      	ldr	r1, [pc, #104]	; (1188 <void runBlendFixed<BlendPacked>(char const*, unsigned long)+0x150>)
    111e:	1ac5      	subs	r5, r0, r3
    1120:	6852      	ldr	r2, [r2, #4]
    1122:	4643      	mov	r3, r8
    1124:	9805      	ldr	r0, [sp, #20]
    1126:	eba2 0900 	sub.w	r9, r2, r0
    112a:	680a      	ldr	r2, [r1, #0]
    112c:	a806      	add	r0, sp, #24
    112e:	4062      	eors	r2, r4
    1130:	4c16      	ldr	r4, [pc, #88]	; (118c <void runBlendFixed<BlendPacked>(char const*, unsigned long)+0x154>)
    1132:	600a      	str	r2, [r1, #0]
    1134:	2120      	movs	r1, #32
    1136:	4a16      	ldr	r2, [pc, #88]	; (1190 <void runBlendFixed<BlendPacked>(char const*, unsigned long)+0x158>)
    1138:	f008 f86e 	bl	9218 <snprintf>
    113c:	fab7 f287 	clz	r2, r7
    1140:	4b14      	ldr	r3, [pc, #80]	; (1194 <void runBlendFixed<BlendPacked>(char const*, unsigned long)+0x15c>)
    1142:	0952      	lsrs	r2, r2, #5
    1144:	4814      	ldr	r0, [pc, #80]	; (1198 <void runBlendFixed<BlendPacked>(char const*, unsigned long)+0x160>)
    1146:	f836 1f02 	ldrh.w	r1, [r6, #2]!
    114a:	404b      	eors	r3, r1
    114c:	42b4      	cmp	r4, r6
    114e:	fb00 f303 	mul.w	r3, r0, r3
    1152:	d1f8      	bne.n	1146 <void runBlendFixed<BlendPacked>(char const*, unsigned long)+0x10e>
    1154:	f44f 7400 	mov.w	r4, #512	; 0x200
    1158:	9303      	str	r3, [sp, #12]
    115a:	ee18 1a10 	vmov	r1, s16
    115e:	463b      	mov	r3, r7
    1160:	a806      	add	r0, sp, #24
    1162:	f8cd 9004 	str.w	r9, [sp, #4]
    1166:	9500      	str	r5, [sp, #0]
    1168:	9402      	str	r4, [sp, #8]
    116a:	f7ff fd8b 	bl	c84 <printResult(char const*, char const*, unsigned long, unsigned long, unsigned long, unsigned long, unsigned long, unsigned long, unsigned long, char const*) [clone .constprop.0]>
    116e:	b00f      	add	sp, #60	; 0x3c
    1170:	ecbd 8b02 	vpop	{d8}
    1174:	e8bd 8ff0 	ldmia.w	sp!, {r4, r5, r6, r7, r8, r9, sl, fp, pc}
    1178:	20006116 	.word	0x20006116
    117c:	07e0f81f 	.word	0x07e0f81f
    1180:	2000691e 	.word	0x2000691e
    1184:	e0001000 	.word	0xe0001000
    1188:	20007138 	.word	0x20007138
    118c:	20006516 	.word	0x20006516
    1190:	200003f0 	.word	0x200003f0
    1194:	811c9dc5 	.word	0x811c9dc5
    1198:	01000193 	.word	0x01000193
    119c:	2000651e 	.word	0x2000651e
    11a0:	20001886 	.word	0x20001886
    11a4:	20001c8e 	.word	0x20001c8e

000011a8 <runCoreKernels()>:
    11a8:	e92d 4ff0 	stmdb	sp!, {r4, r5, r6, r7, r8, r9, sl, fp, lr}
    11ac:	ed2d 8b02 	vpush	{d8}
    11b0:	b0a5      	sub	sp, #148	; 0x94
    11b2:	4dd6      	ldr	r5, [pc, #856]	; (150c <runCoreKernels()+0x364>)
    11b4:	f8df a394 	ldr.w	sl, [pc, #916]	; 154c <runCoreKernels()+0x3a4>
    11b8:	ab1a      	add	r3, sp, #104	; 0x68
    11ba:	ac1b      	add	r4, sp, #108	; 0x6c
    11bc:	4ed4      	ldr	r6, [pc, #848]	; (1510 <runCoreKernels()+0x368>)
    11be:	9309      	str	r3, [sp, #36]	; 0x24
    11c0:	cd0f      	ldmia	r5!, {r0, r1, r2, r3}
    11c2:	c40f      	stmia	r4!, {r0, r1, r2, r3}
    11c4:	cd0f      	ldmia	r5!, {r0, r1, r2, r3}
    11c6:	c40f      	stmia	r4!, {r0, r1, r2, r3}
    11c8:	682b      	ldr	r3, [r5, #0]
    11ca:	6023      	str	r3, [r4, #0]
    11cc:	9b09      	ldr	r3, [sp, #36]	; 0x24
    11ce:	48d1      	ldr	r0, [pc, #836]	; (1514 <runCoreKernels()+0x36c>)
    11d0:	f853 2f04 	ldr.w	r2, [r3, #4]!
    11d4:	f8df 8378 	ldr.w	r8, [pc, #888]	; 1550 <runCoreKernels()+0x3a8>
    11d8:	4614      	mov	r4, r2
    11da:	4611      	mov	r1, r2
    11dc:	ee08 2a10 	vmov	s16, r2
    11e0:	9309      	str	r3, [sp, #36]	; 0x24
    11e2:	f7ff ff29 	bl	1038 <void runBlendFixed<BlendPacked>(char const*, unsigned long)>
    11e6:	4621      	mov	r1, r4
    11e8:	48cb      	ldr	r0, [pc, #812]	; (1518 <runCoreKernels()+0x370>)
    11ea:	08e4      	lsrs	r4, r4, #3
    11ec:	f7ff ff24 	bl	1038 <void runBlendFixed<BlendPacked>(char const*, unsigned long)>
    11f0:	4bca      	ldr	r3, [pc, #808]	; (151c <runCoreKernels()+0x374>)
    11f2:	4acb      	ldr	r2, [pc, #812]	; (1520 <runCoreKernels()+0x378>)
    11f4:	f1c4 0720 	rsb	r7, r4, #32
    11f8:	f8df c330 	ldr.w	ip, [pc, #816]	; 152c <runCoreKernels()+0x384>
    11fc:	4699      	mov	r9, r3
    11fe:	4696      	mov	lr, r2
    1200:	9308      	str	r3, [sp, #32]
    1202:	9207      	str	r2, [sp, #28]
    1204:	f83c 1f02 	ldrh.w	r1, [ip, #2]!
    1208:	f838 3f02 	ldrh.w	r3, [r8, #2]!
    120c:	ea41 4201 	orr.w	r2, r1, r1, lsl #16
    1210:	45e2      	cmp	sl, ip
    1212:	ea43 4003 	orr.w	r0, r3, r3, lsl #16
    1216:	ea02 0206 	and.w	r2, r2, r6
    121a:	ea4f 25d3 	mov.w	r5, r3, lsr #11
    121e:	ea00 0006 	and.w	r0, r0, r6
    1222:	fb04 f505 	mul.w	r5, r4, r5
    1226:	eba0 0002 	sub.w	r0, r0, r2
    122a:	fb04 f000 	mul.w	r0, r4, r0
    122e:	eb02 1250 	add.w	r2, r2, r0, lsr #5
    1232:	f3c3 1045 	ubfx	r0, r3, #5, #6
    1236:	f003 031f 	and.w	r3, r3, #31
    123a:	ea02 0206 	and.w	r2, r2, r6
    123e:	fb04 f000 	mul.w	r0, r4, r0
    1242:	ea42 4212 	orr.w	r2, r2, r2, lsr #16
    1246:	f829 2f02 	strh.w	r2, [r9, #2]!
    124a:	fb04 f203 	mul.w	r2, r4, r3
    124e:	f3c1 1345 	ubfx	r3, r1, #5, #6
    1252:	fb07 0303 	mla	r3, r7, r3, r0
    1256:	f403 60fc 	and.w	r0, r3, #2016	; 0x7e0
    125a:	ea4f 23d1 	mov.w	r3, r1, lsr #11
    125e:	fb07 5503 	mla	r5, r7, r3, r5
    1262:	f001 031f 	and.w	r3, r1, #31
    1266:	fb07 2203 	mla	r2, r7, r3, r2
    126a:	f3c5 1344 	ubfx	r3, r5, #5, #5
    126e:	f3c2 1244 	ubfx	r2, r2, #5, #5
    1272:	ea40 23c3 	orr.w	r3, r0, r3, lsl #11
    1276:	ea43 0302 	orr.w	r3, r3, r2
    127a:	f82e 3f02 	strh.w	r3, [lr, #2]!
    127e:	d1c1      	bne.n	1204 <runCoreKernels()+0x5c>
    1280:	e9dd 2307 	ldrd	r2, r3, [sp, #28]
    1284:	f04f 0b00 	mov.w	fp, #0
    1288:	f833 1f02 	ldrh.w	r1, [r3, #2]!
    128c:	f832 0f02 	ldrh.w	r0, [r2, #2]!
    1290:	4288      	cmp	r0, r1
    1292:	49a4      	ldr	r1, [pc, #656]	; (1524 <runCoreKernels()+0x37c>)
    1294:	bf18      	it	ne
    1296:	f10b 0b01 	addne.w	fp, fp, #1
    129a:	4299      	cmp	r1, r3
    129c:	d1f4      	bne.n	1288 <runCoreKernels()+0xe0>
    129e:	4ba2      	ldr	r3, [pc, #648]	; (1528 <runCoreKernels()+0x380>)
    12a0:	f04f 0900 	mov.w	r9, #0
    12a4:	f44f 7500 	mov.w	r5, #512	; 0x200
    12a8:	685b      	ldr	r3, [r3, #4]
    12aa:	930a      	str	r3, [sp, #40]	; 0x28
    12ac:	f005 f8cc 	bl	6448 <micros>
    12b0:	4649      	mov	r1, r9
    12b2:	900b      	str	r0, [sp, #44]	; 0x2c
    12b4:	f8df c298 	ldr.w	ip, [pc, #664]	; 1550 <runCoreKernels()+0x3a8>
    12b8:	489c      	ldr	r0, [pc, #624]	; (152c <runCoreKernels()+0x384>)
    12ba:	f83c 2f02 	ldrh.w	r2, [ip, #2]!
    12be:	eb01 1141 	add.w	r1, r1, r1, lsl #5
    12c2:	f830 8f02 	ldrh.w	r8, [r0, #2]!
    12c6:	f3c2 1345 	ubfx	r3, r2, #5, #6
    12ca:	ea4f 2ed2 	mov.w	lr, r2, lsr #11
    12ce:	f3c8 1945 	ubfx	r9, r8, #5, #6
    12d2:	f002 021f 	and.w	r2, r2, #31
    12d6:	fb04 f303 	mul.w	r3, r4, r3
    12da:	4582      	cmp	sl, r0
    12dc:	fb04 fe0e 	mul.w	lr, r4, lr
    12e0:	fb07 3309 	mla	r3, r7, r9, r3
    12e4:	ea4f 29d8 	mov.w	r9, r8, lsr #11
    12e8:	fb04 f202 	mul.w	r2, r4, r2
    12ec:	f008 081f 	and.w	r8, r8, #31
    12f0:	fb07 ee09 	mla	lr, r7, r9, lr
    12f4:	f403 63fc 	and.w	r3, r3, #2016	; 0x7e0
    12f8:	fb07 2208 	mla	r2, r7, r8, r2
    12fc:	f3ce 1e44 	ubfx	lr, lr, #5, #5
    1300:	f3c2 1244 	ubfx	r2, r2, #5, #5
    1304:	ea43 23ce 	orr.w	r3, r3, lr, lsl #11
    1308:	ea43 0302 	orr.w	r3, r3, r2
    130c:	ea81 0103 	eor.w	r1, r1, r3
    1310:	d1d3      	bne.n	12ba <runCoreKernels()+0x112>
    1312:	3d01      	subs	r5, #1
    1314:	d1ce      	bne.n	12b4 <runCoreKernels()+0x10c>
    1316:	4689      	mov	r9, r1
    1318:	f005 f896 	bl	6448 <micros>
    131c:	9b0b      	ldr	r3, [sp, #44]	; 0x2c
    131e:	2120      	movs	r1, #32
    1320:	4a83      	ldr	r2, [pc, #524]	; (1530 <runCoreKernels()+0x388>)
    1322:	eba0 0803 	sub.w	r8, r0, r3
    1326:	4b80      	ldr	r3, [pc, #512]	; (1528 <runCoreKernels()+0x380>)
    1328:	a813      	add	r0, sp, #76	; 0x4c
    132a:	685f      	ldr	r7, [r3, #4]
    132c:	9b0a      	ldr	r3, [sp, #40]	; 0x28
    132e:	1aff      	subs	r7, r7, r3
    1330:	6813      	ldr	r3, [r2, #0]
    1332:	ea89 0303 	eor.w	r3, r9, r3
    1336:	6013      	str	r3, [r2, #0]
    1338:	ee18 3a10 	vmov	r3, s16
    133c:	4a7d      	ldr	r2, [pc, #500]	; (1534 <runCoreKernels()+0x38c>)
    133e:	f007 ff6b 	bl	9218 <snprintf>
    1342:	fabb f28b 	clz	r2, fp
    1346:	9807      	ldr	r0, [sp, #28]
    1348:	0952      	lsrs	r2, r2, #5
    134a:	4b7b      	ldr	r3, [pc, #492]	; (1538 <runCoreKernels()+0x390>)
    134c:	f8df c1f4 	ldr.w	ip, [pc, #500]	; 1544 <runCoreKernels()+0x39c>
    1350:	f830 1f02 	ldrh.w	r1, [r0, #2]!
    1354:	404b      	eors	r3, r1
    1356:	4979      	ldr	r1, [pc, #484]	; (153c <runCoreKernels()+0x394>)
    1358:	4281      	cmp	r1, r0
    135a:	fb0c f303 	mul.w	r3, ip, r3
    135e:	d1f7      	bne.n	1350 <runCoreKernels()+0x1a8>
    1360:	f44f 7100 	mov.w	r1, #512	; 0x200
    1364:	9303      	str	r3, [sp, #12]
    1366:	a813      	add	r0, sp, #76	; 0x4c
    1368:	465b      	mov	r3, fp
    136a:	9102      	str	r1, [sp, #8]
    136c:	4974      	ldr	r1, [pc, #464]	; (1540 <runCoreKernels()+0x398>)
    136e:	e9cd 8700 	strd	r8, r7, [sp]
    1372:	f7ff fc87 	bl	c84 <printResult(char const*, char const*, unsigned long, unsigned long, unsigned long, unsigned long, unsigned long, unsigned long, unsigned long, char const*) [clone .constprop.0]>
    1376:	f8df 81d8 	ldr.w	r8, [pc, #472]	; 1550 <runCoreKernels()+0x3a8>
    137a:	f8df c1b0 	ldr.w	ip, [pc, #432]	; 152c <runCoreKernels()+0x384>
    137e:	e9dd b907 	ldrd	fp, r9, [sp, #28]
    1382:	f838 1f02 	ldrh.w	r1, [r8, #2]!
    1386:	f83c 2f02 	ldrh.w	r2, [ip, #2]!
    138a:	0acb      	lsrs	r3, r1, #11
    138c:	f3c2 1745 	ubfx	r7, r2, #5, #6
    1390:	f002 0e1f 	and.w	lr, r2, #31
    1394:	eba3 23d2 	sub.w	r3, r3, r2, lsr #11
    1398:	45e2      	cmp	sl, ip
    139a:	ea42 4002 	orr.w	r0, r2, r2, lsl #16
    139e:	fb04 f303 	mul.w	r3, r4, r3
    13a2:	ea00 0006 	and.w	r0, r0, r6
    13a6:	ea4f 1363 	mov.w	r3, r3, asr #5
    13aa:	eb03 23d2 	add.w	r3, r3, r2, lsr #11
    13ae:	ea41 4201 	orr.w	r2, r1, r1, lsl #16
    13b2:	f003 031f 	and.w	r3, r3, #31
    13b6:	ea02 0206 	and.w	r2, r2, r6
    13ba:	ea4f 23c3 	mov.w	r3, r3, lsl #11
    13be:	eba2 0200 	sub.w	r2, r2, r0
    13c2:	fb04 f202 	mul.w	r2, r4, r2
    13c6:	eb00 1052 	add.w	r0, r0, r2, lsr #5
    13ca:	f001 021f 	and.w	r2, r1, #31
    13ce:	ea00 0006 	and.w	r0, r0, r6
    13d2:	eba2 020e 	sub.w	r2, r2, lr
    13d6:	ea40 4010 	orr.w	r0, r0, r0, lsr #16
    13da:	fb04 f202 	mul.w	r2, r4, r2
    13de:	f829 0f02 	strh.w	r0, [r9, #2]!
    13e2:	f3c1 1045 	ubfx	r0, r1, #5, #6
    13e6:	eb0e 1262 	add.w	r2, lr, r2, asr #5
    13ea:	eba0 0107 	sub.w	r1, r0, r7
    13ee:	f002 021f 	and.w	r2, r2, #31
    13f2:	fb04 f101 	mul.w	r1, r4, r1
    13f6:	eb07 1161 	add.w	r1, r7, r1, asr #5
    13fa:	f001 013f 	and.w	r1, r1, #63	; 0x3f
    13fe:	ea43 1341 	orr.w	r3, r3, r1, lsl #5
    1402:	ea43 0302 	orr.w	r3, r3, r2
    1406:	f82b 3f02 	strh.w	r3, [fp, #2]!
    140a:	d1ba      	bne.n	1382 <runCoreKernels()+0x1da>
    140c:	e9dd 2307 	ldrd	r2, r3, [sp, #28]
    1410:	f04f 0900 	mov.w	r9, #0
    1414:	f833 1f02 	ldrh.w	r1, [r3, #2]!
    1418:	f832 0f02 	ldrh.w	r0, [r2, #2]!
    141c:	4288      	cmp	r0, r1
    141e:	4941      	ldr	r1, [pc, #260]	; (1524 <runCoreKernels()+0x37c>)
    1420:	bf18      	it	ne
    1422:	f109 0901 	addne.w	r9, r9, #1
    1426:	4299      	cmp	r1, r3
    1428:	d1f4      	bne.n	1414 <runCoreKernels()+0x26c>
    142a:	4b3f      	ldr	r3, [pc, #252]	; (1528 <runCoreKernels()+0x380>)
    142c:	f44f 7700 	mov.w	r7, #512	; 0x200
    1430:	685b      	ldr	r3, [r3, #4]
    1432:	930a      	str	r3, [sp, #40]	; 0x28
    1434:	f005 f808 	bl	6448 <micros>
    1438:	4683      	mov	fp, r0
    143a:	4628      	mov	r0, r5
    143c:	f8df e110 	ldr.w	lr, [pc, #272]	; 1550 <runCoreKernels()+0x3a8>
    1440:	f8df c0e8 	ldr.w	ip, [pc, #232]	; 152c <runCoreKernels()+0x384>
    1444:	f83e 1f02 	ldrh.w	r1, [lr, #2]!
    1448:	eb00 1040 	add.w	r0, r0, r0, lsl #5
    144c:	f83c 2f02 	ldrh.w	r2, [ip, #2]!
    1450:	0acb      	lsrs	r3, r1, #11
    1452:	f3c1 1845 	ubfx	r8, r1, #5, #6
    1456:	f001 011f 	and.w	r1, r1, #31
    145a:	45e2      	cmp	sl, ip
    145c:	eba3 23d2 	sub.w	r3, r3, r2, lsr #11
    1460:	fb04 f303 	mul.w	r3, r4, r3
    1464:	ea4f 1363 	mov.w	r3, r3, asr #5
    1468:	eb03 23d2 	add.w	r3, r3, r2, lsr #11
    146c:	f003 031f 	and.w	r3, r3, #31
    1470:	ea4f 25c3 	mov.w	r5, r3, lsl #11
    1474:	f3c2 1345 	ubfx	r3, r2, #5, #6
    1478:	f002 021f 	and.w	r2, r2, #31
    147c:	eba8 0803 	sub.w	r8, r8, r3
    1480:	eba1 0102 	sub.w	r1, r1, r2
    1484:	fb04 f808 	mul.w	r8, r4, r8
    1488:	fb04 f101 	mul.w	r1, r4, r1
    148c:	eb03 1868 	add.w	r8, r3, r8, asr #5
    1490:	eb02 1361 	add.w	r3, r2, r1, asr #5
    1494:	f008 023f 	and.w	r2, r8, #63	; 0x3f
    1498:	f003 031f 	and.w	r3, r3, #31
    149c:	ea45 1242 	orr.w	r2, r5, r2, lsl #5
    14a0:	ea43 0302 	orr.w	r3, r3, r2
    14a4:	ea80 0003 	eor.w	r0, r0, r3
    14a8:	d1cc      	bne.n	1444 <runCoreKernels()+0x29c>
    14aa:	3f01      	subs	r7, #1
    14ac:	d1c6      	bne.n	143c <runCoreKernels()+0x294>
    14ae:	4605      	mov	r5, r0
    14b0:	f004 ffca 	bl	6448 <micros>
    14b4:	4a1c      	ldr	r2, [pc, #112]	; (1528 <runCoreKernels()+0x380>)
    14b6:	ee18 3a10 	vmov	r3, s16
    14ba:	491d      	ldr	r1, [pc, #116]	; (1530 <runCoreKernels()+0x388>)
    14bc:	eba0 080b 	sub.w	r8, r0, fp
    14c0:	6854      	ldr	r4, [r2, #4]
    14c2:	a813      	add	r0, sp, #76	; 0x4c
    14c4:	9a0a      	ldr	r2, [sp, #40]	; 0x28
    14c6:	1aa4      	subs	r4, r4, r2
    14c8:	680a      	ldr	r2, [r1, #0]
    14ca:	4055      	eors	r5, r2
    14cc:	4a19      	ldr	r2, [pc, #100]	; (1534 <runCoreKernels()+0x38c>)
    14ce:	600d      	str	r5, [r1, #0]
    14d0:	2120      	movs	r1, #32
    14d2:	f007 fea1 	bl	9218 <snprintf>
    14d6:	fab9 f289 	clz	r2, r9
    14da:	9807      	ldr	r0, [sp, #28]
    14dc:	0952      	lsrs	r2, r2, #5
    14de:	4b16      	ldr	r3, [pc, #88]	; (1538 <runCoreKernels()+0x390>)
    14e0:	4d18      	ldr	r5, [pc, #96]	; (1544 <runCoreKernels()+0x39c>)
    14e2:	f830 1f02 	ldrh.w	r1, [r0, #2]!
    14e6:	404b      	eors	r3, r1
    14e8:	4914      	ldr	r1, [pc, #80]	; (153c <runCoreKernels()+0x394>)
    14ea:	4281      	cmp	r1, r0
    14ec:	fb05 f303 	mul.w	r3, r5, r3
    14f0:	d1f7      	bne.n	14e2 <runCoreKernels()+0x33a>
    14f2:	f44f 7100 	mov.w	r1, #512	; 0x200
    14f6:	9303      	str	r3, [sp, #12]
    14f8:	a813      	add	r0, sp, #76	; 0x4c
    14fa:	464b      	mov	r3, r9
    14fc:	9102      	str	r1, [sp, #8]
    14fe:	4912      	ldr	r1, [pc, #72]	; (1548 <runCoreKernels()+0x3a0>)
    1500:	e9cd 8400 	strd	r8, r4, [sp]
    1504:	f7ff fbbe 	bl	c84 <printResult(char const*, char const*, unsigned long, unsigned long, unsigned long, unsigned long, unsigned long, unsigned long, unsigned long, char const*) [clone .constprop.0]>
    1508:	e024      	b.n	1554 <runCoreKernels()+0x3ac>
    150a:	bf00      	nop
    150c:	20000370 	.word	0x20000370
    1510:	07e0f81f 	.word	0x07e0f81f
    1514:	20000494 	.word	0x20000494
    1518:	200004a0 	.word	0x200004a0
    151c:	2000651e 	.word	0x2000651e
    1520:	20006116 	.word	0x20006116
    1524:	2000691e 	.word	0x2000691e
    1528:	e0001000 	.word	0xe0001000
    152c:	20001886 	.word	0x20001886
    1530:	20007138 	.word	0x20007138
    1534:	200003f0 	.word	0x200003f0
    1538:	811c9dc5 	.word	0x811c9dc5
    153c:	20006516 	.word	0x20006516
    1540:	200004ac 	.word	0x200004ac
    1544:	01000193 	.word	0x01000193
    1548:	200004bc 	.word	0x200004bc
    154c:	20001c86 	.word	0x20001c86
    1550:	20001c8e 	.word	0x20001c8e
    1554:	aa23      	add	r2, sp, #140	; 0x8c
    1556:	9b09      	ldr	r3, [sp, #36]	; 0x24
    1558:	429a      	cmp	r2, r3
    155a:	f47f ae37 	bne.w	11cc <runCoreKernels()+0x24>
    155e:	48cf      	ldr	r0, [pc, #828]	; (189c <runCoreKernels()+0x6f4>)
    1560:	f7ff fca8 	bl	eb4 <void runBlendRandom<BlendPacked>(char const*)>
    1564:	48ce      	ldr	r0, [pc, #824]	; (18a0 <runCoreKernels()+0x6f8>)
    1566:	f7ff fca5 	bl	eb4 <void runBlendRandom<BlendPacked>(char const*)>
    156a:	f8df 9364 	ldr.w	r9, [pc, #868]	; 18d0 <runCoreKernels()+0x728>
    156e:	f8df b340 	ldr.w	fp, [pc, #832]	; 18b0 <runCoreKernels()+0x708>
    1572:	4ecc      	ldr	r6, [pc, #816]	; (18a4 <runCoreKernels()+0x6fc>)
    1574:	f8df c35c 	ldr.w	ip, [pc, #860]	; 18d4 <runCoreKernels()+0x72c>
    1578:	e9dd e807 	ldrd	lr, r8, [sp, #28]
    157c:	f836 0f02 	ldrh.w	r0, [r6, #2]!
    1580:	f83b 3f02 	ldrh.w	r3, [fp, #2]!
    1584:	ea40 4100 	orr.w	r1, r0, r0, lsl #16
    1588:	f859 2f04 	ldr.w	r2, [r9, #4]!
    158c:	ea43 4403 	orr.w	r4, r3, r3, lsl #16
    1590:	f3c0 1545 	ubfx	r5, r0, #5, #6
    1594:	ea01 010c 	and.w	r1, r1, ip
    1598:	08d2      	lsrs	r2, r2, #3
    159a:	ea04 040c 	and.w	r4, r4, ip
    159e:	45b2      	cmp	sl, r6
    15a0:	eba4 0401 	sub.w	r4, r4, r1
    15a4:	fb02 f404 	mul.w	r4, r2, r4
    15a8:	eb01 1154 	add.w	r1, r1, r4, lsr #5
    15ac:	ea4f 24d3 	mov.w	r4, r3, lsr #11
    15b0:	ea01 010c 	and.w	r1, r1, ip
    15b4:	fb02 f404 	mul.w	r4, r2, r4
    15b8:	ea41 4111 	orr.w	r1, r1, r1, lsr #16
    15bc:	f828 1f02 	strh.w	r1, [r8, #2]!
    15c0:	f3c3 1145 	ubfx	r1, r3, #5, #6
    15c4:	f003 031f 	and.w	r3, r3, #31
    15c8:	fb02 f101 	mul.w	r1, r2, r1
    15cc:	fb02 f303 	mul.w	r3, r2, r3
    15d0:	f1c2 0220 	rsb	r2, r2, #32
    15d4:	fb02 1105 	mla	r1, r2, r5, r1
    15d8:	ea4f 25d0 	mov.w	r5, r0, lsr #11
    15dc:	f000 001f 	and.w	r0, r0, #31
    15e0:	fb02 4405 	mla	r4, r2, r5, r4
    15e4:	f401 61fc 	and.w	r1, r1, #2016	; 0x7e0
    15e8:	fb02 3200 	mla	r2, r2, r0, r3
    15ec:	f3c4 1444 	ubfx	r4, r4, #5, #5
    15f0:	f3c2 1244 	ubfx	r2, r2, #5, #5
    15f4:	ea41 23c4 	orr.w	r3, r1, r4, lsl #11
    15f8:	ea43 0302 	orr.w	r3, r3, r2
    15fc:	f82e 3f02 	strh.w	r3, [lr, #2]!
    1600:	d1bc      	bne.n	157c <runCoreKernels()+0x3d4>
    1602:	e9dd 2307 	ldrd	r2, r3, [sp, #28]
    1606:	f04f 0900 	mov.w	r9, #0
    160a:	f833 1f02 	ldrh.w	r1, [r3, #2]!
    160e:	f832 0f02 	ldrh.w	r0, [r2, #2]!
    1612:	4288      	cmp	r0, r1
    1614:	49a4      	ldr	r1, [pc, #656]	; (18a8 <runCoreKernels()+0x700>)
    1616:	bf18      	it	ne
    1618:	f109 0901 	addne.w	r9, r9, #1
    161c:	4299      	cmp	r1, r3
    161e:	d1f4      	bne.n	160a <runCoreKernels()+0x462>
    1620:	4ba2      	ldr	r3, [pc, #648]	; (18ac <runCoreKernels()+0x704>)
    1622:	f44f 7400 	mov.w	r4, #512	; 0x200
    1626:	685b      	ldr	r3, [r3, #4]
    1628:	9309      	str	r3, [sp, #36]	; 0x24
    162a:	f004 ff0d 	bl	6448 <micros>
    162e:	4683      	mov	fp, r0
    1630:	4638      	mov	r0, r7
    1632:	f8df c29c 	ldr.w	ip, [pc, #668]	; 18d0 <runCoreKernels()+0x728>
    1636:	4e9e      	ldr	r6, [pc, #632]	; (18b0 <runCoreKernels()+0x708>)
    1638:	4d9a      	ldr	r5, [pc, #616]	; (18a4 <runCoreKernels()+0x6fc>)
    163a:	f836 7f02 	ldrh.w	r7, [r6, #2]!
    163e:	eb00 1040 	add.w	r0, r0, r0, lsl #5
    1642:	f85c 3f04 	ldr.w	r3, [ip, #4]!
    1646:	f835 ef02 	ldrh.w	lr, [r5, #2]!
    164a:	f3c7 1245 	ubfx	r2, r7, #5, #6
    164e:	08db      	lsrs	r3, r3, #3
    1650:	0af9      	lsrs	r1, r7, #11
    1652:	f007 071f 	and.w	r7, r7, #31
    1656:	f3ce 1845 	ubfx	r8, lr, #5, #6
    165a:	fb03 f202 	mul.w	r2, r3, r2
    165e:	fb03 f101 	mul.w	r1, r3, r1
    1662:	45aa      	cmp	sl, r5
    1664:	fb03 f707 	mul.w	r7, r3, r7
    1668:	f1c3 0320 	rsb	r3, r3, #32
    166c:	fb03 2208 	mla	r2, r3, r8, r2
    1670:	ea4f 28de 	mov.w	r8, lr, lsr #11
    1674:	f00e 0e1f 	and.w	lr, lr, #31
    1678:	fb03 1108 	mla	r1, r3, r8, r1
    167c:	f402 62fc 	and.w	r2, r2, #2016	; 0x7e0
    1680:	fb03 770e 	mla	r7, r3, lr, r7
    1684:	f3c1 1144 	ubfx	r1, r1, #5, #5
    1688:	ea42 23c1 	orr.w	r3, r2, r1, lsl #11
    168c:	f3c7 1244 	ubfx	r2, r7, #5, #5
    1690:	ea43 0302 	orr.w	r3, r3, r2
    1694:	ea80 0003 	eor.w	r0, r0, r3
    1698:	d1cf      	bne.n	163a <runCoreKernels()+0x492>
    169a:	3c01      	subs	r4, #1
    169c:	d1c9      	bne.n	1632 <runCoreKernels()+0x48a>
    169e:	4607      	mov	r7, r0
    16a0:	f004 fed2 	bl	6448 <micros>
    16a4:	4b81      	ldr	r3, [pc, #516]	; (18ac <runCoreKernels()+0x704>)
    16a6:	eba0 0b0b 	sub.w	fp, r0, fp
    16aa:	4a82      	ldr	r2, [pc, #520]	; (18b4 <runCoreKernels()+0x70c>)
    16ac:	685e      	ldr	r6, [r3, #4]
    16ae:	9b09      	ldr	r3, [sp, #36]	; 0x24
    16b0:	9907      	ldr	r1, [sp, #28]
    16b2:	1af6      	subs	r6, r6, r3
    16b4:	6813      	ldr	r3, [r2, #0]
    16b6:	4d80      	ldr	r5, [pc, #512]	; (18b8 <runCoreKernels()+0x710>)
    16b8:	405f      	eors	r7, r3
    16ba:	4b80      	ldr	r3, [pc, #512]	; (18bc <runCoreKernels()+0x714>)
    16bc:	6017      	str	r7, [r2, #0]
    16be:	fab9 f289 	clz	r2, r9
    16c2:	0952      	lsrs	r2, r2, #5
    16c4:	f831 0f02 	ldrh.w	r0, [r1, #2]!
    16c8:	4058      	eors	r0, r3
    16ca:	fb05 f300 	mul.w	r3, r5, r0
    16ce:	487c      	ldr	r0, [pc, #496]	; (18c0 <runCoreKernels()+0x718>)
    16d0:	4288      	cmp	r0, r1
    16d2:	d1f7      	bne.n	16c4 <runCoreKernels()+0x51c>
    16d4:	f44f 7100 	mov.w	r1, #512	; 0x200
    16d8:	9303      	str	r3, [sp, #12]
    16da:	487a      	ldr	r0, [pc, #488]	; (18c4 <runCoreKernels()+0x71c>)
    16dc:	464b      	mov	r3, r9
    16de:	9102      	str	r1, [sp, #8]
    16e0:	4979      	ldr	r1, [pc, #484]	; (18c8 <runCoreKernels()+0x720>)
    16e2:	e9cd b600 	strd	fp, r6, [sp]
    16e6:	f7ff facd 	bl	c84 <printResult(char const*, char const*, unsigned long, unsigned long, unsigned long, unsigned long, unsigned long, unsigned long, unsigned long, char const*) [clone .constprop.0]>
    16ea:	f8df b1e4 	ldr.w	fp, [pc, #484]	; 18d0 <runCoreKernels()+0x728>
    16ee:	4b70      	ldr	r3, [pc, #448]	; (18b0 <runCoreKernels()+0x708>)
    16f0:	f8df c1b0 	ldr.w	ip, [pc, #432]	; 18a4 <runCoreKernels()+0x6fc>
    16f4:	f8df e1dc 	ldr.w	lr, [pc, #476]	; 18d4 <runCoreKernels()+0x72c>
    16f8:	9309      	str	r3, [sp, #36]	; 0x24
    16fa:	e9dd 8907 	ldrd	r8, r9, [sp, #28]
    16fe:	9b09      	ldr	r3, [sp, #36]	; 0x24
    1700:	f83c 2f02 	ldrh.w	r2, [ip, #2]!
    1704:	f833 1f02 	ldrh.w	r1, [r3, #2]!
    1708:	ea42 4002 	orr.w	r0, r2, r2, lsl #16
    170c:	f85b 7f04 	ldr.w	r7, [fp, #4]!
    1710:	ea41 4501 	orr.w	r5, r1, r1, lsl #16
    1714:	9309      	str	r3, [sp, #36]	; 0x24
    1716:	ea00 000e 	and.w	r0, r0, lr
    171a:	08ff      	lsrs	r7, r7, #3
    171c:	ea05 050e 	and.w	r5, r5, lr
    1720:	0acb      	lsrs	r3, r1, #11
    1722:	f3c2 1645 	ubfx	r6, r2, #5, #6
    1726:	45e2      	cmp	sl, ip
    1728:	eba5 0500 	sub.w	r5, r5, r0
    172c:	eba3 23d2 	sub.w	r3, r3, r2, lsr #11
    1730:	fb07 f505 	mul.w	r5, r7, r5
    1734:	fb07 f303 	mul.w	r3, r7, r3
    1738:	eb00 1055 	add.w	r0, r0, r5, lsr #5
    173c:	ea4f 1363 	mov.w	r3, r3, asr #5
    1740:	ea00 000e 	and.w	r0, r0, lr
    1744:	eb03 23d2 	add.w	r3, r3, r2, lsr #11
    1748:	f002 021f 	and.w	r2, r2, #31
    174c:	ea40 4010 	orr.w	r0, r0, r0, lsr #16
    1750:	f003 031f 	and.w	r3, r3, #31
    1754:	f829 0f02 	strh.w	r0, [r9, #2]!
    1758:	f3c1 1045 	ubfx	r0, r1, #5, #6
    175c:	f001 011f 	and.w	r1, r1, #31
    1760:	ea4f 23c3 	mov.w	r3, r3, lsl #11
    1764:	eba0 0006 	sub.w	r0, r0, r6
    1768:	eba1 0102 	sub.w	r1, r1, r2
    176c:	fb07 f000 	mul.w	r0, r7, r0
    1770:	fb07 f501 	mul.w	r5, r7, r1
    1774:	eb06 1160 	add.w	r1, r6, r0, asr #5
    1778:	eb02 1265 	add.w	r2, r2, r5, asr #5
    177c:	f001 013f 	and.w	r1, r1, #63	; 0x3f
    1780:	f002 021f 	and.w	r2, r2, #31
    1784:	ea43 1341 	orr.w	r3, r3, r1, lsl #5
    1788:	ea43 0302 	orr.w	r3, r3, r2
    178c:	f828 3f02 	strh.w	r3, [r8, #2]!
    1790:	d1b5      	bne.n	16fe <runCoreKernels()+0x556>
    1792:	e9dd 2307 	ldrd	r2, r3, [sp, #28]
    1796:	f04f 0900 	mov.w	r9, #0
    179a:	f833 1f02 	ldrh.w	r1, [r3, #2]!
    179e:	f832 0f02 	ldrh.w	r0, [r2, #2]!
    17a2:	4288      	cmp	r0, r1
    17a4:	4940      	ldr	r1, [pc, #256]	; (18a8 <runCoreKernels()+0x700>)
    17a6:	bf18      	it	ne
    17a8:	f109 0901 	addne.w	r9, r9, #1
    17ac:	4299      	cmp	r1, r3
    17ae:	d1f4      	bne.n	179a <runCoreKernels()+0x5f2>
    17b0:	4b3e      	ldr	r3, [pc, #248]	; (18ac <runCoreKernels()+0x704>)
    17b2:	f44f 7500 	mov.w	r5, #512	; 0x200
    17b6:	685b      	ldr	r3, [r3, #4]
    17b8:	9309      	str	r3, [sp, #36]	; 0x24
    17ba:	f004 fe45 	bl	6448 <micros>
    17be:	4683      	mov	fp, r0
    17c0:	f8df c10c 	ldr.w	ip, [pc, #268]	; 18d0 <runCoreKernels()+0x728>
    17c4:	4f3a      	ldr	r7, [pc, #232]	; (18b0 <runCoreKernels()+0x708>)
    17c6:	4e37      	ldr	r6, [pc, #220]	; (18a4 <runCoreKernels()+0x6fc>)
    17c8:	f837 1f02 	ldrh.w	r1, [r7, #2]!
    17cc:	eb04 1444 	add.w	r4, r4, r4, lsl #5
    17d0:	f836 2f02 	ldrh.w	r2, [r6, #2]!
    17d4:	0acb      	lsrs	r3, r1, #11
    17d6:	f85c 0f04 	ldr.w	r0, [ip, #4]!
    17da:	f3c2 1e45 	ubfx	lr, r2, #5, #6
    17de:	f3c1 1845 	ubfx	r8, r1, #5, #6
    17e2:	08c0      	lsrs	r0, r0, #3
    17e4:	f001 011f 	and.w	r1, r1, #31
    17e8:	eba3 23d2 	sub.w	r3, r3, r2, lsr #11
    17ec:	eba8 080e 	sub.w	r8, r8, lr
    17f0:	45b2      	cmp	sl, r6
    17f2:	fb00 f303 	mul.w	r3, r0, r3
    17f6:	fb00 f808 	mul.w	r8, r0, r8
    17fa:	ea4f 1363 	mov.w	r3, r3, asr #5
    17fe:	eb03 23d2 	add.w	r3, r3, r2, lsr #11
    1802:	f002 021f 	and.w	r2, r2, #31
    1806:	eba1 0102 	sub.w	r1, r1, r2
    180a:	f003 031f 	and.w	r3, r3, #31
    180e:	fb01 f000 	mul.w	r0, r1, r0
    1812:	eb0e 1168 	add.w	r1, lr, r8, asr #5
    1816:	ea4f 23c3 	mov.w	r3, r3, lsl #11
    181a:	eb02 1260 	add.w	r2, r2, r0, asr #5
    181e:	f001 013f 	and.w	r1, r1, #63	; 0x3f
    1822:	f002 021f 	and.w	r2, r2, #31
    1826:	ea43 1341 	orr.w	r3, r3, r1, lsl #5
    182a:	ea43 0302 	orr.w	r3, r3, r2
    182e:	ea84 0403 	eor.w	r4, r4, r3
    1832:	d1c9      	bne.n	17c8 <runCoreKernels()+0x620>
    1834:	3d01      	subs	r5, #1
    1836:	d1c3      	bne.n	17c0 <runCoreKernels()+0x618>
    1838:	f004 fe06 	bl	6448 <micros>
    183c:	4b1b      	ldr	r3, [pc, #108]	; (18ac <runCoreKernels()+0x704>)
    183e:	4a1d      	ldr	r2, [pc, #116]	; (18b4 <runCoreKernels()+0x70c>)
    1840:	eba0 070b 	sub.w	r7, r0, fp
    1844:	685e      	ldr	r6, [r3, #4]
    1846:	9b09      	ldr	r3, [sp, #36]	; 0x24
    1848:	9907      	ldr	r1, [sp, #28]
    184a:	1af6      	subs	r6, r6, r3
    184c:	6813      	ldr	r3, [r2, #0]
    184e:	405c      	eors	r4, r3
    1850:	4b1a      	ldr	r3, [pc, #104]	; (18bc <runCoreKernels()+0x714>)
    1852:	6014      	str	r4, [r2, #0]
    1854:	fab9 f289 	clz	r2, r9
    1858:	4c17      	ldr	r4, [pc, #92]	; (18b8 <runCoreKernels()+0x710>)
    185a:	0952      	lsrs	r2, r2, #5
    185c:	f831 0f02 	ldrh.w	r0, [r1, #2]!
    1860:	4058      	eors	r0, r3
    1862:	fb04 f300 	mul.w	r3, r4, r0
    1866:	4816      	ldr	r0, [pc, #88]	; (18c0 <runCoreKernels()+0x718>)
    1868:	4288      	cmp	r0, r1
    186a:	d1f7      	bne.n	185c <runCoreKernels()+0x6b4>
    186c:	f44f 7100 	mov.w	r1, #512	; 0x200
    1870:	9303      	str	r3, [sp, #12]
    1872:	4814      	ldr	r0, [pc, #80]	; (18c4 <runCoreKernels()+0x71c>)
    1874:	464b      	mov	r3, r9
    1876:	9102      	str	r1, [sp, #8]
    1878:	4914      	ldr	r1, [pc, #80]	; (18cc <runCoreKernels()+0x724>)
    187a:	f8df 805c 	ldr.w	r8, [pc, #92]	; 18d8 <runCoreKernels()+0x730>
    187e:	f8df 905c 	ldr.w	r9, [pc, #92]	; 18dc <runCoreKernels()+0x734>
    1882:	f8df b05c 	ldr.w	fp, [pc, #92]	; 18e0 <runCoreKernels()+0x738>
    1886:	e9cd 7600 	strd	r7, r6, [sp]
    188a:	f7ff f9fb 	bl	c84 <printResult(char const*, char const*, unsigned long, unsigned long, unsigned long, unsigned long, unsigned long, unsigned long, unsigned long, char const*) [clone .constprop.0]>
    188e:	4f05      	ldr	r7, [pc, #20]	; (18a4 <runCoreKernels()+0x6fc>)
    1890:	e9dd ce07 	ldrd	ip, lr, [sp, #28]
    1894:	e9cd 9809 	strd	r9, r8, [sp, #36]	; 0x24
    1898:	e024      	b.n	18e4 <runCoreKernels()+0x73c>
    189a:	bf00      	nop
    189c:	20000494 	.word	0x20000494
    18a0:	200004a0 	.word	0x200004a0
    18a4:	20001886 	.word	0x20001886
    18a8:	2000691e 	.word	0x2000691e
    18ac:	e0001000 	.word	0xe0001000
    18b0:	20001c8e 	.word	0x20001c8e
    18b4:	20007138 	.word	0x20007138
    18b8:	01000193 	.word	0x01000193
    18bc:	811c9dc5 	.word	0x811c9dc5
    18c0:	20006516 	.word	0x20006516
    18c4:	20000400 	.word	0x20000400
    18c8:	200004ac 	.word	0x200004ac
    18cc:	200004bc 	.word	0x200004bc
    18d0:	20007138 	.word	0x20007138
    18d4:	07e0f81f 	.word	0x07e0f81f
    18d8:	20005904 	.word	0x20005904
    18dc:	200050f4 	.word	0x200050f4
    18e0:	200048e4 	.word	0x200048e4
    18e4:	9a09      	ldr	r2, [sp, #36]	; 0x24
    18e6:	f837 3f02 	ldrh.w	r3, [r7, #2]!
    18ea:	f852 0f04 	ldr.w	r0, [r2, #4]!
    18ee:	f85b 6f04 	ldr.w	r6, [fp, #4]!
    18f2:	f003 011f 	and.w	r1, r3, #31
    18f6:	9209      	str	r2, [sp, #36]	; 0x24
    18f8:	45ba      	cmp	sl, r7
    18fa:	9a0a      	ldr	r2, [sp, #40]	; 0x28
    18fc:	fb06 f101 	mul.w	r1, r6, r1
    1900:	f852 4f04 	ldr.w	r4, [r2, #4]!
    1904:	f3c1 2104 	ubfx	r1, r1, #8, #5
    1908:	920a      	str	r2, [sp, #40]	; 0x28
    190a:	f3c3 1245 	ubfx	r2, r3, #5, #6
    190e:	fb00 f202 	mul.w	r2, r0, r2
    1912:	ea4f 20d3 	mov.w	r0, r3, lsr #11
    1916:	f3c2 2205 	ubfx	r2, r2, #8, #6
    191a:	fb04 f000 	mul.w	r0, r4, r0
    191e:	ea41 1142 	orr.w	r1, r1, r2, lsl #5
    1922:	ea4f 2020 	mov.w	r0, r0, asr #8
    1926:	ea41 21c0 	orr.w	r1, r1, r0, lsl #11
    192a:	f82e 1f02 	strh.w	r1, [lr, #2]!
    192e:	f82c 1f02 	strh.w	r1, [ip, #2]!
    1932:	d1d7      	bne.n	18e4 <runCoreKernels()+0x73c>
    1934:	e9dd 2307 	ldrd	r2, r3, [sp, #28]
    1938:	f04f 0b00 	mov.w	fp, #0
    193c:	f833 1f02 	ldrh.w	r1, [r3, #2]!
    1940:	f832 0f02 	ldrh.w	r0, [r2, #2]!
    1944:	4288      	cmp	r0, r1
    1946:	49cd      	ldr	r1, [pc, #820]	; (1c7c <runCoreKernels()+0xad4>)
    1948:	bf18      	it	ne
    194a:	f10b 0b01 	addne.w	fp, fp, #1
    194e:	4299      	cmp	r1, r3
    1950:	d1f4      	bne.n	193c <runCoreKernels()+0x794>
    1952:	4bcb      	ldr	r3, [pc, #812]	; (1c80 <runCoreKernels()+0xad8>)
    1954:	f44f 7400 	mov.w	r4, #512	; 0x200
    1958:	685b      	ldr	r3, [r3, #4]
    195a:	9309      	str	r3, [sp, #36]	; 0x24
    195c:	f004 fd74 	bl	6448 <micros>
    1960:	4629      	mov	r1, r5
    1962:	900a      	str	r0, [sp, #40]	; 0x28
    1964:	f8df c338 	ldr.w	ip, [pc, #824]	; 1ca0 <runCoreKernels()+0xaf8>
    1968:	464f      	mov	r7, r9
    196a:	4646      	mov	r6, r8
    196c:	48c5      	ldr	r0, [pc, #788]	; (1c84 <runCoreKernels()+0xadc>)
    196e:	f830 2f02 	ldrh.w	r2, [r0, #2]!
    1972:	eb01 1141 	add.w	r1, r1, r1, lsl #5
    1976:	f857 3f04 	ldr.w	r3, [r7, #4]!
    197a:	f3c2 1545 	ubfx	r5, r2, #5, #6
    197e:	f85c ef04 	ldr.w	lr, [ip, #4]!
    1982:	4582      	cmp	sl, r0
    1984:	fb03 f505 	mul.w	r5, r3, r5
    1988:	f002 031f 	and.w	r3, r2, #31
    198c:	ea4f 22d2 	mov.w	r2, r2, lsr #11
    1990:	fb0e f303 	mul.w	r3, lr, r3
    1994:	f3c5 2505 	ubfx	r5, r5, #8, #6
    1998:	f3c3 2304 	ubfx	r3, r3, #8, #5
    199c:	ea43 1345 	orr.w	r3, r3, r5, lsl #5
    19a0:	f856 5f04 	ldr.w	r5, [r6, #4]!
    19a4:	fb05 f202 	mul.w	r2, r5, r2
    19a8:	ea4f 2222 	mov.w	r2, r2, asr #8
    19ac:	ea43 23c2 	orr.w	r3, r3, r2, lsl #11
    19b0:	b29b      	uxth	r3, r3
    19b2:	ea81 0103 	eor.w	r1, r1, r3
    19b6:	d1da      	bne.n	196e <runCoreKernels()+0x7c6>
    19b8:	3c01      	subs	r4, #1
    19ba:	d1d3      	bne.n	1964 <runCoreKernels()+0x7bc>
    19bc:	460d      	mov	r5, r1
    19be:	f004 fd43 	bl	6448 <micros>
    19c2:	9b0a      	ldr	r3, [sp, #40]	; 0x28
    19c4:	4ab0      	ldr	r2, [pc, #704]	; (1c88 <runCoreKernels()+0xae0>)
    19c6:	1ac7      	subs	r7, r0, r3
    19c8:	4bad      	ldr	r3, [pc, #692]	; (1c80 <runCoreKernels()+0xad8>)
    19ca:	9807      	ldr	r0, [sp, #28]
    19cc:	685e      	ldr	r6, [r3, #4]
    19ce:	9b09      	ldr	r3, [sp, #36]	; 0x24
    19d0:	1af6      	subs	r6, r6, r3
    19d2:	6813      	ldr	r3, [r2, #0]
    19d4:	405d      	eors	r5, r3
    19d6:	4bad      	ldr	r3, [pc, #692]	; (1c8c <runCoreKernels()+0xae4>)
    19d8:	6015      	str	r5, [r2, #0]
    19da:	fabb f28b 	clz	r2, fp
    19de:	4dac      	ldr	r5, [pc, #688]	; (1c90 <runCoreKernels()+0xae8>)
    19e0:	0952      	lsrs	r2, r2, #5
    19e2:	f830 1f02 	ldrh.w	r1, [r0, #2]!
    19e6:	404b      	eors	r3, r1
    19e8:	49aa      	ldr	r1, [pc, #680]	; (1c94 <runCoreKernels()+0xaec>)
    19ea:	4281      	cmp	r1, r0
    19ec:	fb05 f303 	mul.w	r3, r5, r3
    19f0:	d1f7      	bne.n	19e2 <runCoreKernels()+0x83a>
    19f2:	f44f 7100 	mov.w	r1, #512	; 0x200
    19f6:	9303      	str	r3, [sp, #12]
    19f8:	48a7      	ldr	r0, [pc, #668]	; (1c98 <runCoreKernels()+0xaf0>)
    19fa:	465b      	mov	r3, fp
    19fc:	9102      	str	r1, [sp, #8]
    19fe:	49a7      	ldr	r1, [pc, #668]	; (1c9c <runCoreKernels()+0xaf4>)
    1a00:	e9cd 7600 	strd	r7, r6, [sp]
    1a04:	f7ff f93e 	bl	c84 <printResult(char const*, char const*, unsigned long, unsigned long, unsigned long, unsigned long, unsigned long, unsigned long, unsigned long, char const*) [clone .constprop.0]>
    1a08:	4ba5      	ldr	r3, [pc, #660]	; (1ca0 <runCoreKernels()+0xaf8>)
    1a0a:	f8df c278 	ldr.w	ip, [pc, #632]	; 1c84 <runCoreKernels()+0xadc>
    1a0e:	f8cd 802c 	str.w	r8, [sp, #44]	; 0x2c
    1a12:	e9dd eb07 	ldrd	lr, fp, [sp, #28]
    1a16:	e9cd 3909 	strd	r3, r9, [sp, #36]	; 0x24
    1a1a:	9a0b      	ldr	r2, [sp, #44]	; 0x2c
    1a1c:	f83c 3f02 	ldrh.w	r3, [ip, #2]!
    1a20:	f852 6f04 	ldr.w	r6, [r2, #4]!
    1a24:	f003 011f 	and.w	r1, r3, #31
    1a28:	0ad8      	lsrs	r0, r3, #11
    1a2a:	920b      	str	r2, [sp, #44]	; 0x2c
    1a2c:	45e2      	cmp	sl, ip
    1a2e:	9a0a      	ldr	r2, [sp, #40]	; 0x28
    1a30:	fb06 f000 	mul.w	r0, r6, r0
    1a34:	f852 7f04 	ldr.w	r7, [r2, #4]!
    1a38:	f3c0 2004 	ubfx	r0, r0, #8, #5
    1a3c:	920a      	str	r2, [sp, #40]	; 0x28
    1a3e:	ea4f 20c0 	mov.w	r0, r0, lsl #11
    1a42:	9a09      	ldr	r2, [sp, #36]	; 0x24
    1a44:	f852 5f04 	ldr.w	r5, [r2, #4]!
    1a48:	9209      	str	r2, [sp, #36]	; 0x24
    1a4a:	f3c3 1245 	ubfx	r2, r3, #5, #6
    1a4e:	fb05 f101 	mul.w	r1, r5, r1
    1a52:	fb07 f202 	mul.w	r2, r7, r2
    1a56:	f3c1 2104 	ubfx	r1, r1, #8, #5
    1a5a:	f3c2 2205 	ubfx	r2, r2, #8, #6
    1a5e:	ea41 1142 	orr.w	r1, r1, r2, lsl #5
    1a62:	f3c3 1245 	ubfx	r2, r3, #5, #6
    1a66:	fb07 f202 	mul.w	r2, r7, r2
    1a6a:	f3c2 2205 	ubfx	r2, r2, #8, #6
    1a6e:	ea40 1242 	orr.w	r2, r0, r2, lsl #5
    1a72:	ea4f 20d3 	mov.w	r0, r3, lsr #11
    1a76:	f003 031f 	and.w	r3, r3, #31
    1a7a:	fb06 f000 	mul.w	r0, r6, r0
    1a7e:	fb05 f303 	mul.w	r3, r5, r3
    1a82:	ea4f 2020 	mov.w	r0, r0, asr #8
    1a86:	f3c3 2304 	ubfx	r3, r3, #8, #5
    1a8a:	ea41 21c0 	orr.w	r1, r1, r0, lsl #11
    1a8e:	ea42 0203 	orr.w	r2, r2, r3
    1a92:	f82b 1f02 	strh.w	r1, [fp, #2]!
    1a96:	f82e 2f02 	strh.w	r2, [lr, #2]!
    1a9a:	d1be      	bne.n	1a1a <runCoreKernels()+0x872>
    1a9c:	e9dd 2307 	ldrd	r2, r3, [sp, #28]
    1aa0:	f04f 0b00 	mov.w	fp, #0
    1aa4:	f833 1f02 	ldrh.w	r1, [r3, #2]!
    1aa8:	f832 0f02 	ldrh.w	r0, [r2, #2]!
    1aac:	4288      	cmp	r0, r1
    1aae:	4973      	ldr	r1, [pc, #460]	; (1c7c <runCoreKernels()+0xad4>)
    1ab0:	bf18      	it	ne
    1ab2:	f10b 0b01 	addne.w	fp, fp, #1
    1ab6:	4299      	cmp	r1, r3
    1ab8:	d1f4      	bne.n	1aa4 <runCoreKernels()+0x8fc>
    1aba:	4b71      	ldr	r3, [pc, #452]	; (1c80 <runCoreKernels()+0xad8>)
    1abc:	f44f 7500 	mov.w	r5, #512	; 0x200
    1ac0:	685b      	ldr	r3, [r3, #4]
    1ac2:	9309      	str	r3, [sp, #36]	; 0x24
    1ac4:	f004 fcc0 	bl	6448 <micros>
    1ac8:	4621      	mov	r1, r4
    1aca:	900a      	str	r0, [sp, #40]	; 0x28
    1acc:	f8df c1d0 	ldr.w	ip, [pc, #464]	; 1ca0 <runCoreKernels()+0xaf8>
    1ad0:	464f      	mov	r7, r9
    1ad2:	4646      	mov	r6, r8
    1ad4:	486b      	ldr	r0, [pc, #428]	; (1c84 <runCoreKernels()+0xadc>)
    1ad6:	f830 3f02 	ldrh.w	r3, [r0, #2]!
    1ada:	eb01 1141 	add.w	r1, r1, r1, lsl #5
    1ade:	f856 2f04 	ldr.w	r2, [r6, #4]!
    1ae2:	0adc      	lsrs	r4, r3, #11
    1ae4:	f857 ef04 	ldr.w	lr, [r7, #4]!
    1ae8:	4550      	cmp	r0, sl
    1aea:	fb02 f404 	mul.w	r4, r2, r4
    1aee:	f3c3 1245 	ubfx	r2, r3, #5, #6
    1af2:	f003 031f 	and.w	r3, r3, #31
    1af6:	f3c4 2404 	ubfx	r4, r4, #8, #5
    1afa:	fb0e f202 	mul.w	r2, lr, r2
    1afe:	ea4f 24c4 	mov.w	r4, r4, lsl #11
    1b02:	f3c2 2205 	ubfx	r2, r2, #8, #6
    1b06:	ea44 1242 	orr.w	r2, r4, r2, lsl #5
    1b0a:	f85c 4f04 	ldr.w	r4, [ip, #4]!
    1b0e:	fb04 f303 	mul.w	r3, r4, r3
    1b12:	f3c3 2304 	ubfx	r3, r3, #8, #5
    1b16:	ea43 0302 	orr.w	r3, r3, r2
    1b1a:	ea81 0103 	eor.w	r1, r1, r3
    1b1e:	d1da      	bne.n	1ad6 <runCoreKernels()+0x92e>
    1b20:	3d01      	subs	r5, #1
    1b22:	d1d3      	bne.n	1acc <runCoreKernels()+0x924>
    1b24:	460c      	mov	r4, r1
    1b26:	f004 fc8f 	bl	6448 <micros>
    1b2a:	9b0a      	ldr	r3, [sp, #40]	; 0x28
    1b2c:	4a56      	ldr	r2, [pc, #344]	; (1c88 <runCoreKernels()+0xae0>)
    1b2e:	1ac7      	subs	r7, r0, r3
    1b30:	4b53      	ldr	r3, [pc, #332]	; (1c80 <runCoreKernels()+0xad8>)
    1b32:	9807      	ldr	r0, [sp, #28]
    1b34:	685e      	ldr	r6, [r3, #4]
    1b36:	9b09      	ldr	r3, [sp, #36]	; 0x24
    1b38:	1af6      	subs	r6, r6, r3
    1b3a:	6813      	ldr	r3, [r2, #0]
    1b3c:	405c      	eors	r4, r3
    1b3e:	4b53      	ldr	r3, [pc, #332]	; (1c8c <runCoreKernels()+0xae4>)
    1b40:	6014      	str	r4, [r2, #0]
    1b42:	fabb f28b 	clz	r2, fp
    1b46:	4c52      	ldr	r4, [pc, #328]	; (1c90 <runCoreKernels()+0xae8>)
    1b48:	0952      	lsrs	r2, r2, #5
    1b4a:	f830 1f02 	ldrh.w	r1, [r0, #2]!
    1b4e:	404b      	eors	r3, r1
    1b50:	4950      	ldr	r1, [pc, #320]	; (1c94 <runCoreKernels()+0xaec>)
    1b52:	4288      	cmp	r0, r1
    1b54:	fb04 f303 	mul.w	r3, r4, r3
    1b58:	d1f7      	bne.n	1b4a <runCoreKernels()+0x9a2>
    1b5a:	f44f 7100 	mov.w	r1, #512	; 0x200
    1b5e:	9303      	str	r3, [sp, #12]
    1b60:	484d      	ldr	r0, [pc, #308]	; (1c98 <runCoreKernels()+0xaf0>)
    1b62:	465b      	mov	r3, fp
    1b64:	9102      	str	r1, [sp, #8]
    1b66:	494f      	ldr	r1, [pc, #316]	; (1ca4 <runCoreKernels()+0xafc>)
    1b68:	f8df b134 	ldr.w	fp, [pc, #308]	; 1ca0 <runCoreKernels()+0xaf8>
    1b6c:	e9cd 7600 	strd	r7, r6, [sp]
    1b70:	f7ff f888 	bl	c84 <printResult(char const*, char const*, unsigned long, unsigned long, unsigned long, unsigned long, unsigned long, unsigned long, unsigned long, char const*) [clone .constprop.0]>
    1b74:	4f43      	ldr	r7, [pc, #268]	; (1c84 <runCoreKernels()+0xadc>)
    1b76:	e9dd ce07 	ldrd	ip, lr, [sp, #28]
    1b7a:	e9cd 8909 	strd	r8, r9, [sp, #36]	; 0x24
    1b7e:	9a0a      	ldr	r2, [sp, #40]	; 0x28
    1b80:	f837 3f02 	ldrh.w	r3, [r7, #2]!
    1b84:	f852 0f04 	ldr.w	r0, [r2, #4]!
    1b88:	f85b 6f04 	ldr.w	r6, [fp, #4]!
    1b8c:	f003 011f 	and.w	r1, r3, #31
    1b90:	920a      	str	r2, [sp, #40]	; 0x28
    1b92:	45ba      	cmp	sl, r7
    1b94:	9a09      	ldr	r2, [sp, #36]	; 0x24
    1b96:	fb06 f101 	mul.w	r1, r6, r1
    1b9a:	f852 4f04 	ldr.w	r4, [r2, #4]!
    1b9e:	f3c1 2104 	ubfx	r1, r1, #8, #5
    1ba2:	9209      	str	r2, [sp, #36]	; 0x24
    1ba4:	f3c3 1245 	ubfx	r2, r3, #5, #6
    1ba8:	fb00 f202 	mul.w	r2, r0, r2
    1bac:	ea4f 20d3 	mov.w	r0, r3, lsr #11
    1bb0:	f3c2 2205 	ubfx	r2, r2, #8, #6
    1bb4:	fb04 f000 	mul.w	r0, r4, r0
    1bb8:	ea41 1142 	orr.w	r1, r1, r2, lsl #5
    1bbc:	ea4f 2020 	mov.w	r0, r0, asr #8
    1bc0:	ea41 21c0 	orr.w	r1, r1, r0, lsl #11
    1bc4:	f82e 1f02 	strh.w	r1, [lr, #2]!
    1bc8:	f82c 1f02 	strh.w	r1, [ip, #2]!
    1bcc:	d1d7      	bne.n	1b7e <runCoreKernels()+0x9d6>
    1bce:	e9dd 2307 	ldrd	r2, r3, [sp, #28]
    1bd2:	f04f 0b00 	mov.w	fp, #0
    1bd6:	f833 1f02 	ldrh.w	r1, [r3, #2]!
    1bda:	f832 0f02 	ldrh.w	r0, [r2, #2]!
    1bde:	4288      	cmp	r0, r1
    1be0:	4926      	ldr	r1, [pc, #152]	; (1c7c <runCoreKernels()+0xad4>)
    1be2:	bf18      	it	ne
    1be4:	f10b 0b01 	addne.w	fp, fp, #1
    1be8:	4299      	cmp	r1, r3
    1bea:	d1f4      	bne.n	1bd6 <runCoreKernels()+0xa2e>
    1bec:	4b24      	ldr	r3, [pc, #144]	; (1c80 <runCoreKernels()+0xad8>)
    1bee:	f44f 7400 	mov.w	r4, #512	; 0x200
    1bf2:	685b      	ldr	r3, [r3, #4]
    1bf4:	9309      	str	r3, [sp, #36]	; 0x24
    1bf6:	f004 fc27 	bl	6448 <micros>
    1bfa:	4629      	mov	r1, r5
    1bfc:	900a      	str	r0, [sp, #40]	; 0x28
    1bfe:	f8df c0a0 	ldr.w	ip, [pc, #160]	; 1ca0 <runCoreKernels()+0xaf8>
    1c02:	464f      	mov	r7, r9
    1c04:	4646      	mov	r6, r8
    1c06:	481f      	ldr	r0, [pc, #124]	; (1c84 <runCoreKernels()+0xadc>)
    1c08:	f830 2f02 	ldrh.w	r2, [r0, #2]!
    1c0c:	eb01 1141 	add.w	r1, r1, r1, lsl #5
    1c10:	f857 3f04 	ldr.w	r3, [r7, #4]!
    1c14:	f3c2 1545 	ubfx	r5, r2, #5, #6
    1c18:	f85c ef04 	ldr.w	lr, [ip, #4]!
    1c1c:	4582      	cmp	sl, r0
    1c1e:	fb03 f505 	mul.w	r5, r3, r5
    1c22:	f002 031f 	and.w	r3, r2, #31
    1c26:	ea4f 22d2 	mov.w	r2, r2, lsr #11
    1c2a:	fb0e f303 	mul.w	r3, lr, r3
    1c2e:	f3c5 2505 	ubfx	r5, r5, #8, #6
    1c32:	f3c3 2304 	ubfx	r3, r3, #8, #5
    1c36:	ea43 1345 	orr.w	r3, r3, r5, lsl #5
    1c3a:	f856 5f04 	ldr.w	r5, [r6, #4]!
    1c3e:	fb05 f202 	mul.w	r2, r5, r2
    1c42:	ea4f 2222 	mov.w	r2, r2, asr #8
    1c46:	ea43 23c2 	orr.w	r3, r3, r2, lsl #11
    1c4a:	b29b      	uxth	r3, r3
    1c4c:	ea81 0103 	eor.w	r1, r1, r3
    1c50:	d1da      	bne.n	1c08 <runCoreKernels()+0xa60>
    1c52:	3c01      	subs	r4, #1
    1c54:	d1d3      	bne.n	1bfe <runCoreKernels()+0xa56>
    1c56:	460d      	mov	r5, r1
    1c58:	f004 fbf6 	bl	6448 <micros>
    1c5c:	9b0a      	ldr	r3, [sp, #40]	; 0x28
    1c5e:	4a0a      	ldr	r2, [pc, #40]	; (1c88 <runCoreKernels()+0xae0>)
    1c60:	1ac7      	subs	r7, r0, r3
    1c62:	4b07      	ldr	r3, [pc, #28]	; (1c80 <runCoreKernels()+0xad8>)
    1c64:	9807      	ldr	r0, [sp, #28]
    1c66:	685e      	ldr	r6, [r3, #4]
    1c68:	9b09      	ldr	r3, [sp, #36]	; 0x24
    1c6a:	1af6      	subs	r6, r6, r3
    1c6c:	6813      	ldr	r3, [r2, #0]
    1c6e:	405d      	eors	r5, r3
    1c70:	4b06      	ldr	r3, [pc, #24]	; (1c8c <runCoreKernels()+0xae4>)
    1c72:	6015      	str	r5, [r2, #0]
    1c74:	fabb f28b 	clz	r2, fp
    1c78:	e016      	b.n	1ca8 <runCoreKernels()+0xb00>
    1c7a:	bf00      	nop
    1c7c:	2000691e 	.word	0x2000691e
    1c80:	e0001000 	.word	0xe0001000
    1c84:	20001886 	.word	0x20001886
    1c88:	20007138 	.word	0x20007138
    1c8c:	811c9dc5 	.word	0x811c9dc5
    1c90:	01000193 	.word	0x01000193
    1c94:	20006516 	.word	0x20006516
    1c98:	200004c8 	.word	0x200004c8
    1c9c:	20000494 	.word	0x20000494
    1ca0:	200048e4 	.word	0x200048e4
    1ca4:	200004d4 	.word	0x200004d4
    1ca8:	4dca      	ldr	r5, [pc, #808]	; (1fd4 <runCoreKernels()+0xe2c>)
    1caa:	0952      	lsrs	r2, r2, #5
    1cac:	f830 1f02 	ldrh.w	r1, [r0, #2]!
    1cb0:	404b      	eors	r3, r1
    1cb2:	49c9      	ldr	r1, [pc, #804]	; (1fd8 <runCoreKernels()+0xe30>)
    1cb4:	4281      	cmp	r1, r0
    1cb6:	fb05 f303 	mul.w	r3, r5, r3
    1cba:	d1f7      	bne.n	1cac <runCoreKernels()+0xb04>
    1cbc:	f44f 7100 	mov.w	r1, #512	; 0x200
    1cc0:	9303      	str	r3, [sp, #12]
    1cc2:	48c6      	ldr	r0, [pc, #792]	; (1fdc <runCoreKernels()+0xe34>)
    1cc4:	465b      	mov	r3, fp
    1cc6:	9102      	str	r1, [sp, #8]
    1cc8:	49c5      	ldr	r1, [pc, #788]	; (1fe0 <runCoreKernels()+0xe38>)
    1cca:	e9cd 7600 	strd	r7, r6, [sp]
    1cce:	f7fe ffd9 	bl	c84 <printResult(char const*, char const*, unsigned long, unsigned long, unsigned long, unsigned long, unsigned long, unsigned long, unsigned long, char const*) [clone .constprop.0]>
    1cd2:	4bc4      	ldr	r3, [pc, #784]	; (1fe4 <runCoreKernels()+0xe3c>)
    1cd4:	f8df c318 	ldr.w	ip, [pc, #792]	; 1ff0 <runCoreKernels()+0xe48>
    1cd8:	f8cd 8024 	str.w	r8, [sp, #36]	; 0x24
    1cdc:	e9dd eb07 	ldrd	lr, fp, [sp, #28]
    1ce0:	e9cd 930a 	strd	r9, r3, [sp, #40]	; 0x28
    1ce4:	9a09      	ldr	r2, [sp, #36]	; 0x24
    1ce6:	f83c 3f02 	ldrh.w	r3, [ip, #2]!
    1cea:	f852 6f04 	ldr.w	r6, [r2, #4]!
    1cee:	f003 011f 	and.w	r1, r3, #31
    1cf2:	0ad8      	lsrs	r0, r3, #11
    1cf4:	9209      	str	r2, [sp, #36]	; 0x24
    1cf6:	45e2      	cmp	sl, ip
    1cf8:	9a0a      	ldr	r2, [sp, #40]	; 0x28
    1cfa:	fb06 f000 	mul.w	r0, r6, r0
    1cfe:	f852 7f04 	ldr.w	r7, [r2, #4]!
    1d02:	f3c0 2004 	ubfx	r0, r0, #8, #5
    1d06:	920a      	str	r2, [sp, #40]	; 0x28
    1d08:	ea4f 20c0 	mov.w	r0, r0, lsl #11
    1d0c:	9a0b      	ldr	r2, [sp, #44]	; 0x2c
    1d0e:	f852 5f04 	ldr.w	r5, [r2, #4]!
    1d12:	920b      	str	r2, [sp, #44]	; 0x2c
    1d14:	f3c3 1245 	ubfx	r2, r3, #5, #6
    1d18:	fb05 f101 	mul.w	r1, r5, r1
    1d1c:	fb07 f202 	mul.w	r2, r7, r2
    1d20:	f3c1 2104 	ubfx	r1, r1, #8, #5
    1d24:	f3c2 2205 	ubfx	r2, r2, #8, #6
    1d28:	ea41 1142 	orr.w	r1, r1, r2, lsl #5
    1d2c:	f3c3 1245 	ubfx	r2, r3, #5, #6
    1d30:	fb07 f202 	mul.w	r2, r7, r2
    1d34:	f3c2 2205 	ubfx	r2, r2, #8, #6
    1d38:	ea40 1242 	orr.w	r2, r0, r2, lsl #5
    1d3c:	ea4f 20d3 	mov.w	r0, r3, lsr #11
    1d40:	f003 031f 	and.w	r3, r3, #31
    1d44:	fb06 f000 	mul.w	r0, r6, r0
    1d48:	fb05 f303 	mul.w	r3, r5, r3
    1d4c:	ea4f 2020 	mov.w	r0, r0, asr #8
    1d50:	f3c3 2304 	ubfx	r3, r3, #8, #5
    1d54:	ea41 21c0 	orr.w	r1, r1, r0, lsl #11
    1d58:	ea42 0203 	orr.w	r2, r2, r3
    1d5c:	f82b 1f02 	strh.w	r1, [fp, #2]!
    1d60:	f82e 2f02 	strh.w	r2, [lr, #2]!
    1d64:	d1be      	bne.n	1ce4 <runCoreKernels()+0xb3c>
    1d66:	e9dd 2307 	ldrd	r2, r3, [sp, #28]
    1d6a:	f04f 0b00 	mov.w	fp, #0
    1d6e:	f833 1f02 	ldrh.w	r1, [r3, #2]!
    1d72:	f832 0f02 	ldrh.w	r0, [r2, #2]!
    1d76:	4288      	cmp	r0, r1
    1d78:	499b      	ldr	r1, [pc, #620]	; (1fe8 <runCoreKernels()+0xe40>)
    1d7a:	bf18      	it	ne
    1d7c:	f10b 0b01 	addne.w	fp, fp, #1
    1d80:	4299      	cmp	r1, r3
    1d82:	d1f4      	bne.n	1d6e <runCoreKernels()+0xbc6>
    1d84:	4b99      	ldr	r3, [pc, #612]	; (1fec <runCoreKernels()+0xe44>)
    1d86:	f44f 7500 	mov.w	r5, #512	; 0x200
    1d8a:	685b      	ldr	r3, [r3, #4]
    1d8c:	9309      	str	r3, [sp, #36]	; 0x24
    1d8e:	f004 fb5b 	bl	6448 <micros>
    1d92:	4621      	mov	r1, r4
    1d94:	900a      	str	r0, [sp, #40]	; 0x28
    1d96:	f8df c24c 	ldr.w	ip, [pc, #588]	; 1fe4 <runCoreKernels()+0xe3c>
    1d9a:	464f      	mov	r7, r9
    1d9c:	4646      	mov	r6, r8
    1d9e:	4894      	ldr	r0, [pc, #592]	; (1ff0 <runCoreKernels()+0xe48>)
    1da0:	f830 3f02 	ldrh.w	r3, [r0, #2]!
    1da4:	eb01 1141 	add.w	r1, r1, r1, lsl #5
    1da8:	f856 2f04 	ldr.w	r2, [r6, #4]!
    1dac:	0adc      	lsrs	r4, r3, #11
    1dae:	f857 ef04 	ldr.w	lr, [r7, #4]!
    1db2:	4582      	cmp	sl, r0
    1db4:	fb02 f404 	mul.w	r4, r2, r4
    1db8:	f3c3 1245 	ubfx	r2, r3, #5, #6
    1dbc:	f003 031f 	and.w	r3, r3, #31
    1dc0:	f3c4 2404 	ubfx	r4, r4, #8, #5
    1dc4:	fb0e f202 	mul.w	r2, lr, r2
    1dc8:	ea4f 24c4 	mov.w	r4, r4, lsl #11
    1dcc:	f3c2 2205 	ubfx	r2, r2, #8, #6
    1dd0:	ea44 1242 	orr.w	r2, r4, r2, lsl #5
    1dd4:	f85c 4f04 	ldr.w	r4, [ip, #4]!
    1dd8:	fb04 f303 	mul.w	r3, r4, r3
    1ddc:	f3c3 2304 	ubfx	r3, r3, #8, #5
    1de0:	ea43 0302 	orr.w	r3, r3, r2
    1de4:	ea81 0103 	eor.w	r1, r1, r3
    1de8:	d1da      	bne.n	1da0 <runCoreKernels()+0xbf8>
    1dea:	3d01      	subs	r5, #1
    1dec:	d1d3      	bne.n	1d96 <runCoreKernels()+0xbee>
    1dee:	460c      	mov	r4, r1
    1df0:	f004 fb2a 	bl	6448 <micros>
    1df4:	9b0a      	ldr	r3, [sp, #40]	; 0x28
    1df6:	4a7f      	ldr	r2, [pc, #508]	; (1ff4 <runCoreKernels()+0xe4c>)
    1df8:	1ac7      	subs	r7, r0, r3
    1dfa:	4b7c      	ldr	r3, [pc, #496]	; (1fec <runCoreKernels()+0xe44>)
    1dfc:	9807      	ldr	r0, [sp, #28]
    1dfe:	685e      	ldr	r6, [r3, #4]
    1e00:	9b09      	ldr	r3, [sp, #36]	; 0x24
    1e02:	1af6      	subs	r6, r6, r3
    1e04:	6813      	ldr	r3, [r2, #0]
    1e06:	405c      	eors	r4, r3
    1e08:	4b7b      	ldr	r3, [pc, #492]	; (1ff8 <runCoreKernels()+0xe50>)
    1e0a:	6014      	str	r4, [r2, #0]
    1e0c:	fabb f28b 	clz	r2, fp
    1e10:	4c70      	ldr	r4, [pc, #448]	; (1fd4 <runCoreKernels()+0xe2c>)
    1e12:	0952      	lsrs	r2, r2, #5
    1e14:	f830 1f02 	ldrh.w	r1, [r0, #2]!
    1e18:	404b      	eors	r3, r1
    1e1a:	496f      	ldr	r1, [pc, #444]	; (1fd8 <runCoreKernels()+0xe30>)
    1e1c:	4281      	cmp	r1, r0
    1e1e:	fb04 f303 	mul.w	r3, r4, r3
    1e22:	d1f7      	bne.n	1e14 <runCoreKernels()+0xc6c>
    1e24:	f44f 7100 	mov.w	r1, #512	; 0x200
    1e28:	486c      	ldr	r0, [pc, #432]	; (1fdc <runCoreKernels()+0xe34>)
    1e2a:	9303      	str	r3, [sp, #12]
    1e2c:	465b      	mov	r3, fp
    1e2e:	9102      	str	r1, [sp, #8]
    1e30:	f647 38ef 	movw	r8, #31727	; 0x7bef
    1e34:	4971      	ldr	r1, [pc, #452]	; (1ffc <runCoreKernels()+0xe54>)
    1e36:	4c6e      	ldr	r4, [pc, #440]	; (1ff0 <runCoreKernels()+0xe48>)
    1e38:	e9cd 7600 	strd	r7, r6, [sp]
    1e3c:	f7fe ff22 	bl	c84 <printResult(char const*, char const*, unsigned long, unsigned long, unsigned long, unsigned long, unsigned long, unsigned long, unsigned long, char const*) [clone .constprop.0]>
    1e40:	4867      	ldr	r0, [pc, #412]	; (1fe0 <runCoreKernels()+0xe38>)
    1e42:	f7fe ffa1 	bl	d88 <void runMean2<Mean2Packed>(char const*)>
    1e46:	486e      	ldr	r0, [pc, #440]	; (2000 <runCoreKernels()+0xe58>)
    1e48:	f7fe ff9e 	bl	d88 <void runMean2<Mean2Packed>(char const*)>
    1e4c:	f8df e1b4 	ldr.w	lr, [pc, #436]	; 2004 <runCoreKernels()+0xe5c>
    1e50:	e9dd 7c07 	ldrd	r7, ip, [sp, #28]
    1e54:	f83e 2f02 	ldrh.w	r2, [lr, #2]!
    1e58:	f834 1f02 	ldrh.w	r1, [r4, #2]!
    1e5c:	0ad3      	lsrs	r3, r2, #11
    1e5e:	f3c2 1645 	ubfx	r6, r2, #5, #6
    1e62:	f3c1 1045 	ubfx	r0, r1, #5, #6
    1e66:	45a2      	cmp	sl, r4
    1e68:	eb03 23d1 	add.w	r3, r3, r1, lsr #11
    1e6c:	4430      	add	r0, r6
    1e6e:	ea81 0602 	eor.w	r6, r1, r2
    1e72:	ea4f 0363 	mov.w	r3, r3, asr #1
    1e76:	ea4f 0060 	mov.w	r0, r0, asr #1
    1e7a:	ea4f 23c3 	mov.w	r3, r3, lsl #11
    1e7e:	ea08 0656 	and.w	r6, r8, r6, lsr #1
    1e82:	ea43 1340 	orr.w	r3, r3, r0, lsl #5
    1e86:	f001 001f 	and.w	r0, r1, #31
    1e8a:	ea01 0102 	and.w	r1, r1, r2
    1e8e:	f002 021f 	and.w	r2, r2, #31
    1e92:	4410      	add	r0, r2
    1e94:	4431      	add	r1, r6
    1e96:	ea43 0350 	orr.w	r3, r3, r0, lsr #1
    1e9a:	f82c 1f02 	strh.w	r1, [ip, #2]!
    1e9e:	f827 3f02 	strh.w	r3, [r7, #2]!
    1ea2:	d1d7      	bne.n	1e54 <runCoreKernels()+0xcac>
    1ea4:	e9dd 2307 	ldrd	r2, r3, [sp, #28]
    1ea8:	f04f 0800 	mov.w	r8, #0
    1eac:	f833 1f02 	ldrh.w	r1, [r3, #2]!
    1eb0:	f832 0f02 	ldrh.w	r0, [r2, #2]!
    1eb4:	4288      	cmp	r0, r1
    1eb6:	494c      	ldr	r1, [pc, #304]	; (1fe8 <runCoreKernels()+0xe40>)
    1eb8:	bf18      	it	ne
    1eba:	f108 0801 	addne.w	r8, r8, #1
    1ebe:	4299      	cmp	r1, r3
    1ec0:	d1f4      	bne.n	1eac <runCoreKernels()+0xd04>
    1ec2:	4b4a      	ldr	r3, [pc, #296]	; (1fec <runCoreKernels()+0xe44>)
    1ec4:	f44f 7600 	mov.w	r6, #512	; 0x200
    1ec8:	f8d3 b004 	ldr.w	fp, [r3, #4]
    1ecc:	f004 fabc 	bl	6448 <micros>
    1ed0:	4629      	mov	r1, r5
    1ed2:	4681      	mov	r9, r0
    1ed4:	4c4b      	ldr	r4, [pc, #300]	; (2004 <runCoreKernels()+0xe5c>)
    1ed6:	4846      	ldr	r0, [pc, #280]	; (1ff0 <runCoreKernels()+0xe48>)
    1ed8:	f834 7f02 	ldrh.w	r7, [r4, #2]!
    1edc:	eb01 1141 	add.w	r1, r1, r1, lsl #5
    1ee0:	f830 2f02 	ldrh.w	r2, [r0, #2]!
    1ee4:	0afb      	lsrs	r3, r7, #11
    1ee6:	f3c2 1545 	ubfx	r5, r2, #5, #6
    1eea:	f002 0c1f 	and.w	ip, r2, #31
    1eee:	eb03 23d2 	add.w	r3, r3, r2, lsr #11
    1ef2:	f3c7 1245 	ubfx	r2, r7, #5, #6
    1ef6:	f007 071f 	and.w	r7, r7, #31
    1efa:	4582      	cmp	sl, r0
    1efc:	442a      	add	r2, r5
    1efe:	ea4f 0363 	mov.w	r3, r3, asr #1
    1f02:	eb0c 0507 	add.w	r5, ip, r7
    1f06:	ea4f 23c3 	mov.w	r3, r3, lsl #11
    1f0a:	ea4f 0262 	mov.w	r2, r2, asr #1
    1f0e:	ea43 1342 	orr.w	r3, r3, r2, lsl #5
    1f12:	ea43 0355 	orr.w	r3, r3, r5, lsr #1
    1f16:	b29b      	uxth	r3, r3
    1f18:	ea81 0103 	eor.w	r1, r1, r3
    1f1c:	d1dc      	bne.n	1ed8 <runCoreKernels()+0xd30>
    1f1e:	3e01      	subs	r6, #1
    1f20:	d1d8      	bne.n	1ed4 <runCoreKernels()+0xd2c>
    1f22:	460d      	mov	r5, r1
    1f24:	f004 fa90 	bl	6448 <micros>
    1f28:	4a32      	ldr	r2, [pc, #200]	; (1ff4 <runCoreKernels()+0xe4c>)
    1f2a:	eba0 0909 	sub.w	r9, r0, r9
    1f2e:	4b2f      	ldr	r3, [pc, #188]	; (1fec <runCoreKernels()+0xe44>)
    1f30:	9807      	ldr	r0, [sp, #28]
    1f32:	685f      	ldr	r7, [r3, #4]
    1f34:	6813      	ldr	r3, [r2, #0]
    1f36:	eba7 070b 	sub.w	r7, r7, fp
    1f3a:	4c26      	ldr	r4, [pc, #152]	; (1fd4 <runCoreKernels()+0xe2c>)
    1f3c:	405d      	eors	r5, r3
    1f3e:	4b2e      	ldr	r3, [pc, #184]	; (1ff8 <runCoreKernels()+0xe50>)
    1f40:	6015      	str	r5, [r2, #0]
    1f42:	fab8 f288 	clz	r2, r8
    1f46:	0952      	lsrs	r2, r2, #5
    1f48:	f830 1f02 	ldrh.w	r1, [r0, #2]!
    1f4c:	404b      	eors	r3, r1
    1f4e:	4922      	ldr	r1, [pc, #136]	; (1fd8 <runCoreKernels()+0xe30>)
    1f50:	4281      	cmp	r1, r0
    1f52:	fb04 f303 	mul.w	r3, r4, r3
    1f56:	d1f7      	bne.n	1f48 <runCoreKernels()+0xda0>
    1f58:	f44f 7100 	mov.w	r1, #512	; 0x200
    1f5c:	9303      	str	r3, [sp, #12]
    1f5e:	482a      	ldr	r0, [pc, #168]	; (2008 <runCoreKernels()+0xe60>)
    1f60:	4643      	mov	r3, r8
    1f62:	9102      	str	r1, [sp, #8]
    1f64:	4929      	ldr	r1, [pc, #164]	; (200c <runCoreKernels()+0xe64>)
    1f66:	e9cd 9700 	strd	r9, r7, [sp]
    1f6a:	f7fe fe8b 	bl	c84 <printResult(char const*, char const*, unsigned long, unsigned long, unsigned long, unsigned long, unsigned long, unsigned long, unsigned long, char const*) [clone .constprop.0]>
    1f6e:	f8df c094 	ldr.w	ip, [pc, #148]	; 2004 <runCoreKernels()+0xe5c>
    1f72:	491f      	ldr	r1, [pc, #124]	; (1ff0 <runCoreKernels()+0xe48>)
    1f74:	f647 3eef 	movw	lr, #31727	; 0x7bef
    1f78:	e9dd 4707 	ldrd	r4, r7, [sp, #28]
    1f7c:	f831 3f02 	ldrh.w	r3, [r1, #2]!
    1f80:	f83c 0f02 	ldrh.w	r0, [ip, #2]!
    1f84:	ea83 0200 	eor.w	r2, r3, r0
    1f88:	ea03 0500 	and.w	r5, r3, r0
    1f8c:	ea0e 0252 	and.w	r2, lr, r2, lsr #1
    1f90:	442a      	add	r2, r5
    1f92:	f827 2f02 	strh.w	r2, [r7, #2]!
    1f96:	fa93 f360 	uhadd16	r3, r3, r0
    1f9a:	458a      	cmp	sl, r1
    1f9c:	f824 3f02 	strh.w	r3, [r4, #2]!
    1fa0:	d1ec      	bne.n	1f7c <runCoreKernels()+0xdd4>
    1fa2:	e9dd 2307 	ldrd	r2, r3, [sp, #28]
    1fa6:	2500      	movs	r5, #0
    1fa8:	f833 1f02 	ldrh.w	r1, [r3, #2]!
    1fac:	f832 0f02 	ldrh.w	r0, [r2, #2]!
    1fb0:	4288      	cmp	r0, r1
    1fb2:	490d      	ldr	r1, [pc, #52]	; (1fe8 <runCoreKernels()+0xe40>)
    1fb4:	bf18      	it	ne
    1fb6:	3501      	addne	r5, #1
    1fb8:	4299      	cmp	r1, r3
    1fba:	d1f5      	bne.n	1fa8 <runCoreKernels()+0xe00>
    1fbc:	4b0b      	ldr	r3, [pc, #44]	; (1fec <runCoreKernels()+0xe44>)
    1fbe:	f44f 7400 	mov.w	r4, #512	; 0x200
    1fc2:	f8d3 8004 	ldr.w	r8, [r3, #4]
    1fc6:	f004 fa3f 	bl	6448 <micros>
    1fca:	4607      	mov	r7, r0
    1fcc:	490d      	ldr	r1, [pc, #52]	; (2004 <runCoreKernels()+0xe5c>)
    1fce:	4a08      	ldr	r2, [pc, #32]	; (1ff0 <runCoreKernels()+0xe48>)
    1fd0:	e01e      	b.n	2010 <runCoreKernels()+0xe68>
    1fd2:	bf00      	nop
    1fd4:	01000193 	.word	0x01000193
    1fd8:	20006516 	.word	0x20006516
    1fdc:	200004e0 	.word	0x200004e0
    1fe0:	20000494 	.word	0x20000494
    1fe4:	200048e4 	.word	0x200048e4
    1fe8:	2000691e 	.word	0x2000691e
    1fec:	e0001000 	.word	0xe0001000
    1ff0:	20001886 	.word	0x20001886
    1ff4:	20007138 	.word	0x20007138
    1ff8:	811c9dc5 	.word	0x811c9dc5
    1ffc:	200004d4 	.word	0x200004d4
    2000:	200004f0 	.word	0x200004f0
    2004:	20001c8e 	.word	0x20001c8e
    2008:	20000418 	.word	0x20000418
    200c:	200003b8 	.word	0x200003b8
    2010:	eb06 1646 	add.w	r6, r6, r6, lsl #5
    2014:	f832 3f02 	ldrh.w	r3, [r2, #2]!
    2018:	f831 0f02 	ldrh.w	r0, [r1, #2]!
    201c:	fa93 f360 	uhadd16	r3, r3, r0
    2020:	b29b      	uxth	r3, r3
    2022:	4592      	cmp	sl, r2
    2024:	ea86 0603 	eor.w	r6, r6, r3
    2028:	d1f2      	bne.n	2010 <runCoreKernels()+0xe68>
    202a:	3c01      	subs	r4, #1
    202c:	d1ce      	bne.n	1fcc <runCoreKernels()+0xe24>
    202e:	f004 fa0b 	bl	6448 <micros>
    2032:	4ab7      	ldr	r2, [pc, #732]	; (2310 <runCoreKernels()+0x1168>)
    2034:	4bb7      	ldr	r3, [pc, #732]	; (2314 <runCoreKernels()+0x116c>)
    2036:	eba0 0c07 	sub.w	ip, r0, r7
    203a:	9807      	ldr	r0, [sp, #28]
    203c:	685f      	ldr	r7, [r3, #4]
    203e:	6813      	ldr	r3, [r2, #0]
    2040:	eba7 0708 	sub.w	r7, r7, r8
    2044:	405e      	eors	r6, r3
    2046:	4bb4      	ldr	r3, [pc, #720]	; (2318 <runCoreKernels()+0x1170>)
    2048:	6016      	str	r6, [r2, #0]
    204a:	fab5 f285 	clz	r2, r5
    204e:	4eb3      	ldr	r6, [pc, #716]	; (231c <runCoreKernels()+0x1174>)
    2050:	0952      	lsrs	r2, r2, #5
    2052:	f830 1f02 	ldrh.w	r1, [r0, #2]!
    2056:	404b      	eors	r3, r1
    2058:	49b1      	ldr	r1, [pc, #708]	; (2320 <runCoreKernels()+0x1178>)
    205a:	4281      	cmp	r1, r0
    205c:	fb06 f303 	mul.w	r3, r6, r3
    2060:	d1f7      	bne.n	2052 <runCoreKernels()+0xeaa>
    2062:	f44f 7100 	mov.w	r1, #512	; 0x200
    2066:	9303      	str	r3, [sp, #12]
    2068:	48ae      	ldr	r0, [pc, #696]	; (2324 <runCoreKernels()+0x117c>)
    206a:	462b      	mov	r3, r5
    206c:	9102      	str	r1, [sp, #8]
    206e:	49ae      	ldr	r1, [pc, #696]	; (2328 <runCoreKernels()+0x1180>)
    2070:	f8df 82c0 	ldr.w	r8, [pc, #704]	; 2334 <runCoreKernels()+0x118c>
    2074:	f8df 92c0 	ldr.w	r9, [pc, #704]	; 2338 <runCoreKernels()+0x1190>
    2078:	f8df b2c0 	ldr.w	fp, [pc, #704]	; 233c <runCoreKernels()+0x1194>
    207c:	4dab      	ldr	r5, [pc, #684]	; (232c <runCoreKernels()+0x1184>)
    207e:	e9cd c700 	strd	ip, r7, [sp]
    2082:	e9dd 6707 	ldrd	r6, r7, [sp, #28]
    2086:	f7fe fdfd 	bl	c84 <printResult(char const*, char const*, unsigned long, unsigned long, unsigned long, unsigned long, unsigned long, unsigned long, unsigned long, char const*) [clone .constprop.0]>
    208a:	f835 0f02 	ldrh.w	r0, [r5, #2]!
    208e:	f838 3f02 	ldrh.w	r3, [r8, #2]!
    2092:	f839 2f02 	ldrh.w	r2, [r9, #2]!
    2096:	f83b 1f02 	ldrh.w	r1, [fp, #2]!
    209a:	f7fd ffe5 	bl	68 <refMean4(unsigned short, unsigned short, unsigned short, unsigned short)>
    209e:	45aa      	cmp	sl, r5
    20a0:	f827 0f02 	strh.w	r0, [r7, #2]!
    20a4:	f826 0f02 	strh.w	r0, [r6, #2]!
    20a8:	d1ef      	bne.n	208a <runCoreKernels()+0xee2>
    20aa:	e9dd 2307 	ldrd	r2, r3, [sp, #28]
    20ae:	f04f 0b00 	mov.w	fp, #0
    20b2:	f833 1f02 	ldrh.w	r1, [r3, #2]!
    20b6:	f832 0f02 	ldrh.w	r0, [r2, #2]!
    20ba:	4288      	cmp	r0, r1
    20bc:	499c      	ldr	r1, [pc, #624]	; (2330 <runCoreKernels()+0x1188>)
    20be:	bf18      	it	ne
    20c0:	f10b 0b01 	addne.w	fp, fp, #1
    20c4:	4299      	cmp	r1, r3
    20c6:	d1f4      	bne.n	20b2 <runCoreKernels()+0xf0a>
    20c8:	4b92      	ldr	r3, [pc, #584]	; (2314 <runCoreKernels()+0x116c>)
    20ca:	f44f 7500 	mov.w	r5, #512	; 0x200
    20ce:	685b      	ldr	r3, [r3, #4]
    20d0:	9309      	str	r3, [sp, #36]	; 0x24
    20d2:	f004 f9b9 	bl	6448 <micros>
    20d6:	4622      	mov	r2, r4
    20d8:	900a      	str	r0, [sp, #40]	; 0x28
    20da:	4f96      	ldr	r7, [pc, #600]	; (2334 <runCoreKernels()+0x118c>)
    20dc:	4e96      	ldr	r6, [pc, #600]	; (2338 <runCoreKernels()+0x1190>)
    20de:	4897      	ldr	r0, [pc, #604]	; (233c <runCoreKernels()+0x1194>)
    20e0:	4992      	ldr	r1, [pc, #584]	; (232c <runCoreKernels()+0x1184>)
    20e2:	f831 3f02 	ldrh.w	r3, [r1, #2]!
    20e6:	eb02 1242 	add.w	r2, r2, r2, lsl #5
    20ea:	f830 ef02 	ldrh.w	lr, [r0, #2]!
    20ee:	f003 091f 	and.w	r9, r3, #31
    20f2:	f836 8f02 	ldrh.w	r8, [r6, #2]!
    20f6:	f00e 0c1f 	and.w	ip, lr, #31
    20fa:	f3ce 1445 	ubfx	r4, lr, #5, #6
    20fe:	458a      	cmp	sl, r1
    2100:	44e1      	add	r9, ip
    2102:	f3c3 1c45 	ubfx	ip, r3, #5, #6
    2106:	44a4      	add	ip, r4
    2108:	f3c3 24c4 	ubfx	r4, r3, #11, #5
    210c:	f008 031f 	and.w	r3, r8, #31
    2110:	eb04 24de 	add.w	r4, r4, lr, lsr #11
    2114:	f837 ef02 	ldrh.w	lr, [r7, #2]!
    2118:	444b      	add	r3, r9
    211a:	eb04 24d8 	add.w	r4, r4, r8, lsr #11
    211e:	f3c8 1845 	ubfx	r8, r8, #5, #6
    2122:	eb04 24de 	add.w	r4, r4, lr, lsr #11
    2126:	44c4      	add	ip, r8
    2128:	f3ce 1845 	ubfx	r8, lr, #5, #6
    212c:	f00e 0e1f 	and.w	lr, lr, #31
    2130:	ea4f 04a4 	mov.w	r4, r4, asr #2
    2134:	44c4      	add	ip, r8
    2136:	4473      	add	r3, lr
    2138:	ea4f 0cac 	mov.w	ip, ip, asr #2
    213c:	ea4f 03a3 	mov.w	r3, r3, asr #2
    2140:	ea43 134c 	orr.w	r3, r3, ip, lsl #5
    2144:	ea43 23c4 	orr.w	r3, r3, r4, lsl #11
    2148:	b29b      	uxth	r3, r3
    214a:	ea82 0203 	eor.w	r2, r2, r3
    214e:	d1c8      	bne.n	20e2 <runCoreKernels()+0xf3a>
    2150:	3d01      	subs	r5, #1
    2152:	d1c2      	bne.n	20da <runCoreKernels()+0xf32>
    2154:	4614      	mov	r4, r2
    2156:	f004 f977 	bl	6448 <micros>
    215a:	9b0a      	ldr	r3, [sp, #40]	; 0x28
    215c:	4a6c      	ldr	r2, [pc, #432]	; (2310 <runCoreKernels()+0x1168>)
    215e:	1ac7      	subs	r7, r0, r3
    2160:	4b6c      	ldr	r3, [pc, #432]	; (2314 <runCoreKernels()+0x116c>)
    2162:	9807      	ldr	r0, [sp, #28]
    2164:	685e      	ldr	r6, [r3, #4]
    2166:	9b09      	ldr	r3, [sp, #36]	; 0x24
    2168:	1af6      	subs	r6, r6, r3
    216a:	6813      	ldr	r3, [r2, #0]
    216c:	405c      	eors	r4, r3
    216e:	4b6a      	ldr	r3, [pc, #424]	; (2318 <runCoreKernels()+0x1170>)
    2170:	6014      	str	r4, [r2, #0]
    2172:	fabb f28b 	clz	r2, fp
    2176:	4c69      	ldr	r4, [pc, #420]	; (231c <runCoreKernels()+0x1174>)
    2178:	0952      	lsrs	r2, r2, #5
    217a:	f830 1f02 	ldrh.w	r1, [r0, #2]!
    217e:	404b      	eors	r3, r1
    2180:	4967      	ldr	r1, [pc, #412]	; (2320 <runCoreKernels()+0x1178>)
    2182:	4281      	cmp	r1, r0
    2184:	fb04 f303 	mul.w	r3, r4, r3
    2188:	d1f7      	bne.n	217a <runCoreKernels()+0xfd2>
    218a:	f44f 7100 	mov.w	r1, #512	; 0x200
    218e:	9303      	str	r3, [sp, #12]
    2190:	465b      	mov	r3, fp
    2192:	f8df b1a4 	ldr.w	fp, [pc, #420]	; 2338 <runCoreKernels()+0x1190>
    2196:	9102      	str	r1, [sp, #8]
    2198:	4966      	ldr	r1, [pc, #408]	; (2334 <runCoreKernels()+0x118c>)
    219a:	4869      	ldr	r0, [pc, #420]	; (2340 <runCoreKernels()+0x1198>)
    219c:	910a      	str	r1, [sp, #40]	; 0x28
    219e:	4967      	ldr	r1, [pc, #412]	; (233c <runCoreKernels()+0x1194>)
    21a0:	e9cd 7600 	strd	r7, r6, [sp]
    21a4:	4f61      	ldr	r7, [pc, #388]	; (232c <runCoreKernels()+0x1184>)
    21a6:	4e67      	ldr	r6, [pc, #412]	; (2344 <runCoreKernels()+0x119c>)
    21a8:	9109      	str	r1, [sp, #36]	; 0x24
    21aa:	4967      	ldr	r1, [pc, #412]	; (2348 <runCoreKernels()+0x11a0>)
    21ac:	e9dd 8907 	ldrd	r8, r9, [sp, #28]
    21b0:	f7fe fd68 	bl	c84 <printResult(char const*, char const*, unsigned long, unsigned long, unsigned long, unsigned long, unsigned long, unsigned long, unsigned long, char const*) [clone .constprop.0]>
    21b4:	e9cd b50b 	strd	fp, r5, [sp, #44]	; 0x2c
    21b8:	9b09      	ldr	r3, [sp, #36]	; 0x24
    21ba:	f837 4f02 	ldrh.w	r4, [r7, #2]!
    21be:	f833 1f02 	ldrh.w	r1, [r3, #2]!
    21c2:	4620      	mov	r0, r4
    21c4:	ea44 4404 	orr.w	r4, r4, r4, lsl #16
    21c8:	9309      	str	r3, [sp, #36]	; 0x24
    21ca:	9b0b      	ldr	r3, [sp, #44]	; 0x2c
    21cc:	4034      	ands	r4, r6
    21ce:	910d      	str	r1, [sp, #52]	; 0x34
    21d0:	f833 bf02 	ldrh.w	fp, [r3, #2]!
    21d4:	930b      	str	r3, [sp, #44]	; 0x2c
    21d6:	465a      	mov	r2, fp
    21d8:	9b0a      	ldr	r3, [sp, #40]	; 0x28
    21da:	ea4b 4b0b 	orr.w	fp, fp, fp, lsl #16
    21de:	f833 5f02 	ldrh.w	r5, [r3, #2]!
    21e2:	ea0b 0b06 	and.w	fp, fp, r6
    21e6:	930a      	str	r3, [sp, #40]	; 0x28
    21e8:	462b      	mov	r3, r5
    21ea:	f7fd ff3d 	bl	68 <refMean4(unsigned short, unsigned short, unsigned short, unsigned short)>
    21ee:	990d      	ldr	r1, [sp, #52]	; 0x34
    21f0:	ea45 4505 	orr.w	r5, r5, r5, lsl #16
    21f4:	45ba      	cmp	sl, r7
    21f6:	ea41 4101 	orr.w	r1, r1, r1, lsl #16
    21fa:	f829 0f02 	strh.w	r0, [r9, #2]!
    21fe:	ea05 0206 	and.w	r2, r5, r6
    2202:	ea01 0106 	and.w	r1, r1, r6
    2206:	440c      	add	r4, r1
    2208:	eb04 030b 	add.w	r3, r4, fp
    220c:	4413      	add	r3, r2
    220e:	ea06 0393 	and.w	r3, r6, r3, lsr #2
    2212:	ea43 4313 	orr.w	r3, r3, r3, lsr #16
    2216:	f828 3f02 	strh.w	r3, [r8, #2]!
    221a:	d1cd      	bne.n	21b8 <runCoreKernels()+0x1010>
    221c:	9d0c      	ldr	r5, [sp, #48]	; 0x30
    221e:	f04f 0900 	mov.w	r9, #0
    2222:	e9dd 2307 	ldrd	r2, r3, [sp, #28]
    2226:	f833 1f02 	ldrh.w	r1, [r3, #2]!
    222a:	f832 0f02 	ldrh.w	r0, [r2, #2]!
    222e:	4288      	cmp	r0, r1
    2230:	493f      	ldr	r1, [pc, #252]	; (2330 <runCoreKernels()+0x1188>)
    2232:	bf18      	it	ne
    2234:	f109 0901 	addne.w	r9, r9, #1
    2238:	4299      	cmp	r1, r3
    223a:	d1f4      	bne.n	2226 <runCoreKernels()+0x107e>
    223c:	4b35      	ldr	r3, [pc, #212]	; (2314 <runCoreKernels()+0x116c>)
    223e:	f44f 7800 	mov.w	r8, #512	; 0x200
    2242:	685b      	ldr	r3, [r3, #4]
    2244:	9309      	str	r3, [sp, #36]	; 0x24
    2246:	f004 f8ff 	bl	6448 <micros>
    224a:	4a3e      	ldr	r2, [pc, #248]	; (2344 <runCoreKernels()+0x119c>)
    224c:	4683      	mov	fp, r0
    224e:	4629      	mov	r1, r5
    2250:	4f38      	ldr	r7, [pc, #224]	; (2334 <runCoreKernels()+0x118c>)
    2252:	4e39      	ldr	r6, [pc, #228]	; (2338 <runCoreKernels()+0x1190>)
    2254:	4c39      	ldr	r4, [pc, #228]	; (233c <runCoreKernels()+0x1194>)
    2256:	4835      	ldr	r0, [pc, #212]	; (232c <runCoreKernels()+0x1184>)
    2258:	f830 3f02 	ldrh.w	r3, [r0, #2]!
    225c:	eb01 1141 	add.w	r1, r1, r1, lsl #5
    2260:	f834 5f02 	ldrh.w	r5, [r4, #2]!
    2264:	ea43 4303 	orr.w	r3, r3, r3, lsl #16
    2268:	4582      	cmp	sl, r0
    226a:	ea45 4505 	orr.w	r5, r5, r5, lsl #16
    226e:	ea03 0302 	and.w	r3, r3, r2
    2272:	ea05 0502 	and.w	r5, r5, r2
    2276:	442b      	add	r3, r5
    2278:	f836 5f02 	ldrh.w	r5, [r6, #2]!
    227c:	ea45 4505 	orr.w	r5, r5, r5, lsl #16
    2280:	ea05 0502 	and.w	r5, r5, r2
    2284:	442b      	add	r3, r5
    2286:	f837 5f02 	ldrh.w	r5, [r7, #2]!
    228a:	ea45 4505 	orr.w	r5, r5, r5, lsl #16
    228e:	ea05 0502 	and.w	r5, r5, r2
    2292:	442b      	add	r3, r5
    2294:	ea02 0393 	and.w	r3, r2, r3, lsr #2
    2298:	ea43 4313 	orr.w	r3, r3, r3, lsr #16
    229c:	b29b      	uxth	r3, r3
    229e:	ea81 0103 	eor.w	r1, r1, r3
    22a2:	d1d9      	bne.n	2258 <runCoreKernels()+0x10b0>
    22a4:	f1b8 0801 	subs.w	r8, r8, #1
    22a8:	d1d2      	bne.n	2250 <runCoreKernels()+0x10a8>
    22aa:	460d      	mov	r5, r1
    22ac:	f004 f8cc 	bl	6448 <micros>
    22b0:	4b18      	ldr	r3, [pc, #96]	; (2314 <runCoreKernels()+0x116c>)
    22b2:	eba0 070b 	sub.w	r7, r0, fp
    22b6:	4a16      	ldr	r2, [pc, #88]	; (2310 <runCoreKernels()+0x1168>)
    22b8:	685e      	ldr	r6, [r3, #4]
    22ba:	9b09      	ldr	r3, [sp, #36]	; 0x24
    22bc:	9807      	ldr	r0, [sp, #28]
    22be:	1af6      	subs	r6, r6, r3
    22c0:	6813      	ldr	r3, [r2, #0]
    22c2:	4c16      	ldr	r4, [pc, #88]	; (231c <runCoreKernels()+0x1174>)
    22c4:	405d      	eors	r5, r3
    22c6:	4b14      	ldr	r3, [pc, #80]	; (2318 <runCoreKernels()+0x1170>)
    22c8:	6015      	str	r5, [r2, #0]
    22ca:	fab9 f289 	clz	r2, r9
    22ce:	0952      	lsrs	r2, r2, #5
    22d0:	f830 1f02 	ldrh.w	r1, [r0, #2]!
    22d4:	404b      	eors	r3, r1
    22d6:	4912      	ldr	r1, [pc, #72]	; (2320 <runCoreKernels()+0x1178>)
    22d8:	4281      	cmp	r1, r0
    22da:	fb04 f303 	mul.w	r3, r4, r3
    22de:	d1f7      	bne.n	22d0 <runCoreKernels()+0x1128>
    22e0:	f44f 7100 	mov.w	r1, #512	; 0x200
    22e4:	9303      	str	r3, [sp, #12]
    22e6:	4816      	ldr	r0, [pc, #88]	; (2340 <runCoreKernels()+0x1198>)
    22e8:	464b      	mov	r3, r9
    22ea:	9102      	str	r1, [sp, #8]
    22ec:	4917      	ldr	r1, [pc, #92]	; (234c <runCoreKernels()+0x11a4>)
    22ee:	f8df 903c 	ldr.w	r9, [pc, #60]	; 232c <runCoreKernels()+0x1184>
    22f2:	e9cd 7600 	strd	r7, r6, [sp]
    22f6:	f7fe fcc5 	bl	c84 <printResult(char const*, char const*, unsigned long, unsigned long, unsigned long, unsigned long, unsigned long, unsigned long, unsigned long, char const*) [clone .constprop.0]>
    22fa:	4a0e      	ldr	r2, [pc, #56]	; (2334 <runCoreKernels()+0x118c>)
    22fc:	e9dd 3b07 	ldrd	r3, fp, [sp, #28]
    2300:	920b      	str	r2, [sp, #44]	; 0x2c
    2302:	4a0d      	ldr	r2, [pc, #52]	; (2338 <runCoreKernels()+0x1190>)
    2304:	469c      	mov	ip, r3
    2306:	920a      	str	r2, [sp, #40]	; 0x28
    2308:	4a0c      	ldr	r2, [pc, #48]	; (233c <runCoreKernels()+0x1194>)
    230a:	9209      	str	r2, [sp, #36]	; 0x24
    230c:	e020      	b.n	2350 <runCoreKernels()+0x11a8>
    230e:	bf00      	nop
    2310:	20007138 	.word	0x20007138
    2314:	e0001000 	.word	0xe0001000
    2318:	811c9dc5 	.word	0x811c9dc5
    231c:	01000193 	.word	0x01000193
    2320:	20006516 	.word	0x20006516
    2324:	20000418 	.word	0x20000418
    2328:	20000500 	.word	0x20000500
    232c:	20001886 	.word	0x20001886
    2330:	2000691e 	.word	0x2000691e
    2334:	2000249e 	.word	0x2000249e
    2338:	20002096 	.word	0x20002096
    233c:	20001c8e 	.word	0x20001c8e
    2340:	20000514 	.word	0x20000514
    2344:	07e0f81f 	.word	0x07e0f81f
    2348:	20000494 	.word	0x20000494
    234c:	20000520 	.word	0x20000520
    2350:	9b09      	ldr	r3, [sp, #36]	; 0x24
    2352:	f839 1f02 	ldrh.w	r1, [r9, #2]!
    2356:	f833 0f02 	ldrh.w	r0, [r3, #2]!
    235a:	f001 0e1f 	and.w	lr, r1, #31
    235e:	f3c1 1745 	ubfx	r7, r1, #5, #6
    2362:	9309      	str	r3, [sp, #36]	; 0x24
    2364:	f000 041f 	and.w	r4, r0, #31
    2368:	9b0a      	ldr	r3, [sp, #40]	; 0x28
    236a:	45ca      	cmp	sl, r9
    236c:	44a6      	add	lr, r4
    236e:	f3c0 1445 	ubfx	r4, r0, #5, #6
    2372:	f833 2f02 	ldrh.w	r2, [r3, #2]!
    2376:	4427      	add	r7, r4
    2378:	ea4f 24d0 	mov.w	r4, r0, lsr #11
    237c:	930a      	str	r3, [sp, #40]	; 0x28
    237e:	9b0b      	ldr	r3, [sp, #44]	; 0x2c
    2380:	eb04 24d1 	add.w	r4, r4, r1, lsr #11
    2384:	f833 5f02 	ldrh.w	r5, [r3, #2]!
    2388:	eb04 24d2 	add.w	r4, r4, r2, lsr #11
    238c:	930b      	str	r3, [sp, #44]	; 0x2c
    238e:	ea4f 23d0 	mov.w	r3, r0, lsr #11
    2392:	f005 061f 	and.w	r6, r5, #31
    2396:	f3c5 1045 	ubfx	r0, r5, #5, #6
    239a:	eb03 23d1 	add.w	r3, r3, r1, lsr #11
    239e:	f002 011f 	and.w	r1, r2, #31
    23a2:	eb04 24d5 	add.w	r4, r4, r5, lsr #11
    23a6:	4471      	add	r1, lr
    23a8:	eb03 23d2 	add.w	r3, r3, r2, lsr #11
    23ac:	f3c2 1e45 	ubfx	lr, r2, #5, #6
    23b0:	ea4f 04a4 	mov.w	r4, r4, asr #2
    23b4:	eb03 23d5 	add.w	r3, r3, r5, lsr #11
    23b8:	460a      	mov	r2, r1
    23ba:	44be      	add	lr, r7
    23bc:	4431      	add	r1, r6
    23be:	ea4f 03a3 	mov.w	r3, r3, asr #2
    23c2:	4432      	add	r2, r6
    23c4:	4470      	add	r0, lr
    23c6:	ea4f 01a1 	mov.w	r1, r1, asr #2
    23ca:	ea4f 23c3 	mov.w	r3, r3, lsl #11
    23ce:	ea4f 00a0 	mov.w	r0, r0, asr #2
    23d2:	ea41 1140 	orr.w	r1, r1, r0, lsl #5
    23d6:	ea43 1340 	orr.w	r3, r3, r0, lsl #5
    23da:	ea41 21c4 	orr.w	r1, r1, r4, lsl #11
    23de:	ea43 0392 	orr.w	r3, r3, r2, lsr #2
    23e2:	f82b 1f02 	strh.w	r1, [fp, #2]!
    23e6:	f82c 3f02 	strh.w	r3, [ip, #2]!
    23ea:	d1b1      	bne.n	2350 <runCoreKernels()+0x11a8>
    23ec:	e9dd 2307 	ldrd	r2, r3, [sp, #28]
    23f0:	f04f 0b00 	mov.w	fp, #0
    23f4:	f833 1f02 	ldrh.w	r1, [r3, #2]!
    23f8:	f832 0f02 	ldrh.w	r0, [r2, #2]!
    23fc:	4288      	cmp	r0, r1
    23fe:	49c0      	ldr	r1, [pc, #768]	; (2700 <runCoreKernels()+0x1558>)
    2400:	bf18      	it	ne
    2402:	f10b 0b01 	addne.w	fp, fp, #1
    2406:	4299      	cmp	r1, r3
    2408:	d1f4      	bne.n	23f4 <runCoreKernels()+0x124c>
    240a:	4bbe      	ldr	r3, [pc, #760]	; (2704 <runCoreKernels()+0x155c>)
    240c:	f44f 7400 	mov.w	r4, #512	; 0x200
    2410:	685b      	ldr	r3, [r3, #4]
    2412:	9309      	str	r3, [sp, #36]	; 0x24
    2414:	f004 f818 	bl	6448 <micros>
    2418:	4641      	mov	r1, r8
    241a:	900a      	str	r0, [sp, #40]	; 0x28
    241c:	4fba      	ldr	r7, [pc, #744]	; (2708 <runCoreKernels()+0x1560>)
    241e:	4ebb      	ldr	r6, [pc, #748]	; (270c <runCoreKernels()+0x1564>)
    2420:	4dbb      	ldr	r5, [pc, #748]	; (2710 <runCoreKernels()+0x1568>)
    2422:	48bc      	ldr	r0, [pc, #752]	; (2714 <runCoreKernels()+0x156c>)
    2424:	f835 cf02 	ldrh.w	ip, [r5, #2]!
    2428:	eb01 1141 	add.w	r1, r1, r1, lsl #5
    242c:	f830 8f02 	ldrh.w	r8, [r0, #2]!
    2430:	ea4f 22dc 	mov.w	r2, ip, lsr #11
    2434:	f836 3f02 	ldrh.w	r3, [r6, #2]!
    2438:	f3cc 1945 	ubfx	r9, ip, #5, #6
    243c:	f3c8 1e45 	ubfx	lr, r8, #5, #6
    2440:	eb02 22d8 	add.w	r2, r2, r8, lsr #11
    2444:	f00c 0c1f 	and.w	ip, ip, #31
    2448:	f008 081f 	and.w	r8, r8, #31
    244c:	44ce      	add	lr, r9
    244e:	eb02 22d3 	add.w	r2, r2, r3, lsr #11
    2452:	f3c3 1945 	ubfx	r9, r3, #5, #6
    2456:	44e0      	add	r8, ip
    2458:	f837 cf02 	ldrh.w	ip, [r7, #2]!
    245c:	44f1      	add	r9, lr
    245e:	f003 0e1f 	and.w	lr, r3, #31
    2462:	eb02 22dc 	add.w	r2, r2, ip, lsr #11
    2466:	f3cc 1345 	ubfx	r3, ip, #5, #6
    246a:	44c6      	add	lr, r8
    246c:	f00c 0c1f 	and.w	ip, ip, #31
    2470:	1092      	asrs	r2, r2, #2
    2472:	444b      	add	r3, r9
    2474:	44f4      	add	ip, lr
    2476:	4582      	cmp	sl, r0
    2478:	ea4f 22c2 	mov.w	r2, r2, lsl #11
    247c:	ea4f 03a3 	mov.w	r3, r3, asr #2
    2480:	ea42 1343 	orr.w	r3, r2, r3, lsl #5
    2484:	ea43 039c 	orr.w	r3, r3, ip, lsr #2
    2488:	b29b      	uxth	r3, r3
    248a:	ea81 0103 	eor.w	r1, r1, r3
    248e:	d1c9      	bne.n	2424 <runCoreKernels()+0x127c>
    2490:	3c01      	subs	r4, #1
    2492:	d1c3      	bne.n	241c <runCoreKernels()+0x1274>
    2494:	4688      	mov	r8, r1
    2496:	f003 ffd7 	bl	6448 <micros>
    249a:	9b0a      	ldr	r3, [sp, #40]	; 0x28
    249c:	4a9e      	ldr	r2, [pc, #632]	; (2718 <runCoreKernels()+0x1570>)
    249e:	1ac7      	subs	r7, r0, r3
    24a0:	4b98      	ldr	r3, [pc, #608]	; (2704 <runCoreKernels()+0x155c>)
    24a2:	9807      	ldr	r0, [sp, #28]
    24a4:	685e      	ldr	r6, [r3, #4]
    24a6:	9b09      	ldr	r3, [sp, #36]	; 0x24
    24a8:	4d9c      	ldr	r5, [pc, #624]	; (271c <runCoreKernels()+0x1574>)
    24aa:	1af6      	subs	r6, r6, r3
    24ac:	6813      	ldr	r3, [r2, #0]
    24ae:	ea88 0303 	eor.w	r3, r8, r3
    24b2:	6013      	str	r3, [r2, #0]
    24b4:	fabb f28b 	clz	r2, fp
    24b8:	4b99      	ldr	r3, [pc, #612]	; (2720 <runCoreKernels()+0x1578>)
    24ba:	0952      	lsrs	r2, r2, #5
    24bc:	f830 1f02 	ldrh.w	r1, [r0, #2]!
    24c0:	404b      	eors	r3, r1
    24c2:	4998      	ldr	r1, [pc, #608]	; (2724 <runCoreKernels()+0x157c>)
    24c4:	4281      	cmp	r1, r0
    24c6:	fb05 f303 	mul.w	r3, r5, r3
    24ca:	d1f7      	bne.n	24bc <runCoreKernels()+0x1314>
    24cc:	f44f 7100 	mov.w	r1, #512	; 0x200
    24d0:	9303      	str	r3, [sp, #12]
    24d2:	465b      	mov	r3, fp
    24d4:	f8df b234 	ldr.w	fp, [pc, #564]	; 270c <runCoreKernels()+0x1564>
    24d8:	9102      	str	r1, [sp, #8]
    24da:	498b      	ldr	r1, [pc, #556]	; (2708 <runCoreKernels()+0x1560>)
    24dc:	4892      	ldr	r0, [pc, #584]	; (2728 <runCoreKernels()+0x1580>)
    24de:	910a      	str	r1, [sp, #40]	; 0x28
    24e0:	498b      	ldr	r1, [pc, #556]	; (2710 <runCoreKernels()+0x1568>)
    24e2:	e9cd 7600 	strd	r7, r6, [sp]
    24e6:	4e8b      	ldr	r6, [pc, #556]	; (2714 <runCoreKernels()+0x156c>)
    24e8:	f647 37ef 	movw	r7, #31727	; 0x7bef
    24ec:	9109      	str	r1, [sp, #36]	; 0x24
    24ee:	498f      	ldr	r1, [pc, #572]	; (272c <runCoreKernels()+0x1584>)
    24f0:	e9dd 8907 	ldrd	r8, r9, [sp, #28]
    24f4:	f7fe fbc6 	bl	c84 <printResult(char const*, char const*, unsigned long, unsigned long, unsigned long, unsigned long, unsigned long, unsigned long, unsigned long, char const*) [clone .constprop.0]>
    24f8:	e9cd b40b 	strd	fp, r4, [sp, #44]	; 0x2c
    24fc:	9b09      	ldr	r3, [sp, #36]	; 0x24
    24fe:	f836 5f02 	ldrh.w	r5, [r6, #2]!
    2502:	f833 1f02 	ldrh.w	r1, [r3, #2]!
    2506:	4628      	mov	r0, r5
    2508:	9309      	str	r3, [sp, #36]	; 0x24
    250a:	9b0b      	ldr	r3, [sp, #44]	; 0x2c
    250c:	910d      	str	r1, [sp, #52]	; 0x34
    250e:	f833 4f02 	ldrh.w	r4, [r3, #2]!
    2512:	930b      	str	r3, [sp, #44]	; 0x2c
    2514:	4622      	mov	r2, r4
    2516:	9b0a      	ldr	r3, [sp, #40]	; 0x28
    2518:	f833 bf02 	ldrh.w	fp, [r3, #2]!
    251c:	930a      	str	r3, [sp, #40]	; 0x28
    251e:	465b      	mov	r3, fp
    2520:	f7fd fda2 	bl	68 <refMean4(unsigned short, unsigned short, unsigned short, unsigned short)>
    2524:	990d      	ldr	r1, [sp, #52]	; 0x34
    2526:	ea84 020b 	eor.w	r2, r4, fp
    252a:	ea04 040b 	and.w	r4, r4, fp
    252e:	ea85 0301 	eor.w	r3, r5, r1
    2532:	400d      	ands	r5, r1
    2534:	ea07 0252 	and.w	r2, r7, r2, lsr #1
    2538:	45b2      	cmp	sl, r6
    253a:	ea07 0353 	and.w	r3, r7, r3, lsr #1
    253e:	f829 0f02 	strh.w	r0, [r9, #2]!
    2542:	4422      	add	r2, r4
    2544:	442b      	add	r3, r5
    2546:	b292      	uxth	r2, r2
    2548:	b29b      	uxth	r3, r3
    254a:	ea83 0102 	eor.w	r1, r3, r2
    254e:	ea02 0203 	and.w	r2, r2, r3
    2552:	ea07 0351 	and.w	r3, r7, r1, lsr #1
    2556:	4413      	add	r3, r2
    2558:	f828 3f02 	strh.w	r3, [r8, #2]!
    255c:	d1ce      	bne.n	24fc <runCoreKernels()+0x1354>
    255e:	9c0c      	ldr	r4, [sp, #48]	; 0x30
    2560:	f04f 0b00 	mov.w	fp, #0
    2564:	e9dd 2307 	ldrd	r2, r3, [sp, #28]
    2568:	f833 1f02 	ldrh.w	r1, [r3, #2]!
    256c:	f832 0f02 	ldrh.w	r0, [r2, #2]!
    2570:	4288      	cmp	r0, r1
    2572:	4963      	ldr	r1, [pc, #396]	; (2700 <runCoreKernels()+0x1558>)
    2574:	bf18      	it	ne
    2576:	f10b 0b01 	addne.w	fp, fp, #1
    257a:	4299      	cmp	r1, r3
    257c:	d1f4      	bne.n	2568 <runCoreKernels()+0x13c0>
    257e:	4b61      	ldr	r3, [pc, #388]	; (2704 <runCoreKernels()+0x155c>)
    2580:	f44f 7600 	mov.w	r6, #512	; 0x200
    2584:	685b      	ldr	r3, [r3, #4]
    2586:	9309      	str	r3, [sp, #36]	; 0x24
    2588:	f003 ff5e 	bl	6448 <micros>
    258c:	4621      	mov	r1, r4
    258e:	900a      	str	r0, [sp, #40]	; 0x28
    2590:	f647 30ef 	movw	r0, #31727	; 0x7bef
    2594:	f8df e170 	ldr.w	lr, [pc, #368]	; 2708 <runCoreKernels()+0x1560>
    2598:	f8df c170 	ldr.w	ip, [pc, #368]	; 270c <runCoreKernels()+0x1564>
    259c:	4f5c      	ldr	r7, [pc, #368]	; (2710 <runCoreKernels()+0x1568>)
    259e:	4d5d      	ldr	r5, [pc, #372]	; (2714 <runCoreKernels()+0x156c>)
    25a0:	f835 2f02 	ldrh.w	r2, [r5, #2]!
    25a4:	eb01 1141 	add.w	r1, r1, r1, lsl #5
    25a8:	f837 9f02 	ldrh.w	r9, [r7, #2]!
    25ac:	f83c 4f02 	ldrh.w	r4, [ip, #2]!
    25b0:	45aa      	cmp	sl, r5
    25b2:	ea82 0309 	eor.w	r3, r2, r9
    25b6:	f83e 8f02 	ldrh.w	r8, [lr, #2]!
    25ba:	ea02 0209 	and.w	r2, r2, r9
    25be:	ea00 0353 	and.w	r3, r0, r3, lsr #1
    25c2:	4413      	add	r3, r2
    25c4:	ea84 0208 	eor.w	r2, r4, r8
    25c8:	ea04 0408 	and.w	r4, r4, r8
    25cc:	ea00 0252 	and.w	r2, r0, r2, lsr #1
    25d0:	b29b      	uxth	r3, r3
    25d2:	4422      	add	r2, r4
    25d4:	b292      	uxth	r2, r2
    25d6:	ea83 0402 	eor.w	r4, r3, r2
    25da:	ea02 0203 	and.w	r2, r2, r3
    25de:	ea00 0354 	and.w	r3, r0, r4, lsr #1
    25e2:	4413      	add	r3, r2
    25e4:	b29b      	uxth	r3, r3
    25e6:	ea81 0103 	eor.w	r1, r1, r3
    25ea:	d1d9      	bne.n	25a0 <runCoreKernels()+0x13f8>
    25ec:	3e01      	subs	r6, #1
    25ee:	d1d1      	bne.n	2594 <runCoreKernels()+0x13ec>
    25f0:	460c      	mov	r4, r1
    25f2:	f003 ff29 	bl	6448 <micros>
    25f6:	9b0a      	ldr	r3, [sp, #40]	; 0x28
    25f8:	4a47      	ldr	r2, [pc, #284]	; (2718 <runCoreKernels()+0x1570>)
    25fa:	1ac7      	subs	r7, r0, r3
    25fc:	4b41      	ldr	r3, [pc, #260]	; (2704 <runCoreKernels()+0x155c>)
    25fe:	9807      	ldr	r0, [sp, #28]
    2600:	685d      	ldr	r5, [r3, #4]
    2602:	9b09      	ldr	r3, [sp, #36]	; 0x24
    2604:	1aed      	subs	r5, r5, r3
    2606:	6813      	ldr	r3, [r2, #0]
    2608:	405c      	eors	r4, r3
    260a:	4b45      	ldr	r3, [pc, #276]	; (2720 <runCoreKernels()+0x1578>)
    260c:	6014      	str	r4, [r2, #0]
    260e:	fabb f28b 	clz	r2, fp
    2612:	4c42      	ldr	r4, [pc, #264]	; (271c <runCoreKernels()+0x1574>)
    2614:	0952      	lsrs	r2, r2, #5
    2616:	f830 1f02 	ldrh.w	r1, [r0, #2]!
    261a:	404b      	eors	r3, r1
    261c:	4941      	ldr	r1, [pc, #260]	; (2724 <runCoreKernels()+0x157c>)
    261e:	4281      	cmp	r1, r0
    2620:	fb04 f303 	mul.w	r3, r4, r3
    2624:	d1f7      	bne.n	2616 <runCoreKernels()+0x146e>
    2626:	f44f 7100 	mov.w	r1, #512	; 0x200
    262a:	9303      	str	r3, [sp, #12]
    262c:	483e      	ldr	r0, [pc, #248]	; (2728 <runCoreKernels()+0x1580>)
    262e:	465b      	mov	r3, fp
    2630:	9102      	str	r1, [sp, #8]
    2632:	493f      	ldr	r1, [pc, #252]	; (2730 <runCoreKernels()+0x1588>)
    2634:	f8df b0d4 	ldr.w	fp, [pc, #212]	; 270c <runCoreKernels()+0x1564>
    2638:	e9cd 7500 	strd	r7, r5, [sp]
    263c:	f7fe fb22 	bl	c84 <printResult(char const*, char const*, unsigned long, unsigned long, unsigned long, unsigned long, unsigned long, unsigned long, unsigned long, char const*) [clone .constprop.0]>
    2640:	4b31      	ldr	r3, [pc, #196]	; (2708 <runCoreKernels()+0x1560>)
    2642:	f8df e0d0 	ldr.w	lr, [pc, #208]	; 2714 <runCoreKernels()+0x156c>
    2646:	930a      	str	r3, [sp, #40]	; 0x28
    2648:	4b31      	ldr	r3, [pc, #196]	; (2710 <runCoreKernels()+0x1568>)
    264a:	e9dd 8907 	ldrd	r8, r9, [sp, #28]
    264e:	9309      	str	r3, [sp, #36]	; 0x24
    2650:	9b09      	ldr	r3, [sp, #36]	; 0x24
    2652:	f83e 1f02 	ldrh.w	r1, [lr, #2]!
    2656:	f833 7f02 	ldrh.w	r7, [r3, #2]!
    265a:	f83b 4f02 	ldrh.w	r4, [fp, #2]!
    265e:	f3c1 1c45 	ubfx	ip, r1, #5, #6
    2662:	9309      	str	r3, [sp, #36]	; 0x24
    2664:	f007 021f 	and.w	r2, r7, #31
    2668:	9b0a      	ldr	r3, [sp, #40]	; 0x28
    266a:	f004 001f 	and.w	r0, r4, #31
    266e:	f833 5f02 	ldrh.w	r5, [r3, #2]!
    2672:	930a      	str	r3, [sp, #40]	; 0x28
    2674:	f001 031f 	and.w	r3, r1, #31
    2678:	4413      	add	r3, r2
    267a:	f3c7 1245 	ubfx	r2, r7, #5, #6
    267e:	4403      	add	r3, r0
    2680:	4494      	add	ip, r2
    2682:	f3c4 1045 	ubfx	r0, r4, #5, #6
    2686:	0afa      	lsrs	r2, r7, #11
    2688:	4460      	add	r0, ip
    268a:	f3c5 1c45 	ubfx	ip, r5, #5, #6
    268e:	eb02 22d1 	add.w	r2, r2, r1, lsr #11
    2692:	4460      	add	r0, ip
    2694:	f005 0c1f 	and.w	ip, r5, #31
    2698:	eb02 22d4 	add.w	r2, r2, r4, lsr #11
    269c:	4463      	add	r3, ip
    269e:	1080      	asrs	r0, r0, #2
    26a0:	eb02 22d5 	add.w	r2, r2, r5, lsr #11
    26a4:	109b      	asrs	r3, r3, #2
    26a6:	1092      	asrs	r2, r2, #2
    26a8:	ea43 1340 	orr.w	r3, r3, r0, lsl #5
    26ac:	ea43 23c2 	orr.w	r3, r3, r2, lsl #11
    26b0:	f829 3f02 	strh.w	r3, [r9, #2]!
    26b4:	fa91 f367 	uhadd16	r3, r1, r7
    26b8:	fa94 f465 	uhadd16	r4, r4, r5
    26bc:	fa93 f364 	uhadd16	r3, r3, r4
    26c0:	45f2      	cmp	sl, lr
    26c2:	f828 3f02 	strh.w	r3, [r8, #2]!
    26c6:	d1c3      	bne.n	2650 <runCoreKernels()+0x14a8>
    26c8:	e9dd 2307 	ldrd	r2, r3, [sp, #28]
    26cc:	f04f 0800 	mov.w	r8, #0
    26d0:	f833 1f02 	ldrh.w	r1, [r3, #2]!
    26d4:	f832 0f02 	ldrh.w	r0, [r2, #2]!
    26d8:	4288      	cmp	r0, r1
    26da:	4909      	ldr	r1, [pc, #36]	; (2700 <runCoreKernels()+0x1558>)
    26dc:	bf18      	it	ne
    26de:	f108 0801 	addne.w	r8, r8, #1
    26e2:	4299      	cmp	r1, r3
    26e4:	d1f4      	bne.n	26d0 <runCoreKernels()+0x1528>
    26e6:	4b07      	ldr	r3, [pc, #28]	; (2704 <runCoreKernels()+0x155c>)
    26e8:	f44f 7500 	mov.w	r5, #512	; 0x200
    26ec:	f8d3 b004 	ldr.w	fp, [r3, #4]
    26f0:	f003 feaa 	bl	6448 <micros>
    26f4:	4681      	mov	r9, r0
    26f6:	4c04      	ldr	r4, [pc, #16]	; (2708 <runCoreKernels()+0x1560>)
    26f8:	4804      	ldr	r0, [pc, #16]	; (270c <runCoreKernels()+0x1564>)
    26fa:	4905      	ldr	r1, [pc, #20]	; (2710 <runCoreKernels()+0x1568>)
    26fc:	4a05      	ldr	r2, [pc, #20]	; (2714 <runCoreKernels()+0x156c>)
    26fe:	e019      	b.n	2734 <runCoreKernels()+0x158c>
    2700:	2000691e 	.word	0x2000691e
    2704:	e0001000 	.word	0xe0001000
    2708:	2000249e 	.word	0x2000249e
    270c:	20002096 	.word	0x20002096
    2710:	20001c8e 	.word	0x20001c8e
    2714:	20001886 	.word	0x20001886
    2718:	20007138 	.word	0x20007138
    271c:	01000193 	.word	0x01000193
    2720:	811c9dc5 	.word	0x811c9dc5
    2724:	20006516 	.word	0x20006516
    2728:	20000514 	.word	0x20000514
    272c:	200003b8 	.word	0x200003b8
    2730:	20000530 	.word	0x20000530
    2734:	eb06 1646 	add.w	r6, r6, r6, lsl #5
    2738:	f832 3f02 	ldrh.w	r3, [r2, #2]!
    273c:	f831 7f02 	ldrh.w	r7, [r1, #2]!
    2740:	fa93 f367 	uhadd16	r3, r3, r7
    2744:	f830 7f02 	ldrh.w	r7, [r0, #2]!
    2748:	f834 cf02 	ldrh.w	ip, [r4, #2]!
    274c:	fa97 f76c 	uhadd16	r7, r7, ip
    2750:	fa93 f367 	uhadd16	r3, r3, r7
    2754:	b29b      	uxth	r3, r3
    2756:	4592      	cmp	sl, r2
    2758:	ea86 0603 	eor.w	r6, r6, r3
    275c:	d1ea      	bne.n	2734 <runCoreKernels()+0x158c>
    275e:	3d01      	subs	r5, #1
    2760:	d1c9      	bne.n	26f6 <runCoreKernels()+0x154e>
    2762:	f003 fe71 	bl	6448 <micros>
    2766:	4ac9      	ldr	r2, [pc, #804]	; (2a8c <runCoreKernels()+0x18e4>)
    2768:	4bc9      	ldr	r3, [pc, #804]	; (2a90 <runCoreKernels()+0x18e8>)
    276a:	eba0 0909 	sub.w	r9, r0, r9
    276e:	4cc9      	ldr	r4, [pc, #804]	; (2a94 <runCoreKernels()+0x18ec>)
    2770:	685f      	ldr	r7, [r3, #4]
    2772:	6813      	ldr	r3, [r2, #0]
    2774:	eba7 070b 	sub.w	r7, r7, fp
    2778:	9807      	ldr	r0, [sp, #28]
    277a:	405e      	eors	r6, r3
    277c:	4bc6      	ldr	r3, [pc, #792]	; (2a98 <runCoreKernels()+0x18f0>)
    277e:	6016      	str	r6, [r2, #0]
    2780:	fab8 f288 	clz	r2, r8
    2784:	0952      	lsrs	r2, r2, #5
    2786:	f830 1f02 	ldrh.w	r1, [r0, #2]!
    278a:	404b      	eors	r3, r1
    278c:	49c3      	ldr	r1, [pc, #780]	; (2a9c <runCoreKernels()+0x18f4>)
    278e:	4281      	cmp	r1, r0
    2790:	fb04 f303 	mul.w	r3, r4, r3
    2794:	d1f7      	bne.n	2786 <runCoreKernels()+0x15de>
    2796:	f44f 7100 	mov.w	r1, #512	; 0x200
    279a:	9303      	str	r3, [sp, #12]
    279c:	48c0      	ldr	r0, [pc, #768]	; (2aa0 <runCoreKernels()+0x18f8>)
    279e:	4643      	mov	r3, r8
    27a0:	9102      	str	r1, [sp, #8]
    27a2:	49c0      	ldr	r1, [pc, #768]	; (2aa4 <runCoreKernels()+0x18fc>)
    27a4:	f8df 8320 	ldr.w	r8, [pc, #800]	; 2ac8 <runCoreKernels()+0x1920>
    27a8:	f8df b30c 	ldr.w	fp, [pc, #780]	; 2ab8 <runCoreKernels()+0x1910>
    27ac:	4ebe      	ldr	r6, [pc, #760]	; (2aa8 <runCoreKernels()+0x1900>)
    27ae:	4cbf      	ldr	r4, [pc, #764]	; (2aac <runCoreKernels()+0x1904>)
    27b0:	e9cd 9700 	strd	r9, r7, [sp]
    27b4:	f7fe fa66 	bl	c84 <printResult(char const*, char const*, unsigned long, unsigned long, unsigned long, unsigned long, unsigned long, unsigned long, unsigned long, char const*) [clone .constprop.0]>
    27b8:	f8df 9308 	ldr.w	r9, [pc, #776]	; 2ac4 <runCoreKernels()+0x191c>
    27bc:	4bbc      	ldr	r3, [pc, #752]	; (2ab0 <runCoreKernels()+0x1908>)
    27be:	f8df e30c 	ldr.w	lr, [pc, #780]	; 2acc <runCoreKernels()+0x1924>
    27c2:	9309      	str	r3, [sp, #36]	; 0x24
    27c4:	e9dd 7c07 	ldrd	r7, ip, [sp, #28]
    27c8:	f85b 2f04 	ldr.w	r2, [fp, #4]!
    27cc:	f859 0f04 	ldr.w	r0, [r9, #4]!
    27d0:	f85e 3f04 	ldr.w	r3, [lr, #4]!
    27d4:	0152      	lsls	r2, r2, #5
    27d6:	9909      	ldr	r1, [sp, #36]	; 0x24
    27d8:	0140      	lsls	r0, r0, #5
    27da:	fb92 f2f3 	sdiv	r2, r2, r3
    27de:	fb90 f0f3 	sdiv	r0, r0, r3
    27e2:	f831 3f02 	ldrh.w	r3, [r1, #2]!
    27e6:	ea43 4303 	orr.w	r3, r3, r3, lsl #16
    27ea:	9109      	str	r1, [sp, #36]	; 0x24
    27ec:	ea03 0104 	and.w	r1, r3, r4
    27f0:	f836 3f02 	ldrh.w	r3, [r6, #2]!
    27f4:	ea43 4303 	orr.w	r3, r3, r3, lsl #16
    27f8:	fb00 f101 	mul.w	r1, r0, r1
    27fc:	45b2      	cmp	sl, r6
    27fe:	ea03 0304 	and.w	r3, r3, r4
    2802:	fb02 1303 	mla	r3, r2, r3, r1
    2806:	f1c2 0220 	rsb	r2, r2, #32
    280a:	eba2 0100 	sub.w	r1, r2, r0
    280e:	f838 2f02 	ldrh.w	r2, [r8, #2]!
    2812:	ea42 4202 	orr.w	r2, r2, r2, lsl #16
    2816:	ea02 0204 	and.w	r2, r2, r4
    281a:	fb01 3302 	mla	r3, r1, r2, r3
    281e:	ea04 1353 	and.w	r3, r4, r3, lsr #5
    2822:	ea43 4313 	orr.w	r3, r3, r3, lsr #16
    2826:	b29b      	uxth	r3, r3
    2828:	f82c 3f02 	strh.w	r3, [ip, #2]!
    282c:	f827 3f02 	strh.w	r3, [r7, #2]!
    2830:	d1ca      	bne.n	27c8 <runCoreKernels()+0x1620>
    2832:	e9dd 2307 	ldrd	r2, r3, [sp, #28]
    2836:	2100      	movs	r1, #0
    2838:	f833 0f02 	ldrh.w	r0, [r3, #2]!
    283c:	f832 4f02 	ldrh.w	r4, [r2, #2]!
    2840:	4284      	cmp	r4, r0
    2842:	489c      	ldr	r0, [pc, #624]	; (2ab4 <runCoreKernels()+0x190c>)
    2844:	bf18      	it	ne
    2846:	3101      	addne	r1, #1
    2848:	4298      	cmp	r0, r3
    284a:	d1f5      	bne.n	2838 <runCoreKernels()+0x1690>
    284c:	4b90      	ldr	r3, [pc, #576]	; (2a90 <runCoreKernels()+0x18e8>)
    284e:	f44f 7400 	mov.w	r4, #512	; 0x200
    2852:	9109      	str	r1, [sp, #36]	; 0x24
    2854:	685b      	ldr	r3, [r3, #4]
    2856:	4e95      	ldr	r6, [pc, #596]	; (2aac <runCoreKernels()+0x1904>)
    2858:	930a      	str	r3, [sp, #40]	; 0x28
    285a:	f003 fdf5 	bl	6448 <micros>
    285e:	462a      	mov	r2, r5
    2860:	900b      	str	r0, [sp, #44]	; 0x2c
    2862:	f8df 8268 	ldr.w	r8, [pc, #616]	; 2acc <runCoreKernels()+0x1924>
    2866:	f8df e260 	ldr.w	lr, [pc, #608]	; 2ac8 <runCoreKernels()+0x1920>
    286a:	f8df c258 	ldr.w	ip, [pc, #600]	; 2ac4 <runCoreKernels()+0x191c>
    286e:	4f90      	ldr	r7, [pc, #576]	; (2ab0 <runCoreKernels()+0x1908>)
    2870:	4891      	ldr	r0, [pc, #580]	; (2ab8 <runCoreKernels()+0x1910>)
    2872:	498d      	ldr	r1, [pc, #564]	; (2aa8 <runCoreKernels()+0x1900>)
    2874:	f85c 3f04 	ldr.w	r3, [ip, #4]!
    2878:	eb02 1242 	add.w	r2, r2, r2, lsl #5
    287c:	f850 5f04 	ldr.w	r5, [r0, #4]!
    2880:	ea4f 1943 	mov.w	r9, r3, lsl #5
    2884:	f858 3f04 	ldr.w	r3, [r8, #4]!
    2888:	016d      	lsls	r5, r5, #5
    288a:	f831 bf02 	ldrh.w	fp, [r1, #2]!
    288e:	fb99 f9f3 	sdiv	r9, r9, r3
    2892:	fb95 f5f3 	sdiv	r5, r5, r3
    2896:	f837 3f02 	ldrh.w	r3, [r7, #2]!
    289a:	ea4b 4b0b 	orr.w	fp, fp, fp, lsl #16
    289e:	458a      	cmp	sl, r1
    28a0:	ea43 4303 	orr.w	r3, r3, r3, lsl #16
    28a4:	ea0b 0b06 	and.w	fp, fp, r6
    28a8:	ea03 0306 	and.w	r3, r3, r6
    28ac:	fb09 f303 	mul.w	r3, r9, r3
    28b0:	fb05 330b 	mla	r3, r5, fp, r3
    28b4:	f1c5 0520 	rsb	r5, r5, #32
    28b8:	eba5 0509 	sub.w	r5, r5, r9
    28bc:	f83e 9f02 	ldrh.w	r9, [lr, #2]!
    28c0:	ea49 4909 	orr.w	r9, r9, r9, lsl #16
    28c4:	ea09 0906 	and.w	r9, r9, r6
    28c8:	fb05 3309 	mla	r3, r5, r9, r3
    28cc:	ea06 1353 	and.w	r3, r6, r3, lsr #5
    28d0:	ea43 4313 	orr.w	r3, r3, r3, lsr #16
    28d4:	b29b      	uxth	r3, r3
    28d6:	ea82 0203 	eor.w	r2, r2, r3
    28da:	d1cb      	bne.n	2874 <runCoreKernels()+0x16cc>
    28dc:	3c01      	subs	r4, #1
    28de:	d1c0      	bne.n	2862 <runCoreKernels()+0x16ba>
    28e0:	4615      	mov	r5, r2
    28e2:	f003 fdb1 	bl	6448 <micros>
    28e6:	9b0b      	ldr	r3, [sp, #44]	; 0x2c
    28e8:	4a68      	ldr	r2, [pc, #416]	; (2a8c <runCoreKernels()+0x18e4>)
    28ea:	1ac7      	subs	r7, r0, r3
    28ec:	4b68      	ldr	r3, [pc, #416]	; (2a90 <runCoreKernels()+0x18e8>)
    28ee:	9807      	ldr	r0, [sp, #28]
    28f0:	685e      	ldr	r6, [r3, #4]
    28f2:	9b0a      	ldr	r3, [sp, #40]	; 0x28
    28f4:	1af6      	subs	r6, r6, r3
    28f6:	6813      	ldr	r3, [r2, #0]
    28f8:	405d      	eors	r5, r3
    28fa:	9b09      	ldr	r3, [sp, #36]	; 0x24
    28fc:	6015      	str	r5, [r2, #0]
    28fe:	fab3 f283 	clz	r2, r3
    2902:	4d64      	ldr	r5, [pc, #400]	; (2a94 <runCoreKernels()+0x18ec>)
    2904:	0952      	lsrs	r2, r2, #5
    2906:	4b64      	ldr	r3, [pc, #400]	; (2a98 <runCoreKernels()+0x18f0>)
    2908:	f830 1f02 	ldrh.w	r1, [r0, #2]!
    290c:	404b      	eors	r3, r1
    290e:	4963      	ldr	r1, [pc, #396]	; (2a9c <runCoreKernels()+0x18f4>)
    2910:	4281      	cmp	r1, r0
    2912:	fb05 f303 	mul.w	r3, r5, r3
    2916:	d1f7      	bne.n	2908 <runCoreKernels()+0x1760>
    2918:	f44f 7100 	mov.w	r1, #512	; 0x200
    291c:	9303      	str	r3, [sp, #12]
    291e:	4867      	ldr	r0, [pc, #412]	; (2abc <runCoreKernels()+0x1914>)
    2920:	9b09      	ldr	r3, [sp, #36]	; 0x24
    2922:	9102      	str	r1, [sp, #8]
    2924:	4966      	ldr	r1, [pc, #408]	; (2ac0 <runCoreKernels()+0x1918>)
    2926:	f8df 81a0 	ldr.w	r8, [pc, #416]	; 2ac8 <runCoreKernels()+0x1920>
    292a:	f8df 9198 	ldr.w	r9, [pc, #408]	; 2ac4 <runCoreKernels()+0x191c>
    292e:	f8df b188 	ldr.w	fp, [pc, #392]	; 2ab8 <runCoreKernels()+0x1910>
    2932:	4d5e      	ldr	r5, [pc, #376]	; (2aac <runCoreKernels()+0x1904>)
    2934:	e9cd 7600 	strd	r7, r6, [sp]
    2938:	f7fe f9a4 	bl	c84 <printResult(char const*, char const*, unsigned long, unsigned long, unsigned long, unsigned long, unsigned long, unsigned long, unsigned long, char const*) [clone .constprop.0]>
    293c:	4e5a      	ldr	r6, [pc, #360]	; (2aa8 <runCoreKernels()+0x1900>)
    293e:	4b5c      	ldr	r3, [pc, #368]	; (2ab0 <runCoreKernels()+0x1908>)
    2940:	f8df e188 	ldr.w	lr, [pc, #392]	; 2acc <runCoreKernels()+0x1924>
    2944:	9309      	str	r3, [sp, #36]	; 0x24
    2946:	e9dd 7c07 	ldrd	r7, ip, [sp, #28]
    294a:	f85b 2f04 	ldr.w	r2, [fp, #4]!
    294e:	f859 0f04 	ldr.w	r0, [r9, #4]!
    2952:	f85e 3f04 	ldr.w	r3, [lr, #4]!
    2956:	0152      	lsls	r2, r2, #5
    2958:	9909      	ldr	r1, [sp, #36]	; 0x24
    295a:	0140      	lsls	r0, r0, #5
    295c:	fb92 f2f3 	sdiv	r2, r2, r3
    2960:	fb90 f0f3 	sdiv	r0, r0, r3
    2964:	f831 3f02 	ldrh.w	r3, [r1, #2]!
    2968:	ea43 4303 	orr.w	r3, r3, r3, lsl #16
    296c:	9109      	str	r1, [sp, #36]	; 0x24
    296e:	ea03 0105 	and.w	r1, r3, r5
    2972:	f836 3f02 	ldrh.w	r3, [r6, #2]!
    2976:	ea43 4303 	orr.w	r3, r3, r3, lsl #16
    297a:	fb00 f101 	mul.w	r1, r0, r1
    297e:	45b2      	cmp	sl, r6
    2980:	ea03 0305 	and.w	r3, r3, r5
    2984:	fb02 1303 	mla	r3, r2, r3, r1
    2988:	f1c2 0220 	rsb	r2, r2, #32
    298c:	eba2 0100 	sub.w	r1, r2, r0
    2990:	f838 2f02 	ldrh.w	r2, [r8, #2]!
    2994:	ea42 4202 	orr.w	r2, r2, r2, lsl #16
    2998:	ea02 0205 	and.w	r2, r2, r5
    299c:	fb01 3302 	mla	r3, r1, r2, r3
    29a0:	ea05 1353 	and.w	r3, r5, r3, lsr #5
    29a4:	ea43 4313 	orr.w	r3, r3, r3, lsr #16
    29a8:	b29b      	uxth	r3, r3
    29aa:	f82c 3f02 	strh.w	r3, [ip, #2]!
    29ae:	f827 3f02 	strh.w	r3, [r7, #2]!
    29b2:	d1ca      	bne.n	294a <runCoreKernels()+0x17a2>
    29b4:	e9dd 2307 	ldrd	r2, r3, [sp, #28]
    29b8:	2100      	movs	r1, #0
    29ba:	f833 0f02 	ldrh.w	r0, [r3, #2]!
    29be:	f832 5f02 	ldrh.w	r5, [r2, #2]!
    29c2:	4285      	cmp	r5, r0
    29c4:	483b      	ldr	r0, [pc, #236]	; (2ab4 <runCoreKernels()+0x190c>)
    29c6:	bf18      	it	ne
    29c8:	3101      	addne	r1, #1
    29ca:	4283      	cmp	r3, r0
    29cc:	d1f5      	bne.n	29ba <runCoreKernels()+0x1812>
    29ce:	4b30      	ldr	r3, [pc, #192]	; (2a90 <runCoreKernels()+0x18e8>)
    29d0:	f44f 7b00 	mov.w	fp, #512	; 0x200
    29d4:	9109      	str	r1, [sp, #36]	; 0x24
    29d6:	685b      	ldr	r3, [r3, #4]
    29d8:	4d34      	ldr	r5, [pc, #208]	; (2aac <runCoreKernels()+0x1904>)
    29da:	930a      	str	r3, [sp, #40]	; 0x28
    29dc:	f003 fd34 	bl	6448 <micros>
    29e0:	4622      	mov	r2, r4
    29e2:	900b      	str	r0, [sp, #44]	; 0x2c
    29e4:	f8df e0e4 	ldr.w	lr, [pc, #228]	; 2acc <runCoreKernels()+0x1924>
    29e8:	f8df c0dc 	ldr.w	ip, [pc, #220]	; 2ac8 <runCoreKernels()+0x1920>
    29ec:	4f35      	ldr	r7, [pc, #212]	; (2ac4 <runCoreKernels()+0x191c>)
    29ee:	4e30      	ldr	r6, [pc, #192]	; (2ab0 <runCoreKernels()+0x1908>)
    29f0:	4831      	ldr	r0, [pc, #196]	; (2ab8 <runCoreKernels()+0x1910>)
    29f2:	492d      	ldr	r1, [pc, #180]	; (2aa8 <runCoreKernels()+0x1900>)
    29f4:	f857 3f04 	ldr.w	r3, [r7, #4]!
    29f8:	eb02 1242 	add.w	r2, r2, r2, lsl #5
    29fc:	f850 4f04 	ldr.w	r4, [r0, #4]!
    2a00:	ea4f 1843 	mov.w	r8, r3, lsl #5
    2a04:	f85e 3f04 	ldr.w	r3, [lr, #4]!
    2a08:	0164      	lsls	r4, r4, #5
    2a0a:	f831 9f02 	ldrh.w	r9, [r1, #2]!
    2a0e:	fb98 f8f3 	sdiv	r8, r8, r3
    2a12:	fb94 f4f3 	sdiv	r4, r4, r3
    2a16:	f836 3f02 	ldrh.w	r3, [r6, #2]!
    2a1a:	ea49 4909 	orr.w	r9, r9, r9, lsl #16
    2a1e:	4551      	cmp	r1, sl
    2a20:	ea43 4303 	orr.w	r3, r3, r3, lsl #16
    2a24:	ea09 0905 	and.w	r9, r9, r5
    2a28:	ea03 0305 	and.w	r3, r3, r5
    2a2c:	fb08 f303 	mul.w	r3, r8, r3
    2a30:	fb04 3309 	mla	r3, r4, r9, r3
    2a34:	f1c4 0420 	rsb	r4, r4, #32
    2a38:	eba4 0408 	sub.w	r4, r4, r8
    2a3c:	f83c 8f02 	ldrh.w	r8, [ip, #2]!
    2a40:	ea48 4808 	orr.w	r8, r8, r8, lsl #16
    2a44:	ea08 0805 	and.w	r8, r8, r5
    2a48:	fb04 3308 	mla	r3, r4, r8, r3
    2a4c:	ea05 1353 	and.w	r3, r5, r3, lsr #5
    2a50:	ea43 4313 	orr.w	r3, r3, r3, lsr #16
    2a54:	b29b      	uxth	r3, r3
    2a56:	ea82 0203 	eor.w	r2, r2, r3
    2a5a:	d1cb      	bne.n	29f4 <runCoreKernels()+0x184c>
    2a5c:	f1bb 0b01 	subs.w	fp, fp, #1
    2a60:	d1c0      	bne.n	29e4 <runCoreKernels()+0x183c>
    2a62:	4614      	mov	r4, r2
    2a64:	f003 fcf0 	bl	6448 <micros>
    2a68:	9b0b      	ldr	r3, [sp, #44]	; 0x2c
    2a6a:	4a08      	ldr	r2, [pc, #32]	; (2a8c <runCoreKernels()+0x18e4>)
    2a6c:	1ac6      	subs	r6, r0, r3
    2a6e:	4b08      	ldr	r3, [pc, #32]	; (2a90 <runCoreKernels()+0x18e8>)
    2a70:	9807      	ldr	r0, [sp, #28]
    2a72:	685d      	ldr	r5, [r3, #4]
    2a74:	9b0a      	ldr	r3, [sp, #40]	; 0x28
    2a76:	1aed      	subs	r5, r5, r3
    2a78:	6813      	ldr	r3, [r2, #0]
    2a7a:	405c      	eors	r4, r3
    2a7c:	9b09      	ldr	r3, [sp, #36]	; 0x24
    2a7e:	6014      	str	r4, [r2, #0]
    2a80:	fab3 f283 	clz	r2, r3
    2a84:	4c03      	ldr	r4, [pc, #12]	; (2a94 <runCoreKernels()+0x18ec>)
    2a86:	0952      	lsrs	r2, r2, #5
    2a88:	4b03      	ldr	r3, [pc, #12]	; (2a98 <runCoreKernels()+0x18f0>)
    2a8a:	e021      	b.n	2ad0 <runCoreKernels()+0x1928>
    2a8c:	20007138 	.word	0x20007138
    2a90:	e0001000 	.word	0xe0001000
    2a94:	01000193 	.word	0x01000193
    2a98:	811c9dc5 	.word	0x811c9dc5
    2a9c:	20006516 	.word	0x20006516
    2aa0:	20000514 	.word	0x20000514
    2aa4:	20000540 	.word	0x20000540
    2aa8:	20001886 	.word	0x20001886
    2aac:	07e0f81f 	.word	0x07e0f81f
    2ab0:	20001c8e 	.word	0x20001c8e
    2ab4:	2000691e 	.word	0x2000691e
    2ab8:	200038c4 	.word	0x200038c4
    2abc:	2000055c 	.word	0x2000055c
    2ac0:	20000494 	.word	0x20000494
    2ac4:	200040d4 	.word	0x200040d4
    2ac8:	20002096 	.word	0x20002096
    2acc:	20006924 	.word	0x20006924
    2ad0:	f830 1f02 	ldrh.w	r1, [r0, #2]!
    2ad4:	404b      	eors	r3, r1
    2ad6:	49ba      	ldr	r1, [pc, #744]	; (2dc0 <runCoreKernels()+0x1c18>)
    2ad8:	4288      	cmp	r0, r1
    2ada:	fb04 f303 	mul.w	r3, r4, r3
    2ade:	d1f7      	bne.n	2ad0 <runCoreKernels()+0x1928>
    2ae0:	f44f 7100 	mov.w	r1, #512	; 0x200
    2ae4:	9303      	str	r3, [sp, #12]
    2ae6:	48b7      	ldr	r0, [pc, #732]	; (2dc4 <runCoreKernels()+0x1c1c>)
    2ae8:	9b09      	ldr	r3, [sp, #36]	; 0x24
    2aea:	9102      	str	r1, [sp, #8]
    2aec:	49b6      	ldr	r1, [pc, #728]	; (2dc8 <runCoreKernels()+0x1c20>)
    2aee:	f8df 8304 	ldr.w	r8, [pc, #772]	; 2df4 <runCoreKernels()+0x1c4c>
    2af2:	e9cd 6500 	strd	r6, r5, [sp]
    2af6:	f7fe f8c5 	bl	c84 <printResult(char const*, char const*, unsigned long, unsigned long, unsigned long, unsigned long, unsigned long, unsigned long, unsigned long, char const*) [clone .constprop.0]>
    2afa:	f8df e30c 	ldr.w	lr, [pc, #780]	; 2e08 <runCoreKernels()+0x1c60>
    2afe:	e9dd 9307 	ldrd	r9, r3, [sp, #28]
    2b02:	930d      	str	r3, [sp, #52]	; 0x34
    2b04:	4bb1      	ldr	r3, [pc, #708]	; (2dcc <runCoreKernels()+0x1c24>)
    2b06:	930c      	str	r3, [sp, #48]	; 0x30
    2b08:	4bb1      	ldr	r3, [pc, #708]	; (2dd0 <runCoreKernels()+0x1c28>)
    2b0a:	930b      	str	r3, [sp, #44]	; 0x2c
    2b0c:	4bb1      	ldr	r3, [pc, #708]	; (2dd4 <runCoreKernels()+0x1c2c>)
    2b0e:	930e      	str	r3, [sp, #56]	; 0x38
    2b10:	4bb1      	ldr	r3, [pc, #708]	; (2dd8 <runCoreKernels()+0x1c30>)
    2b12:	930a      	str	r3, [sp, #40]	; 0x28
    2b14:	4bb1      	ldr	r3, [pc, #708]	; (2ddc <runCoreKernels()+0x1c34>)
    2b16:	9309      	str	r3, [sp, #36]	; 0x24
    2b18:	9b09      	ldr	r3, [sp, #36]	; 0x24
    2b1a:	990c      	ldr	r1, [sp, #48]	; 0x30
    2b1c:	f853 5f04 	ldr.w	r5, [r3, #4]!
    2b20:	f838 0f02 	ldrh.w	r0, [r8, #2]!
    2b24:	9309      	str	r3, [sp, #36]	; 0x24
    2b26:	016d      	lsls	r5, r5, #5
    2b28:	9b0e      	ldr	r3, [sp, #56]	; 0x38
    2b2a:	45c2      	cmp	sl, r8
    2b2c:	f853 2f04 	ldr.w	r2, [r3, #4]!
    2b30:	ea4f 1242 	mov.w	r2, r2, lsl #5
    2b34:	930e      	str	r3, [sp, #56]	; 0x38
    2b36:	f851 3f04 	ldr.w	r3, [r1, #4]!
    2b3a:	fb92 f2f3 	sdiv	r2, r2, r3
    2b3e:	fb95 f5f3 	sdiv	r5, r5, r3
    2b42:	9b0a      	ldr	r3, [sp, #40]	; 0x28
    2b44:	f1c5 0620 	rsb	r6, r5, #32
    2b48:	910c      	str	r1, [sp, #48]	; 0x30
    2b4a:	f833 4f02 	ldrh.w	r4, [r3, #2]!
    2b4e:	eba6 0602 	sub.w	r6, r6, r2
    2b52:	930a      	str	r3, [sp, #40]	; 0x28
    2b54:	f3c4 1c45 	ubfx	ip, r4, #5, #6
    2b58:	9b0b      	ldr	r3, [sp, #44]	; 0x2c
    2b5a:	ea4f 27d4 	mov.w	r7, r4, lsr #11
    2b5e:	fb02 fc0c 	mul.w	ip, r2, ip
    2b62:	f833 1f02 	ldrh.w	r1, [r3, #2]!
    2b66:	fb02 f707 	mul.w	r7, r2, r7
    2b6a:	930b      	str	r3, [sp, #44]	; 0x2c
    2b6c:	ea44 4304 	orr.w	r3, r4, r4, lsl #16
    2b70:	f004 041f 	and.w	r4, r4, #31
    2b74:	ea03 030e 	and.w	r3, r3, lr
    2b78:	fb02 f404 	mul.w	r4, r2, r4
    2b7c:	fb02 f303 	mul.w	r3, r2, r3
    2b80:	ea40 4200 	orr.w	r2, r0, r0, lsl #16
    2b84:	ea02 020e 	and.w	r2, r2, lr
    2b88:	fb05 3302 	mla	r3, r5, r2, r3
    2b8c:	f3c0 1245 	ubfx	r2, r0, #5, #6
    2b90:	fb05 c202 	mla	r2, r5, r2, ip
    2b94:	ea4f 2cd0 	mov.w	ip, r0, lsr #11
    2b98:	f000 001f 	and.w	r0, r0, #31
    2b9c:	fb05 7c0c 	mla	ip, r5, ip, r7
    2ba0:	fb05 4000 	mla	r0, r5, r0, r4
    2ba4:	ea41 4401 	orr.w	r4, r1, r1, lsl #16
    2ba8:	ea04 040e 	and.w	r4, r4, lr
    2bac:	fb06 3304 	mla	r3, r6, r4, r3
    2bb0:	9c0d      	ldr	r4, [sp, #52]	; 0x34
    2bb2:	ea0e 1353 	and.w	r3, lr, r3, lsr #5
    2bb6:	ea43 4313 	orr.w	r3, r3, r3, lsr #16
    2bba:	f824 3f02 	strh.w	r3, [r4, #2]!
    2bbe:	f3c1 1345 	ubfx	r3, r1, #5, #6
    2bc2:	940d      	str	r4, [sp, #52]	; 0x34
    2bc4:	fb06 2303 	mla	r3, r6, r3, r2
    2bc8:	ea4f 22d1 	mov.w	r2, r1, lsr #11
    2bcc:	f001 011f 	and.w	r1, r1, #31
    2bd0:	fb06 c202 	mla	r2, r6, r2, ip
    2bd4:	f403 63fc 	and.w	r3, r3, #2016	; 0x7e0
    2bd8:	fb06 0101 	mla	r1, r6, r1, r0
    2bdc:	f3c2 1244 	ubfx	r2, r2, #5, #5
    2be0:	f3c1 1144 	ubfx	r1, r1, #5, #5
    2be4:	ea43 23c2 	orr.w	r3, r3, r2, lsl #11
    2be8:	ea43 0301 	orr.w	r3, r3, r1
    2bec:	f829 3f02 	strh.w	r3, [r9, #2]!
    2bf0:	d192      	bne.n	2b18 <runCoreKernels()+0x1970>
    2bf2:	e9dd 2307 	ldrd	r2, r3, [sp, #28]
    2bf6:	2100      	movs	r1, #0
    2bf8:	f833 0f02 	ldrh.w	r0, [r3, #2]!
    2bfc:	f832 4f02 	ldrh.w	r4, [r2, #2]!
    2c00:	4284      	cmp	r4, r0
    2c02:	4877      	ldr	r0, [pc, #476]	; (2de0 <runCoreKernels()+0x1c38>)
    2c04:	bf18      	it	ne
    2c06:	3101      	addne	r1, #1
    2c08:	4298      	cmp	r0, r3
    2c0a:	d1f5      	bne.n	2bf8 <runCoreKernels()+0x1a50>
    2c0c:	4b75      	ldr	r3, [pc, #468]	; (2de4 <runCoreKernels()+0x1c3c>)
    2c0e:	f44f 7600 	mov.w	r6, #512	; 0x200
    2c12:	910c      	str	r1, [sp, #48]	; 0x30
    2c14:	685b      	ldr	r3, [r3, #4]
    2c16:	930d      	str	r3, [sp, #52]	; 0x34
    2c18:	f003 fc16 	bl	6448 <micros>
    2c1c:	960b      	str	r6, [sp, #44]	; 0x2c
    2c1e:	465e      	mov	r6, fp
    2c20:	900e      	str	r0, [sp, #56]	; 0x38
    2c22:	4b6d      	ldr	r3, [pc, #436]	; (2dd8 <runCoreKernels()+0x1c30>)
    2c24:	f8df 91a4 	ldr.w	r9, [pc, #420]	; 2dcc <runCoreKernels()+0x1c24>
    2c28:	930a      	str	r3, [sp, #40]	; 0x28
    2c2a:	f8df 81a4 	ldr.w	r8, [pc, #420]	; 2dd0 <runCoreKernels()+0x1c28>
    2c2e:	4b6b      	ldr	r3, [pc, #428]	; (2ddc <runCoreKernels()+0x1c34>)
    2c30:	f8df e1a0 	ldr.w	lr, [pc, #416]	; 2dd4 <runCoreKernels()+0x1c2c>
    2c34:	f8df c1bc 	ldr.w	ip, [pc, #444]	; 2df4 <runCoreKernels()+0x1c4c>
    2c38:	9309      	str	r3, [sp, #36]	; 0x24
    2c3a:	9b09      	ldr	r3, [sp, #36]	; 0x24
    2c3c:	eb06 1646 	add.w	r6, r6, r6, lsl #5
    2c40:	f859 2f04 	ldr.w	r2, [r9, #4]!
    2c44:	f853 1f04 	ldr.w	r1, [r3, #4]!
    2c48:	f838 4f02 	ldrh.w	r4, [r8, #2]!
    2c4c:	9309      	str	r3, [sp, #36]	; 0x24
    2c4e:	0149      	lsls	r1, r1, #5
    2c50:	f85e 3f04 	ldr.w	r3, [lr, #4]!
    2c54:	015b      	lsls	r3, r3, #5
    2c56:	fb91 f1f2 	sdiv	r1, r1, r2
    2c5a:	fb93 f3f2 	sdiv	r3, r3, r2
    2c5e:	9a0a      	ldr	r2, [sp, #40]	; 0x28
    2c60:	f1c1 0520 	rsb	r5, r1, #32
    2c64:	f832 0f02 	ldrh.w	r0, [r2, #2]!
    2c68:	1aed      	subs	r5, r5, r3
    2c6a:	f3c0 1b45 	ubfx	fp, r0, #5, #6
    2c6e:	0ac7      	lsrs	r7, r0, #11
    2c70:	920a      	str	r2, [sp, #40]	; 0x28
    2c72:	f000 001f 	and.w	r0, r0, #31
    2c76:	f83c 2f02 	ldrh.w	r2, [ip, #2]!
    2c7a:	fb03 fb0b 	mul.w	fp, r3, fp
    2c7e:	fb03 f707 	mul.w	r7, r3, r7
    2c82:	fb03 f000 	mul.w	r0, r3, r0
    2c86:	f3c2 1345 	ubfx	r3, r2, #5, #6
    2c8a:	45d4      	cmp	ip, sl
    2c8c:	fb01 b303 	mla	r3, r1, r3, fp
    2c90:	ea4f 2bd2 	mov.w	fp, r2, lsr #11
    2c94:	f002 021f 	and.w	r2, r2, #31
    2c98:	fb01 7b0b 	mla	fp, r1, fp, r7
    2c9c:	fb01 0202 	mla	r2, r1, r2, r0
    2ca0:	f3c4 1145 	ubfx	r1, r4, #5, #6
    2ca4:	fb05 3301 	mla	r3, r5, r1, r3
    2ca8:	ea4f 21d4 	mov.w	r1, r4, lsr #11
    2cac:	f004 041f 	and.w	r4, r4, #31
    2cb0:	fb05 b101 	mla	r1, r5, r1, fp
    2cb4:	f403 63fc 	and.w	r3, r3, #2016	; 0x7e0
    2cb8:	fb05 2204 	mla	r2, r5, r4, r2
    2cbc:	f3c1 1144 	ubfx	r1, r1, #5, #5
    2cc0:	f3c2 1244 	ubfx	r2, r2, #5, #5
    2cc4:	ea43 23c1 	orr.w	r3, r3, r1, lsl #11
    2cc8:	ea43 0302 	orr.w	r3, r3, r2
    2ccc:	ea86 0603 	eor.w	r6, r6, r3
    2cd0:	d1b3      	bne.n	2c3a <runCoreKernels()+0x1a92>
    2cd2:	9b0b      	ldr	r3, [sp, #44]	; 0x2c
    2cd4:	3b01      	subs	r3, #1
    2cd6:	930b      	str	r3, [sp, #44]	; 0x2c
    2cd8:	d1a3      	bne.n	2c22 <runCoreKernels()+0x1a7a>
    2cda:	46b3      	mov	fp, r6
    2cdc:	9e0b      	ldr	r6, [sp, #44]	; 0x2c
    2cde:	f003 fbb3 	bl	6448 <micros>
    2ce2:	9b0e      	ldr	r3, [sp, #56]	; 0x38
    2ce4:	4a40      	ldr	r2, [pc, #256]	; (2de8 <runCoreKernels()+0x1c40>)
    2ce6:	1ac7      	subs	r7, r0, r3
    2ce8:	4b3e      	ldr	r3, [pc, #248]	; (2de4 <runCoreKernels()+0x1c3c>)
    2cea:	9807      	ldr	r0, [sp, #28]
    2cec:	685d      	ldr	r5, [r3, #4]
    2cee:	9b0d      	ldr	r3, [sp, #52]	; 0x34
    2cf0:	4c3e      	ldr	r4, [pc, #248]	; (2dec <runCoreKernels()+0x1c44>)
    2cf2:	1aed      	subs	r5, r5, r3
    2cf4:	6813      	ldr	r3, [r2, #0]
    2cf6:	ea8b 0303 	eor.w	r3, fp, r3
    2cfa:	6013      	str	r3, [r2, #0]
    2cfc:	9b0c      	ldr	r3, [sp, #48]	; 0x30
    2cfe:	fab3 f283 	clz	r2, r3
    2d02:	4b3b      	ldr	r3, [pc, #236]	; (2df0 <runCoreKernels()+0x1c48>)
    2d04:	0952      	lsrs	r2, r2, #5
    2d06:	f830 1f02 	ldrh.w	r1, [r0, #2]!
    2d0a:	404b      	eors	r3, r1
    2d0c:	492c      	ldr	r1, [pc, #176]	; (2dc0 <runCoreKernels()+0x1c18>)
    2d0e:	4288      	cmp	r0, r1
    2d10:	fb04 f303 	mul.w	r3, r4, r3
    2d14:	d1f7      	bne.n	2d06 <runCoreKernels()+0x1b5e>
    2d16:	f44f 7100 	mov.w	r1, #512	; 0x200
    2d1a:	9303      	str	r3, [sp, #12]
    2d1c:	4829      	ldr	r0, [pc, #164]	; (2dc4 <runCoreKernels()+0x1c1c>)
    2d1e:	9102      	str	r1, [sp, #8]
    2d20:	9b0c      	ldr	r3, [sp, #48]	; 0x30
    2d22:	f8df 80dc 	ldr.w	r8, [pc, #220]	; 2e00 <runCoreKernels()+0x1c58>
    2d26:	f8df 90dc 	ldr.w	r9, [pc, #220]	; 2e04 <runCoreKernels()+0x1c5c>
    2d2a:	f8df b0ac 	ldr.w	fp, [pc, #172]	; 2dd8 <runCoreKernels()+0x1c30>
    2d2e:	4c31      	ldr	r4, [pc, #196]	; (2df4 <runCoreKernels()+0x1c4c>)
    2d30:	e9cd 7500 	strd	r7, r5, [sp]
    2d34:	e9dd 5107 	ldrd	r5, r1, [sp, #28]
    2d38:	4f2f      	ldr	r7, [pc, #188]	; (2df8 <runCoreKernels()+0x1c50>)
    2d3a:	9109      	str	r1, [sp, #36]	; 0x24
    2d3c:	4924      	ldr	r1, [pc, #144]	; (2dd0 <runCoreKernels()+0x1c28>)
    2d3e:	910a      	str	r1, [sp, #40]	; 0x28
    2d40:	492e      	ldr	r1, [pc, #184]	; (2dfc <runCoreKernels()+0x1c54>)
    2d42:	f7fd ff9f 	bl	c84 <printResult(char const*, char const*, unsigned long, unsigned long, unsigned long, unsigned long, unsigned long, unsigned long, unsigned long, char const*) [clone .constprop.0]>
    2d46:	990a      	ldr	r1, [sp, #40]	; 0x28
    2d48:	f834 0f02 	ldrh.w	r0, [r4, #2]!
    2d4c:	f831 2f02 	ldrh.w	r2, [r1, #2]!
    2d50:	f839 3f02 	ldrh.w	r3, [r9, #2]!
    2d54:	910a      	str	r1, [sp, #40]	; 0x28
    2d56:	ecf7 0a01 	vldmia	r7!, {s1}
    2d5a:	ecb8 0a01 	vldmia	r8!, {s0}
    2d5e:	f83b 1f02 	ldrh.w	r1, [fp, #2]!
    2d62:	f7fd f9a9 	bl	b8 <refBilinear(unsigned short, unsigned short, unsigned short, unsigned short, float, float)>
    2d66:	9b09      	ldr	r3, [sp, #36]	; 0x24
    2d68:	4554      	cmp	r4, sl
    2d6a:	f825 0f02 	strh.w	r0, [r5, #2]!
    2d6e:	f823 0f02 	strh.w	r0, [r3, #2]!
    2d72:	9309      	str	r3, [sp, #36]	; 0x24
    2d74:	d1e7      	bne.n	2d46 <runCoreKernels()+0x1b9e>
    2d76:	e9dd 2307 	ldrd	r2, r3, [sp, #28]
    2d7a:	2100      	movs	r1, #0
    2d7c:	f833 0f02 	ldrh.w	r0, [r3, #2]!
    2d80:	f832 4f02 	ldrh.w	r4, [r2, #2]!
    2d84:	4284      	cmp	r4, r0
    2d86:	4816      	ldr	r0, [pc, #88]	; (2de0 <runCoreKernels()+0x1c38>)
    2d88:	bf18      	it	ne
    2d8a:	3101      	addne	r1, #1
    2d8c:	4283      	cmp	r3, r0
    2d8e:	d1f5      	bne.n	2d7c <runCoreKernels()+0x1bd4>
    2d90:	4b14      	ldr	r3, [pc, #80]	; (2de4 <runCoreKernels()+0x1c3c>)
    2d92:	4637      	mov	r7, r6
    2d94:	910e      	str	r1, [sp, #56]	; 0x38
    2d96:	685b      	ldr	r3, [r3, #4]
    2d98:	930f      	str	r3, [sp, #60]	; 0x3c
    2d9a:	f003 fb55 	bl	6448 <micros>
    2d9e:	2380      	movs	r3, #128	; 0x80
    2da0:	9010      	str	r0, [sp, #64]	; 0x40
    2da2:	930d      	str	r3, [sp, #52]	; 0x34
    2da4:	4b16      	ldr	r3, [pc, #88]	; (2e00 <runCoreKernels()+0x1c58>)
    2da6:	f8df e050 	ldr.w	lr, [pc, #80]	; 2df8 <runCoreKernels()+0x1c50>
    2daa:	930c      	str	r3, [sp, #48]	; 0x30
    2dac:	4b15      	ldr	r3, [pc, #84]	; (2e04 <runCoreKernels()+0x1c5c>)
    2dae:	f8df c044 	ldr.w	ip, [pc, #68]	; 2df4 <runCoreKernels()+0x1c4c>
    2db2:	930b      	str	r3, [sp, #44]	; 0x2c
    2db4:	4b06      	ldr	r3, [pc, #24]	; (2dd0 <runCoreKernels()+0x1c28>)
    2db6:	930a      	str	r3, [sp, #40]	; 0x28
    2db8:	4b07      	ldr	r3, [pc, #28]	; (2dd8 <runCoreKernels()+0x1c30>)
    2dba:	9309      	str	r3, [sp, #36]	; 0x24
    2dbc:	e026      	b.n	2e0c <runCoreKernels()+0x1c64>
    2dbe:	bf00      	nop
    2dc0:	20006516 	.word	0x20006516
    2dc4:	2000055c 	.word	0x2000055c
    2dc8:	200004a0 	.word	0x200004a0
    2dcc:	20006924 	.word	0x20006924
    2dd0:	20002096 	.word	0x20002096
    2dd4:	200040d4 	.word	0x200040d4
    2dd8:	20001c8e 	.word	0x20001c8e
    2ddc:	200038c4 	.word	0x200038c4
    2de0:	2000691e 	.word	0x2000691e
    2de4:	e0001000 	.word	0xe0001000
    2de8:	20007138 	.word	0x20007138
    2dec:	01000193 	.word	0x01000193
    2df0:	811c9dc5 	.word	0x811c9dc5
    2df4:	20001886 	.word	0x20001886
    2df8:	200030b8 	.word	0x200030b8
    2dfc:	200003b8 	.word	0x200003b8
    2e00:	200028a8 	.word	0x200028a8
    2e04:	2000249e 	.word	0x2000249e
    2e08:	07e0f81f 	.word	0x07e0f81f
    2e0c:	9b0c      	ldr	r3, [sp, #48]	; 0x30
    2e0e:	eb07 1747 	add.w	r7, r7, r7, lsl #5
    2e12:	ecbe 7a01 	vldmia	lr!, {s14}
    2e16:	ecf3 7a01 	vldmia	r3!, {s15}
    2e1a:	eef0 6a47 	vmov.f32	s13, s14
    2e1e:	f83c 5f02 	ldrh.w	r5, [ip, #2]!
    2e22:	930c      	str	r3, [sp, #48]	; 0x30
    2e24:	eeb0 7a67 	vmov.f32	s14, s15
    2e28:	9b0b      	ldr	r3, [sp, #44]	; 0x2c
    2e2a:	45e2      	cmp	sl, ip
    2e2c:	eefe 6acc 	vcvt.s32.f32	s13, s13, #8
    2e30:	f833 2f02 	ldrh.w	r2, [r3, #2]!
    2e34:	eebe 7acc 	vcvt.s32.f32	s14, s14, #8
    2e38:	930b      	str	r3, [sp, #44]	; 0x2c
    2e3a:	ee16 1a90 	vmov	r1, s13
    2e3e:	9b09      	ldr	r3, [sp, #36]	; 0x24
    2e40:	f3c2 1045 	ubfx	r0, r2, #5, #6
    2e44:	f5c1 7480 	rsb	r4, r1, #256	; 0x100
    2e48:	f002 091f 	and.w	r9, r2, #31
    2e4c:	f833 bf02 	ldrh.w	fp, [r3, #2]!
    2e50:	fb01 f000 	mul.w	r0, r1, r0
    2e54:	ea4f 22d2 	mov.w	r2, r2, lsr #11
    2e58:	fb01 f909 	mul.w	r9, r1, r9
    2e5c:	9309      	str	r3, [sp, #36]	; 0x24
    2e5e:	9b0a      	ldr	r3, [sp, #40]	; 0x28
    2e60:	fb01 f202 	mul.w	r2, r1, r2
    2e64:	f833 8f02 	ldrh.w	r8, [r3, #2]!
    2e68:	930a      	str	r3, [sp, #40]	; 0x28
    2e6a:	f3cb 1345 	ubfx	r3, fp, #5, #6
    2e6e:	f3c8 1645 	ubfx	r6, r8, #5, #6
    2e72:	fb04 0003 	mla	r0, r4, r3, r0
    2e76:	f008 031f 	and.w	r3, r8, #31
    2e7a:	ea4f 28d8 	mov.w	r8, r8, lsr #11
    2e7e:	fb01 f606 	mul.w	r6, r1, r6
    2e82:	fb01 f303 	mul.w	r3, r1, r3
    2e86:	fb01 f808 	mul.w	r8, r1, r8
    2e8a:	f00b 011f 	and.w	r1, fp, #31
    2e8e:	ea4f 2bdb 	mov.w	fp, fp, lsr #11
    2e92:	fb04 9901 	mla	r9, r4, r1, r9
    2e96:	ee17 1a10 	vmov	r1, s14
    2e9a:	fb04 220b 	mla	r2, r4, fp, r2
    2e9e:	f3c5 1b45 	ubfx	fp, r5, #5, #6
    2ea2:	fb01 f000 	mul.w	r0, r1, r0
    2ea6:	fb01 f909 	mul.w	r9, r1, r9
    2eaa:	fb01 f202 	mul.w	r2, r1, r2
    2eae:	f5c1 7180 	rsb	r1, r1, #256	; 0x100
    2eb2:	fb04 660b 	mla	r6, r4, fp, r6
    2eb6:	fb01 0006 	mla	r0, r1, r6, r0
    2eba:	f005 061f 	and.w	r6, r5, #31
    2ebe:	ea4f 25d5 	mov.w	r5, r5, lsr #11
    2ec2:	fb04 3306 	mla	r3, r4, r6, r3
    2ec6:	f3c0 4005 	ubfx	r0, r0, #16, #6
    2eca:	fb04 8805 	mla	r8, r4, r5, r8
    2ece:	fb01 9303 	mla	r3, r1, r3, r9
    2ed2:	fb01 2208 	mla	r2, r1, r8, r2
    2ed6:	f3c3 4304 	ubfx	r3, r3, #16, #5
    2eda:	ea4f 4222 	mov.w	r2, r2, asr #16
    2ede:	ea43 1340 	orr.w	r3, r3, r0, lsl #5
    2ee2:	ea43 23c2 	orr.w	r3, r3, r2, lsl #11
    2ee6:	b29b      	uxth	r3, r3
    2ee8:	ea87 0703 	eor.w	r7, r7, r3
    2eec:	d18e      	bne.n	2e0c <runCoreKernels()+0x1c64>
    2eee:	9b0d      	ldr	r3, [sp, #52]	; 0x34
    2ef0:	3b01      	subs	r3, #1
    2ef2:	930d      	str	r3, [sp, #52]	; 0x34
    2ef4:	f47f af56 	bne.w	2da4 <runCoreKernels()+0x1bfc>
    2ef8:	f003 faa6 	bl	6448 <micros>
    2efc:	9b10      	ldr	r3, [sp, #64]	; 0x40
    2efe:	4acb      	ldr	r2, [pc, #812]	; (322c <runCoreKernels()+0x2084>)
    2f00:	1ac0      	subs	r0, r0, r3
    2f02:	4bcb      	ldr	r3, [pc, #812]	; (3230 <runCoreKernels()+0x2088>)
    2f04:	9d07      	ldr	r5, [sp, #28]
    2f06:	685c      	ldr	r4, [r3, #4]
    2f08:	9b0f      	ldr	r3, [sp, #60]	; 0x3c
    2f0a:	4eca      	ldr	r6, [pc, #808]	; (3234 <runCoreKernels()+0x208c>)
    2f0c:	1ae4      	subs	r4, r4, r3
    2f0e:	6813      	ldr	r3, [r2, #0]
    2f10:	407b      	eors	r3, r7
    2f12:	6013      	str	r3, [r2, #0]
    2f14:	9b0e      	ldr	r3, [sp, #56]	; 0x38
    2f16:	fab3 f283 	clz	r2, r3
    2f1a:	4bc7      	ldr	r3, [pc, #796]	; (3238 <runCoreKernels()+0x2090>)
    2f1c:	0952      	lsrs	r2, r2, #5
    2f1e:	f835 1f02 	ldrh.w	r1, [r5, #2]!
    2f22:	404b      	eors	r3, r1
    2f24:	49c5      	ldr	r1, [pc, #788]	; (323c <runCoreKernels()+0x2094>)
    2f26:	428d      	cmp	r5, r1
    2f28:	fb06 f303 	mul.w	r3, r6, r3
    2f2c:	d1f7      	bne.n	2f1e <runCoreKernels()+0x1d76>
    2f2e:	2180      	movs	r1, #128	; 0x80
    2f30:	4ec3      	ldr	r6, [pc, #780]	; (3240 <runCoreKernels()+0x2098>)
    2f32:	9304      	str	r3, [sp, #16]
    2f34:	9b0e      	ldr	r3, [sp, #56]	; 0x38
    2f36:	f506 55c0 	add.w	r5, r6, #6144	; 0x1800
    2f3a:	e9cd 0400 	strd	r0, r4, [sp]
    2f3e:	f44f 7400 	mov.w	r4, #512	; 0x200
    2f42:	48c0      	ldr	r0, [pc, #768]	; (3244 <runCoreKernels()+0x209c>)
    2f44:	e9cd 1402 	strd	r1, r4, [sp, #8]
    2f48:	49bf      	ldr	r1, [pc, #764]	; (3248 <runCoreKernels()+0x20a0>)
    2f4a:	f7fd fa95 	bl	478 <printResult(char const*, char const*, unsigned long, unsigned long, unsigned long, unsigned long, unsigned long, unsigned long, unsigned long, char const*) [clone .constprop.1]>
    2f4e:	f7fd fce5 	bl	91c <void runBilinear<BilinearScalar>(char const*) [clone .constprop.0]>
    2f52:	f7fd fb17 	bl	584 <void runBilinear<BilinearTwoStage>(char const*) [clone .constprop.0]>
    2f56:	eeb3 6a0f 	vmov.f32	s12, #63	; 0x41f80000  31.0
    2f5a:	eddf 5abc 	vldr	s11, [pc, #752]	; 324c <runCoreKernels()+0x20a4>
    2f5e:	4632      	mov	r2, r6
    2f60:	f8bd 4044 	ldrh.w	r4, [sp, #68]	; 0x44
    2f64:	f8bd 7046 	ldrh.w	r7, [sp, #70]	; 0x46
    2f68:	e9dd 0107 	ldrd	r0, r1, [sp, #28]
    2f6c:	edd2 6a02 	vldr	s13, [r2, #8]
    2f70:	4613      	mov	r3, r2
    2f72:	ed92 7a01 	vldr	s14, [r2, #4]
    2f76:	320c      	adds	r2, #12
    2f78:	ee66 6a86 	vmul.f32	s13, s13, s12
    2f7c:	edd3 7a00 	vldr	s15, [r3]
    2f80:	ee27 7a25 	vmul.f32	s14, s14, s11
    2f84:	42aa      	cmp	r2, r5
    2f86:	ee67 7a86 	vmul.f32	s15, s15, s12
    2f8a:	eefc 6ae6 	vcvt.u32.f32	s13, s13
    2f8e:	eebc 7ac7 	vcvt.u32.f32	s14, s14
    2f92:	eefc 7ae7 	vcvt.u32.f32	s15, s15
    2f96:	ee16 3a90 	vmov	r3, s13
    2f9a:	f003 031f 	and.w	r3, r3, #31
    2f9e:	f363 0404 	bfi	r4, r3, #0, #5
    2fa2:	f363 0704 	bfi	r7, r3, #0, #5
    2fa6:	ee17 3a10 	vmov	r3, s14
    2faa:	f003 033f 	and.w	r3, r3, #63	; 0x3f
    2fae:	f363 144a 	bfi	r4, r3, #5, #6
    2fb2:	f363 174a 	bfi	r7, r3, #5, #6
    2fb6:	ee17 3a90 	vmov	r3, s15
    2fba:	f003 031f 	and.w	r3, r3, #31
    2fbe:	f363 24cf 	bfi	r4, r3, #11, #5
    2fc2:	f363 27cf 	bfi	r7, r3, #11, #5
    2fc6:	f821 4f02 	strh.w	r4, [r1, #2]!
    2fca:	f820 7f02 	strh.w	r7, [r0, #2]!
    2fce:	d1cd      	bne.n	2f6c <runCoreKernels()+0x1dc4>
    2fd0:	e9dd 2307 	ldrd	r2, r3, [sp, #28]
    2fd4:	f04f 0800 	mov.w	r8, #0
    2fd8:	f833 1f02 	ldrh.w	r1, [r3, #2]!
    2fdc:	f832 0f02 	ldrh.w	r0, [r2, #2]!
    2fe0:	4288      	cmp	r0, r1
    2fe2:	499b      	ldr	r1, [pc, #620]	; (3250 <runCoreKernels()+0x20a8>)
    2fe4:	bf18      	it	ne
    2fe6:	f108 0801 	addne.w	r8, r8, #1
    2fea:	428b      	cmp	r3, r1
    2fec:	d1f4      	bne.n	2fd8 <runCoreKernels()+0x1e30>
    2fee:	4b90      	ldr	r3, [pc, #576]	; (3230 <runCoreKernels()+0x2088>)
    2ff0:	2480      	movs	r4, #128	; 0x80
    2ff2:	685f      	ldr	r7, [r3, #4]
    2ff4:	f003 fa28 	bl	6448 <micros>
    2ff8:	eeb3 6a0f 	vmov.f32	s12, #63	; 0x41f80000  31.0
    2ffc:	eddf 5a93 	vldr	s11, [pc, #588]	; 324c <runCoreKernels()+0x20a4>
    3000:	4681      	mov	r9, r0
    3002:	990d      	ldr	r1, [sp, #52]	; 0x34
    3004:	4632      	mov	r2, r6
    3006:	ed92 7a01 	vldr	s14, [r2, #4]
    300a:	4613      	mov	r3, r2
    300c:	edd2 7a02 	vldr	s15, [r2, #8]
    3010:	320c      	adds	r2, #12
    3012:	ee27 7a25 	vmul.f32	s14, s14, s11
    3016:	edd3 6a00 	vldr	s13, [r3]
    301a:	ee67 7a86 	vmul.f32	s15, s15, s12
    301e:	eb01 1141 	add.w	r1, r1, r1, lsl #5
    3022:	ee66 6a86 	vmul.f32	s13, s13, s12
    3026:	42aa      	cmp	r2, r5
    3028:	eebc 7ac7 	vcvt.u32.f32	s14, s14
    302c:	eefc 7ae7 	vcvt.u32.f32	s15, s15
    3030:	eefc 6ae6 	vcvt.u32.f32	s13, s13
    3034:	ee17 3a10 	vmov	r3, s14
    3038:	ee17 0a90 	vmov	r0, s15
    303c:	ea4f 1343 	mov.w	r3, r3, lsl #5
    3040:	f000 001f 	and.w	r0, r0, #31
    3044:	f403 63fc 	and.w	r3, r3, #2016	; 0x7e0
    3048:	ea43 0300 	orr.w	r3, r3, r0
    304c:	ee16 0a90 	vmov	r0, s13
    3050:	ea43 23c0 	orr.w	r3, r3, r0, lsl #11
    3054:	b29b      	uxth	r3, r3
    3056:	ea81 0103 	eor.w	r1, r1, r3
    305a:	d1d4      	bne.n	3006 <runCoreKernels()+0x1e5e>
    305c:	3c01      	subs	r4, #1
    305e:	d1d1      	bne.n	3004 <runCoreKernels()+0x1e5c>
    3060:	468a      	mov	sl, r1
    3062:	f003 f9f1 	bl	6448 <micros>
    3066:	4b72      	ldr	r3, [pc, #456]	; (3230 <runCoreKernels()+0x2088>)
    3068:	eba0 0009 	sub.w	r0, r0, r9
    306c:	4651      	mov	r1, sl
    306e:	f8dd c01c 	ldr.w	ip, [sp, #28]
    3072:	685b      	ldr	r3, [r3, #4]
    3074:	f8df e1bc 	ldr.w	lr, [pc, #444]	; 3234 <runCoreKernels()+0x208c>
    3078:	1bdb      	subs	r3, r3, r7
    307a:	4f6c      	ldr	r7, [pc, #432]	; (322c <runCoreKernels()+0x2084>)
    307c:	683a      	ldr	r2, [r7, #0]
    307e:	4051      	eors	r1, r2
    3080:	fab8 f288 	clz	r2, r8
    3084:	6039      	str	r1, [r7, #0]
    3086:	0952      	lsrs	r2, r2, #5
    3088:	496b      	ldr	r1, [pc, #428]	; (3238 <runCoreKernels()+0x2090>)
    308a:	f83c 7f02 	ldrh.w	r7, [ip, #2]!
    308e:	4079      	eors	r1, r7
    3090:	4f6a      	ldr	r7, [pc, #424]	; (323c <runCoreKernels()+0x2094>)
    3092:	45bc      	cmp	ip, r7
    3094:	fb0e f101 	mul.w	r1, lr, r1
    3098:	d1f7      	bne.n	308a <runCoreKernels()+0x1ee2>
    309a:	9104      	str	r1, [sp, #16]
    309c:	2180      	movs	r1, #128	; 0x80
    309e:	e9cd 0300 	strd	r0, r3, [sp]
    30a2:	f44f 7000 	mov.w	r0, #512	; 0x200
    30a6:	4643      	mov	r3, r8
    30a8:	e9cd 1002 	strd	r1, r0, [sp, #8]
    30ac:	4966      	ldr	r1, [pc, #408]	; (3248 <runCoreKernels()+0x20a0>)
    30ae:	4869      	ldr	r0, [pc, #420]	; (3254 <runCoreKernels()+0x20ac>)
    30b0:	f7fd f9e2 	bl	478 <printResult(char const*, char const*, unsigned long, unsigned long, unsigned long, unsigned long, unsigned long, unsigned long, unsigned long, char const*) [clone .constprop.1]>
    30b4:	eeb3 6a0f 	vmov.f32	s12, #63	; 0x41f80000  31.0
    30b8:	eddf 5a64 	vldr	s11, [pc, #400]	; 324c <runCoreKernels()+0x20a4>
    30bc:	4a60      	ldr	r2, [pc, #384]	; (3240 <runCoreKernels()+0x2098>)
    30be:	e9dd 0107 	ldrd	r0, r1, [sp, #28]
    30c2:	edd2 7a01 	vldr	s15, [r2, #4]
    30c6:	4613      	mov	r3, r2
    30c8:	ed92 7a02 	vldr	s14, [r2, #8]
    30cc:	320c      	adds	r2, #12
    30ce:	ee67 7aa5 	vmul.f32	s15, s15, s11
    30d2:	edd3 6a00 	vldr	s13, [r3]
    30d6:	ee27 7a06 	vmul.f32	s14, s14, s12
    30da:	4295      	cmp	r5, r2
    30dc:	ee66 6a86 	vmul.f32	s13, s13, s12
    30e0:	eebc 5ae7 	vcvt.u32.f32	s10, s15
    30e4:	eefd 7ae7 	vcvt.s32.f32	s15, s15
    30e8:	ee15 7a10 	vmov	r7, s10
    30ec:	eebc 5ac7 	vcvt.u32.f32	s10, s14
    30f0:	ea4f 1747 	mov.w	r7, r7, lsl #5
    30f4:	ee15 3a10 	vmov	r3, s10
    30f8:	eebc 5ae6 	vcvt.u32.f32	s10, s13
    30fc:	f407 67fc 	and.w	r7, r7, #2016	; 0x7e0
    3100:	eefd 6ae6 	vcvt.s32.f32	s13, s13
    3104:	f003 031f 	and.w	r3, r3, #31
    3108:	ea47 0703 	orr.w	r7, r7, r3
    310c:	ee15 3a10 	vmov	r3, s10
    3110:	ea47 27c3 	orr.w	r7, r7, r3, lsl #11
    3114:	ee17 3a90 	vmov	r3, s15
    3118:	eefd 7ac7 	vcvt.s32.f32	s15, s14
    311c:	f003 033f 	and.w	r3, r3, #63	; 0x3f
    3120:	f821 7f02 	strh.w	r7, [r1, #2]!
    3124:	ee16 7a90 	vmov	r7, s13
    3128:	ea4f 1343 	mov.w	r3, r3, lsl #5
    312c:	f007 071f 	and.w	r7, r7, #31
    3130:	ea43 23c7 	orr.w	r3, r3, r7, lsl #11
    3134:	ee17 7a90 	vmov	r7, s15
    3138:	f007 071f 	and.w	r7, r7, #31
    313c:	ea43 0307 	orr.w	r3, r3, r7
    3140:	f820 3f02 	strh.w	r3, [r0, #2]!
    3144:	d1bd      	bne.n	30c2 <runCoreKernels()+0x1f1a>
    3146:	9b07      	ldr	r3, [sp, #28]
    3148:	f04f 0800 	mov.w	r8, #0
    314c:	9a08      	ldr	r2, [sp, #32]
    314e:	f832 1f02 	ldrh.w	r1, [r2, #2]!
    3152:	f833 0f02 	ldrh.w	r0, [r3, #2]!
    3156:	4288      	cmp	r0, r1
    3158:	493d      	ldr	r1, [pc, #244]	; (3250 <runCoreKernels()+0x20a8>)
    315a:	bf18      	it	ne
    315c:	f108 0801 	addne.w	r8, r8, #1
    3160:	428a      	cmp	r2, r1
    3162:	d1f4      	bne.n	314e <runCoreKernels()+0x1fa6>
    3164:	4b32      	ldr	r3, [pc, #200]	; (3230 <runCoreKernels()+0x2088>)
    3166:	685f      	ldr	r7, [r3, #4]
    3168:	f003 f96e 	bl	6448 <micros>
    316c:	eeb3 6a0f 	vmov.f32	s12, #63	; 0x41f80000  31.0
    3170:	eddf 5a36 	vldr	s11, [pc, #216]	; 324c <runCoreKernels()+0x20a4>
    3174:	4681      	mov	r9, r0
    3176:	2180      	movs	r1, #128	; 0x80
    3178:	4632      	mov	r2, r6
    317a:	edd2 7a01 	vldr	s15, [r2, #4]
    317e:	320c      	adds	r2, #12
    3180:	ed52 6a03 	vldr	s13, [r2, #-12]
    3184:	eb04 1444 	add.w	r4, r4, r4, lsl #5
    3188:	ee67 7aa5 	vmul.f32	s15, s15, s11
    318c:	ed12 7a01 	vldr	s14, [r2, #-4]
    3190:	ee66 6a86 	vmul.f32	s13, s13, s12
    3194:	42aa      	cmp	r2, r5
    3196:	ee27 7a06 	vmul.f32	s14, s14, s12
    319a:	eefd 7ae7 	vcvt.s32.f32	s15, s15
    319e:	ee17 3a90 	vmov	r3, s15
    31a2:	eefd 7ae6 	vcvt.s32.f32	s15, s13
    31a6:	f003 033f 	and.w	r3, r3, #63	; 0x3f
    31aa:	ee17 0a90 	vmov	r0, s15
    31ae:	eefd 7ac7 	vcvt.s32.f32	s15, s14
    31b2:	ea4f 1343 	mov.w	r3, r3, lsl #5
    31b6:	f000 001f 	and.w	r0, r0, #31
    31ba:	ea43 23c0 	orr.w	r3, r3, r0, lsl #11
    31be:	ee17 0a90 	vmov	r0, s15
    31c2:	f000 001f 	and.w	r0, r0, #31
    31c6:	ea43 0300 	orr.w	r3, r3, r0
    31ca:	ea84 0403 	eor.w	r4, r4, r3
    31ce:	d1d4      	bne.n	317a <runCoreKernels()+0x1fd2>
    31d0:	3901      	subs	r1, #1
    31d2:	d1d1      	bne.n	3178 <runCoreKernels()+0x1fd0>
    31d4:	f003 f938 	bl	6448 <micros>
    31d8:	4a14      	ldr	r2, [pc, #80]	; (322c <runCoreKernels()+0x2084>)
    31da:	4b15      	ldr	r3, [pc, #84]	; (3230 <runCoreKernels()+0x2088>)
    31dc:	eba0 0009 	sub.w	r0, r0, r9
    31e0:	4915      	ldr	r1, [pc, #84]	; (3238 <runCoreKernels()+0x2090>)
    31e2:	685d      	ldr	r5, [r3, #4]
    31e4:	6813      	ldr	r3, [r2, #0]
    31e6:	1bed      	subs	r5, r5, r7
    31e8:	405c      	eors	r4, r3
    31ea:	9b07      	ldr	r3, [sp, #28]
    31ec:	6014      	str	r4, [r2, #0]
    31ee:	fab8 f288 	clz	r2, r8
    31f2:	4c10      	ldr	r4, [pc, #64]	; (3234 <runCoreKernels()+0x208c>)
    31f4:	0952      	lsrs	r2, r2, #5
    31f6:	f833 6f02 	ldrh.w	r6, [r3, #2]!
    31fa:	4071      	eors	r1, r6
    31fc:	4e0f      	ldr	r6, [pc, #60]	; (323c <runCoreKernels()+0x2094>)
    31fe:	42b3      	cmp	r3, r6
    3200:	fb04 f101 	mul.w	r1, r4, r1
    3204:	d1f7      	bne.n	31f6 <runCoreKernels()+0x204e>
    3206:	f44f 7400 	mov.w	r4, #512	; 0x200
    320a:	9104      	str	r1, [sp, #16]
    320c:	9000      	str	r0, [sp, #0]
    320e:	4643      	mov	r3, r8
    3210:	9403      	str	r4, [sp, #12]
    3212:	2480      	movs	r4, #128	; 0x80
    3214:	4910      	ldr	r1, [pc, #64]	; (3258 <runCoreKernels()+0x20b0>)
    3216:	480f      	ldr	r0, [pc, #60]	; (3254 <runCoreKernels()+0x20ac>)
    3218:	9501      	str	r5, [sp, #4]
    321a:	9402      	str	r4, [sp, #8]
    321c:	f7fd f92c 	bl	478 <printResult(char const*, char const*, unsigned long, unsigned long, unsigned long, unsigned long, unsigned long, unsigned long, unsigned long, char const*) [clone .constprop.1]>
    3220:	b025      	add	sp, #148	; 0x94
    3222:	ecbd 8b02 	vpop	{d8}
    3226:	e8bd 8ff0 	ldmia.w	sp!, {r4, r5, r6, r7, r8, r9, sl, fp, pc}
    322a:	bf00      	nop
    322c:	20007138 	.word	0x20007138
    3230:	e0001000 	.word	0xe0001000
    3234:	01000193 	.word	0x01000193
    3238:	811c9dc5 	.word	0x811c9dc5
    323c:	20006516 	.word	0x20006516
    3240:	2000794c 	.word	0x2000794c
    3244:	200003dc 	.word	0x200003dc
    3248:	20000494 	.word	0x20000494
    324c:	427c0000 	.word	0x427c0000
    3250:	2000691e 	.word	0x2000691e
    3254:	20000570 	.word	0x20000570
    3258:	20000580 	.word	0x20000580
    325c:	00000000 	.word	0x00000000

00003260 <runSpanKernels()>:
    3260:	e92d 4ff0 	stmdb	sp!, {r4, r5, r6, r7, r8, r9, sl, fp, lr}
    3264:	ed2d 8b06 	vpush	{d8-d10}
    3268:	b0c7      	sub	sp, #284	; 0x11c
    326a:	4dc1      	ldr	r5, [pc, #772]	; (3570 <runSpanKernels()+0x310>)
    326c:	ab30      	add	r3, sp, #192	; 0xc0
    326e:	ac31      	add	r4, sp, #196	; 0xc4
    3270:	9325      	str	r3, [sp, #148]	; 0x94
    3272:	cd0f      	ldmia	r5!, {r0, r1, r2, r3}
    3274:	c40f      	stmia	r4!, {r0, r1, r2, r3}
    3276:	cd0f      	ldmia	r5!, {r0, r1, r2, r3}
    3278:	ed9f 8bbb 	vldr	d8, [pc, #748]	; 3568 <runSpanKernels()+0x308>
    327c:	c40f      	stmia	r4!, {r0, r1, r2, r3}
    327e:	682b      	ldr	r3, [r5, #0]
    3280:	6023      	str	r3, [r4, #0]
    3282:	9b25      	ldr	r3, [sp, #148]	; 0x94
    3284:	f853 8f04 	ldr.w	r8, [r3, #4]!
    3288:	9325      	str	r3, [sp, #148]	; 0x94
    328a:	ea4f 0358 	mov.w	r3, r8, lsr #1
    328e:	f1a8 0202 	sub.w	r2, r8, #2
    3292:	f1b8 0f01 	cmp.w	r8, #1
    3296:	ea4f 0383 	mov.w	r3, r3, lsl #2
    329a:	9227      	str	r2, [sp, #156]	; 0x9c
    329c:	ea4f 0048 	mov.w	r0, r8, lsl #1
    32a0:	931e      	str	r3, [sp, #120]	; 0x78
    32a2:	f022 0301 	bic.w	r3, r2, #1
    32a6:	ee0a 0a10 	vmov	s20, r0
    32aa:	f103 0102 	add.w	r1, r3, #2
    32ae:	ea4f 0352 	mov.w	r3, r2, lsr #1
    32b2:	f103 0201 	add.w	r2, r3, #1
    32b6:	f028 0301 	bic.w	r3, r8, #1
    32ba:	9120      	str	r1, [sp, #128]	; 0x80
    32bc:	bf98      	it	ls
    32be:	2100      	movls	r1, #0
    32c0:	9322      	str	r3, [sp, #136]	; 0x88
    32c2:	2302      	movs	r3, #2
    32c4:	004c      	lsls	r4, r1, #1
    32c6:	9216      	str	r2, [sp, #88]	; 0x58
    32c8:	9329      	str	r3, [sp, #164]	; 0xa4
    32ca:	eba8 0301 	sub.w	r3, r8, r1
    32ce:	9124      	str	r1, [sp, #144]	; 0x90
    32d0:	3101      	adds	r1, #1
    32d2:	005b      	lsls	r3, r3, #1
    32d4:	942e      	str	r4, [sp, #184]	; 0xb8
    32d6:	9115      	str	r1, [sp, #84]	; 0x54
    32d8:	1ca1      	adds	r1, r4, #2
    32da:	ee09 3a90 	vmov	s19, r3
    32de:	0853      	lsrs	r3, r2, #1
    32e0:	912d      	str	r1, [sp, #180]	; 0xb4
    32e2:	00db      	lsls	r3, r3, #3
    32e4:	9321      	str	r3, [sp, #132]	; 0x84
    32e6:	f022 0301 	bic.w	r3, r2, #1
    32ea:	0092      	lsls	r2, r2, #2
    32ec:	9328      	str	r3, [sp, #160]	; 0xa0
    32ee:	009b      	lsls	r3, r3, #2
    32f0:	ee0a 2a90 	vmov	s21, r2
    32f4:	931f      	str	r3, [sp, #124]	; 0x7c
    32f6:	2300      	movs	r3, #0
    32f8:	931a      	str	r3, [sp, #104]	; 0x68
    32fa:	1e83      	subs	r3, r0, #2
    32fc:	932a      	str	r3, [sp, #168]	; 0xa8
    32fe:	9a1a      	ldr	r2, [sp, #104]	; 0x68
    3300:	499c      	ldr	r1, [pc, #624]	; (3574 <runSpanKernels()+0x314>)
    3302:	489d      	ldr	r0, [pc, #628]	; (3578 <runSpanKernels()+0x318>)
    3304:	0053      	lsls	r3, r2, #1
    3306:	eb01 0942 	add.w	r9, r1, r2, lsl #1
    330a:	eb00 0242 	add.w	r2, r0, r2, lsl #1
    330e:	931c      	str	r3, [sp, #112]	; 0x70
    3310:	920d      	str	r2, [sp, #52]	; 0x34
    3312:	f1b8 0f00 	cmp.w	r8, #0
    3316:	f002 82b7 	beq.w	5888 <runSpanKernels()+0x2628>
    331a:	ee1a 4a10 	vmov	r4, s20
    331e:	1e9a      	subs	r2, r3, #2
    3320:	f647 3cef 	movw	ip, #31727	; 0x7bef
    3324:	190f      	adds	r7, r1, r4
    3326:	1884      	adds	r4, r0, r2
    3328:	4649      	mov	r1, r9
    332a:	921d      	str	r2, [sp, #116]	; 0x74
    332c:	441f      	add	r7, r3
    332e:	4b93      	ldr	r3, [pc, #588]	; (357c <runSpanKernels()+0x31c>)
    3330:	4625      	mov	r5, r4
    3332:	189e      	adds	r6, r3, r2
    3334:	f831 0b02 	ldrh.w	r0, [r1], #2
    3338:	f835 2f02 	ldrh.w	r2, [r5, #2]!
    333c:	428f      	cmp	r7, r1
    333e:	ea80 0302 	eor.w	r3, r0, r2
    3342:	ea02 0200 	and.w	r2, r2, r0
    3346:	ea0c 0353 	and.w	r3, ip, r3, lsr #1
    334a:	4413      	add	r3, r2
    334c:	f826 3f02 	strh.w	r3, [r6, #2]!
    3350:	d1f0      	bne.n	3334 <runSpanKernels()+0xd4>
    3352:	4b8b      	ldr	r3, [pc, #556]	; (3580 <runSpanKernels()+0x320>)
    3354:	f1a9 0102 	sub.w	r1, r9, #2
    3358:	9a1c      	ldr	r2, [sp, #112]	; 0x70
    335a:	f647 36ef 	movw	r6, #31727	; 0x7bef
    335e:	eb03 0a02 	add.w	sl, r3, r2
    3362:	9b2a      	ldr	r3, [sp, #168]	; 0xa8
    3364:	f1aa 0502 	sub.w	r5, sl, #2
    3368:	eb09 0703 	add.w	r7, r9, r3
    336c:	f831 0f02 	ldrh.w	r0, [r1, #2]!
    3370:	f834 2f02 	ldrh.w	r2, [r4, #2]!
    3374:	428f      	cmp	r7, r1
    3376:	ea80 0302 	eor.w	r3, r0, r2
    337a:	ea02 0200 	and.w	r2, r2, r0
    337e:	ea06 0353 	and.w	r3, r6, r3, lsr #1
    3382:	4413      	add	r3, r2
    3384:	f825 3f02 	strh.w	r3, [r5, #2]!
    3388:	d1f0      	bne.n	336c <runSpanKernels()+0x10c>
    338a:	4b7c      	ldr	r3, [pc, #496]	; (357c <runSpanKernels()+0x31c>)
    338c:	ee1a 2a10 	vmov	r2, s20
    3390:	991d      	ldr	r1, [sp, #116]	; 0x74
    3392:	f04f 0b00 	mov.w	fp, #0
    3396:	189c      	adds	r4, r3, r2
    3398:	9a1c      	ldr	r2, [sp, #112]	; 0x70
    339a:	4414      	add	r4, r2
    339c:	4413      	add	r3, r2
    339e:	4a78      	ldr	r2, [pc, #480]	; (3580 <runSpanKernels()+0x320>)
    33a0:	440a      	add	r2, r1
    33a2:	f833 1b02 	ldrh.w	r1, [r3], #2
    33a6:	f832 0f02 	ldrh.w	r0, [r2, #2]!
    33aa:	4288      	cmp	r0, r1
    33ac:	bf18      	it	ne
    33ae:	f10b 0b01 	addne.w	fp, fp, #1
    33b2:	429c      	cmp	r4, r3
    33b4:	d1f5      	bne.n	33a2 <runSpanKernels()+0x142>
    33b6:	fabb f38b 	clz	r3, fp
    33ba:	095b      	lsrs	r3, r3, #5
    33bc:	9309      	str	r3, [sp, #36]	; 0x24
    33be:	4b71      	ldr	r3, [pc, #452]	; (3584 <runSpanKernels()+0x324>)
    33c0:	f44f 7400 	mov.w	r4, #512	; 0x200
    33c4:	2500      	movs	r5, #0
    33c6:	4647      	mov	r7, r8
    33c8:	685b      	ldr	r3, [r3, #4]
    33ca:	930a      	str	r3, [sp, #40]	; 0x28
    33cc:	f003 f83c 	bl	6448 <micros>
    33d0:	9b1a      	ldr	r3, [sp, #104]	; 0x68
    33d2:	f647 3eef 	movw	lr, #31727	; 0x7bef
    33d6:	4a6a      	ldr	r2, [pc, #424]	; (3580 <runSpanKernels()+0x320>)
    33d8:	4443      	add	r3, r8
    33da:	f8cd b030 	str.w	fp, [sp, #48]	; 0x30
    33de:	f8df c1b4 	ldr.w	ip, [pc, #436]	; 3594 <runSpanKernels()+0x334>
    33e2:	eb02 0343 	add.w	r3, r2, r3, lsl #1
    33e6:	f8dd b034 	ldr.w	fp, [sp, #52]	; 0x34
    33ea:	900b      	str	r0, [sp, #44]	; 0x2c
    33ec:	9308      	str	r3, [sp, #32]
    33ee:	9b2a      	ldr	r3, [sp, #168]	; 0xa8
    33f0:	f8cd a0bc 	str.w	sl, [sp, #188]	; 0xbc
    33f4:	444b      	add	r3, r9
    33f6:	9307      	str	r3, [sp, #28]
    33f8:	2f00      	cmp	r7, #0
    33fa:	f002 81eb 	beq.w	57d4 <runSpanKernels()+0x2574>
    33fe:	f1a9 0202 	sub.w	r2, r9, #2
    3402:	f1ab 0602 	sub.w	r6, fp, #2
    3406:	f1aa 0002 	sub.w	r0, sl, #2
    340a:	f832 1f02 	ldrh.w	r1, [r2, #2]!
    340e:	f836 8f02 	ldrh.w	r8, [r6, #2]!
    3412:	ea81 0308 	eor.w	r3, r1, r8
    3416:	ea01 0108 	and.w	r1, r1, r8
    341a:	ea0e 0353 	and.w	r3, lr, r3, lsr #1
    341e:	440b      	add	r3, r1
    3420:	f820 3f02 	strh.w	r3, [r0, #2]!
    3424:	9b07      	ldr	r3, [sp, #28]
    3426:	4293      	cmp	r3, r2
    3428:	d1ef      	bne.n	340a <runSpanKernels()+0x1aa>
    342a:	4652      	mov	r2, sl
    342c:	4b56      	ldr	r3, [pc, #344]	; (3588 <runSpanKernels()+0x328>)
    342e:	f832 1b02 	ldrh.w	r1, [r2], #2
    3432:	404b      	eors	r3, r1
    3434:	9908      	ldr	r1, [sp, #32]
    3436:	4291      	cmp	r1, r2
    3438:	fb0c f303 	mul.w	r3, ip, r3
    343c:	d1f7      	bne.n	342e <runSpanKernels()+0x1ce>
    343e:	3c01      	subs	r4, #1
    3440:	ea85 0503 	eor.w	r5, r5, r3
    3444:	d1d8      	bne.n	33f8 <runSpanKernels()+0x198>
    3446:	f8dd b030 	ldr.w	fp, [sp, #48]	; 0x30
    344a:	f002 fffd 	bl	6448 <micros>
    344e:	9b0b      	ldr	r3, [sp, #44]	; 0x2c
    3450:	46b8      	mov	r8, r7
    3452:	4a4e      	ldr	r2, [pc, #312]	; (358c <runSpanKernels()+0x32c>)
    3454:	2130      	movs	r1, #48	; 0x30
    3456:	1ac7      	subs	r7, r0, r3
    3458:	4b4a      	ldr	r3, [pc, #296]	; (3584 <runSpanKernels()+0x324>)
    345a:	a83a      	add	r0, sp, #232	; 0xe8
    345c:	685e      	ldr	r6, [r3, #4]
    345e:	9b0a      	ldr	r3, [sp, #40]	; 0x28
    3460:	1af6      	subs	r6, r6, r3
    3462:	9b1a      	ldr	r3, [sp, #104]	; 0x68
    3464:	9300      	str	r3, [sp, #0]
    3466:	6813      	ldr	r3, [r2, #0]
    3468:	405d      	eors	r5, r3
    346a:	4643      	mov	r3, r8
    346c:	6015      	str	r5, [r2, #0]
    346e:	4a48      	ldr	r2, [pc, #288]	; (3590 <runSpanKernels()+0x330>)
    3470:	f005 fed2 	bl	9218 <snprintf>
    3474:	f1b8 0f00 	cmp.w	r8, #0
    3478:	f002 81f6 	beq.w	5868 <runSpanKernels()+0x2608>
    347c:	4652      	mov	r2, sl
    347e:	4b42      	ldr	r3, [pc, #264]	; (3588 <runSpanKernels()+0x328>)
    3480:	4944      	ldr	r1, [pc, #272]	; (3594 <runSpanKernels()+0x334>)
    3482:	f832 0b02 	ldrh.w	r0, [r2], #2
    3486:	4043      	eors	r3, r0
    3488:	9808      	ldr	r0, [sp, #32]
    348a:	4290      	cmp	r0, r2
    348c:	fb01 f303 	mul.w	r3, r1, r3
    3490:	d1f7      	bne.n	3482 <runSpanKernels()+0x222>
    3492:	9a09      	ldr	r2, [sp, #36]	; 0x24
    3494:	a83a      	add	r0, sp, #232	; 0xe8
    3496:	4940      	ldr	r1, [pc, #256]	; (3598 <runSpanKernels()+0x338>)
    3498:	9303      	str	r3, [sp, #12]
    349a:	465b      	mov	r3, fp
    349c:	f8cd 8008 	str.w	r8, [sp, #8]
    34a0:	e9cd 7600 	strd	r7, r6, [sp]
    34a4:	f7fd fbee 	bl	c84 <printResult(char const*, char const*, unsigned long, unsigned long, unsigned long, unsigned long, unsigned long, unsigned long, unsigned long, char const*) [clone .constprop.0]>
    34a8:	4a33      	ldr	r2, [pc, #204]	; (3578 <runSpanKernels()+0x318>)
    34aa:	9b1d      	ldr	r3, [sp, #116]	; 0x74
    34ac:	ee1a 1a10 	vmov	r1, s20
    34b0:	f647 3cef 	movw	ip, #31727	; 0x7bef
    34b4:	eb02 0e03 	add.w	lr, r2, r3
    34b8:	4a2e      	ldr	r2, [pc, #184]	; (3574 <runSpanKernels()+0x314>)
    34ba:	1857      	adds	r7, r2, r1
    34bc:	9a1c      	ldr	r2, [sp, #112]	; 0x70
    34be:	4675      	mov	r5, lr
    34c0:	4649      	mov	r1, r9
    34c2:	4417      	add	r7, r2
    34c4:	4a2d      	ldr	r2, [pc, #180]	; (357c <runSpanKernels()+0x31c>)
    34c6:	18d6      	adds	r6, r2, r3
    34c8:	f831 0b02 	ldrh.w	r0, [r1], #2
    34cc:	f835 2f02 	ldrh.w	r2, [r5, #2]!
    34d0:	428f      	cmp	r7, r1
    34d2:	ea80 0302 	eor.w	r3, r0, r2
    34d6:	ea02 0200 	and.w	r2, r2, r0
    34da:	ea0c 0353 	and.w	r3, ip, r3, lsr #1
    34de:	4413      	add	r3, r2
    34e0:	f826 3f02 	strh.w	r3, [r6, #2]!
    34e4:	d1f0      	bne.n	34c8 <runSpanKernels()+0x268>
    34e6:	f1a9 0102 	sub.w	r1, r9, #2
    34ea:	f1aa 0502 	sub.w	r5, sl, #2
    34ee:	f647 36ef 	movw	r6, #31727	; 0x7bef
    34f2:	f831 0f02 	ldrh.w	r0, [r1, #2]!
    34f6:	f83e 2f02 	ldrh.w	r2, [lr, #2]!
    34fa:	ea80 0302 	eor.w	r3, r0, r2
    34fe:	4002      	ands	r2, r0
    3500:	ea06 0353 	and.w	r3, r6, r3, lsr #1
    3504:	4413      	add	r3, r2
    3506:	f825 3f02 	strh.w	r3, [r5, #2]!
    350a:	9b07      	ldr	r3, [sp, #28]
    350c:	428b      	cmp	r3, r1
    350e:	d1f0      	bne.n	34f2 <runSpanKernels()+0x292>
    3510:	4b1a      	ldr	r3, [pc, #104]	; (357c <runSpanKernels()+0x31c>)
    3512:	ee1a 2a10 	vmov	r2, s20
    3516:	991d      	ldr	r1, [sp, #116]	; 0x74
    3518:	f04f 0b00 	mov.w	fp, #0
    351c:	189d      	adds	r5, r3, r2
    351e:	9a1c      	ldr	r2, [sp, #112]	; 0x70
    3520:	4415      	add	r5, r2
    3522:	4413      	add	r3, r2
    3524:	4a16      	ldr	r2, [pc, #88]	; (3580 <runSpanKernels()+0x320>)
    3526:	440a      	add	r2, r1
    3528:	f833 1b02 	ldrh.w	r1, [r3], #2
    352c:	f832 0f02 	ldrh.w	r0, [r2, #2]!
    3530:	4288      	cmp	r0, r1
    3532:	bf18      	it	ne
    3534:	f10b 0b01 	addne.w	fp, fp, #1
    3538:	429d      	cmp	r5, r3
    353a:	d1f5      	bne.n	3528 <runSpanKernels()+0x2c8>
    353c:	fabb f38b 	clz	r3, fp
    3540:	095b      	lsrs	r3, r3, #5
    3542:	9309      	str	r3, [sp, #36]	; 0x24
    3544:	4b0f      	ldr	r3, [pc, #60]	; (3584 <runSpanKernels()+0x324>)
    3546:	4647      	mov	r7, r8
    3548:	685b      	ldr	r3, [r3, #4]
    354a:	930a      	str	r3, [sp, #40]	; 0x28
    354c:	f002 ff7c 	bl	6448 <micros>
    3550:	f8cd b030 	str.w	fp, [sp, #48]	; 0x30
    3554:	f44f 7300 	mov.w	r3, #512	; 0x200
    3558:	f647 3eef 	movw	lr, #31727	; 0x7bef
    355c:	f8df c034 	ldr.w	ip, [pc, #52]	; 3594 <runSpanKernels()+0x334>
    3560:	f8dd b034 	ldr.w	fp, [sp, #52]	; 0x34
    3564:	900b      	str	r0, [sp, #44]	; 0x2c
    3566:	e019      	b.n	359c <runSpanKernels()+0x33c>
    3568:	39e739e7 	.word	0x39e739e7
    356c:	39e739e7 	.word	0x39e739e7
    3570:	20000394 	.word	0x20000394
    3574:	20001888 	.word	0x20001888
    3578:	20001c90 	.word	0x20001c90
    357c:	2000958c 	.word	0x2000958c
    3580:	2000917c 	.word	0x2000917c
    3584:	e0001000 	.word	0xe0001000
    3588:	811c9dc5 	.word	0x811c9dc5
    358c:	20007138 	.word	0x20007138
    3590:	2000058c 	.word	0x2000058c
    3594:	01000193 	.word	0x01000193
    3598:	200006c4 	.word	0x200006c4
    359c:	2f00      	cmp	r7, #0
    359e:	f002 8111 	beq.w	57c4 <runSpanKernels()+0x2564>
    35a2:	f1a9 0102 	sub.w	r1, r9, #2
    35a6:	f1ab 0602 	sub.w	r6, fp, #2
    35aa:	f1aa 0502 	sub.w	r5, sl, #2
    35ae:	f831 0f02 	ldrh.w	r0, [r1, #2]!
    35b2:	f836 8f02 	ldrh.w	r8, [r6, #2]!
    35b6:	ea80 0208 	eor.w	r2, r0, r8
    35ba:	ea00 0008 	and.w	r0, r0, r8
    35be:	ea0e 0252 	and.w	r2, lr, r2, lsr #1
    35c2:	4402      	add	r2, r0
    35c4:	f825 2f02 	strh.w	r2, [r5, #2]!
    35c8:	9a07      	ldr	r2, [sp, #28]
    35ca:	428a      	cmp	r2, r1
    35cc:	d1ef      	bne.n	35ae <runSpanKernels()+0x34e>
    35ce:	4651      	mov	r1, sl
    35d0:	4aad      	ldr	r2, [pc, #692]	; (3888 <runSpanKernels()+0x628>)
    35d2:	f831 0b02 	ldrh.w	r0, [r1], #2
    35d6:	4042      	eors	r2, r0
    35d8:	9808      	ldr	r0, [sp, #32]
    35da:	4288      	cmp	r0, r1
    35dc:	fb0c f202 	mul.w	r2, ip, r2
    35e0:	d1f7      	bne.n	35d2 <runSpanKernels()+0x372>
    35e2:	3b01      	subs	r3, #1
    35e4:	ea84 0402 	eor.w	r4, r4, r2
    35e8:	d1d8      	bne.n	359c <runSpanKernels()+0x33c>
    35ea:	f8dd b030 	ldr.w	fp, [sp, #48]	; 0x30
    35ee:	f002 ff2b 	bl	6448 <micros>
    35f2:	9b0b      	ldr	r3, [sp, #44]	; 0x2c
    35f4:	2130      	movs	r1, #48	; 0x30
    35f6:	4aa5      	ldr	r2, [pc, #660]	; (388c <runSpanKernels()+0x62c>)
    35f8:	46b8      	mov	r8, r7
    35fa:	1ac6      	subs	r6, r0, r3
    35fc:	4ba4      	ldr	r3, [pc, #656]	; (3890 <runSpanKernels()+0x630>)
    35fe:	a83a      	add	r0, sp, #232	; 0xe8
    3600:	685d      	ldr	r5, [r3, #4]
    3602:	9b0a      	ldr	r3, [sp, #40]	; 0x28
    3604:	1aed      	subs	r5, r5, r3
    3606:	9b1a      	ldr	r3, [sp, #104]	; 0x68
    3608:	9300      	str	r3, [sp, #0]
    360a:	6813      	ldr	r3, [r2, #0]
    360c:	4063      	eors	r3, r4
    360e:	6013      	str	r3, [r2, #0]
    3610:	463b      	mov	r3, r7
    3612:	4aa0      	ldr	r2, [pc, #640]	; (3894 <runSpanKernels()+0x634>)
    3614:	f005 fe00 	bl	9218 <snprintf>
    3618:	2f00      	cmp	r7, #0
    361a:	f002 8153 	beq.w	58c4 <runSpanKernels()+0x2664>
    361e:	4652      	mov	r2, sl
    3620:	4b99      	ldr	r3, [pc, #612]	; (3888 <runSpanKernels()+0x628>)
    3622:	499d      	ldr	r1, [pc, #628]	; (3898 <runSpanKernels()+0x638>)
    3624:	f832 0b02 	ldrh.w	r0, [r2], #2
    3628:	4043      	eors	r3, r0
    362a:	9808      	ldr	r0, [sp, #32]
    362c:	4290      	cmp	r0, r2
    362e:	fb01 f303 	mul.w	r3, r1, r3
    3632:	d1f7      	bne.n	3624 <runSpanKernels()+0x3c4>
    3634:	9a09      	ldr	r2, [sp, #36]	; 0x24
    3636:	a83a      	add	r0, sp, #232	; 0xe8
    3638:	4998      	ldr	r1, [pc, #608]	; (389c <runSpanKernels()+0x63c>)
    363a:	f647 37ef 	movw	r7, #31727	; 0x7bef
    363e:	9303      	str	r3, [sp, #12]
    3640:	465b      	mov	r3, fp
    3642:	f8cd 8008 	str.w	r8, [sp, #8]
    3646:	e9cd 6500 	strd	r6, r5, [sp]
    364a:	f7fd fb1b 	bl	c84 <printResult(char const*, char const*, unsigned long, unsigned long, unsigned long, unsigned long, unsigned long, unsigned long, unsigned long, char const*) [clone .constprop.0]>
    364e:	4b94      	ldr	r3, [pc, #592]	; (38a0 <runSpanKernels()+0x640>)
    3650:	ee1a 2a10 	vmov	r2, s20
    3654:	4649      	mov	r1, r9
    3656:	189e      	adds	r6, r3, r2
    3658:	9b1c      	ldr	r3, [sp, #112]	; 0x70
    365a:	4a92      	ldr	r2, [pc, #584]	; (38a4 <runSpanKernels()+0x644>)
    365c:	441e      	add	r6, r3
    365e:	9b1d      	ldr	r3, [sp, #116]	; 0x74
    3660:	18d5      	adds	r5, r2, r3
    3662:	4a91      	ldr	r2, [pc, #580]	; (38a8 <runSpanKernels()+0x648>)
    3664:	18d4      	adds	r4, r2, r3
    3666:	f831 0b02 	ldrh.w	r0, [r1], #2
    366a:	f835 2f02 	ldrh.w	r2, [r5, #2]!
    366e:	428e      	cmp	r6, r1
    3670:	ea80 0302 	eor.w	r3, r0, r2
    3674:	ea02 0200 	and.w	r2, r2, r0
    3678:	ea07 0353 	and.w	r3, r7, r3, lsr #1
    367c:	4413      	add	r3, r2
    367e:	f824 3f02 	strh.w	r3, [r4, #2]!
    3682:	d1f0      	bne.n	3666 <runSpanKernels()+0x406>
    3684:	f1b8 0f01 	cmp.w	r8, #1
    3688:	f002 82b4 	beq.w	5bf4 <runSpanKernels()+0x2994>
    368c:	ee1a 3a90 	vmov	r3, s21
    3690:	9d0d      	ldr	r5, [sp, #52]	; 0x34
    3692:	4654      	mov	r4, sl
    3694:	4649      	mov	r1, r9
    3696:	eb09 0b03 	add.w	fp, r9, r3
    369a:	4e84      	ldr	r6, [pc, #528]	; (38ac <runSpanKernels()+0x64c>)
    369c:	f851 0b04 	ldr.w	r0, [r1], #4
    36a0:	f855 2b04 	ldr.w	r2, [r5], #4
    36a4:	458b      	cmp	fp, r1
    36a6:	ea80 0302 	eor.w	r3, r0, r2
    36aa:	ea02 0200 	and.w	r2, r2, r0
    36ae:	ea06 0353 	and.w	r3, r6, r3, lsr #1
    36b2:	4413      	add	r3, r2
    36b4:	f844 3b04 	str.w	r3, [r4], #4
    36b8:	d1f0      	bne.n	369c <runSpanKernels()+0x43c>
    36ba:	9b20      	ldr	r3, [sp, #128]	; 0x80
    36bc:	4598      	cmp	r8, r3
    36be:	d920      	bls.n	3702 <runSpanKernels()+0x4a2>
    36c0:	9e0d      	ldr	r6, [sp, #52]	; 0x34
    36c2:	f647 35ef 	movw	r5, #31727	; 0x7bef
    36c6:	f839 1013 	ldrh.w	r1, [r9, r3, lsl #1]
    36ca:	1c5c      	adds	r4, r3, #1
    36cc:	f836 0013 	ldrh.w	r0, [r6, r3, lsl #1]
    36d0:	45a0      	cmp	r8, r4
    36d2:	ea80 0201 	eor.w	r2, r0, r1
    36d6:	ea01 0100 	and.w	r1, r1, r0
    36da:	ea05 0252 	and.w	r2, r5, r2, lsr #1
    36de:	440a      	add	r2, r1
    36e0:	f82a 2013 	strh.w	r2, [sl, r3, lsl #1]
    36e4:	ea4f 0343 	mov.w	r3, r3, lsl #1
    36e8:	d90b      	bls.n	3702 <runSpanKernels()+0x4a2>
    36ea:	3302      	adds	r3, #2
    36ec:	f839 0003 	ldrh.w	r0, [r9, r3]
    36f0:	5af2      	ldrh	r2, [r6, r3]
    36f2:	ea80 0102 	eor.w	r1, r0, r2
    36f6:	4002      	ands	r2, r0
    36f8:	ea05 0551 	and.w	r5, r5, r1, lsr #1
    36fc:	442a      	add	r2, r5
    36fe:	f82a 2003 	strh.w	r2, [sl, r3]
    3702:	9a1d      	ldr	r2, [sp, #116]	; 0x74
    3704:	2300      	movs	r3, #0
    3706:	4968      	ldr	r1, [pc, #416]	; (38a8 <runSpanKernels()+0x648>)
    3708:	4869      	ldr	r0, [pc, #420]	; (38b0 <runSpanKernels()+0x650>)
    370a:	4411      	add	r1, r2
    370c:	930e      	str	r3, [sp, #56]	; 0x38
    370e:	1882      	adds	r2, r0, r2
    3710:	f832 4f02 	ldrh.w	r4, [r2, #2]!
    3714:	3301      	adds	r3, #1
    3716:	f831 0f02 	ldrh.w	r0, [r1, #2]!
    371a:	4284      	cmp	r4, r0
    371c:	d002      	beq.n	3724 <runSpanKernels()+0x4c4>
    371e:	980e      	ldr	r0, [sp, #56]	; 0x38
    3720:	3001      	adds	r0, #1
    3722:	900e      	str	r0, [sp, #56]	; 0x38
    3724:	4598      	cmp	r8, r3
    3726:	d8f3      	bhi.n	3710 <runSpanKernels()+0x4b0>
    3728:	9b0e      	ldr	r3, [sp, #56]	; 0x38
    372a:	fab3 f383 	clz	r3, r3
    372e:	095b      	lsrs	r3, r3, #5
    3730:	9310      	str	r3, [sp, #64]	; 0x40
    3732:	4b57      	ldr	r3, [pc, #348]	; (3890 <runSpanKernels()+0x630>)
    3734:	2500      	movs	r5, #0
    3736:	f44f 7400 	mov.w	r4, #512	; 0x200
    373a:	685b      	ldr	r3, [r3, #4]
    373c:	9311      	str	r3, [sp, #68]	; 0x44
    373e:	f002 fe83 	bl	6448 <micros>
    3742:	9b2e      	ldr	r3, [sp, #184]	; 0xb8
    3744:	f647 3cef 	movw	ip, #31727	; 0x7bef
    3748:	f8cd b028 	str.w	fp, [sp, #40]	; 0x28
    374c:	eb09 0203 	add.w	r2, r9, r3
    3750:	9012      	str	r0, [sp, #72]	; 0x48
    3752:	9214      	str	r2, [sp, #80]	; 0x50
    3754:	9a0d      	ldr	r2, [sp, #52]	; 0x34
    3756:	eb02 0e03 	add.w	lr, r2, r3
    375a:	4453      	add	r3, sl
    375c:	930f      	str	r3, [sp, #60]	; 0x3c
    375e:	9b2d      	ldr	r3, [sp, #180]	; 0xb4
    3760:	f8cd e024 	str.w	lr, [sp, #36]	; 0x24
    3764:	441a      	add	r2, r3
    3766:	eb09 0103 	add.w	r1, r9, r3
    376a:	4453      	add	r3, sl
    376c:	f8dd e090 	ldr.w	lr, [sp, #144]	; 0x90
    3770:	920c      	str	r2, [sp, #48]	; 0x30
    3772:	9319      	str	r3, [sp, #100]	; 0x64
    3774:	9a1d      	ldr	r2, [sp, #116]	; 0x74
    3776:	4b4e      	ldr	r3, [pc, #312]	; (38b0 <runSpanKernels()+0x650>)
    3778:	910b      	str	r1, [sp, #44]	; 0x2c
    377a:	189a      	adds	r2, r3, r2
    377c:	4643      	mov	r3, r8
    377e:	4693      	mov	fp, r2
    3780:	9213      	str	r2, [sp, #76]	; 0x4c
    3782:	2b01      	cmp	r3, #1
    3784:	f242 8010 	bls.w	57a8 <runSpanKernels()+0x2548>
    3788:	9f0d      	ldr	r7, [sp, #52]	; 0x34
    378a:	4656      	mov	r6, sl
    378c:	4649      	mov	r1, r9
    378e:	f851 0b04 	ldr.w	r0, [r1], #4
    3792:	f857 8b04 	ldr.w	r8, [r7], #4
    3796:	ea80 0208 	eor.w	r2, r0, r8
    379a:	ea00 0808 	and.w	r8, r0, r8
    379e:	4843      	ldr	r0, [pc, #268]	; (38ac <runSpanKernels()+0x64c>)
    37a0:	ea00 0252 	and.w	r2, r0, r2, lsr #1
    37a4:	4442      	add	r2, r8
    37a6:	f846 2b04 	str.w	r2, [r6], #4
    37aa:	9a0a      	ldr	r2, [sp, #40]	; 0x28
    37ac:	428a      	cmp	r2, r1
    37ae:	d1ee      	bne.n	378e <runSpanKernels()+0x52e>
    37b0:	4573      	cmp	r3, lr
    37b2:	d91a      	bls.n	37ea <runSpanKernels()+0x58a>
    37b4:	9a14      	ldr	r2, [sp, #80]	; 0x50
    37b6:	8811      	ldrh	r1, [r2, #0]
    37b8:	9a09      	ldr	r2, [sp, #36]	; 0x24
    37ba:	8810      	ldrh	r0, [r2, #0]
    37bc:	ea80 0201 	eor.w	r2, r0, r1
    37c0:	4001      	ands	r1, r0
    37c2:	ea0c 0252 	and.w	r2, ip, r2, lsr #1
    37c6:	440a      	add	r2, r1
    37c8:	990f      	ldr	r1, [sp, #60]	; 0x3c
    37ca:	800a      	strh	r2, [r1, #0]
    37cc:	9a15      	ldr	r2, [sp, #84]	; 0x54
    37ce:	4293      	cmp	r3, r2
    37d0:	d90b      	bls.n	37ea <runSpanKernels()+0x58a>
    37d2:	9a0b      	ldr	r2, [sp, #44]	; 0x2c
    37d4:	8810      	ldrh	r0, [r2, #0]
    37d6:	9a0c      	ldr	r2, [sp, #48]	; 0x30
    37d8:	8811      	ldrh	r1, [r2, #0]
    37da:	ea80 0201 	eor.w	r2, r0, r1
    37de:	4001      	ands	r1, r0
    37e0:	ea0c 0252 	and.w	r2, ip, r2, lsr #1
    37e4:	440a      	add	r2, r1
    37e6:	9919      	ldr	r1, [sp, #100]	; 0x64
    37e8:	800a      	strh	r2, [r1, #0]
    37ea:	465e      	mov	r6, fp
    37ec:	2000      	movs	r0, #0
    37ee:	4a26      	ldr	r2, [pc, #152]	; (3888 <runSpanKernels()+0x628>)
    37f0:	f836 1f02 	ldrh.w	r1, [r6, #2]!
    37f4:	3001      	adds	r0, #1
    37f6:	404a      	eors	r2, r1
    37f8:	4283      	cmp	r3, r0
    37fa:	4927      	ldr	r1, [pc, #156]	; (3898 <runSpanKernels()+0x638>)
    37fc:	fb01 f202 	mul.w	r2, r1, r2
    3800:	d8f6      	bhi.n	37f0 <runSpanKernels()+0x590>
    3802:	3c01      	subs	r4, #1
    3804:	ea85 0502 	eor.w	r5, r5, r2
    3808:	d1bb      	bne.n	3782 <runSpanKernels()+0x522>
    380a:	4698      	mov	r8, r3
    380c:	f002 fe1c 	bl	6448 <micros>
    3810:	9b12      	ldr	r3, [sp, #72]	; 0x48
    3812:	2130      	movs	r1, #48	; 0x30
    3814:	4a1d      	ldr	r2, [pc, #116]	; (388c <runSpanKernels()+0x62c>)
    3816:	1ac7      	subs	r7, r0, r3
    3818:	4b1d      	ldr	r3, [pc, #116]	; (3890 <runSpanKernels()+0x630>)
    381a:	a83a      	add	r0, sp, #232	; 0xe8
    381c:	685e      	ldr	r6, [r3, #4]
    381e:	9b11      	ldr	r3, [sp, #68]	; 0x44
    3820:	1af6      	subs	r6, r6, r3
    3822:	9b1a      	ldr	r3, [sp, #104]	; 0x68
    3824:	9300      	str	r3, [sp, #0]
    3826:	6813      	ldr	r3, [r2, #0]
    3828:	405d      	eors	r5, r3
    382a:	4643      	mov	r3, r8
    382c:	6015      	str	r5, [r2, #0]
    382e:	4a19      	ldr	r2, [pc, #100]	; (3894 <runSpanKernels()+0x634>)
    3830:	f005 fcf2 	bl	9218 <snprintf>
    3834:	f1b8 0f00 	cmp.w	r8, #0
    3838:	f002 8030 	beq.w	589c <runSpanKernels()+0x263c>
    383c:	4652      	mov	r2, sl
    383e:	4b12      	ldr	r3, [pc, #72]	; (3888 <runSpanKernels()+0x628>)
    3840:	4915      	ldr	r1, [pc, #84]	; (3898 <runSpanKernels()+0x638>)
    3842:	f832 0b02 	ldrh.w	r0, [r2], #2
    3846:	4043      	eors	r3, r0
    3848:	9808      	ldr	r0, [sp, #32]
    384a:	4290      	cmp	r0, r2
    384c:	fb01 f303 	mul.w	r3, r1, r3
    3850:	d1f7      	bne.n	3842 <runSpanKernels()+0x5e2>
    3852:	9a10      	ldr	r2, [sp, #64]	; 0x40
    3854:	a83a      	add	r0, sp, #232	; 0xe8
    3856:	4917      	ldr	r1, [pc, #92]	; (38b4 <runSpanKernels()+0x654>)
    3858:	9303      	str	r3, [sp, #12]
    385a:	f8cd 8008 	str.w	r8, [sp, #8]
    385e:	9b0e      	ldr	r3, [sp, #56]	; 0x38
    3860:	e9cd 7600 	strd	r7, r6, [sp]
    3864:	f7fd fa0e 	bl	c84 <printResult(char const*, char const*, unsigned long, unsigned long, unsigned long, unsigned long, unsigned long, unsigned long, unsigned long, char const*) [clone .constprop.0]>
    3868:	9b0d      	ldr	r3, [sp, #52]	; 0x34
    386a:	9a1c      	ldr	r2, [sp, #112]	; 0x70
    386c:	f1a9 0102 	sub.w	r1, r9, #2
    3870:	1e9e      	subs	r6, r3, #2
    3872:	4b0d      	ldr	r3, [pc, #52]	; (38a8 <runSpanKernels()+0x648>)
    3874:	460d      	mov	r5, r1
    3876:	4810      	ldr	r0, [pc, #64]	; (38b8 <runSpanKernels()+0x658>)
    3878:	189a      	adds	r2, r3, r2
    387a:	4637      	mov	r7, r6
    387c:	921b      	str	r2, [sp, #108]	; 0x6c
    387e:	9a1d      	ldr	r2, [sp, #116]	; 0x74
    3880:	eb03 0c02 	add.w	ip, r3, r2
    3884:	e01a      	b.n	38bc <runSpanKernels()+0x65c>
    3886:	bf00      	nop
    3888:	811c9dc5 	.word	0x811c9dc5
    388c:	20007138 	.word	0x20007138
    3890:	e0001000 	.word	0xe0001000
    3894:	2000058c 	.word	0x2000058c
    3898:	01000193 	.word	0x01000193
    389c:	20000710 	.word	0x20000710
    38a0:	20001888 	.word	0x20001888
    38a4:	20001c90 	.word	0x20001c90
    38a8:	2000958c 	.word	0x2000958c
    38ac:	7bef7bef 	.word	0x7bef7bef
    38b0:	2000917c 	.word	0x2000917c
    38b4:	200006fc 	.word	0x200006fc
    38b8:	07e0f81f 	.word	0x07e0f81f
    38bc:	f835 2f02 	ldrh.w	r2, [r5, #2]!
    38c0:	f837 3f02 	ldrh.w	r3, [r7, #2]!
    38c4:	ea42 4202 	orr.w	r2, r2, r2, lsl #16
    38c8:	ea43 4303 	orr.w	r3, r3, r3, lsl #16
    38cc:	4002      	ands	r2, r0
    38ce:	4003      	ands	r3, r0
    38d0:	1a9b      	subs	r3, r3, r2
    38d2:	f3c3 035a 	ubfx	r3, r3, #1, #27
    38d6:	4413      	add	r3, r2
    38d8:	4003      	ands	r3, r0
    38da:	ea43 4313 	orr.w	r3, r3, r3, lsr #16
    38de:	f82c 3f02 	strh.w	r3, [ip, #2]!
    38e2:	9b07      	ldr	r3, [sp, #28]
    38e4:	42ab      	cmp	r3, r5
    38e6:	d1e9      	bne.n	38bc <runSpanKernels()+0x65c>
    38e8:	f1aa 0002 	sub.w	r0, sl, #2
    38ec:	4ac8      	ldr	r2, [pc, #800]	; (3c10 <runSpanKernels()+0x9b0>)
    38ee:	f831 5f02 	ldrh.w	r5, [r1, #2]!
    38f2:	f836 3f02 	ldrh.w	r3, [r6, #2]!
    38f6:	ea45 4505 	orr.w	r5, r5, r5, lsl #16
    38fa:	ea43 4303 	orr.w	r3, r3, r3, lsl #16
    38fe:	4015      	ands	r5, r2
    3900:	4013      	ands	r3, r2
    3902:	1b5b      	subs	r3, r3, r5
    3904:	f3c3 035a 	ubfx	r3, r3, #1, #27
    3908:	442b      	add	r3, r5
    390a:	4013      	ands	r3, r2
    390c:	ea43 4313 	orr.w	r3, r3, r3, lsr #16
    3910:	f820 3f02 	strh.w	r3, [r0, #2]!
    3914:	9b07      	ldr	r3, [sp, #28]
    3916:	428b      	cmp	r3, r1
    3918:	d1e9      	bne.n	38ee <runSpanKernels()+0x68e>
    391a:	4bbe      	ldr	r3, [pc, #760]	; (3c14 <runSpanKernels()+0x9b4>)
    391c:	ee1a 2a10 	vmov	r2, s20
    3920:	f04f 0b00 	mov.w	fp, #0
    3924:	189d      	adds	r5, r3, r2
    3926:	9b1c      	ldr	r3, [sp, #112]	; 0x70
    3928:	9a13      	ldr	r2, [sp, #76]	; 0x4c
    392a:	441d      	add	r5, r3
    392c:	9b1b      	ldr	r3, [sp, #108]	; 0x6c
    392e:	f833 1b02 	ldrh.w	r1, [r3], #2
    3932:	f832 0f02 	ldrh.w	r0, [r2, #2]!
    3936:	4288      	cmp	r0, r1
    3938:	bf18      	it	ne
    393a:	f10b 0b01 	addne.w	fp, fp, #1
    393e:	429d      	cmp	r5, r3
    3940:	d1f5      	bne.n	392e <runSpanKernels()+0x6ce>
    3942:	fabb f38b 	clz	r3, fp
    3946:	095b      	lsrs	r3, r3, #5
    3948:	9309      	str	r3, [sp, #36]	; 0x24
    394a:	4bb3      	ldr	r3, [pc, #716]	; (3c18 <runSpanKernels()+0x9b8>)
    394c:	f44f 7500 	mov.w	r5, #512	; 0x200
    3950:	4faf      	ldr	r7, [pc, #700]	; (3c10 <runSpanKernels()+0x9b0>)
    3952:	685b      	ldr	r3, [r3, #4]
    3954:	930a      	str	r3, [sp, #40]	; 0x28
    3956:	f002 fd77 	bl	6448 <micros>
    395a:	f8cd b030 	str.w	fp, [sp, #48]	; 0x30
    395e:	f8df c2c8 	ldr.w	ip, [pc, #712]	; 3c28 <runSpanKernels()+0x9c8>
    3962:	f8dd e034 	ldr.w	lr, [sp, #52]	; 0x34
    3966:	f8dd b020 	ldr.w	fp, [sp, #32]
    396a:	900b      	str	r0, [sp, #44]	; 0x2c
    396c:	f1b8 0f00 	cmp.w	r8, #0
    3970:	f001 8712 	beq.w	5798 <runSpanKernels()+0x2538>
    3974:	f1a9 0102 	sub.w	r1, r9, #2
    3978:	f1ae 0602 	sub.w	r6, lr, #2
    397c:	f1aa 0002 	sub.w	r0, sl, #2
    3980:	f831 2f02 	ldrh.w	r2, [r1, #2]!
    3984:	f836 3f02 	ldrh.w	r3, [r6, #2]!
    3988:	ea42 4202 	orr.w	r2, r2, r2, lsl #16
    398c:	ea43 4303 	orr.w	r3, r3, r3, lsl #16
    3990:	403a      	ands	r2, r7
    3992:	403b      	ands	r3, r7
    3994:	1a9b      	subs	r3, r3, r2
    3996:	f3c3 035a 	ubfx	r3, r3, #1, #27
    399a:	4413      	add	r3, r2
    399c:	403b      	ands	r3, r7
    399e:	ea43 4313 	orr.w	r3, r3, r3, lsr #16
    39a2:	f820 3f02 	strh.w	r3, [r0, #2]!
    39a6:	9b07      	ldr	r3, [sp, #28]
    39a8:	428b      	cmp	r3, r1
    39aa:	d1e9      	bne.n	3980 <runSpanKernels()+0x720>
    39ac:	4652      	mov	r2, sl
    39ae:	4b9b      	ldr	r3, [pc, #620]	; (3c1c <runSpanKernels()+0x9bc>)
    39b0:	f832 1b02 	ldrh.w	r1, [r2], #2
    39b4:	404b      	eors	r3, r1
    39b6:	4593      	cmp	fp, r2
    39b8:	fb0c f303 	mul.w	r3, ip, r3
    39bc:	d1f8      	bne.n	39b0 <runSpanKernels()+0x750>
    39be:	3d01      	subs	r5, #1
    39c0:	ea84 0403 	eor.w	r4, r4, r3
    39c4:	d1d2      	bne.n	396c <runSpanKernels()+0x70c>
    39c6:	f8dd b030 	ldr.w	fp, [sp, #48]	; 0x30
    39ca:	f002 fd3d 	bl	6448 <micros>
    39ce:	9b0b      	ldr	r3, [sp, #44]	; 0x2c
    39d0:	2130      	movs	r1, #48	; 0x30
    39d2:	4a93      	ldr	r2, [pc, #588]	; (3c20 <runSpanKernels()+0x9c0>)
    39d4:	1ac7      	subs	r7, r0, r3
    39d6:	4b90      	ldr	r3, [pc, #576]	; (3c18 <runSpanKernels()+0x9b8>)
    39d8:	a83a      	add	r0, sp, #232	; 0xe8
    39da:	685e      	ldr	r6, [r3, #4]
    39dc:	9b0a      	ldr	r3, [sp, #40]	; 0x28
    39de:	1af6      	subs	r6, r6, r3
    39e0:	9b1a      	ldr	r3, [sp, #104]	; 0x68
    39e2:	9300      	str	r3, [sp, #0]
    39e4:	6813      	ldr	r3, [r2, #0]
    39e6:	4063      	eors	r3, r4
    39e8:	6013      	str	r3, [r2, #0]
    39ea:	4643      	mov	r3, r8
    39ec:	4a8d      	ldr	r2, [pc, #564]	; (3c24 <runSpanKernels()+0x9c4>)
    39ee:	f005 fc13 	bl	9218 <snprintf>
    39f2:	f1b8 0f00 	cmp.w	r8, #0
    39f6:	f002 8059 	beq.w	5aac <runSpanKernels()+0x284c>
    39fa:	4652      	mov	r2, sl
    39fc:	4b87      	ldr	r3, [pc, #540]	; (3c1c <runSpanKernels()+0x9bc>)
    39fe:	498a      	ldr	r1, [pc, #552]	; (3c28 <runSpanKernels()+0x9c8>)
    3a00:	f832 0b02 	ldrh.w	r0, [r2], #2
    3a04:	4043      	eors	r3, r0
    3a06:	9808      	ldr	r0, [sp, #32]
    3a08:	4290      	cmp	r0, r2
    3a0a:	fb01 f303 	mul.w	r3, r1, r3
    3a0e:	d1f7      	bne.n	3a00 <runSpanKernels()+0x7a0>
    3a10:	9a09      	ldr	r2, [sp, #36]	; 0x24
    3a12:	a83a      	add	r0, sp, #232	; 0xe8
    3a14:	4985      	ldr	r1, [pc, #532]	; (3c2c <runSpanKernels()+0x9cc>)
    3a16:	9303      	str	r3, [sp, #12]
    3a18:	465b      	mov	r3, fp
    3a1a:	f8cd 8008 	str.w	r8, [sp, #8]
    3a1e:	e9cd 7600 	strd	r7, r6, [sp]
    3a22:	f7fd f92f 	bl	c84 <printResult(char const*, char const*, unsigned long, unsigned long, unsigned long, unsigned long, unsigned long, unsigned long, unsigned long, char const*) [clone .constprop.0]>
    3a26:	9b0d      	ldr	r3, [sp, #52]	; 0x34
    3a28:	f1a9 0102 	sub.w	r1, r9, #2
    3a2c:	9a1d      	ldr	r2, [sp, #116]	; 0x74
    3a2e:	1e9e      	subs	r6, r3, #2
    3a30:	4b78      	ldr	r3, [pc, #480]	; (3c14 <runSpanKernels()+0x9b4>)
    3a32:	460c      	mov	r4, r1
    3a34:	4876      	ldr	r0, [pc, #472]	; (3c10 <runSpanKernels()+0x9b0>)
    3a36:	eb03 0c02 	add.w	ip, r3, r2
    3a3a:	4637      	mov	r7, r6
    3a3c:	f834 2f02 	ldrh.w	r2, [r4, #2]!
    3a40:	f837 3f02 	ldrh.w	r3, [r7, #2]!
    3a44:	ea42 4202 	orr.w	r2, r2, r2, lsl #16
    3a48:	ea43 4303 	orr.w	r3, r3, r3, lsl #16
    3a4c:	4002      	ands	r2, r0
    3a4e:	4003      	ands	r3, r0
    3a50:	1a9b      	subs	r3, r3, r2
    3a52:	f3c3 035a 	ubfx	r3, r3, #1, #27
    3a56:	4413      	add	r3, r2
    3a58:	4003      	ands	r3, r0
    3a5a:	ea43 4313 	orr.w	r3, r3, r3, lsr #16
    3a5e:	f82c 3f02 	strh.w	r3, [ip, #2]!
    3a62:	9b07      	ldr	r3, [sp, #28]
    3a64:	42a3      	cmp	r3, r4
    3a66:	d1e9      	bne.n	3a3c <runSpanKernels()+0x7dc>
    3a68:	f1aa 0002 	sub.w	r0, sl, #2
    3a6c:	4a68      	ldr	r2, [pc, #416]	; (3c10 <runSpanKernels()+0x9b0>)
    3a6e:	f831 4f02 	ldrh.w	r4, [r1, #2]!
    3a72:	f836 3f02 	ldrh.w	r3, [r6, #2]!
    3a76:	ea44 4404 	orr.w	r4, r4, r4, lsl #16
    3a7a:	ea43 4303 	orr.w	r3, r3, r3, lsl #16
    3a7e:	4014      	ands	r4, r2
    3a80:	4013      	ands	r3, r2
    3a82:	1b1b      	subs	r3, r3, r4
    3a84:	f3c3 035a 	ubfx	r3, r3, #1, #27
    3a88:	4423      	add	r3, r4
    3a8a:	4013      	ands	r3, r2
    3a8c:	ea43 4313 	orr.w	r3, r3, r3, lsr #16
    3a90:	f820 3f02 	strh.w	r3, [r0, #2]!
    3a94:	9b07      	ldr	r3, [sp, #28]
    3a96:	428b      	cmp	r3, r1
    3a98:	d1e9      	bne.n	3a6e <runSpanKernels()+0x80e>
    3a9a:	4b5e      	ldr	r3, [pc, #376]	; (3c14 <runSpanKernels()+0x9b4>)
    3a9c:	ee1a 2a10 	vmov	r2, s20
    3aa0:	f04f 0b00 	mov.w	fp, #0
    3aa4:	189c      	adds	r4, r3, r2
    3aa6:	9b1c      	ldr	r3, [sp, #112]	; 0x70
    3aa8:	9a13      	ldr	r2, [sp, #76]	; 0x4c
    3aaa:	441c      	add	r4, r3
    3aac:	9b1b      	ldr	r3, [sp, #108]	; 0x6c
    3aae:	f833 1b02 	ldrh.w	r1, [r3], #2
    3ab2:	f832 0f02 	ldrh.w	r0, [r2, #2]!
    3ab6:	4288      	cmp	r0, r1
    3ab8:	bf18      	it	ne
    3aba:	f10b 0b01 	addne.w	fp, fp, #1
    3abe:	429c      	cmp	r4, r3
    3ac0:	d1f5      	bne.n	3aae <runSpanKernels()+0x84e>
    3ac2:	fabb f38b 	clz	r3, fp
    3ac6:	095b      	lsrs	r3, r3, #5
    3ac8:	9309      	str	r3, [sp, #36]	; 0x24
    3aca:	4b53      	ldr	r3, [pc, #332]	; (3c18 <runSpanKernels()+0x9b8>)
    3acc:	f44f 7400 	mov.w	r4, #512	; 0x200
    3ad0:	4f4f      	ldr	r7, [pc, #316]	; (3c10 <runSpanKernels()+0x9b0>)
    3ad2:	685b      	ldr	r3, [r3, #4]
    3ad4:	930a      	str	r3, [sp, #40]	; 0x28
    3ad6:	f002 fcb7 	bl	6448 <micros>
    3ada:	f8cd b030 	str.w	fp, [sp, #48]	; 0x30
    3ade:	f8df c148 	ldr.w	ip, [pc, #328]	; 3c28 <runSpanKernels()+0x9c8>
    3ae2:	f8dd e034 	ldr.w	lr, [sp, #52]	; 0x34
    3ae6:	f8dd b020 	ldr.w	fp, [sp, #32]
    3aea:	900b      	str	r0, [sp, #44]	; 0x2c
    3aec:	f1b8 0f00 	cmp.w	r8, #0
    3af0:	f001 864a 	beq.w	5788 <runSpanKernels()+0x2528>
    3af4:	f1a9 0102 	sub.w	r1, r9, #2
    3af8:	f1ae 0602 	sub.w	r6, lr, #2
    3afc:	f1aa 0002 	sub.w	r0, sl, #2
    3b00:	f831 2f02 	ldrh.w	r2, [r1, #2]!
    3b04:	f836 3f02 	ldrh.w	r3, [r6, #2]!
    3b08:	ea42 4202 	orr.w	r2, r2, r2, lsl #16
    3b0c:	ea43 4303 	orr.w	r3, r3, r3, lsl #16
    3b10:	403a      	ands	r2, r7
    3b12:	403b      	ands	r3, r7
    3b14:	1a9b      	subs	r3, r3, r2
    3b16:	f3c3 035a 	ubfx	r3, r3, #1, #27
    3b1a:	4413      	add	r3, r2
    3b1c:	403b      	ands	r3, r7
    3b1e:	ea43 4313 	orr.w	r3, r3, r3, lsr #16
    3b22:	f820 3f02 	strh.w	r3, [r0, #2]!
    3b26:	9b07      	ldr	r3, [sp, #28]
    3b28:	428b      	cmp	r3, r1
    3b2a:	d1e9      	bne.n	3b00 <runSpanKernels()+0x8a0>
    3b2c:	4652      	mov	r2, sl
    3b2e:	4b3b      	ldr	r3, [pc, #236]	; (3c1c <runSpanKernels()+0x9bc>)
    3b30:	f832 1b02 	ldrh.w	r1, [r2], #2
    3b34:	404b      	eors	r3, r1
    3b36:	4593      	cmp	fp, r2
    3b38:	fb0c f303 	mul.w	r3, ip, r3
    3b3c:	d1f8      	bne.n	3b30 <runSpanKernels()+0x8d0>
    3b3e:	3c01      	subs	r4, #1
    3b40:	ea85 0503 	eor.w	r5, r5, r3
    3b44:	d1d2      	bne.n	3aec <runSpanKernels()+0x88c>
    3b46:	f8dd b030 	ldr.w	fp, [sp, #48]	; 0x30
    3b4a:	f002 fc7d 	bl	6448 <micros>
    3b4e:	9b0b      	ldr	r3, [sp, #44]	; 0x2c
    3b50:	2130      	movs	r1, #48	; 0x30
    3b52:	4a33      	ldr	r2, [pc, #204]	; (3c20 <runSpanKernels()+0x9c0>)
    3b54:	1ac7      	subs	r7, r0, r3
    3b56:	4b30      	ldr	r3, [pc, #192]	; (3c18 <runSpanKernels()+0x9b8>)
    3b58:	a83a      	add	r0, sp, #232	; 0xe8
    3b5a:	685e      	ldr	r6, [r3, #4]
    3b5c:	9b0a      	ldr	r3, [sp, #40]	; 0x28
    3b5e:	1af6      	subs	r6, r6, r3
    3b60:	9b1a      	ldr	r3, [sp, #104]	; 0x68
    3b62:	9300      	str	r3, [sp, #0]
    3b64:	6813      	ldr	r3, [r2, #0]
    3b66:	406b      	eors	r3, r5
    3b68:	6013      	str	r3, [r2, #0]
    3b6a:	4643      	mov	r3, r8
    3b6c:	4a2d      	ldr	r2, [pc, #180]	; (3c24 <runSpanKernels()+0x9c4>)
    3b6e:	f005 fb53 	bl	9218 <snprintf>
    3b72:	f1b8 0f00 	cmp.w	r8, #0
    3b76:	f001 8788 	beq.w	5a8a <runSpanKernels()+0x282a>
    3b7a:	4652      	mov	r2, sl
    3b7c:	4b27      	ldr	r3, [pc, #156]	; (3c1c <runSpanKernels()+0x9bc>)
    3b7e:	492a      	ldr	r1, [pc, #168]	; (3c28 <runSpanKernels()+0x9c8>)
    3b80:	f832 0b02 	ldrh.w	r0, [r2], #2
    3b84:	4043      	eors	r3, r0
    3b86:	9808      	ldr	r0, [sp, #32]
    3b88:	4290      	cmp	r0, r2
    3b8a:	fb01 f303 	mul.w	r3, r1, r3
    3b8e:	d1f7      	bne.n	3b80 <runSpanKernels()+0x920>
    3b90:	9a09      	ldr	r2, [sp, #36]	; 0x24
    3b92:	a83a      	add	r0, sp, #232	; 0xe8
    3b94:	9303      	str	r3, [sp, #12]
    3b96:	465b      	mov	r3, fp
    3b98:	f8cd 8008 	str.w	r8, [sp, #8]
    3b9c:	4924      	ldr	r1, [pc, #144]	; (3c30 <runSpanKernels()+0x9d0>)
    3b9e:	4d1c      	ldr	r5, [pc, #112]	; (3c10 <runSpanKernels()+0x9b0>)
    3ba0:	e9cd 7600 	strd	r7, r6, [sp]
    3ba4:	f7fd f86e 	bl	c84 <printResult(char const*, char const*, unsigned long, unsigned long, unsigned long, unsigned long, unsigned long, unsigned long, unsigned long, char const*) [clone .constprop.0]>
    3ba8:	9b0d      	ldr	r3, [sp, #52]	; 0x34
    3baa:	f1a9 0002 	sub.w	r0, r9, #2
    3bae:	4f21      	ldr	r7, [pc, #132]	; (3c34 <runSpanKernels()+0x9d4>)
    3bb0:	f1a3 0b02 	sub.w	fp, r3, #2
    3bb4:	9a1d      	ldr	r2, [sp, #116]	; 0x74
    3bb6:	4b17      	ldr	r3, [pc, #92]	; (3c14 <runSpanKernels()+0x9b4>)
    3bb8:	4606      	mov	r6, r0
    3bba:	46de      	mov	lr, fp
    3bbc:	eb03 0c02 	add.w	ip, r3, r2
    3bc0:	e9cd 8409 	strd	r8, r4, [sp, #36]	; 0x24
    3bc4:	f8dd 801c 	ldr.w	r8, [sp, #28]
    3bc8:	463c      	mov	r4, r7
    3bca:	f836 3f02 	ldrh.w	r3, [r6, #2]!
    3bce:	f83e 2f02 	ldrh.w	r2, [lr, #2]!
    3bd2:	ea43 4303 	orr.w	r3, r3, r3, lsl #16
    3bd6:	f854 1b04 	ldr.w	r1, [r4], #4
    3bda:	ea42 4202 	orr.w	r2, r2, r2, lsl #16
    3bde:	45b0      	cmp	r8, r6
    3be0:	ea03 0305 	and.w	r3, r3, r5
    3be4:	ea4f 01d1 	mov.w	r1, r1, lsr #3
    3be8:	ea02 0205 	and.w	r2, r2, r5
    3bec:	eba2 0203 	sub.w	r2, r2, r3
    3bf0:	fb01 f202 	mul.w	r2, r1, r2
    3bf4:	eb03 1352 	add.w	r3, r3, r2, lsr #5
    3bf8:	ea03 0305 	and.w	r3, r3, r5
    3bfc:	ea43 4313 	orr.w	r3, r3, r3, lsr #16
    3c00:	f82c 3f02 	strh.w	r3, [ip, #2]!
    3c04:	d1e1      	bne.n	3bca <runSpanKernels()+0x96a>
    3c06:	f1aa 0602 	sub.w	r6, sl, #2
    3c0a:	4d01      	ldr	r5, [pc, #4]	; (3c10 <runSpanKernels()+0x9b0>)
    3c0c:	9907      	ldr	r1, [sp, #28]
    3c0e:	e013      	b.n	3c38 <runSpanKernels()+0x9d8>
    3c10:	07e0f81f 	.word	0x07e0f81f
    3c14:	2000958c 	.word	0x2000958c
    3c18:	e0001000 	.word	0xe0001000
    3c1c:	811c9dc5 	.word	0x811c9dc5
    3c20:	20007138 	.word	0x20007138
    3c24:	200005a4 	.word	0x200005a4
    3c28:	01000193 	.word	0x01000193
    3c2c:	200006c4 	.word	0x200006c4
    3c30:	200006d8 	.word	0x200006d8
    3c34:	2000713c 	.word	0x2000713c
    3c38:	e9dd 8409 	ldrd	r8, r4, [sp, #36]	; 0x24
    3c3c:	f830 3f02 	ldrh.w	r3, [r0, #2]!
    3c40:	f83b 2f02 	ldrh.w	r2, [fp, #2]!
    3c44:	ea43 4303 	orr.w	r3, r3, r3, lsl #16
    3c48:	f857 cb04 	ldr.w	ip, [r7], #4
    3c4c:	ea42 4202 	orr.w	r2, r2, r2, lsl #16
    3c50:	4281      	cmp	r1, r0
    3c52:	ea03 0305 	and.w	r3, r3, r5
    3c56:	ea4f 0cdc 	mov.w	ip, ip, lsr #3
    3c5a:	ea02 0205 	and.w	r2, r2, r5
    3c5e:	eba2 0203 	sub.w	r2, r2, r3
    3c62:	fb0c f202 	mul.w	r2, ip, r2
    3c66:	eb03 1352 	add.w	r3, r3, r2, lsr #5
    3c6a:	ea03 0305 	and.w	r3, r3, r5
    3c6e:	ea43 4313 	orr.w	r3, r3, r3, lsr #16
    3c72:	f826 3f02 	strh.w	r3, [r6, #2]!
    3c76:	d1e1      	bne.n	3c3c <runSpanKernels()+0x9dc>
    3c78:	4bc4      	ldr	r3, [pc, #784]	; (3f8c <runSpanKernels()+0xd2c>)
    3c7a:	ee1a 2a10 	vmov	r2, s20
    3c7e:	2600      	movs	r6, #0
    3c80:	189d      	adds	r5, r3, r2
    3c82:	9b1c      	ldr	r3, [sp, #112]	; 0x70
    3c84:	9a13      	ldr	r2, [sp, #76]	; 0x4c
    3c86:	441d      	add	r5, r3
    3c88:	9b1b      	ldr	r3, [sp, #108]	; 0x6c
    3c8a:	f833 1b02 	ldrh.w	r1, [r3], #2
    3c8e:	f832 0f02 	ldrh.w	r0, [r2, #2]!
    3c92:	4288      	cmp	r0, r1
    3c94:	bf18      	it	ne
    3c96:	3601      	addne	r6, #1
    3c98:	429d      	cmp	r5, r3
    3c9a:	d1f6      	bne.n	3c8a <runSpanKernels()+0xa2a>
    3c9c:	fab6 f386 	clz	r3, r6
    3ca0:	960b      	str	r6, [sp, #44]	; 0x2c
    3ca2:	095b      	lsrs	r3, r3, #5
    3ca4:	930a      	str	r3, [sp, #40]	; 0x28
    3ca6:	4bba      	ldr	r3, [pc, #744]	; (3f90 <runSpanKernels()+0xd30>)
    3ca8:	f44f 7500 	mov.w	r5, #512	; 0x200
    3cac:	f8df b2f4 	ldr.w	fp, [pc, #756]	; 3fa4 <runSpanKernels()+0xd44>
    3cb0:	685b      	ldr	r3, [r3, #4]
    3cb2:	930c      	str	r3, [sp, #48]	; 0x30
    3cb4:	f002 fbc8 	bl	6448 <micros>
    3cb8:	f8cd 8024 	str.w	r8, [sp, #36]	; 0x24
    3cbc:	f8df e2ec 	ldr.w	lr, [pc, #748]	; 3fac <runSpanKernels()+0xd4c>
    3cc0:	f8dd 8034 	ldr.w	r8, [sp, #52]	; 0x34
    3cc4:	900e      	str	r0, [sp, #56]	; 0x38
    3cc6:	9b09      	ldr	r3, [sp, #36]	; 0x24
    3cc8:	2b00      	cmp	r3, #0
    3cca:	f001 8555 	beq.w	5778 <runSpanKernels()+0x2518>
    3cce:	f1a9 0102 	sub.w	r1, r9, #2
    3cd2:	f1a8 0702 	sub.w	r7, r8, #2
    3cd6:	4eaf      	ldr	r6, [pc, #700]	; (3f94 <runSpanKernels()+0xd34>)
    3cd8:	f1aa 0002 	sub.w	r0, sl, #2
    3cdc:	f831 3f02 	ldrh.w	r3, [r1, #2]!
    3ce0:	f837 2f02 	ldrh.w	r2, [r7, #2]!
    3ce4:	ea43 4303 	orr.w	r3, r3, r3, lsl #16
    3ce8:	f856 cb04 	ldr.w	ip, [r6], #4
    3cec:	ea42 4202 	orr.w	r2, r2, r2, lsl #16
    3cf0:	ea03 030e 	and.w	r3, r3, lr
    3cf4:	ea4f 0cdc 	mov.w	ip, ip, lsr #3
    3cf8:	ea02 020e 	and.w	r2, r2, lr
    3cfc:	1ad2      	subs	r2, r2, r3
    3cfe:	fb0c f202 	mul.w	r2, ip, r2
    3d02:	eb03 1352 	add.w	r3, r3, r2, lsr #5
    3d06:	ea03 030e 	and.w	r3, r3, lr
    3d0a:	ea43 4313 	orr.w	r3, r3, r3, lsr #16
    3d0e:	f820 3f02 	strh.w	r3, [r0, #2]!
    3d12:	9b07      	ldr	r3, [sp, #28]
    3d14:	428b      	cmp	r3, r1
    3d16:	d1e1      	bne.n	3cdc <runSpanKernels()+0xa7c>
    3d18:	4651      	mov	r1, sl
    3d1a:	4b9f      	ldr	r3, [pc, #636]	; (3f98 <runSpanKernels()+0xd38>)
    3d1c:	f831 2b02 	ldrh.w	r2, [r1], #2
    3d20:	4053      	eors	r3, r2
    3d22:	9a08      	ldr	r2, [sp, #32]
    3d24:	428a      	cmp	r2, r1
    3d26:	fb0b f303 	mul.w	r3, fp, r3
    3d2a:	d1f7      	bne.n	3d1c <runSpanKernels()+0xabc>
    3d2c:	3d01      	subs	r5, #1
    3d2e:	ea84 0403 	eor.w	r4, r4, r3
    3d32:	d1c8      	bne.n	3cc6 <runSpanKernels()+0xa66>
    3d34:	f8dd 8024 	ldr.w	r8, [sp, #36]	; 0x24
    3d38:	f002 fb86 	bl	6448 <micros>
    3d3c:	9b0e      	ldr	r3, [sp, #56]	; 0x38
    3d3e:	2130      	movs	r1, #48	; 0x30
    3d40:	4a96      	ldr	r2, [pc, #600]	; (3f9c <runSpanKernels()+0xd3c>)
    3d42:	1ac7      	subs	r7, r0, r3
    3d44:	4b92      	ldr	r3, [pc, #584]	; (3f90 <runSpanKernels()+0xd30>)
    3d46:	a83a      	add	r0, sp, #232	; 0xe8
    3d48:	685e      	ldr	r6, [r3, #4]
    3d4a:	9b0c      	ldr	r3, [sp, #48]	; 0x30
    3d4c:	1af6      	subs	r6, r6, r3
    3d4e:	9b1a      	ldr	r3, [sp, #104]	; 0x68
    3d50:	9300      	str	r3, [sp, #0]
    3d52:	6813      	ldr	r3, [r2, #0]
    3d54:	4063      	eors	r3, r4
    3d56:	6013      	str	r3, [r2, #0]
    3d58:	4643      	mov	r3, r8
    3d5a:	4a91      	ldr	r2, [pc, #580]	; (3fa0 <runSpanKernels()+0xd40>)
    3d5c:	f005 fa5c 	bl	9218 <snprintf>
    3d60:	f1b8 0f00 	cmp.w	r8, #0
    3d64:	f001 86c3 	beq.w	5aee <runSpanKernels()+0x288e>
    3d68:	4651      	mov	r1, sl
    3d6a:	4b8b      	ldr	r3, [pc, #556]	; (3f98 <runSpanKernels()+0xd38>)
    3d6c:	488d      	ldr	r0, [pc, #564]	; (3fa4 <runSpanKernels()+0xd44>)
    3d6e:	9c08      	ldr	r4, [sp, #32]
    3d70:	f831 2b02 	ldrh.w	r2, [r1], #2
    3d74:	4053      	eors	r3, r2
    3d76:	428c      	cmp	r4, r1
    3d78:	fb00 f303 	mul.w	r3, r0, r3
    3d7c:	d1f8      	bne.n	3d70 <runSpanKernels()+0xb10>
    3d7e:	a83a      	add	r0, sp, #232	; 0xe8
    3d80:	9303      	str	r3, [sp, #12]
    3d82:	f8cd 8008 	str.w	r8, [sp, #8]
    3d86:	4988      	ldr	r1, [pc, #544]	; (3fa8 <runSpanKernels()+0xd48>)
    3d88:	4c88      	ldr	r4, [pc, #544]	; (3fac <runSpanKernels()+0xd4c>)
    3d8a:	e9dd 230a 	ldrd	r2, r3, [sp, #40]	; 0x28
    3d8e:	e9cd 7600 	strd	r7, r6, [sp]
    3d92:	f7fc ff77 	bl	c84 <printResult(char const*, char const*, unsigned long, unsigned long, unsigned long, unsigned long, unsigned long, unsigned long, unsigned long, char const*) [clone .constprop.0]>
    3d96:	9b0d      	ldr	r3, [sp, #52]	; 0x34
    3d98:	f1a9 0002 	sub.w	r0, r9, #2
    3d9c:	4f7d      	ldr	r7, [pc, #500]	; (3f94 <runSpanKernels()+0xd34>)
    3d9e:	f1a3 0b02 	sub.w	fp, r3, #2
    3da2:	9a1d      	ldr	r2, [sp, #116]	; 0x74
    3da4:	4b79      	ldr	r3, [pc, #484]	; (3f8c <runSpanKernels()+0xd2c>)
    3da6:	4606      	mov	r6, r0
    3da8:	46de      	mov	lr, fp
    3daa:	eb03 0c02 	add.w	ip, r3, r2
    3dae:	e9cd 8509 	strd	r8, r5, [sp, #36]	; 0x24
    3db2:	f8dd 801c 	ldr.w	r8, [sp, #28]
    3db6:	463d      	mov	r5, r7
    3db8:	f836 3f02 	ldrh.w	r3, [r6, #2]!
    3dbc:	f83e 2f02 	ldrh.w	r2, [lr, #2]!
    3dc0:	ea43 4303 	orr.w	r3, r3, r3, lsl #16
    3dc4:	f855 1b04 	ldr.w	r1, [r5], #4
    3dc8:	ea42 4202 	orr.w	r2, r2, r2, lsl #16
    3dcc:	45b0      	cmp	r8, r6
    3dce:	ea03 0304 	and.w	r3, r3, r4
    3dd2:	ea4f 01d1 	mov.w	r1, r1, lsr #3
    3dd6:	ea02 0204 	and.w	r2, r2, r4
    3dda:	eba2 0203 	sub.w	r2, r2, r3
    3dde:	fb01 f202 	mul.w	r2, r1, r2
    3de2:	eb03 1352 	add.w	r3, r3, r2, lsr #5
    3de6:	ea03 0304 	and.w	r3, r3, r4
    3dea:	ea43 4313 	orr.w	r3, r3, r3, lsr #16
    3dee:	f82c 3f02 	strh.w	r3, [ip, #2]!
    3df2:	d1e1      	bne.n	3db8 <runSpanKernels()+0xb58>
    3df4:	f1aa 0602 	sub.w	r6, sl, #2
    3df8:	4c6c      	ldr	r4, [pc, #432]	; (3fac <runSpanKernels()+0xd4c>)
    3dfa:	9907      	ldr	r1, [sp, #28]
    3dfc:	e9dd 8509 	ldrd	r8, r5, [sp, #36]	; 0x24
    3e00:	f830 3f02 	ldrh.w	r3, [r0, #2]!
    3e04:	f83b 2f02 	ldrh.w	r2, [fp, #2]!
    3e08:	ea43 4303 	orr.w	r3, r3, r3, lsl #16
    3e0c:	f857 cb04 	ldr.w	ip, [r7], #4
    3e10:	ea42 4202 	orr.w	r2, r2, r2, lsl #16
    3e14:	4281      	cmp	r1, r0
    3e16:	ea03 0304 	and.w	r3, r3, r4
    3e1a:	ea4f 0cdc 	mov.w	ip, ip, lsr #3
    3e1e:	ea02 0204 	and.w	r2, r2, r4
    3e22:	eba2 0203 	sub.w	r2, r2, r3
    3e26:	fb0c f202 	mul.w	r2, ip, r2
    3e2a:	eb03 1352 	add.w	r3, r3, r2, lsr #5
    3e2e:	ea03 0304 	and.w	r3, r3, r4
    3e32:	ea43 4313 	orr.w	r3, r3, r3, lsr #16
    3e36:	f826 3f02 	strh.w	r3, [r6, #2]!
    3e3a:	d1e1      	bne.n	3e00 <runSpanKernels()+0xba0>
    3e3c:	4b53      	ldr	r3, [pc, #332]	; (3f8c <runSpanKernels()+0xd2c>)
    3e3e:	ee1a 2a10 	vmov	r2, s20
    3e42:	2600      	movs	r6, #0
    3e44:	189c      	adds	r4, r3, r2
    3e46:	9b1c      	ldr	r3, [sp, #112]	; 0x70
    3e48:	9a13      	ldr	r2, [sp, #76]	; 0x4c
    3e4a:	441c      	add	r4, r3
    3e4c:	9b1b      	ldr	r3, [sp, #108]	; 0x6c
    3e4e:	f833 1b02 	ldrh.w	r1, [r3], #2
    3e52:	f832 0f02 	ldrh.w	r0, [r2, #2]!
    3e56:	4288      	cmp	r0, r1
    3e58:	bf18      	it	ne
    3e5a:	3601      	addne	r6, #1
    3e5c:	429c      	cmp	r4, r3
    3e5e:	d1f6      	bne.n	3e4e <runSpanKernels()+0xbee>
    3e60:	fab6 f386 	clz	r3, r6
    3e64:	960b      	str	r6, [sp, #44]	; 0x2c
    3e66:	095b      	lsrs	r3, r3, #5
    3e68:	930a      	str	r3, [sp, #40]	; 0x28
    3e6a:	4b49      	ldr	r3, [pc, #292]	; (3f90 <runSpanKernels()+0xd30>)
    3e6c:	f44f 7400 	mov.w	r4, #512	; 0x200
    3e70:	f8df b130 	ldr.w	fp, [pc, #304]	; 3fa4 <runSpanKernels()+0xd44>
    3e74:	685b      	ldr	r3, [r3, #4]
    3e76:	930c      	str	r3, [sp, #48]	; 0x30
    3e78:	f002 fae6 	bl	6448 <micros>
    3e7c:	f8cd 8024 	str.w	r8, [sp, #36]	; 0x24
    3e80:	f8df e128 	ldr.w	lr, [pc, #296]	; 3fac <runSpanKernels()+0xd4c>
    3e84:	f8dd 8034 	ldr.w	r8, [sp, #52]	; 0x34
    3e88:	900e      	str	r0, [sp, #56]	; 0x38
    3e8a:	9b09      	ldr	r3, [sp, #36]	; 0x24
    3e8c:	2b00      	cmp	r3, #0
    3e8e:	f001 846b 	beq.w	5768 <runSpanKernels()+0x2508>
    3e92:	f1a9 0102 	sub.w	r1, r9, #2
    3e96:	f1a8 0702 	sub.w	r7, r8, #2
    3e9a:	4e3e      	ldr	r6, [pc, #248]	; (3f94 <runSpanKernels()+0xd34>)
    3e9c:	f1aa 0002 	sub.w	r0, sl, #2
    3ea0:	f831 3f02 	ldrh.w	r3, [r1, #2]!
    3ea4:	f837 2f02 	ldrh.w	r2, [r7, #2]!
    3ea8:	ea43 4303 	orr.w	r3, r3, r3, lsl #16
    3eac:	f856 cb04 	ldr.w	ip, [r6], #4
    3eb0:	ea42 4202 	orr.w	r2, r2, r2, lsl #16
    3eb4:	ea03 030e 	and.w	r3, r3, lr
    3eb8:	ea4f 0cdc 	mov.w	ip, ip, lsr #3
    3ebc:	ea02 020e 	and.w	r2, r2, lr
    3ec0:	1ad2      	subs	r2, r2, r3
    3ec2:	fb0c f202 	mul.w	r2, ip, r2
    3ec6:	eb03 1352 	add.w	r3, r3, r2, lsr #5
    3eca:	ea03 030e 	and.w	r3, r3, lr
    3ece:	ea43 4313 	orr.w	r3, r3, r3, lsr #16
    3ed2:	f820 3f02 	strh.w	r3, [r0, #2]!
    3ed6:	9b07      	ldr	r3, [sp, #28]
    3ed8:	428b      	cmp	r3, r1
    3eda:	d1e1      	bne.n	3ea0 <runSpanKernels()+0xc40>
    3edc:	4651      	mov	r1, sl
    3ede:	4b2e      	ldr	r3, [pc, #184]	; (3f98 <runSpanKernels()+0xd38>)
    3ee0:	f831 2b02 	ldrh.w	r2, [r1], #2
    3ee4:	4053      	eors	r3, r2
    3ee6:	9a08      	ldr	r2, [sp, #32]
    3ee8:	428a      	cmp	r2, r1
    3eea:	fb0b f303 	mul.w	r3, fp, r3
    3eee:	d1f7      	bne.n	3ee0 <runSpanKernels()+0xc80>
    3ef0:	3c01      	subs	r4, #1
    3ef2:	ea85 0503 	eor.w	r5, r5, r3
    3ef6:	d1c8      	bne.n	3e8a <runSpanKernels()+0xc2a>
    3ef8:	f8dd 8024 	ldr.w	r8, [sp, #36]	; 0x24
    3efc:	f002 faa4 	bl	6448 <micros>
    3f00:	9b0e      	ldr	r3, [sp, #56]	; 0x38
    3f02:	2130      	movs	r1, #48	; 0x30
    3f04:	4a25      	ldr	r2, [pc, #148]	; (3f9c <runSpanKernels()+0xd3c>)
    3f06:	1ac7      	subs	r7, r0, r3
    3f08:	4b21      	ldr	r3, [pc, #132]	; (3f90 <runSpanKernels()+0xd30>)
    3f0a:	a83a      	add	r0, sp, #232	; 0xe8
    3f0c:	685e      	ldr	r6, [r3, #4]
    3f0e:	9b0c      	ldr	r3, [sp, #48]	; 0x30
    3f10:	1af6      	subs	r6, r6, r3
    3f12:	9b1a      	ldr	r3, [sp, #104]	; 0x68
    3f14:	9300      	str	r3, [sp, #0]
    3f16:	6813      	ldr	r3, [r2, #0]
    3f18:	406b      	eors	r3, r5
    3f1a:	6013      	str	r3, [r2, #0]
    3f1c:	4643      	mov	r3, r8
    3f1e:	4a20      	ldr	r2, [pc, #128]	; (3fa0 <runSpanKernels()+0xd40>)
    3f20:	f005 f97a 	bl	9218 <snprintf>
    3f24:	f1b8 0f00 	cmp.w	r8, #0
    3f28:	f001 85d0 	beq.w	5acc <runSpanKernels()+0x286c>
    3f2c:	4651      	mov	r1, sl
    3f2e:	4b1a      	ldr	r3, [pc, #104]	; (3f98 <runSpanKernels()+0xd38>)
    3f30:	481c      	ldr	r0, [pc, #112]	; (3fa4 <runSpanKernels()+0xd44>)
    3f32:	9d08      	ldr	r5, [sp, #32]
    3f34:	f831 2b02 	ldrh.w	r2, [r1], #2
    3f38:	4053      	eors	r3, r2
    3f3a:	428d      	cmp	r5, r1
    3f3c:	fb00 f303 	mul.w	r3, r0, r3
    3f40:	d1f8      	bne.n	3f34 <runSpanKernels()+0xcd4>
    3f42:	a83a      	add	r0, sp, #232	; 0xe8
    3f44:	9303      	str	r3, [sp, #12]
    3f46:	491a      	ldr	r1, [pc, #104]	; (3fb0 <runSpanKernels()+0xd50>)
    3f48:	f8cd 8008 	str.w	r8, [sp, #8]
    3f4c:	f8df b064 	ldr.w	fp, [pc, #100]	; 3fb4 <runSpanKernels()+0xd54>
    3f50:	e9dd 230a 	ldrd	r2, r3, [sp, #40]	; 0x28
    3f54:	e9cd 7600 	strd	r7, r6, [sp]
    3f58:	f7fc fe94 	bl	c84 <printResult(char const*, char const*, unsigned long, unsigned long, unsigned long, unsigned long, unsigned long, unsigned long, unsigned long, char const*) [clone .constprop.0]>
    3f5c:	f1a9 0002 	sub.w	r0, r9, #2
    3f60:	f8df c054 	ldr.w	ip, [pc, #84]	; 3fb8 <runSpanKernels()+0xd58>
    3f64:	465f      	mov	r7, fp
    3f66:	f8df e054 	ldr.w	lr, [pc, #84]	; 3fbc <runSpanKernels()+0xd5c>
    3f6a:	4605      	mov	r5, r0
    3f6c:	4b07      	ldr	r3, [pc, #28]	; (3f8c <runSpanKernels()+0xd2c>)
    3f6e:	9a1d      	ldr	r2, [sp, #116]	; 0x74
    3f70:	f8cd c038 	str.w	ip, [sp, #56]	; 0x38
    3f74:	189e      	adds	r6, r3, r2
    3f76:	e9cd 9a0b 	strd	r9, sl, [sp, #44]	; 0x2c
    3f7a:	e9cd 8409 	strd	r8, r4, [sp, #36]	; 0x24
    3f7e:	f8dd 901c 	ldr.w	r9, [sp, #28]
    3f82:	4664      	mov	r4, ip
    3f84:	4682      	mov	sl, r0
    3f86:	46f4      	mov	ip, lr
    3f88:	e01a      	b.n	3fc0 <runSpanKernels()+0xd60>
    3f8a:	bf00      	nop
    3f8c:	2000958c 	.word	0x2000958c
    3f90:	e0001000 	.word	0xe0001000
    3f94:	2000713c 	.word	0x2000713c
    3f98:	811c9dc5 	.word	0x811c9dc5
    3f9c:	20007138 	.word	0x20007138
    3fa0:	200005c0 	.word	0x200005c0
    3fa4:	01000193 	.word	0x01000193
    3fa8:	200006c4 	.word	0x200006c4
    3fac:	07e0f81f 	.word	0x07e0f81f
    3fb0:	200006d8 	.word	0x200006d8
    3fb4:	20005908 	.word	0x20005908
    3fb8:	200048e8 	.word	0x200048e8
    3fbc:	200050f8 	.word	0x200050f8
    3fc0:	f835 2f02 	ldrh.w	r2, [r5, #2]!
    3fc4:	f85c 1b04 	ldr.w	r1, [ip], #4
    3fc8:	f3c2 1345 	ubfx	r3, r2, #5, #6
    3fcc:	f854 8b04 	ldr.w	r8, [r4], #4
    3fd0:	f857 0b04 	ldr.w	r0, [r7], #4
    3fd4:	45a9      	cmp	r9, r5
    3fd6:	fb01 f303 	mul.w	r3, r1, r3
    3fda:	f3c3 2105 	ubfx	r1, r3, #8, #6
    3fde:	f002 031f 	and.w	r3, r2, #31
    3fe2:	ea4f 22d2 	mov.w	r2, r2, lsr #11
    3fe6:	fb08 f303 	mul.w	r3, r8, r3
    3fea:	fb00 f202 	mul.w	r2, r0, r2
    3fee:	f3c3 2304 	ubfx	r3, r3, #8, #5
    3ff2:	ea4f 2222 	mov.w	r2, r2, asr #8
    3ff6:	ea43 1341 	orr.w	r3, r3, r1, lsl #5
    3ffa:	ea43 23c2 	orr.w	r3, r3, r2, lsl #11
    3ffe:	f826 3f02 	strh.w	r3, [r6, #2]!
    4002:	d1dd      	bne.n	3fc0 <runSpanKernels()+0xd60>
    4004:	4650      	mov	r0, sl
    4006:	f8dd a030 	ldr.w	sl, [sp, #48]	; 0x30
    400a:	f8dd c038 	ldr.w	ip, [sp, #56]	; 0x38
    400e:	f1aa 0502 	sub.w	r5, sl, #2
    4012:	f8dd 801c 	ldr.w	r8, [sp, #28]
    4016:	e9dd 490a 	ldrd	r4, r9, [sp, #40]	; 0x28
    401a:	f830 2f02 	ldrh.w	r2, [r0, #2]!
    401e:	f85e 1b04 	ldr.w	r1, [lr], #4
    4022:	f3c2 1345 	ubfx	r3, r2, #5, #6
    4026:	f85c 7b04 	ldr.w	r7, [ip], #4
    402a:	f85b 6b04 	ldr.w	r6, [fp], #4
    402e:	4580      	cmp	r8, r0
    4030:	fb01 f303 	mul.w	r3, r1, r3
    4034:	f3c3 2105 	ubfx	r1, r3, #8, #6
    4038:	f002 031f 	and.w	r3, r2, #31
    403c:	ea4f 22d2 	mov.w	r2, r2, lsr #11
    4040:	fb07 f303 	mul.w	r3, r7, r3
    4044:	fb06 f202 	mul.w	r2, r6, r2
    4048:	f3c3 2304 	ubfx	r3, r3, #8, #5
    404c:	ea4f 2222 	mov.w	r2, r2, asr #8
    4050:	ea43 1341 	orr.w	r3, r3, r1, lsl #5
    4054:	ea43 23c2 	orr.w	r3, r3, r2, lsl #11
    4058:	f825 3f02 	strh.w	r3, [r5, #2]!
    405c:	d1dd      	bne.n	401a <runSpanKernels()+0xdba>
    405e:	4bcb      	ldr	r3, [pc, #812]	; (438c <runSpanKernels()+0x112c>)
    4060:	ee1a 2a10 	vmov	r2, s20
    4064:	f8dd 8024 	ldr.w	r8, [sp, #36]	; 0x24
    4068:	2600      	movs	r6, #0
    406a:	189d      	adds	r5, r3, r2
    406c:	9b1c      	ldr	r3, [sp, #112]	; 0x70
    406e:	9a13      	ldr	r2, [sp, #76]	; 0x4c
    4070:	441d      	add	r5, r3
    4072:	9b1b      	ldr	r3, [sp, #108]	; 0x6c
    4074:	f833 1b02 	ldrh.w	r1, [r3], #2
    4078:	f832 0f02 	ldrh.w	r0, [r2, #2]!
    407c:	4288      	cmp	r0, r1
    407e:	bf18      	it	ne
    4080:	3601      	addne	r6, #1
    4082:	429d      	cmp	r5, r3
    4084:	d1f6      	bne.n	4074 <runSpanKernels()+0xe14>
    4086:	fab6 f386 	clz	r3, r6
    408a:	960c      	str	r6, [sp, #48]	; 0x30
    408c:	095b      	lsrs	r3, r3, #5
    408e:	930b      	str	r3, [sp, #44]	; 0x2c
    4090:	4bbf      	ldr	r3, [pc, #764]	; (4390 <runSpanKernels()+0x1130>)
    4092:	f44f 7500 	mov.w	r5, #512	; 0x200
    4096:	685b      	ldr	r3, [r3, #4]
    4098:	930e      	str	r3, [sp, #56]	; 0x38
    409a:	f002 f9d5 	bl	6448 <micros>
    409e:	9010      	str	r0, [sp, #64]	; 0x40
    40a0:	f1b8 0f00 	cmp.w	r8, #0
    40a4:	f001 8358 	beq.w	5758 <runSpanKernels()+0x24f8>
    40a8:	f1a9 0002 	sub.w	r0, r9, #2
    40ac:	f8df e300 	ldr.w	lr, [pc, #768]	; 43b0 <runSpanKernels()+0x1150>
    40b0:	f8df c300 	ldr.w	ip, [pc, #768]	; 43b4 <runSpanKernels()+0x1154>
    40b4:	f1aa 0602 	sub.w	r6, sl, #2
    40b8:	4fb6      	ldr	r7, [pc, #728]	; (4394 <runSpanKernels()+0x1134>)
    40ba:	f830 2f02 	ldrh.w	r2, [r0, #2]!
    40be:	f85e 1b04 	ldr.w	r1, [lr], #4
    40c2:	f85c 3b04 	ldr.w	r3, [ip], #4
    40c6:	9109      	str	r1, [sp, #36]	; 0x24
    40c8:	f3c2 1145 	ubfx	r1, r2, #5, #6
    40cc:	f857 bb04 	ldr.w	fp, [r7], #4
    40d0:	fb03 f101 	mul.w	r1, r3, r1
    40d4:	f002 031f 	and.w	r3, r2, #31
    40d8:	0ad2      	lsrs	r2, r2, #11
    40da:	f3c1 2105 	ubfx	r1, r1, #8, #6
    40de:	fb0b f303 	mul.w	r3, fp, r3
    40e2:	910a      	str	r1, [sp, #40]	; 0x28
    40e4:	f3c3 2304 	ubfx	r3, r3, #8, #5
    40e8:	9909      	ldr	r1, [sp, #36]	; 0x24
    40ea:	fb01 f202 	mul.w	r2, r1, r2
    40ee:	990a      	ldr	r1, [sp, #40]	; 0x28
    40f0:	1212      	asrs	r2, r2, #8
    40f2:	ea43 1341 	orr.w	r3, r3, r1, lsl #5
    40f6:	ea43 23c2 	orr.w	r3, r3, r2, lsl #11
    40fa:	f826 3f02 	strh.w	r3, [r6, #2]!
    40fe:	9b07      	ldr	r3, [sp, #28]
    4100:	4283      	cmp	r3, r0
    4102:	d1da      	bne.n	40ba <runSpanKernels()+0xe5a>
    4104:	4651      	mov	r1, sl
    4106:	4ba4      	ldr	r3, [pc, #656]	; (4398 <runSpanKernels()+0x1138>)
    4108:	f831 2b02 	ldrh.w	r2, [r1], #2
    410c:	4053      	eors	r3, r2
    410e:	4aa3      	ldr	r2, [pc, #652]	; (439c <runSpanKernels()+0x113c>)
    4110:	fb02 f303 	mul.w	r3, r2, r3
    4114:	9a08      	ldr	r2, [sp, #32]
    4116:	428a      	cmp	r2, r1
    4118:	d1f6      	bne.n	4108 <runSpanKernels()+0xea8>
    411a:	3d01      	subs	r5, #1
    411c:	ea84 0403 	eor.w	r4, r4, r3
    4120:	d1be      	bne.n	40a0 <runSpanKernels()+0xe40>
    4122:	f002 f991 	bl	6448 <micros>
    4126:	9b10      	ldr	r3, [sp, #64]	; 0x40
    4128:	4a9d      	ldr	r2, [pc, #628]	; (43a0 <runSpanKernels()+0x1140>)
    412a:	2130      	movs	r1, #48	; 0x30
    412c:	1ac7      	subs	r7, r0, r3
    412e:	4b98      	ldr	r3, [pc, #608]	; (4390 <runSpanKernels()+0x1130>)
    4130:	a83a      	add	r0, sp, #232	; 0xe8
    4132:	685e      	ldr	r6, [r3, #4]
    4134:	9b0e      	ldr	r3, [sp, #56]	; 0x38
    4136:	1af6      	subs	r6, r6, r3
    4138:	9b1a      	ldr	r3, [sp, #104]	; 0x68
    413a:	9300      	str	r3, [sp, #0]
    413c:	6813      	ldr	r3, [r2, #0]
    413e:	4063      	eors	r3, r4
    4140:	6013      	str	r3, [r2, #0]
    4142:	4643      	mov	r3, r8
    4144:	4a97      	ldr	r2, [pc, #604]	; (43a4 <runSpanKernels()+0x1144>)
    4146:	f005 f867 	bl	9218 <snprintf>
    414a:	f1b8 0f00 	cmp.w	r8, #0
    414e:	f001 84f0 	beq.w	5b32 <runSpanKernels()+0x28d2>
    4152:	4651      	mov	r1, sl
    4154:	4b90      	ldr	r3, [pc, #576]	; (4398 <runSpanKernels()+0x1138>)
    4156:	4891      	ldr	r0, [pc, #580]	; (439c <runSpanKernels()+0x113c>)
    4158:	9c08      	ldr	r4, [sp, #32]
    415a:	f831 2b02 	ldrh.w	r2, [r1], #2
    415e:	4053      	eors	r3, r2
    4160:	428c      	cmp	r4, r1
    4162:	fb00 f303 	mul.w	r3, r0, r3
    4166:	d1f8      	bne.n	415a <runSpanKernels()+0xefa>
    4168:	a83a      	add	r0, sp, #232	; 0xe8
    416a:	9303      	str	r3, [sp, #12]
    416c:	498e      	ldr	r1, [pc, #568]	; (43a8 <runSpanKernels()+0x1148>)
    416e:	f8cd 8008 	str.w	r8, [sp, #8]
    4172:	f8df b23c 	ldr.w	fp, [pc, #572]	; 43b0 <runSpanKernels()+0x1150>
    4176:	e9dd 230b 	ldrd	r2, r3, [sp, #44]	; 0x2c
    417a:	e9cd 7600 	strd	r7, r6, [sp]
    417e:	f7fc fd81 	bl	c84 <printResult(char const*, char const*, unsigned long, unsigned long, unsigned long, unsigned long, unsigned long, unsigned long, unsigned long, char const*) [clone .constprop.0]>
    4182:	f1a9 0002 	sub.w	r0, r9, #2
    4186:	f8df c20c 	ldr.w	ip, [pc, #524]	; 4394 <runSpanKernels()+0x1134>
    418a:	465f      	mov	r7, fp
    418c:	f8df e224 	ldr.w	lr, [pc, #548]	; 43b4 <runSpanKernels()+0x1154>
    4190:	4604      	mov	r4, r0
    4192:	4b7e      	ldr	r3, [pc, #504]	; (438c <runSpanKernels()+0x112c>)
    4194:	9a1d      	ldr	r2, [sp, #116]	; 0x74
    4196:	f8cd c038 	str.w	ip, [sp, #56]	; 0x38
    419a:	189e      	adds	r6, r3, r2
    419c:	e9cd 9a0b 	strd	r9, sl, [sp, #44]	; 0x2c
    41a0:	e9cd 8509 	strd	r8, r5, [sp, #36]	; 0x24
    41a4:	f8dd 901c 	ldr.w	r9, [sp, #28]
    41a8:	4665      	mov	r5, ip
    41aa:	4682      	mov	sl, r0
    41ac:	46f4      	mov	ip, lr
    41ae:	f834 2f02 	ldrh.w	r2, [r4, #2]!
    41b2:	f85c 1b04 	ldr.w	r1, [ip], #4
    41b6:	f3c2 1345 	ubfx	r3, r2, #5, #6
    41ba:	f855 8b04 	ldr.w	r8, [r5], #4
    41be:	f857 0b04 	ldr.w	r0, [r7], #4
    41c2:	45a1      	cmp	r9, r4
    41c4:	fb01 f303 	mul.w	r3, r1, r3
    41c8:	f3c3 2105 	ubfx	r1, r3, #8, #6
    41cc:	f002 031f 	and.w	r3, r2, #31
    41d0:	ea4f 22d2 	mov.w	r2, r2, lsr #11
    41d4:	fb08 f303 	mul.w	r3, r8, r3
    41d8:	fb00 f202 	mul.w	r2, r0, r2
    41dc:	f3c3 2304 	ubfx	r3, r3, #8, #5
    41e0:	ea4f 2222 	mov.w	r2, r2, asr #8
    41e4:	ea43 1341 	orr.w	r3, r3, r1, lsl #5
    41e8:	ea43 23c2 	orr.w	r3, r3, r2, lsl #11
    41ec:	f826 3f02 	strh.w	r3, [r6, #2]!
    41f0:	d1dd      	bne.n	41ae <runSpanKernels()+0xf4e>
    41f2:	4650      	mov	r0, sl
    41f4:	f8dd a030 	ldr.w	sl, [sp, #48]	; 0x30
    41f8:	f8dd c038 	ldr.w	ip, [sp, #56]	; 0x38
    41fc:	f1aa 0402 	sub.w	r4, sl, #2
    4200:	9f07      	ldr	r7, [sp, #28]
    4202:	e9dd 590a 	ldrd	r5, r9, [sp, #40]	; 0x28
    4206:	f830 2f02 	ldrh.w	r2, [r0, #2]!
    420a:	f85b 8b04 	ldr.w	r8, [fp], #4
    420e:	0ad3      	lsrs	r3, r2, #11
    4210:	f85e 6b04 	ldr.w	r6, [lr], #4
    4214:	f85c 1b04 	ldr.w	r1, [ip], #4
    4218:	4287      	cmp	r7, r0
    421a:	fb08 f303 	mul.w	r3, r8, r3
    421e:	f3c2 1845 	ubfx	r8, r2, #5, #6
    4222:	f002 021f 	and.w	r2, r2, #31
    4226:	f3c3 2304 	ubfx	r3, r3, #8, #5
    422a:	fb06 f808 	mul.w	r8, r6, r8
    422e:	fb01 f202 	mul.w	r2, r1, r2
    4232:	ea4f 23c3 	mov.w	r3, r3, lsl #11
    4236:	f3c8 2805 	ubfx	r8, r8, #8, #6
    423a:	f3c2 2204 	ubfx	r2, r2, #8, #5
    423e:	ea43 1348 	orr.w	r3, r3, r8, lsl #5
    4242:	ea43 0302 	orr.w	r3, r3, r2
    4246:	f824 3f02 	strh.w	r3, [r4, #2]!
    424a:	d1dc      	bne.n	4206 <runSpanKernels()+0xfa6>
    424c:	4b4f      	ldr	r3, [pc, #316]	; (438c <runSpanKernels()+0x112c>)
    424e:	ee1a 2a10 	vmov	r2, s20
    4252:	f8dd 8024 	ldr.w	r8, [sp, #36]	; 0x24
    4256:	2600      	movs	r6, #0
    4258:	189c      	adds	r4, r3, r2
    425a:	9b1c      	ldr	r3, [sp, #112]	; 0x70
    425c:	9a13      	ldr	r2, [sp, #76]	; 0x4c
    425e:	441c      	add	r4, r3
    4260:	9b1b      	ldr	r3, [sp, #108]	; 0x6c
    4262:	f833 1b02 	ldrh.w	r1, [r3], #2
    4266:	f832 0f02 	ldrh.w	r0, [r2, #2]!
    426a:	4288      	cmp	r0, r1
    426c:	bf18      	it	ne
    426e:	3601      	addne	r6, #1
    4270:	429c      	cmp	r4, r3
    4272:	d1f6      	bne.n	4262 <runSpanKernels()+0x1002>
    4274:	fab6 f386 	clz	r3, r6
    4278:	960b      	str	r6, [sp, #44]	; 0x2c
    427a:	095b      	lsrs	r3, r3, #5
    427c:	930a      	str	r3, [sp, #40]	; 0x28
    427e:	4b44      	ldr	r3, [pc, #272]	; (4390 <runSpanKernels()+0x1130>)
    4280:	f44f 7400 	mov.w	r4, #512	; 0x200
    4284:	685b      	ldr	r3, [r3, #4]
    4286:	930c      	str	r3, [sp, #48]	; 0x30
    4288:	f002 f8de 	bl	6448 <micros>
    428c:	900e      	str	r0, [sp, #56]	; 0x38
    428e:	f1b8 0f00 	cmp.w	r8, #0
    4292:	f001 8259 	beq.w	5748 <runSpanKernels()+0x24e8>
    4296:	f1a9 0002 	sub.w	r0, r9, #2
    429a:	f8df e114 	ldr.w	lr, [pc, #276]	; 43b0 <runSpanKernels()+0x1150>
    429e:	f8df c114 	ldr.w	ip, [pc, #276]	; 43b4 <runSpanKernels()+0x1154>
    42a2:	f1aa 0602 	sub.w	r6, sl, #2
    42a6:	4f3b      	ldr	r7, [pc, #236]	; (4394 <runSpanKernels()+0x1134>)
    42a8:	f85c 3b04 	ldr.w	r3, [ip], #4
    42ac:	f830 2f02 	ldrh.w	r2, [r0, #2]!
    42b0:	4619      	mov	r1, r3
    42b2:	f857 3b04 	ldr.w	r3, [r7], #4
    42b6:	f85e bb04 	ldr.w	fp, [lr], #4
    42ba:	9309      	str	r3, [sp, #36]	; 0x24
    42bc:	0ad3      	lsrs	r3, r2, #11
    42be:	fb0b f303 	mul.w	r3, fp, r3
    42c2:	f3c2 1b45 	ubfx	fp, r2, #5, #6
    42c6:	f002 021f 	and.w	r2, r2, #31
    42ca:	fb01 fb0b 	mul.w	fp, r1, fp
    42ce:	f3c3 2304 	ubfx	r3, r3, #8, #5
    42d2:	9909      	ldr	r1, [sp, #36]	; 0x24
    42d4:	02db      	lsls	r3, r3, #11
    42d6:	f3cb 2b05 	ubfx	fp, fp, #8, #6
    42da:	fb01 f202 	mul.w	r2, r1, r2
    42de:	ea43 134b 	orr.w	r3, r3, fp, lsl #5
    42e2:	f3c2 2204 	ubfx	r2, r2, #8, #5
    42e6:	4313      	orrs	r3, r2
    42e8:	f826 3f02 	strh.w	r3, [r6, #2]!
    42ec:	9b07      	ldr	r3, [sp, #28]
    42ee:	4283      	cmp	r3, r0
    42f0:	d1da      	bne.n	42a8 <runSpanKernels()+0x1048>
    42f2:	4651      	mov	r1, sl
    42f4:	4b28      	ldr	r3, [pc, #160]	; (4398 <runSpanKernels()+0x1138>)
    42f6:	f831 2b02 	ldrh.w	r2, [r1], #2
    42fa:	4053      	eors	r3, r2
    42fc:	4a27      	ldr	r2, [pc, #156]	; (439c <runSpanKernels()+0x113c>)
    42fe:	fb02 f303 	mul.w	r3, r2, r3
    4302:	9a08      	ldr	r2, [sp, #32]
    4304:	428a      	cmp	r2, r1
    4306:	d1f6      	bne.n	42f6 <runSpanKernels()+0x1096>
    4308:	3c01      	subs	r4, #1
    430a:	ea85 0503 	eor.w	r5, r5, r3
    430e:	d1be      	bne.n	428e <runSpanKernels()+0x102e>
    4310:	f002 f89a 	bl	6448 <micros>
    4314:	9b0e      	ldr	r3, [sp, #56]	; 0x38
    4316:	4a22      	ldr	r2, [pc, #136]	; (43a0 <runSpanKernels()+0x1140>)
    4318:	2130      	movs	r1, #48	; 0x30
    431a:	1ac7      	subs	r7, r0, r3
    431c:	4b1c      	ldr	r3, [pc, #112]	; (4390 <runSpanKernels()+0x1130>)
    431e:	a83a      	add	r0, sp, #232	; 0xe8
    4320:	685e      	ldr	r6, [r3, #4]
    4322:	9b0c      	ldr	r3, [sp, #48]	; 0x30
    4324:	1af6      	subs	r6, r6, r3
    4326:	9b1a      	ldr	r3, [sp, #104]	; 0x68
    4328:	9300      	str	r3, [sp, #0]
    432a:	6813      	ldr	r3, [r2, #0]
    432c:	406b      	eors	r3, r5
    432e:	6013      	str	r3, [r2, #0]
    4330:	4643      	mov	r3, r8
    4332:	4a1c      	ldr	r2, [pc, #112]	; (43a4 <runSpanKernels()+0x1144>)
    4334:	f004 ff70 	bl	9218 <snprintf>
    4338:	f1b8 0f00 	cmp.w	r8, #0
    433c:	f001 83e8 	beq.w	5b10 <runSpanKernels()+0x28b0>
    4340:	4651      	mov	r1, sl
    4342:	4b15      	ldr	r3, [pc, #84]	; (4398 <runSpanKernels()+0x1138>)
    4344:	4815      	ldr	r0, [pc, #84]	; (439c <runSpanKernels()+0x113c>)
    4346:	9d08      	ldr	r5, [sp, #32]
    4348:	f831 2b02 	ldrh.w	r2, [r1], #2
    434c:	4053      	eors	r3, r2
    434e:	428d      	cmp	r5, r1
    4350:	fb00 f303 	mul.w	r3, r0, r3
    4354:	d1f8      	bne.n	4348 <runSpanKernels()+0x10e8>
    4356:	a83a      	add	r0, sp, #232	; 0xe8
    4358:	9303      	str	r3, [sp, #12]
    435a:	4914      	ldr	r1, [pc, #80]	; (43ac <runSpanKernels()+0x114c>)
    435c:	f8cd 8008 	str.w	r8, [sp, #8]
    4360:	f8df b04c 	ldr.w	fp, [pc, #76]	; 43b0 <runSpanKernels()+0x1150>
    4364:	e9dd 230a 	ldrd	r2, r3, [sp, #40]	; 0x28
    4368:	e9cd 7600 	strd	r7, r6, [sp]
    436c:	f7fc fc8a 	bl	c84 <printResult(char const*, char const*, unsigned long, unsigned long, unsigned long, unsigned long, unsigned long, unsigned long, unsigned long, char const*) [clone .constprop.0]>
    4370:	f1a9 0002 	sub.w	r0, r9, #2
    4374:	f8df c01c 	ldr.w	ip, [pc, #28]	; 4394 <runSpanKernels()+0x1134>
    4378:	465f      	mov	r7, fp
    437a:	f8df e038 	ldr.w	lr, [pc, #56]	; 43b4 <runSpanKernels()+0x1154>
    437e:	4605      	mov	r5, r0
    4380:	4b02      	ldr	r3, [pc, #8]	; (438c <runSpanKernels()+0x112c>)
    4382:	9a1d      	ldr	r2, [sp, #116]	; 0x74
    4384:	f8cd c038 	str.w	ip, [sp, #56]	; 0x38
    4388:	e016      	b.n	43b8 <runSpanKernels()+0x1158>
    438a:	bf00      	nop
    438c:	2000958c 	.word	0x2000958c
    4390:	e0001000 	.word	0xe0001000
    4394:	200048e8 	.word	0x200048e8
    4398:	811c9dc5 	.word	0x811c9dc5
    439c:	01000193 	.word	0x01000193
    43a0:	20007138 	.word	0x20007138
    43a4:	200005dc 	.word	0x200005dc
    43a8:	200006c4 	.word	0x200006c4
    43ac:	200006ec 	.word	0x200006ec
    43b0:	20005908 	.word	0x20005908
    43b4:	200050f8 	.word	0x200050f8
    43b8:	189e      	adds	r6, r3, r2
    43ba:	e9cd 9a0b 	strd	r9, sl, [sp, #44]	; 0x2c
    43be:	e9cd 8409 	strd	r8, r4, [sp, #36]	; 0x24
    43c2:	f8dd 901c 	ldr.w	r9, [sp, #28]
    43c6:	4664      	mov	r4, ip
    43c8:	4682      	mov	sl, r0
    43ca:	46f4      	mov	ip, lr
    43cc:	f835 2f02 	ldrh.w	r2, [r5, #2]!
    43d0:	f85c 1b04 	ldr.w	r1, [ip], #4
    43d4:	f3c2 1345 	ubfx	r3, r2, #5, #6
    43d8:	f854 8b04 	ldr.w	r8, [r4], #4
    43dc:	f857 0b04 	ldr.w	r0, [r7], #4
    43e0:	45a9      	cmp	r9, r5
    43e2:	fb01 f303 	mul.w	r3, r1, r3
    43e6:	f3c3 2105 	ubfx	r1, r3, #8, #6
    43ea:	f002 031f 	and.w	r3, r2, #31
    43ee:	ea4f 22d2 	mov.w	r2, r2, lsr #11
    43f2:	fb08 f303 	mul.w	r3, r8, r3
    43f6:	fb00 f202 	mul.w	r2, r0, r2
    43fa:	f3c3 2304 	ubfx	r3, r3, #8, #5
    43fe:	ea4f 2222 	mov.w	r2, r2, asr #8
    4402:	ea43 1341 	orr.w	r3, r3, r1, lsl #5
    4406:	ea43 23c2 	orr.w	r3, r3, r2, lsl #11
    440a:	f826 3f02 	strh.w	r3, [r6, #2]!
    440e:	d1dd      	bne.n	43cc <runSpanKernels()+0x116c>
    4410:	4650      	mov	r0, sl
    4412:	f8dd a030 	ldr.w	sl, [sp, #48]	; 0x30
    4416:	f8dd c038 	ldr.w	ip, [sp, #56]	; 0x38
    441a:	f1aa 0502 	sub.w	r5, sl, #2
    441e:	f8dd 801c 	ldr.w	r8, [sp, #28]
    4422:	e9dd 490a 	ldrd	r4, r9, [sp, #40]	; 0x28
    4426:	f830 2f02 	ldrh.w	r2, [r0, #2]!
    442a:	f85e 1b04 	ldr.w	r1, [lr], #4
    442e:	f3c2 1345 	ubfx	r3, r2, #5, #6
    4432:	f85c 7b04 	ldr.w	r7, [ip], #4
    4436:	f85b 6b04 	ldr.w	r6, [fp], #4
    443a:	4580      	cmp	r8, r0
    443c:	fb01 f303 	mul.w	r3, r1, r3
    4440:	f3c3 2105 	ubfx	r1, r3, #8, #6
    4444:	f002 031f 	and.w	r3, r2, #31
    4448:	ea4f 22d2 	mov.w	r2, r2, lsr #11
    444c:	fb07 f303 	mul.w	r3, r7, r3
    4450:	fb06 f202 	mul.w	r2, r6, r2
    4454:	f3c3 2304 	ubfx	r3, r3, #8, #5
    4458:	ea4f 2222 	mov.w	r2, r2, asr #8
    445c:	ea43 1341 	orr.w	r3, r3, r1, lsl #5
    4460:	ea43 23c2 	orr.w	r3, r3, r2, lsl #11
    4464:	f825 3f02 	strh.w	r3, [r5, #2]!
    4468:	d1dd      	bne.n	4426 <runSpanKernels()+0x11c6>
    446a:	4bc9      	ldr	r3, [pc, #804]	; (4790 <runSpanKernels()+0x1530>)
    446c:	ee1a 2a10 	vmov	r2, s20
    4470:	f8dd 8024 	ldr.w	r8, [sp, #36]	; 0x24
    4474:	2600      	movs	r6, #0
    4476:	189d      	adds	r5, r3, r2
    4478:	9b1c      	ldr	r3, [sp, #112]	; 0x70
    447a:	9a13      	ldr	r2, [sp, #76]	; 0x4c
    447c:	441d      	add	r5, r3
    447e:	9b1b      	ldr	r3, [sp, #108]	; 0x6c
    4480:	f833 1b02 	ldrh.w	r1, [r3], #2
    4484:	f832 0f02 	ldrh.w	r0, [r2, #2]!
    4488:	4288      	cmp	r0, r1
    448a:	bf18      	it	ne
    448c:	3601      	addne	r6, #1
    448e:	429d      	cmp	r5, r3
    4490:	d1f6      	bne.n	4480 <runSpanKernels()+0x1220>
    4492:	fab6 f386 	clz	r3, r6
    4496:	960c      	str	r6, [sp, #48]	; 0x30
    4498:	095b      	lsrs	r3, r3, #5
    449a:	930b      	str	r3, [sp, #44]	; 0x2c
    449c:	4bbd      	ldr	r3, [pc, #756]	; (4794 <runSpanKernels()+0x1534>)
    449e:	f44f 7500 	mov.w	r5, #512	; 0x200
    44a2:	685b      	ldr	r3, [r3, #4]
    44a4:	930e      	str	r3, [sp, #56]	; 0x38
    44a6:	f001 ffcf 	bl	6448 <micros>
    44aa:	9010      	str	r0, [sp, #64]	; 0x40
    44ac:	f1b8 0f00 	cmp.w	r8, #0
    44b0:	f001 8142 	beq.w	5738 <runSpanKernels()+0x24d8>
    44b4:	f1a9 0002 	sub.w	r0, r9, #2
    44b8:	f8df e2fc 	ldr.w	lr, [pc, #764]	; 47b8 <runSpanKernels()+0x1558>
    44bc:	f8df c2fc 	ldr.w	ip, [pc, #764]	; 47bc <runSpanKernels()+0x155c>
    44c0:	f1aa 0602 	sub.w	r6, sl, #2
    44c4:	4fb4      	ldr	r7, [pc, #720]	; (4798 <runSpanKernels()+0x1538>)
    44c6:	f830 2f02 	ldrh.w	r2, [r0, #2]!
    44ca:	f85e 1b04 	ldr.w	r1, [lr], #4
    44ce:	f85c 3b04 	ldr.w	r3, [ip], #4
    44d2:	9109      	str	r1, [sp, #36]	; 0x24
    44d4:	f3c2 1145 	ubfx	r1, r2, #5, #6
    44d8:	f857 bb04 	ldr.w	fp, [r7], #4
    44dc:	fb03 f101 	mul.w	r1, r3, r1
    44e0:	f002 031f 	and.w	r3, r2, #31
    44e4:	0ad2      	lsrs	r2, r2, #11
    44e6:	f3c1 2105 	ubfx	r1, r1, #8, #6
    44ea:	fb0b f303 	mul.w	r3, fp, r3
    44ee:	910a      	str	r1, [sp, #40]	; 0x28
    44f0:	f3c3 2304 	ubfx	r3, r3, #8, #5
    44f4:	9909      	ldr	r1, [sp, #36]	; 0x24
    44f6:	fb01 f202 	mul.w	r2, r1, r2
    44fa:	990a      	ldr	r1, [sp, #40]	; 0x28
    44fc:	1212      	asrs	r2, r2, #8
    44fe:	ea43 1341 	orr.w	r3, r3, r1, lsl #5
    4502:	ea43 23c2 	orr.w	r3, r3, r2, lsl #11
    4506:	f826 3f02 	strh.w	r3, [r6, #2]!
    450a:	9b07      	ldr	r3, [sp, #28]
    450c:	4298      	cmp	r0, r3
    450e:	d1da      	bne.n	44c6 <runSpanKernels()+0x1266>
    4510:	4651      	mov	r1, sl
    4512:	4ba2      	ldr	r3, [pc, #648]	; (479c <runSpanKernels()+0x153c>)
    4514:	f831 2b02 	ldrh.w	r2, [r1], #2
    4518:	4053      	eors	r3, r2
    451a:	4aa1      	ldr	r2, [pc, #644]	; (47a0 <runSpanKernels()+0x1540>)
    451c:	fb02 f303 	mul.w	r3, r2, r3
    4520:	9a08      	ldr	r2, [sp, #32]
    4522:	428a      	cmp	r2, r1
    4524:	d1f6      	bne.n	4514 <runSpanKernels()+0x12b4>
    4526:	3d01      	subs	r5, #1
    4528:	ea84 0403 	eor.w	r4, r4, r3
    452c:	d1be      	bne.n	44ac <runSpanKernels()+0x124c>
    452e:	f001 ff8b 	bl	6448 <micros>
    4532:	9b10      	ldr	r3, [sp, #64]	; 0x40
    4534:	4a9b      	ldr	r2, [pc, #620]	; (47a4 <runSpanKernels()+0x1544>)
    4536:	2130      	movs	r1, #48	; 0x30
    4538:	1ac7      	subs	r7, r0, r3
    453a:	4b96      	ldr	r3, [pc, #600]	; (4794 <runSpanKernels()+0x1534>)
    453c:	a83a      	add	r0, sp, #232	; 0xe8
    453e:	685e      	ldr	r6, [r3, #4]
    4540:	9b0e      	ldr	r3, [sp, #56]	; 0x38
    4542:	1af6      	subs	r6, r6, r3
    4544:	9b1a      	ldr	r3, [sp, #104]	; 0x68
    4546:	9300      	str	r3, [sp, #0]
    4548:	6813      	ldr	r3, [r2, #0]
    454a:	4063      	eors	r3, r4
    454c:	6013      	str	r3, [r2, #0]
    454e:	4643      	mov	r3, r8
    4550:	4a95      	ldr	r2, [pc, #596]	; (47a8 <runSpanKernels()+0x1548>)
    4552:	f004 fe61 	bl	9218 <snprintf>
    4556:	f1b8 0f00 	cmp.w	r8, #0
    455a:	f001 833a 	beq.w	5bd2 <runSpanKernels()+0x2972>
    455e:	4651      	mov	r1, sl
    4560:	4b8e      	ldr	r3, [pc, #568]	; (479c <runSpanKernels()+0x153c>)
    4562:	488f      	ldr	r0, [pc, #572]	; (47a0 <runSpanKernels()+0x1540>)
    4564:	9c08      	ldr	r4, [sp, #32]
    4566:	f831 2b02 	ldrh.w	r2, [r1], #2
    456a:	4053      	eors	r3, r2
    456c:	428c      	cmp	r4, r1
    456e:	fb00 f303 	mul.w	r3, r0, r3
    4572:	d1f8      	bne.n	4566 <runSpanKernels()+0x1306>
    4574:	a83a      	add	r0, sp, #232	; 0xe8
    4576:	9303      	str	r3, [sp, #12]
    4578:	498c      	ldr	r1, [pc, #560]	; (47ac <runSpanKernels()+0x154c>)
    457a:	f8cd 8008 	str.w	r8, [sp, #8]
    457e:	f8df b238 	ldr.w	fp, [pc, #568]	; 47b8 <runSpanKernels()+0x1558>
    4582:	e9dd 230b 	ldrd	r2, r3, [sp, #44]	; 0x2c
    4586:	e9cd 7600 	strd	r7, r6, [sp]
    458a:	f7fc fb7b 	bl	c84 <printResult(char const*, char const*, unsigned long, unsigned long, unsigned long, unsigned long, unsigned long, unsigned long, unsigned long, char const*) [clone .constprop.0]>
    458e:	f1a9 0002 	sub.w	r0, r9, #2
    4592:	f8df e228 	ldr.w	lr, [pc, #552]	; 47bc <runSpanKernels()+0x155c>
    4596:	465f      	mov	r7, fp
    4598:	f8df c1fc 	ldr.w	ip, [pc, #508]	; 4798 <runSpanKernels()+0x1538>
    459c:	4604      	mov	r4, r0
    459e:	4b7c      	ldr	r3, [pc, #496]	; (4790 <runSpanKernels()+0x1530>)
    45a0:	9a1d      	ldr	r2, [sp, #116]	; 0x74
    45a2:	900e      	str	r0, [sp, #56]	; 0x38
    45a4:	4670      	mov	r0, lr
    45a6:	189e      	adds	r6, r3, r2
    45a8:	e9cd 8509 	strd	r8, r5, [sp, #36]	; 0x24
    45ac:	e9cd 9a0b 	strd	r9, sl, [sp, #44]	; 0x2c
    45b0:	4665      	mov	r5, ip
    45b2:	f8dd a01c 	ldr.w	sl, [sp, #28]
    45b6:	f834 2f02 	ldrh.w	r2, [r4, #2]!
    45ba:	f850 1b04 	ldr.w	r1, [r0], #4
    45be:	f3c2 1345 	ubfx	r3, r2, #5, #6
    45c2:	f855 9b04 	ldr.w	r9, [r5], #4
    45c6:	f857 8b04 	ldr.w	r8, [r7], #4
    45ca:	45a2      	cmp	sl, r4
    45cc:	fb01 f303 	mul.w	r3, r1, r3
    45d0:	f3c3 2105 	ubfx	r1, r3, #8, #6
    45d4:	f002 031f 	and.w	r3, r2, #31
    45d8:	ea4f 22d2 	mov.w	r2, r2, lsr #11
    45dc:	fb09 f303 	mul.w	r3, r9, r3
    45e0:	fb08 f202 	mul.w	r2, r8, r2
    45e4:	f3c3 2304 	ubfx	r3, r3, #8, #5
    45e8:	ea4f 2222 	mov.w	r2, r2, asr #8
    45ec:	ea43 1341 	orr.w	r3, r3, r1, lsl #5
    45f0:	ea43 23c2 	orr.w	r3, r3, r2, lsl #11
    45f4:	f826 3f02 	strh.w	r3, [r6, #2]!
    45f8:	d1dd      	bne.n	45b6 <runSpanKernels()+0x1356>
    45fa:	f8dd a030 	ldr.w	sl, [sp, #48]	; 0x30
    45fe:	980e      	ldr	r0, [sp, #56]	; 0x38
    4600:	f1aa 0402 	sub.w	r4, sl, #2
    4604:	9f07      	ldr	r7, [sp, #28]
    4606:	e9dd 590a 	ldrd	r5, r9, [sp, #40]	; 0x28
    460a:	f830 2f02 	ldrh.w	r2, [r0, #2]!
    460e:	f85b 8b04 	ldr.w	r8, [fp], #4
    4612:	0ad3      	lsrs	r3, r2, #11
    4614:	f85e 6b04 	ldr.w	r6, [lr], #4
    4618:	f85c 1b04 	ldr.w	r1, [ip], #4
    461c:	4287      	cmp	r7, r0
    461e:	fb08 f303 	mul.w	r3, r8, r3
    4622:	f3c2 1845 	ubfx	r8, r2, #5, #6
    4626:	f002 021f 	and.w	r2, r2, #31
    462a:	f3c3 2304 	ubfx	r3, r3, #8, #5
    462e:	fb06 f808 	mul.w	r8, r6, r8
    4632:	fb01 f202 	mul.w	r2, r1, r2
    4636:	ea4f 23c3 	mov.w	r3, r3, lsl #11
    463a:	f3c8 2805 	ubfx	r8, r8, #8, #6
    463e:	f3c2 2204 	ubfx	r2, r2, #8, #5
    4642:	ea43 1348 	orr.w	r3, r3, r8, lsl #5
    4646:	ea43 0302 	orr.w	r3, r3, r2
    464a:	f824 3f02 	strh.w	r3, [r4, #2]!
    464e:	d1dc      	bne.n	460a <runSpanKernels()+0x13aa>
    4650:	4b4f      	ldr	r3, [pc, #316]	; (4790 <runSpanKernels()+0x1530>)
    4652:	ee1a 2a10 	vmov	r2, s20
    4656:	f8dd 8024 	ldr.w	r8, [sp, #36]	; 0x24
    465a:	2600      	movs	r6, #0
    465c:	189c      	adds	r4, r3, r2
    465e:	9b1c      	ldr	r3, [sp, #112]	; 0x70
    4660:	9a13      	ldr	r2, [sp, #76]	; 0x4c
    4662:	441c      	add	r4, r3
    4664:	9b1b      	ldr	r3, [sp, #108]	; 0x6c
    4666:	f833 1b02 	ldrh.w	r1, [r3], #2
    466a:	f832 0f02 	ldrh.w	r0, [r2, #2]!
    466e:	4288      	cmp	r0, r1
    4670:	bf18      	it	ne
    4672:	3601      	addne	r6, #1
    4674:	42a3      	cmp	r3, r4
    4676:	d1f6      	bne.n	4666 <runSpanKernels()+0x1406>
    4678:	fab6 f386 	clz	r3, r6
    467c:	960b      	str	r6, [sp, #44]	; 0x2c
    467e:	095b      	lsrs	r3, r3, #5
    4680:	930a      	str	r3, [sp, #40]	; 0x28
    4682:	4b44      	ldr	r3, [pc, #272]	; (4794 <runSpanKernels()+0x1534>)
    4684:	f44f 7400 	mov.w	r4, #512	; 0x200
    4688:	685b      	ldr	r3, [r3, #4]
    468a:	930c      	str	r3, [sp, #48]	; 0x30
    468c:	f001 fedc 	bl	6448 <micros>
    4690:	900e      	str	r0, [sp, #56]	; 0x38
    4692:	f1b8 0f00 	cmp.w	r8, #0
    4696:	f001 8047 	beq.w	5728 <runSpanKernels()+0x24c8>
    469a:	f1a9 0002 	sub.w	r0, r9, #2
    469e:	f8df e118 	ldr.w	lr, [pc, #280]	; 47b8 <runSpanKernels()+0x1558>
    46a2:	f8df c118 	ldr.w	ip, [pc, #280]	; 47bc <runSpanKernels()+0x155c>
    46a6:	f1aa 0602 	sub.w	r6, sl, #2
    46aa:	4f3b      	ldr	r7, [pc, #236]	; (4798 <runSpanKernels()+0x1538>)
    46ac:	f85c 3b04 	ldr.w	r3, [ip], #4
    46b0:	f830 2f02 	ldrh.w	r2, [r0, #2]!
    46b4:	4619      	mov	r1, r3
    46b6:	f857 3b04 	ldr.w	r3, [r7], #4
    46ba:	f85e bb04 	ldr.w	fp, [lr], #4
    46be:	9309      	str	r3, [sp, #36]	; 0x24
    46c0:	0ad3      	lsrs	r3, r2, #11
    46c2:	fb0b f303 	mul.w	r3, fp, r3
    46c6:	f3c2 1b45 	ubfx	fp, r2, #5, #6
    46ca:	f002 021f 	and.w	r2, r2, #31
    46ce:	fb01 fb0b 	mul.w	fp, r1, fp
    46d2:	f3c3 2304 	ubfx	r3, r3, #8, #5
    46d6:	9909      	ldr	r1, [sp, #36]	; 0x24
    46d8:	02db      	lsls	r3, r3, #11
    46da:	f3cb 2b05 	ubfx	fp, fp, #8, #6
    46de:	fb01 f202 	mul.w	r2, r1, r2
    46e2:	ea43 134b 	orr.w	r3, r3, fp, lsl #5
    46e6:	f3c2 2204 	ubfx	r2, r2, #8, #5
    46ea:	4313      	orrs	r3, r2
    46ec:	f826 3f02 	strh.w	r3, [r6, #2]!
    46f0:	9b07      	ldr	r3, [sp, #28]
    46f2:	4283      	cmp	r3, r0
    46f4:	d1da      	bne.n	46ac <runSpanKernels()+0x144c>
    46f6:	4651      	mov	r1, sl
    46f8:	4b28      	ldr	r3, [pc, #160]	; (479c <runSpanKernels()+0x153c>)
    46fa:	f831 2b02 	ldrh.w	r2, [r1], #2
    46fe:	4053      	eors	r3, r2
    4700:	4a27      	ldr	r2, [pc, #156]	; (47a0 <runSpanKernels()+0x1540>)
    4702:	fb02 f303 	mul.w	r3, r2, r3
    4706:	9a08      	ldr	r2, [sp, #32]
    4708:	428a      	cmp	r2, r1
    470a:	d1f6      	bne.n	46fa <runSpanKernels()+0x149a>
    470c:	3c01      	subs	r4, #1
    470e:	ea85 0503 	eor.w	r5, r5, r3
    4712:	d1be      	bne.n	4692 <runSpanKernels()+0x1432>
    4714:	f001 fe98 	bl	6448 <micros>
    4718:	9b0e      	ldr	r3, [sp, #56]	; 0x38
    471a:	4a22      	ldr	r2, [pc, #136]	; (47a4 <runSpanKernels()+0x1544>)
    471c:	2130      	movs	r1, #48	; 0x30
    471e:	1ac7      	subs	r7, r0, r3
    4720:	4b1c      	ldr	r3, [pc, #112]	; (4794 <runSpanKernels()+0x1534>)
    4722:	a83a      	add	r0, sp, #232	; 0xe8
    4724:	685e      	ldr	r6, [r3, #4]
    4726:	9b0c      	ldr	r3, [sp, #48]	; 0x30
    4728:	1af6      	subs	r6, r6, r3
    472a:	9b1a      	ldr	r3, [sp, #104]	; 0x68
    472c:	9300      	str	r3, [sp, #0]
    472e:	6813      	ldr	r3, [r2, #0]
    4730:	406b      	eors	r3, r5
    4732:	6013      	str	r3, [r2, #0]
    4734:	4643      	mov	r3, r8
    4736:	4a1c      	ldr	r2, [pc, #112]	; (47a8 <runSpanKernels()+0x1548>)
    4738:	f004 fd6e 	bl	9218 <snprintf>
    473c:	f1b8 0f00 	cmp.w	r8, #0
    4740:	f001 8220 	beq.w	5b84 <runSpanKernels()+0x2924>
    4744:	4651      	mov	r1, sl
    4746:	4b15      	ldr	r3, [pc, #84]	; (479c <runSpanKernels()+0x153c>)
    4748:	4815      	ldr	r0, [pc, #84]	; (47a0 <runSpanKernels()+0x1540>)
    474a:	9d08      	ldr	r5, [sp, #32]
    474c:	f831 2b02 	ldrh.w	r2, [r1], #2
    4750:	4053      	eors	r3, r2
    4752:	428d      	cmp	r5, r1
    4754:	fb00 f303 	mul.w	r3, r0, r3
    4758:	d1f8      	bne.n	474c <runSpanKernels()+0x14ec>
    475a:	4915      	ldr	r1, [pc, #84]	; (47b0 <runSpanKernels()+0x1550>)
    475c:	a83a      	add	r0, sp, #232	; 0xe8
    475e:	9303      	str	r3, [sp, #12]
    4760:	f8cd 8008 	str.w	r8, [sp, #8]
    4764:	e9cd 7600 	strd	r7, r6, [sp]
    4768:	9e1c      	ldr	r6, [sp, #112]	; 0x70
    476a:	4431      	add	r1, r6
    476c:	460d      	mov	r5, r1
    476e:	ee09 1a10 	vmov	s18, r1
    4772:	4910      	ldr	r1, [pc, #64]	; (47b4 <runSpanKernels()+0x1554>)
    4774:	e9dd 230a 	ldrd	r2, r3, [sp, #40]	; 0x28
    4778:	f7fc fa84 	bl	c84 <printResult(char const*, char const*, unsigned long, unsigned long, unsigned long, unsigned long, unsigned long, unsigned long, unsigned long, char const*) [clone .constprop.0]>
    477c:	9f1b      	ldr	r7, [sp, #108]	; 0x6c
    477e:	462b      	mov	r3, r5
    4780:	9d0d      	ldr	r5, [sp, #52]	; 0x34
    4782:	4638      	mov	r0, r7
    4784:	4649      	mov	r1, r9
    4786:	462a      	mov	r2, r5
    4788:	f8cd 8000 	str.w	r8, [sp]
    478c:	e018      	b.n	47c0 <runSpanKernels()+0x1560>
    478e:	bf00      	nop
    4790:	2000958c 	.word	0x2000958c
    4794:	e0001000 	.word	0xe0001000
    4798:	200048e8 	.word	0x200048e8
    479c:	811c9dc5 	.word	0x811c9dc5
    47a0:	01000193 	.word	0x01000193
    47a4:	20007138 	.word	0x20007138
    47a8:	200005f8 	.word	0x200005f8
    47ac:	200006c4 	.word	0x200006c4
    47b0:	20002098 	.word	0x20002098
    47b4:	200006ec 	.word	0x200006ec
    47b8:	20005908 	.word	0x20005908
    47bc:	200050f8 	.word	0x200050f8
    47c0:	f7fb fcd0 	bl	164 <spanTriangleRef(unsigned short*, unsigned short const*, unsigned short const*, unsigned short const*, unsigned long)>
    47c4:	462a      	mov	r2, r5
    47c6:	ee19 3a10 	vmov	r3, s18
    47ca:	4649      	mov	r1, r9
    47cc:	4650      	mov	r0, sl
    47ce:	f8cd 8000 	str.w	r8, [sp]
    47d2:	f7fb fcc7 	bl	164 <spanTriangleRef(unsigned short*, unsigned short const*, unsigned short const*, unsigned short const*, unsigned long)>
    47d6:	4aa1      	ldr	r2, [pc, #644]	; (4a5c <runSpanKernels()+0x17fc>)
    47d8:	ee1a 1a10 	vmov	r1, s20
    47dc:	463b      	mov	r3, r7
    47de:	2700      	movs	r7, #0
    47e0:	1855      	adds	r5, r2, r1
    47e2:	9a13      	ldr	r2, [sp, #76]	; 0x4c
    47e4:	4435      	add	r5, r6
    47e6:	f833 1b02 	ldrh.w	r1, [r3], #2
    47ea:	f832 0f02 	ldrh.w	r0, [r2, #2]!
    47ee:	4288      	cmp	r0, r1
    47f0:	bf18      	it	ne
    47f2:	3701      	addne	r7, #1
    47f4:	42ab      	cmp	r3, r5
    47f6:	d1f6      	bne.n	47e6 <runSpanKernels()+0x1586>
    47f8:	fab7 fb87 	clz	fp, r7
    47fc:	ea4f 1b5b 	mov.w	fp, fp, lsr #5
    4800:	4b97      	ldr	r3, [pc, #604]	; (4a60 <runSpanKernels()+0x1800>)
    4802:	2580      	movs	r5, #128	; 0x80
    4804:	4e97      	ldr	r6, [pc, #604]	; (4a64 <runSpanKernels()+0x1804>)
    4806:	685b      	ldr	r3, [r3, #4]
    4808:	930a      	str	r3, [sp, #40]	; 0x28
    480a:	f001 fe1d 	bl	6448 <micros>
    480e:	f8cd b02c 	str.w	fp, [sp, #44]	; 0x2c
    4812:	970c      	str	r7, [sp, #48]	; 0x30
    4814:	4647      	mov	r7, r8
    4816:	f8dd b034 	ldr.w	fp, [sp, #52]	; 0x34
    481a:	ee19 8a10 	vmov	r8, s18
    481e:	9009      	str	r0, [sp, #36]	; 0x24
    4820:	4643      	mov	r3, r8
    4822:	465a      	mov	r2, fp
    4824:	4649      	mov	r1, r9
    4826:	4650      	mov	r0, sl
    4828:	9700      	str	r7, [sp, #0]
    482a:	f7fb fc9b 	bl	164 <spanTriangleRef(unsigned short*, unsigned short const*, unsigned short const*, unsigned short const*, unsigned long)>
    482e:	2f00      	cmp	r7, #0
    4830:	f000 8772 	beq.w	5718 <runSpanKernels()+0x24b8>
    4834:	4652      	mov	r2, sl
    4836:	4b8c      	ldr	r3, [pc, #560]	; (4a68 <runSpanKernels()+0x1808>)
    4838:	f832 1b02 	ldrh.w	r1, [r2], #2
    483c:	404b      	eors	r3, r1
    483e:	9908      	ldr	r1, [sp, #32]
    4840:	4291      	cmp	r1, r2
    4842:	fb06 f303 	mul.w	r3, r6, r3
    4846:	d1f7      	bne.n	4838 <runSpanKernels()+0x15d8>
    4848:	3d01      	subs	r5, #1
    484a:	ea84 0403 	eor.w	r4, r4, r3
    484e:	d1e7      	bne.n	4820 <runSpanKernels()+0x15c0>
    4850:	46b8      	mov	r8, r7
    4852:	e9dd b70b 	ldrd	fp, r7, [sp, #44]	; 0x2c
    4856:	f001 fdf7 	bl	6448 <micros>
    485a:	9b09      	ldr	r3, [sp, #36]	; 0x24
    485c:	4a83      	ldr	r2, [pc, #524]	; (4a6c <runSpanKernels()+0x180c>)
    485e:	2130      	movs	r1, #48	; 0x30
    4860:	1ac3      	subs	r3, r0, r3
    4862:	a83a      	add	r0, sp, #232	; 0xe8
    4864:	9309      	str	r3, [sp, #36]	; 0x24
    4866:	4b7e      	ldr	r3, [pc, #504]	; (4a60 <runSpanKernels()+0x1800>)
    4868:	685e      	ldr	r6, [r3, #4]
    486a:	9b0a      	ldr	r3, [sp, #40]	; 0x28
    486c:	1af6      	subs	r6, r6, r3
    486e:	9b1a      	ldr	r3, [sp, #104]	; 0x68
    4870:	9300      	str	r3, [sp, #0]
    4872:	6813      	ldr	r3, [r2, #0]
    4874:	4063      	eors	r3, r4
    4876:	6013      	str	r3, [r2, #0]
    4878:	4643      	mov	r3, r8
    487a:	4a7d      	ldr	r2, [pc, #500]	; (4a70 <runSpanKernels()+0x1810>)
    487c:	f004 fccc 	bl	9218 <snprintf>
    4880:	f1b8 0f00 	cmp.w	r8, #0
    4884:	f001 80bb 	beq.w	59fe <runSpanKernels()+0x279e>
    4888:	4651      	mov	r1, sl
    488a:	4b77      	ldr	r3, [pc, #476]	; (4a68 <runSpanKernels()+0x1808>)
    488c:	4875      	ldr	r0, [pc, #468]	; (4a64 <runSpanKernels()+0x1804>)
    488e:	9c08      	ldr	r4, [sp, #32]
    4890:	f831 2b02 	ldrh.w	r2, [r1], #2
    4894:	4053      	eors	r3, r2
    4896:	428c      	cmp	r4, r1
    4898:	fb00 f303 	mul.w	r3, r0, r3
    489c:	d1f8      	bne.n	4890 <runSpanKernels()+0x1630>
    489e:	2180      	movs	r1, #128	; 0x80
    48a0:	9304      	str	r3, [sp, #16]
    48a2:	9b09      	ldr	r3, [sp, #36]	; 0x24
    48a4:	465a      	mov	r2, fp
    48a6:	a83a      	add	r0, sp, #232	; 0xe8
    48a8:	9601      	str	r6, [sp, #4]
    48aa:	9300      	str	r3, [sp, #0]
    48ac:	463b      	mov	r3, r7
    48ae:	9102      	str	r1, [sp, #8]
    48b0:	f8cd 800c 	str.w	r8, [sp, #12]
    48b4:	496f      	ldr	r1, [pc, #444]	; (4a74 <runSpanKernels()+0x1814>)
    48b6:	f7fb fddf 	bl	478 <printResult(char const*, char const*, unsigned long, unsigned long, unsigned long, unsigned long, unsigned long, unsigned long, unsigned long, char const*) [clone .constprop.1]>
    48ba:	9c0d      	ldr	r4, [sp, #52]	; 0x34
    48bc:	9e1b      	ldr	r6, [sp, #108]	; 0x6c
    48be:	ee19 3a10 	vmov	r3, s18
    48c2:	4622      	mov	r2, r4
    48c4:	4649      	mov	r1, r9
    48c6:	4630      	mov	r0, r6
    48c8:	f8cd 8000 	str.w	r8, [sp]
    48cc:	f7fb fc4a 	bl	164 <spanTriangleRef(unsigned short*, unsigned short const*, unsigned short const*, unsigned short const*, unsigned long)>
    48d0:	4622      	mov	r2, r4
    48d2:	ee19 3a10 	vmov	r3, s18
    48d6:	4649      	mov	r1, r9
    48d8:	4650      	mov	r0, sl
    48da:	f8cd 8000 	str.w	r8, [sp]
    48de:	f7fb fc8f 	bl	200 <spanTrianglePacked(unsigned short*, unsigned short const*, unsigned short const*, unsigned short const*, unsigned long)>
    48e2:	4a5e      	ldr	r2, [pc, #376]	; (4a5c <runSpanKernels()+0x17fc>)
    48e4:	ee1a 1a10 	vmov	r1, s20
    48e8:	4633      	mov	r3, r6
    48ea:	2600      	movs	r6, #0
    48ec:	1854      	adds	r4, r2, r1
    48ee:	9a1c      	ldr	r2, [sp, #112]	; 0x70
    48f0:	4414      	add	r4, r2
    48f2:	9a13      	ldr	r2, [sp, #76]	; 0x4c
    48f4:	f833 1b02 	ldrh.w	r1, [r3], #2
    48f8:	f832 0f02 	ldrh.w	r0, [r2, #2]!
    48fc:	4288      	cmp	r0, r1
    48fe:	bf18      	it	ne
    4900:	3601      	addne	r6, #1
    4902:	42a3      	cmp	r3, r4
    4904:	d1f6      	bne.n	48f4 <runSpanKernels()+0x1694>
    4906:	fab6 f386 	clz	r3, r6
    490a:	095b      	lsrs	r3, r3, #5
    490c:	9309      	str	r3, [sp, #36]	; 0x24
    490e:	4b54      	ldr	r3, [pc, #336]	; (4a60 <runSpanKernels()+0x1800>)
    4910:	2780      	movs	r7, #128	; 0x80
    4912:	4c54      	ldr	r4, [pc, #336]	; (4a64 <runSpanKernels()+0x1804>)
    4914:	685b      	ldr	r3, [r3, #4]
    4916:	930a      	str	r3, [sp, #40]	; 0x28
    4918:	f001 fd96 	bl	6448 <micros>
    491c:	960c      	str	r6, [sp, #48]	; 0x30
    491e:	4646      	mov	r6, r8
    4920:	f8dd b034 	ldr.w	fp, [sp, #52]	; 0x34
    4924:	ee19 8a10 	vmov	r8, s18
    4928:	900b      	str	r0, [sp, #44]	; 0x2c
    492a:	4643      	mov	r3, r8
    492c:	465a      	mov	r2, fp
    492e:	4649      	mov	r1, r9
    4930:	4650      	mov	r0, sl
    4932:	9600      	str	r6, [sp, #0]
    4934:	f7fb fc64 	bl	200 <spanTrianglePacked(unsigned short*, unsigned short const*, unsigned short const*, unsigned short const*, unsigned long)>
    4938:	2e00      	cmp	r6, #0
    493a:	f000 86e5 	beq.w	5708 <runSpanKernels()+0x24a8>
    493e:	4652      	mov	r2, sl
    4940:	4b49      	ldr	r3, [pc, #292]	; (4a68 <runSpanKernels()+0x1808>)
    4942:	f832 1b02 	ldrh.w	r1, [r2], #2
    4946:	404b      	eors	r3, r1
    4948:	9908      	ldr	r1, [sp, #32]
    494a:	4291      	cmp	r1, r2
    494c:	fb04 f303 	mul.w	r3, r4, r3
    4950:	d1f7      	bne.n	4942 <runSpanKernels()+0x16e2>
    4952:	3f01      	subs	r7, #1
    4954:	ea85 0503 	eor.w	r5, r5, r3
    4958:	d1e7      	bne.n	492a <runSpanKernels()+0x16ca>
    495a:	46b0      	mov	r8, r6
    495c:	e9dd b60b 	ldrd	fp, r6, [sp, #44]	; 0x2c
    4960:	f001 fd72 	bl	6448 <micros>
    4964:	4b3e      	ldr	r3, [pc, #248]	; (4a60 <runSpanKernels()+0x1800>)
    4966:	4a41      	ldr	r2, [pc, #260]	; (4a6c <runSpanKernels()+0x180c>)
    4968:	eba0 0b0b 	sub.w	fp, r0, fp
    496c:	685c      	ldr	r4, [r3, #4]
    496e:	2130      	movs	r1, #48	; 0x30
    4970:	9b0a      	ldr	r3, [sp, #40]	; 0x28
    4972:	a83a      	add	r0, sp, #232	; 0xe8
    4974:	1ae4      	subs	r4, r4, r3
    4976:	9b1a      	ldr	r3, [sp, #104]	; 0x68
    4978:	9300      	str	r3, [sp, #0]
    497a:	6813      	ldr	r3, [r2, #0]
    497c:	406b      	eors	r3, r5
    497e:	6013      	str	r3, [r2, #0]
    4980:	4643      	mov	r3, r8
    4982:	4a3b      	ldr	r2, [pc, #236]	; (4a70 <runSpanKernels()+0x1810>)
    4984:	f004 fc48 	bl	9218 <snprintf>
    4988:	f1b8 0f00 	cmp.w	r8, #0
    498c:	f001 8011 	beq.w	59b2 <runSpanKernels()+0x2752>
    4990:	4651      	mov	r1, sl
    4992:	4b35      	ldr	r3, [pc, #212]	; (4a68 <runSpanKernels()+0x1808>)
    4994:	4833      	ldr	r0, [pc, #204]	; (4a64 <runSpanKernels()+0x1804>)
    4996:	9d08      	ldr	r5, [sp, #32]
    4998:	f831 2b02 	ldrh.w	r2, [r1], #2
    499c:	4053      	eors	r3, r2
    499e:	428d      	cmp	r5, r1
    49a0:	fb00 f303 	mul.w	r3, r0, r3
    49a4:	d1f8      	bne.n	4998 <runSpanKernels()+0x1738>
    49a6:	2180      	movs	r1, #128	; 0x80
    49a8:	9a09      	ldr	r2, [sp, #36]	; 0x24
    49aa:	a83a      	add	r0, sp, #232	; 0xe8
    49ac:	9304      	str	r3, [sp, #16]
    49ae:	9102      	str	r1, [sp, #8]
    49b0:	4633      	mov	r3, r6
    49b2:	4931      	ldr	r1, [pc, #196]	; (4a78 <runSpanKernels()+0x1818>)
    49b4:	f8cd 800c 	str.w	r8, [sp, #12]
    49b8:	e9cd b400 	strd	fp, r4, [sp]
    49bc:	f7fb fd5c 	bl	478 <printResult(char const*, char const*, unsigned long, unsigned long, unsigned long, unsigned long, unsigned long, unsigned long, unsigned long, char const*) [clone .constprop.1]>
    49c0:	9c0d      	ldr	r4, [sp, #52]	; 0x34
    49c2:	9d1b      	ldr	r5, [sp, #108]	; 0x6c
    49c4:	ee19 3a10 	vmov	r3, s18
    49c8:	4622      	mov	r2, r4
    49ca:	4649      	mov	r1, r9
    49cc:	4628      	mov	r0, r5
    49ce:	f8cd 8000 	str.w	r8, [sp]
    49d2:	f7fb fbc7 	bl	164 <spanTriangleRef(unsigned short*, unsigned short const*, unsigned short const*, unsigned short const*, unsigned long)>
    49d6:	4622      	mov	r2, r4
    49d8:	ee19 3a10 	vmov	r3, s18
    49dc:	4649      	mov	r1, r9
    49de:	4650      	mov	r0, sl
    49e0:	f8cd 8000 	str.w	r8, [sp]
    49e4:	f7fb fc5a 	bl	29c <spanTriangleScalar(unsigned short*, unsigned short const*, unsigned short const*, unsigned short const*, unsigned long)>
    49e8:	4a1c      	ldr	r2, [pc, #112]	; (4a5c <runSpanKernels()+0x17fc>)
    49ea:	ee1a 1a10 	vmov	r1, s20
    49ee:	462b      	mov	r3, r5
    49f0:	2500      	movs	r5, #0
    49f2:	1854      	adds	r4, r2, r1
    49f4:	9a1c      	ldr	r2, [sp, #112]	; 0x70
    49f6:	4414      	add	r4, r2
    49f8:	9a13      	ldr	r2, [sp, #76]	; 0x4c
    49fa:	f833 1b02 	ldrh.w	r1, [r3], #2
    49fe:	f832 0f02 	ldrh.w	r0, [r2, #2]!
    4a02:	4288      	cmp	r0, r1
    4a04:	bf18      	it	ne
    4a06:	3501      	addne	r5, #1
    4a08:	42a3      	cmp	r3, r4
    4a0a:	d1f6      	bne.n	49fa <runSpanKernels()+0x179a>
    4a0c:	fab5 f385 	clz	r3, r5
    4a10:	9517      	str	r5, [sp, #92]	; 0x5c
    4a12:	095b      	lsrs	r3, r3, #5
    4a14:	9312      	str	r3, [sp, #72]	; 0x48
    4a16:	4b12      	ldr	r3, [pc, #72]	; (4a60 <runSpanKernels()+0x1800>)
    4a18:	685b      	ldr	r3, [r3, #4]
    4a1a:	9318      	str	r3, [sp, #96]	; 0x60
    4a1c:	f001 fd14 	bl	6448 <micros>
    4a20:	2280      	movs	r2, #128	; 0x80
    4a22:	9023      	str	r0, [sp, #140]	; 0x8c
    4a24:	f8cd 8030 	str.w	r8, [sp, #48]	; 0x30
    4a28:	f8cd 9038 	str.w	r9, [sp, #56]	; 0x38
    4a2c:	9b0c      	ldr	r3, [sp, #48]	; 0x30
    4a2e:	2b00      	cmp	r3, #0
    4a30:	f000 8662 	beq.w	56f8 <runSpanKernels()+0x2498>
    4a34:	9b0e      	ldr	r3, [sp, #56]	; 0x38
    4a36:	f1aa 0e02 	sub.w	lr, sl, #2
    4a3a:	f1a3 0c02 	sub.w	ip, r3, #2
    4a3e:	4b0f      	ldr	r3, [pc, #60]	; (4a7c <runSpanKernels()+0x181c>)
    4a40:	9309      	str	r3, [sp, #36]	; 0x24
    4a42:	9b0d      	ldr	r3, [sp, #52]	; 0x34
    4a44:	f1a3 0902 	sub.w	r9, r3, #2
    4a48:	4b0d      	ldr	r3, [pc, #52]	; (4a80 <runSpanKernels()+0x1820>)
    4a4a:	930a      	str	r3, [sp, #40]	; 0x28
    4a4c:	ee19 3a10 	vmov	r3, s18
    4a50:	f1a3 0802 	sub.w	r8, r3, #2
    4a54:	4b0b      	ldr	r3, [pc, #44]	; (4a84 <runSpanKernels()+0x1824>)
    4a56:	930b      	str	r3, [sp, #44]	; 0x2c
    4a58:	e016      	b.n	4a88 <runSpanKernels()+0x1828>
    4a5a:	bf00      	nop
    4a5c:	2000958c 	.word	0x2000958c
    4a60:	e0001000 	.word	0xe0001000
    4a64:	01000193 	.word	0x01000193
    4a68:	811c9dc5 	.word	0x811c9dc5
    4a6c:	20007138 	.word	0x20007138
    4a70:	20000614 	.word	0x20000614
    4a74:	200006c4 	.word	0x200006c4
    4a78:	200006d8 	.word	0x200006d8
    4a7c:	200038c8 	.word	0x200038c8
    4a80:	200040d8 	.word	0x200040d8
    4a84:	20006928 	.word	0x20006928
    4a88:	9b09      	ldr	r3, [sp, #36]	; 0x24
    4a8a:	990a      	ldr	r1, [sp, #40]	; 0x28
    4a8c:	f853 0b04 	ldr.w	r0, [r3], #4
    4a90:	9c0b      	ldr	r4, [sp, #44]	; 0x2c
    4a92:	9309      	str	r3, [sp, #36]	; 0x24
    4a94:	0140      	lsls	r0, r0, #5
    4a96:	f851 3b04 	ldr.w	r3, [r1], #4
    4a9a:	f838 5f02 	ldrh.w	r5, [r8, #2]!
    4a9e:	015b      	lsls	r3, r3, #5
    4aa0:	910a      	str	r1, [sp, #40]	; 0x28
    4aa2:	f854 1b04 	ldr.w	r1, [r4], #4
    4aa6:	fb93 f3f1 	sdiv	r3, r3, r1
    4aaa:	940b      	str	r4, [sp, #44]	; 0x2c
    4aac:	f839 4f02 	ldrh.w	r4, [r9, #2]!
    4ab0:	fb90 f0f1 	sdiv	r0, r0, r1
    4ab4:	0ae6      	lsrs	r6, r4, #11
    4ab6:	f83c 1f02 	ldrh.w	r1, [ip, #2]!
    4aba:	f3c4 1b45 	ubfx	fp, r4, #5, #6
    4abe:	f004 041f 	and.w	r4, r4, #31
    4ac2:	fb03 f606 	mul.w	r6, r3, r6
    4ac6:	fb03 fb0b 	mul.w	fp, r3, fp
    4aca:	9611      	str	r6, [sp, #68]	; 0x44
    4acc:	f1c0 0620 	rsb	r6, r0, #32
    4ad0:	fb03 f404 	mul.w	r4, r3, r4
    4ad4:	1af6      	subs	r6, r6, r3
    4ad6:	f3c1 1345 	ubfx	r3, r1, #5, #6
    4ada:	fb00 b303 	mla	r3, r0, r3, fp
    4ade:	ea4f 2bd1 	mov.w	fp, r1, lsr #11
    4ae2:	f001 011f 	and.w	r1, r1, #31
    4ae6:	9310      	str	r3, [sp, #64]	; 0x40
    4ae8:	9b11      	ldr	r3, [sp, #68]	; 0x44
    4aea:	fb00 4101 	mla	r1, r0, r1, r4
    4aee:	fb00 3b0b 	mla	fp, r0, fp, r3
    4af2:	f3c5 1045 	ubfx	r0, r5, #5, #6
    4af6:	9b10      	ldr	r3, [sp, #64]	; 0x40
    4af8:	fb06 3300 	mla	r3, r6, r0, r3
    4afc:	0ae8      	lsrs	r0, r5, #11
    4afe:	f005 051f 	and.w	r5, r5, #31
    4b02:	fb06 bb00 	mla	fp, r6, r0, fp
    4b06:	f403 63fc 	and.w	r3, r3, #2016	; 0x7e0
    4b0a:	fb06 1105 	mla	r1, r6, r5, r1
    4b0e:	f3cb 1b44 	ubfx	fp, fp, #5, #5
    4b12:	f3c1 1144 	ubfx	r1, r1, #5, #5
    4b16:	ea43 23cb 	orr.w	r3, r3, fp, lsl #11
    4b1a:	430b      	orrs	r3, r1
    4b1c:	f82e 3f02 	strh.w	r3, [lr, #2]!
    4b20:	9b07      	ldr	r3, [sp, #28]
    4b22:	4563      	cmp	r3, ip
    4b24:	d1b0      	bne.n	4a88 <runSpanKernels()+0x1828>
    4b26:	4650      	mov	r0, sl
    4b28:	4bb7      	ldr	r3, [pc, #732]	; (4e08 <runSpanKernels()+0x1ba8>)
    4b2a:	f830 1b02 	ldrh.w	r1, [r0], #2
    4b2e:	404b      	eors	r3, r1
    4b30:	49b6      	ldr	r1, [pc, #728]	; (4e0c <runSpanKernels()+0x1bac>)
    4b32:	fb01 f303 	mul.w	r3, r1, r3
    4b36:	9908      	ldr	r1, [sp, #32]
    4b38:	4281      	cmp	r1, r0
    4b3a:	d1f6      	bne.n	4b2a <runSpanKernels()+0x18ca>
    4b3c:	3a01      	subs	r2, #1
    4b3e:	ea87 0703 	eor.w	r7, r7, r3
    4b42:	f47f af73 	bne.w	4a2c <runSpanKernels()+0x17cc>
    4b46:	f8dd 8030 	ldr.w	r8, [sp, #48]	; 0x30
    4b4a:	f8dd 9038 	ldr.w	r9, [sp, #56]	; 0x38
    4b4e:	920c      	str	r2, [sp, #48]	; 0x30
    4b50:	f001 fc7a 	bl	6448 <micros>
    4b54:	9b23      	ldr	r3, [sp, #140]	; 0x8c
    4b56:	2130      	movs	r1, #48	; 0x30
    4b58:	4aad      	ldr	r2, [pc, #692]	; (4e10 <runSpanKernels()+0x1bb0>)
    4b5a:	1ac5      	subs	r5, r0, r3
    4b5c:	4bad      	ldr	r3, [pc, #692]	; (4e14 <runSpanKernels()+0x1bb4>)
    4b5e:	a83a      	add	r0, sp, #232	; 0xe8
    4b60:	685c      	ldr	r4, [r3, #4]
    4b62:	9b18      	ldr	r3, [sp, #96]	; 0x60
    4b64:	1ae4      	subs	r4, r4, r3
    4b66:	9b1a      	ldr	r3, [sp, #104]	; 0x68
    4b68:	9300      	str	r3, [sp, #0]
    4b6a:	6813      	ldr	r3, [r2, #0]
    4b6c:	407b      	eors	r3, r7
    4b6e:	6013      	str	r3, [r2, #0]
    4b70:	4643      	mov	r3, r8
    4b72:	4aa9      	ldr	r2, [pc, #676]	; (4e18 <runSpanKernels()+0x1bb8>)
    4b74:	f004 fb50 	bl	9218 <snprintf>
    4b78:	f1b8 0f00 	cmp.w	r8, #0
    4b7c:	f000 86b6 	beq.w	58ec <runSpanKernels()+0x268c>
    4b80:	4651      	mov	r1, sl
    4b82:	4ba1      	ldr	r3, [pc, #644]	; (4e08 <runSpanKernels()+0x1ba8>)
    4b84:	48a1      	ldr	r0, [pc, #644]	; (4e0c <runSpanKernels()+0x1bac>)
    4b86:	9e08      	ldr	r6, [sp, #32]
    4b88:	f831 2b02 	ldrh.w	r2, [r1], #2
    4b8c:	4053      	eors	r3, r2
    4b8e:	428e      	cmp	r6, r1
    4b90:	fb00 f303 	mul.w	r3, r0, r3
    4b94:	d1f8      	bne.n	4b88 <runSpanKernels()+0x1928>
    4b96:	2180      	movs	r1, #128	; 0x80
    4b98:	9a12      	ldr	r2, [sp, #72]	; 0x48
    4b9a:	a83a      	add	r0, sp, #232	; 0xe8
    4b9c:	9304      	str	r3, [sp, #16]
    4b9e:	9102      	str	r1, [sp, #8]
    4ba0:	499e      	ldr	r1, [pc, #632]	; (4e1c <runSpanKernels()+0x1bbc>)
    4ba2:	9b17      	ldr	r3, [sp, #92]	; 0x5c
    4ba4:	f8cd 800c 	str.w	r8, [sp, #12]
    4ba8:	e9cd 5400 	strd	r5, r4, [sp]
    4bac:	9d1c      	ldr	r5, [sp, #112]	; 0x70
    4bae:	194c      	adds	r4, r1, r5
    4bb0:	499b      	ldr	r1, [pc, #620]	; (4e20 <runSpanKernels()+0x1bc0>)
    4bb2:	9411      	str	r4, [sp, #68]	; 0x44
    4bb4:	f7fb fc60 	bl	478 <printResult(char const*, char const*, unsigned long, unsigned long, unsigned long, unsigned long, unsigned long, unsigned long, unsigned long, char const*) [clone .constprop.1]>
    4bb8:	9f0d      	ldr	r7, [sp, #52]	; 0x34
    4bba:	ee19 3a10 	vmov	r3, s18
    4bbe:	9e1b      	ldr	r6, [sp, #108]	; 0x6c
    4bc0:	4649      	mov	r1, r9
    4bc2:	463a      	mov	r2, r7
    4bc4:	4630      	mov	r0, r6
    4bc6:	e9cd 4800 	strd	r4, r8, [sp]
    4bca:	f7fb fbcd 	bl	368 <spanBilinearRef(unsigned short*, unsigned short const*, unsigned short const*, unsigned short const*, unsigned short const*, unsigned long)>
    4bce:	ee19 3a10 	vmov	r3, s18
    4bd2:	463a      	mov	r2, r7
    4bd4:	4649      	mov	r1, r9
    4bd6:	4650      	mov	r0, sl
    4bd8:	e9cd 4800 	strd	r4, r8, [sp]
    4bdc:	f7fb fbc4 	bl	368 <spanBilinearRef(unsigned short*, unsigned short const*, unsigned short const*, unsigned short const*, unsigned short const*, unsigned long)>
    4be0:	4a90      	ldr	r2, [pc, #576]	; (4e24 <runSpanKernels()+0x1bc4>)
    4be2:	ee1a 1a10 	vmov	r1, s20
    4be6:	4633      	mov	r3, r6
    4be8:	1854      	adds	r4, r2, r1
    4bea:	9a13      	ldr	r2, [sp, #76]	; 0x4c
    4bec:	442c      	add	r4, r5
    4bee:	2500      	movs	r5, #0
    4bf0:	f833 1b02 	ldrh.w	r1, [r3], #2
    4bf4:	f832 0f02 	ldrh.w	r0, [r2, #2]!
    4bf8:	4288      	cmp	r0, r1
    4bfa:	bf18      	it	ne
    4bfc:	3501      	addne	r5, #1
    4bfe:	42a3      	cmp	r3, r4
    4c00:	d1f6      	bne.n	4bf0 <runSpanKernels()+0x1990>
    4c02:	fab5 f385 	clz	r3, r5
    4c06:	9518      	str	r5, [sp, #96]	; 0x60
    4c08:	095b      	lsrs	r3, r3, #5
    4c0a:	9323      	str	r3, [sp, #140]	; 0x8c
    4c0c:	4b81      	ldr	r3, [pc, #516]	; (4e14 <runSpanKernels()+0x1bb4>)
    4c0e:	685b      	ldr	r3, [r3, #4]
    4c10:	9326      	str	r3, [sp, #152]	; 0x98
    4c12:	f001 fc19 	bl	6448 <micros>
    4c16:	2340      	movs	r3, #64	; 0x40
    4c18:	902b      	str	r0, [sp, #172]	; 0xac
    4c1a:	f8cd 8048 	str.w	r8, [sp, #72]	; 0x48
    4c1e:	930e      	str	r3, [sp, #56]	; 0x38
    4c20:	f8cd 905c 	str.w	r9, [sp, #92]	; 0x5c
    4c24:	f8cd a040 	str.w	sl, [sp, #64]	; 0x40
    4c28:	9b12      	ldr	r3, [sp, #72]	; 0x48
    4c2a:	2b00      	cmp	r3, #0
    4c2c:	f000 85de 	beq.w	57ec <runSpanKernels()+0x258c>
    4c30:	9b17      	ldr	r3, [sp, #92]	; 0x5c
    4c32:	f1a3 0c02 	sub.w	ip, r3, #2
    4c36:	9b0d      	ldr	r3, [sp, #52]	; 0x34
    4c38:	f1a3 0902 	sub.w	r9, r3, #2
    4c3c:	ee19 3a10 	vmov	r3, s18
    4c40:	f1a3 0802 	sub.w	r8, r3, #2
    4c44:	9b11      	ldr	r3, [sp, #68]	; 0x44
    4c46:	3b02      	subs	r3, #2
    4c48:	930a      	str	r3, [sp, #40]	; 0x28
    4c4a:	4b77      	ldr	r3, [pc, #476]	; (4e28 <runSpanKernels()+0x1bc8>)
    4c4c:	930b      	str	r3, [sp, #44]	; 0x2c
    4c4e:	4b77      	ldr	r3, [pc, #476]	; (4e2c <runSpanKernels()+0x1bcc>)
    4c50:	9309      	str	r3, [sp, #36]	; 0x24
    4c52:	9b10      	ldr	r3, [sp, #64]	; 0x40
    4c54:	f1a3 0e02 	sub.w	lr, r3, #2
    4c58:	9b09      	ldr	r3, [sp, #36]	; 0x24
    4c5a:	9a0a      	ldr	r2, [sp, #40]	; 0x28
    4c5c:	ecb3 7a01 	vldmia	r3!, {s14}
    4c60:	f839 bf02 	ldrh.w	fp, [r9, #2]!
    4c64:	eef0 6a47 	vmov.f32	s13, s14
    4c68:	9309      	str	r3, [sp, #36]	; 0x24
    4c6a:	9b0b      	ldr	r3, [sp, #44]	; 0x2c
    4c6c:	f3cb 1145 	ubfx	r1, fp, #5, #6
    4c70:	f838 7f02 	ldrh.w	r7, [r8, #2]!
    4c74:	ecf3 7a01 	vldmia	r3!, {s15}
    4c78:	eefe 6acc 	vcvt.s32.f32	s13, s13, #8
    4c7c:	f3c7 1645 	ubfx	r6, r7, #5, #6
    4c80:	f83c 5f02 	ldrh.w	r5, [ip, #2]!
    4c84:	930b      	str	r3, [sp, #44]	; 0x2c
    4c86:	eeb0 7a67 	vmov.f32	s14, s15
    4c8a:	f832 3f02 	ldrh.w	r3, [r2, #2]!
    4c8e:	f3c3 1045 	ubfx	r0, r3, #5, #6
    4c92:	920a      	str	r2, [sp, #40]	; 0x28
    4c94:	ee16 2a90 	vmov	r2, s13
    4c98:	f003 0a1f 	and.w	sl, r3, #31
    4c9c:	0adb      	lsrs	r3, r3, #11
    4c9e:	eebe 7acc 	vcvt.s32.f32	s14, s14, #8
    4ca2:	f5c2 7480 	rsb	r4, r2, #256	; 0x100
    4ca6:	fb02 f000 	mul.w	r0, r2, r0
    4caa:	fb02 fa0a 	mul.w	sl, r2, sl
    4cae:	fb04 0001 	mla	r0, r4, r1, r0
    4cb2:	f007 011f 	and.w	r1, r7, #31
    4cb6:	0aff      	lsrs	r7, r7, #11
    4cb8:	fb02 f303 	mul.w	r3, r2, r3
    4cbc:	fb02 f606 	mul.w	r6, r2, r6
    4cc0:	fb02 f101 	mul.w	r1, r2, r1
    4cc4:	fb02 f707 	mul.w	r7, r2, r7
    4cc8:	f00b 021f 	and.w	r2, fp, #31
    4ccc:	ea4f 2bdb 	mov.w	fp, fp, lsr #11
    4cd0:	fb04 aa02 	mla	sl, r4, r2, sl
    4cd4:	ee17 2a10 	vmov	r2, s14
    4cd8:	fb04 330b 	mla	r3, r4, fp, r3
    4cdc:	f3c5 1b45 	ubfx	fp, r5, #5, #6
    4ce0:	fb02 f000 	mul.w	r0, r2, r0
    4ce4:	fb02 fa0a 	mul.w	sl, r2, sl
    4ce8:	fb02 f303 	mul.w	r3, r2, r3
    4cec:	f5c2 7280 	rsb	r2, r2, #256	; 0x100
    4cf0:	fb04 660b 	mla	r6, r4, fp, r6
    4cf4:	fb02 0006 	mla	r0, r2, r6, r0
    4cf8:	f005 061f 	and.w	r6, r5, #31
    4cfc:	0aed      	lsrs	r5, r5, #11
    4cfe:	fb04 1106 	mla	r1, r4, r6, r1
    4d02:	f3c0 4005 	ubfx	r0, r0, #16, #6
    4d06:	fb04 7705 	mla	r7, r4, r5, r7
    4d0a:	fb02 a101 	mla	r1, r2, r1, sl
    4d0e:	fb02 3307 	mla	r3, r2, r7, r3
    4d12:	f3c1 4104 	ubfx	r1, r1, #16, #5
    4d16:	141b      	asrs	r3, r3, #16
    4d18:	ea41 1140 	orr.w	r1, r1, r0, lsl #5
    4d1c:	ea41 21c3 	orr.w	r1, r1, r3, lsl #11
    4d20:	9b07      	ldr	r3, [sp, #28]
    4d22:	459c      	cmp	ip, r3
    4d24:	f82e 1f02 	strh.w	r1, [lr, #2]!
    4d28:	d196      	bne.n	4c58 <runSpanKernels()+0x19f8>
    4d2a:	9910      	ldr	r1, [sp, #64]	; 0x40
    4d2c:	4b36      	ldr	r3, [pc, #216]	; (4e08 <runSpanKernels()+0x1ba8>)
    4d2e:	9808      	ldr	r0, [sp, #32]
    4d30:	f831 2b02 	ldrh.w	r2, [r1], #2
    4d34:	4053      	eors	r3, r2
    4d36:	4281      	cmp	r1, r0
    4d38:	4a34      	ldr	r2, [pc, #208]	; (4e0c <runSpanKernels()+0x1bac>)
    4d3a:	fb02 f303 	mul.w	r3, r2, r3
    4d3e:	d1f7      	bne.n	4d30 <runSpanKernels()+0x1ad0>
    4d40:	9a0c      	ldr	r2, [sp, #48]	; 0x30
    4d42:	405a      	eors	r2, r3
    4d44:	9b0e      	ldr	r3, [sp, #56]	; 0x38
    4d46:	3b01      	subs	r3, #1
    4d48:	920c      	str	r2, [sp, #48]	; 0x30
    4d4a:	930e      	str	r3, [sp, #56]	; 0x38
    4d4c:	f47f af6c 	bne.w	4c28 <runSpanKernels()+0x19c8>
    4d50:	f8dd 8048 	ldr.w	r8, [sp, #72]	; 0x48
    4d54:	f8dd 905c 	ldr.w	r9, [sp, #92]	; 0x5c
    4d58:	f8dd a040 	ldr.w	sl, [sp, #64]	; 0x40
    4d5c:	f001 fb74 	bl	6448 <micros>
    4d60:	9b2b      	ldr	r3, [sp, #172]	; 0xac
    4d62:	4a2b      	ldr	r2, [pc, #172]	; (4e10 <runSpanKernels()+0x1bb0>)
    4d64:	1ac5      	subs	r5, r0, r3
    4d66:	4b2b      	ldr	r3, [pc, #172]	; (4e14 <runSpanKernels()+0x1bb4>)
    4d68:	990c      	ldr	r1, [sp, #48]	; 0x30
    4d6a:	a83a      	add	r0, sp, #232	; 0xe8
    4d6c:	685c      	ldr	r4, [r3, #4]
    4d6e:	9b26      	ldr	r3, [sp, #152]	; 0x98
    4d70:	1ae4      	subs	r4, r4, r3
    4d72:	9b1a      	ldr	r3, [sp, #104]	; 0x68
    4d74:	9300      	str	r3, [sp, #0]
    4d76:	6813      	ldr	r3, [r2, #0]
    4d78:	4059      	eors	r1, r3
    4d7a:	4643      	mov	r3, r8
    4d7c:	6011      	str	r1, [r2, #0]
    4d7e:	2130      	movs	r1, #48	; 0x30
    4d80:	4a2b      	ldr	r2, [pc, #172]	; (4e30 <runSpanKernels()+0x1bd0>)
    4d82:	f004 fa49 	bl	9218 <snprintf>
    4d86:	f1b8 0f00 	cmp.w	r8, #0
    4d8a:	f000 85f4 	beq.w	5976 <runSpanKernels()+0x2716>
    4d8e:	4651      	mov	r1, sl
    4d90:	4b1d      	ldr	r3, [pc, #116]	; (4e08 <runSpanKernels()+0x1ba8>)
    4d92:	481e      	ldr	r0, [pc, #120]	; (4e0c <runSpanKernels()+0x1bac>)
    4d94:	9e08      	ldr	r6, [sp, #32]
    4d96:	f831 2b02 	ldrh.w	r2, [r1], #2
    4d9a:	4053      	eors	r3, r2
    4d9c:	42b1      	cmp	r1, r6
    4d9e:	fb00 f303 	mul.w	r3, r0, r3
    4da2:	d1f8      	bne.n	4d96 <runSpanKernels()+0x1b36>
    4da4:	2140      	movs	r1, #64	; 0x40
    4da6:	9a23      	ldr	r2, [sp, #140]	; 0x8c
    4da8:	a83a      	add	r0, sp, #232	; 0xe8
    4daa:	9304      	str	r3, [sp, #16]
    4dac:	f8cd 800c 	str.w	r8, [sp, #12]
    4db0:	ee19 6a10 	vmov	r6, s18
    4db4:	9b18      	ldr	r3, [sp, #96]	; 0x60
    4db6:	9102      	str	r1, [sp, #8]
    4db8:	491e      	ldr	r1, [pc, #120]	; (4e34 <runSpanKernels()+0x1bd4>)
    4dba:	e9cd 5400 	strd	r5, r4, [sp]
    4dbe:	f7fb fb5b 	bl	478 <printResult(char const*, char const*, unsigned long, unsigned long, unsigned long, unsigned long, unsigned long, unsigned long, unsigned long, char const*) [clone .constprop.1]>
    4dc2:	9c11      	ldr	r4, [sp, #68]	; 0x44
    4dc4:	9d0d      	ldr	r5, [sp, #52]	; 0x34
    4dc6:	4649      	mov	r1, r9
    4dc8:	ee19 3a10 	vmov	r3, s18
    4dcc:	f8cd 8004 	str.w	r8, [sp, #4]
    4dd0:	462a      	mov	r2, r5
    4dd2:	981b      	ldr	r0, [sp, #108]	; 0x6c
    4dd4:	9400      	str	r4, [sp, #0]
    4dd6:	f7fb fac7 	bl	368 <spanBilinearRef(unsigned short*, unsigned short const*, unsigned short const*, unsigned short const*, unsigned short const*, unsigned long)>
    4dda:	1eb3      	subs	r3, r6, #2
    4ddc:	1eaa      	subs	r2, r5, #2
    4dde:	f1a9 0102 	sub.w	r1, r9, #2
    4de2:	930a      	str	r3, [sp, #40]	; 0x28
    4de4:	1ea3      	subs	r3, r4, #2
    4de6:	9209      	str	r2, [sp, #36]	; 0x24
    4de8:	f1aa 0202 	sub.w	r2, sl, #2
    4dec:	930b      	str	r3, [sp, #44]	; 0x2c
    4dee:	4b0e      	ldr	r3, [pc, #56]	; (4e28 <runSpanKernels()+0x1bc8>)
    4df0:	f8cd 8040 	str.w	r8, [sp, #64]	; 0x40
    4df4:	4688      	mov	r8, r1
    4df6:	930c      	str	r3, [sp, #48]	; 0x30
    4df8:	4b0c      	ldr	r3, [pc, #48]	; (4e2c <runSpanKernels()+0x1bcc>)
    4dfa:	f8cd 9048 	str.w	r9, [sp, #72]	; 0x48
    4dfe:	4691      	mov	r9, r2
    4e00:	f8cd a05c 	str.w	sl, [sp, #92]	; 0x5c
    4e04:	469a      	mov	sl, r3
    4e06:	e017      	b.n	4e38 <runSpanKernels()+0x1bd8>
    4e08:	811c9dc5 	.word	0x811c9dc5
    4e0c:	01000193 	.word	0x01000193
    4e10:	20007138 	.word	0x20007138
    4e14:	e0001000 	.word	0xe0001000
    4e18:	20000614 	.word	0x20000614
    4e1c:	200024a0 	.word	0x200024a0
    4e20:	200006ac 	.word	0x200006ac
    4e24:	2000958c 	.word	0x2000958c
    4e28:	200028a8 	.word	0x200028a8
    4e2c:	200030b8 	.word	0x200030b8
    4e30:	2000062c 	.word	0x2000062c
    4e34:	200006c4 	.word	0x200006c4
    4e38:	9b0c      	ldr	r3, [sp, #48]	; 0x30
    4e3a:	ecba 7a01 	vldmia	sl!, {s14}
    4e3e:	ecf3 7a01 	vldmia	r3!, {s15}
    4e42:	eef0 6a47 	vmov.f32	s13, s14
    4e46:	f838 7f02 	ldrh.w	r7, [r8, #2]!
    4e4a:	930c      	str	r3, [sp, #48]	; 0x30
    4e4c:	eeb0 7a67 	vmov.f32	s14, s15
    4e50:	9b0b      	ldr	r3, [sp, #44]	; 0x2c
    4e52:	eefe 6acc 	vcvt.s32.f32	s13, s13, #8
    4e56:	f833 5f02 	ldrh.w	r5, [r3, #2]!
    4e5a:	eebe 7acc 	vcvt.s32.f32	s14, s14, #8
    4e5e:	930b      	str	r3, [sp, #44]	; 0x2c
    4e60:	ee16 ba90 	vmov	fp, s13
    4e64:	9b09      	ldr	r3, [sp, #36]	; 0x24
    4e66:	0ae9      	lsrs	r1, r5, #11
    4e68:	f3c5 1e45 	ubfx	lr, r5, #5, #6
    4e6c:	f005 051f 	and.w	r5, r5, #31
    4e70:	f833 4f02 	ldrh.w	r4, [r3, #2]!
    4e74:	f5cb 7680 	rsb	r6, fp, #256	; 0x100
    4e78:	fb0b f101 	mul.w	r1, fp, r1
    4e7c:	9309      	str	r3, [sp, #36]	; 0x24
    4e7e:	9b0a      	ldr	r3, [sp, #40]	; 0x28
    4e80:	fb0b fe0e 	mul.w	lr, fp, lr
    4e84:	fb0b f505 	mul.w	r5, fp, r5
    4e88:	f833 2f02 	ldrh.w	r2, [r3, #2]!
    4e8c:	ea4f 2cd2 	mov.w	ip, r2, lsr #11
    4e90:	f3c2 1045 	ubfx	r0, r2, #5, #6
    4e94:	f002 021f 	and.w	r2, r2, #31
    4e98:	930a      	str	r3, [sp, #40]	; 0x28
    4e9a:	fb0b fc0c 	mul.w	ip, fp, ip
    4e9e:	0ae3      	lsrs	r3, r4, #11
    4ea0:	fb0b f000 	mul.w	r0, fp, r0
    4ea4:	fb0b f202 	mul.w	r2, fp, r2
    4ea8:	f3c4 1b45 	ubfx	fp, r4, #5, #6
    4eac:	f004 041f 	and.w	r4, r4, #31
    4eb0:	fb06 1303 	mla	r3, r6, r3, r1
    4eb4:	fb06 eb0b 	mla	fp, r6, fp, lr
    4eb8:	ee17 1a10 	vmov	r1, s14
    4ebc:	fb06 5404 	mla	r4, r6, r4, r5
    4ec0:	ea4f 2ed7 	mov.w	lr, r7, lsr #11
    4ec4:	fb01 f303 	mul.w	r3, r1, r3
    4ec8:	fb01 f50b 	mul.w	r5, r1, fp
    4ecc:	fb01 f404 	mul.w	r4, r1, r4
    4ed0:	f5c1 7180 	rsb	r1, r1, #256	; 0x100
    4ed4:	fb06 cc0e 	mla	ip, r6, lr, ip
    4ed8:	fb01 330c 	mla	r3, r1, ip, r3
    4edc:	f3c7 1c45 	ubfx	ip, r7, #5, #6
    4ee0:	f007 071f 	and.w	r7, r7, #31
    4ee4:	fb06 000c 	mla	r0, r6, ip, r0
    4ee8:	f3c3 4304 	ubfx	r3, r3, #16, #5
    4eec:	fb06 2207 	mla	r2, r6, r7, r2
    4ef0:	fb01 5000 	mla	r0, r1, r0, r5
    4ef4:	02db      	lsls	r3, r3, #11
    4ef6:	fb01 4202 	mla	r2, r1, r2, r4
    4efa:	f3c0 4005 	ubfx	r0, r0, #16, #6
    4efe:	f3c2 4204 	ubfx	r2, r2, #16, #5
    4f02:	ea43 1340 	orr.w	r3, r3, r0, lsl #5
    4f06:	4313      	orrs	r3, r2
    4f08:	f829 3f02 	strh.w	r3, [r9, #2]!
    4f0c:	9b07      	ldr	r3, [sp, #28]
    4f0e:	4598      	cmp	r8, r3
    4f10:	d192      	bne.n	4e38 <runSpanKernels()+0x1bd8>
    4f12:	4bc3      	ldr	r3, [pc, #780]	; (5220 <runSpanKernels()+0x1fc0>)
    4f14:	ee1a 2a10 	vmov	r2, s20
    4f18:	f8dd 8040 	ldr.w	r8, [sp, #64]	; 0x40
    4f1c:	2500      	movs	r5, #0
    4f1e:	189c      	adds	r4, r3, r2
    4f20:	9b1c      	ldr	r3, [sp, #112]	; 0x70
    4f22:	f8dd 9048 	ldr.w	r9, [sp, #72]	; 0x48
    4f26:	441c      	add	r4, r3
    4f28:	f8dd a05c 	ldr.w	sl, [sp, #92]	; 0x5c
    4f2c:	9b1b      	ldr	r3, [sp, #108]	; 0x6c
    4f2e:	9a13      	ldr	r2, [sp, #76]	; 0x4c
    4f30:	f833 1b02 	ldrh.w	r1, [r3], #2
    4f34:	f832 0f02 	ldrh.w	r0, [r2, #2]!
    4f38:	4288      	cmp	r0, r1
    4f3a:	bf18      	it	ne
    4f3c:	3501      	addne	r5, #1
    4f3e:	429c      	cmp	r4, r3
    4f40:	d1f6      	bne.n	4f30 <runSpanKernels()+0x1cd0>
    4f42:	fab5 f385 	clz	r3, r5
    4f46:	9523      	str	r5, [sp, #140]	; 0x8c
    4f48:	095b      	lsrs	r3, r3, #5
    4f4a:	9326      	str	r3, [sp, #152]	; 0x98
    4f4c:	4bb5      	ldr	r3, [pc, #724]	; (5224 <runSpanKernels()+0x1fc4>)
    4f4e:	685b      	ldr	r3, [r3, #4]
    4f50:	932b      	str	r3, [sp, #172]	; 0xac
    4f52:	f001 fa79 	bl	6448 <micros>
    4f56:	2340      	movs	r3, #64	; 0x40
    4f58:	902c      	str	r0, [sp, #176]	; 0xb0
    4f5a:	f8cd a048 	str.w	sl, [sp, #72]	; 0x48
    4f5e:	9310      	str	r3, [sp, #64]	; 0x40
    4f60:	e9cd 8917 	strd	r8, r9, [sp, #92]	; 0x5c
    4f64:	9b17      	ldr	r3, [sp, #92]	; 0x5c
    4f66:	2b00      	cmp	r3, #0
    4f68:	f000 843e 	beq.w	57e8 <runSpanKernels()+0x2588>
    4f6c:	9b18      	ldr	r3, [sp, #96]	; 0x60
    4f6e:	f1a3 0802 	sub.w	r8, r3, #2
    4f72:	9b0d      	ldr	r3, [sp, #52]	; 0x34
    4f74:	3b02      	subs	r3, #2
    4f76:	9309      	str	r3, [sp, #36]	; 0x24
    4f78:	ee19 3a10 	vmov	r3, s18
    4f7c:	f1a3 0a02 	sub.w	sl, r3, #2
    4f80:	9b11      	ldr	r3, [sp, #68]	; 0x44
    4f82:	3b02      	subs	r3, #2
    4f84:	930a      	str	r3, [sp, #40]	; 0x28
    4f86:	4ba8      	ldr	r3, [pc, #672]	; (5228 <runSpanKernels()+0x1fc8>)
    4f88:	930b      	str	r3, [sp, #44]	; 0x2c
    4f8a:	4ba8      	ldr	r3, [pc, #672]	; (522c <runSpanKernels()+0x1fcc>)
    4f8c:	930c      	str	r3, [sp, #48]	; 0x30
    4f8e:	9b12      	ldr	r3, [sp, #72]	; 0x48
    4f90:	f1a3 0902 	sub.w	r9, r3, #2
    4f94:	9b0c      	ldr	r3, [sp, #48]	; 0x30
    4f96:	f83a 4f02 	ldrh.w	r4, [sl, #2]!
    4f9a:	ecb3 7a01 	vldmia	r3!, {s14}
    4f9e:	ea4f 2cd4 	mov.w	ip, r4, lsr #11
    4fa2:	f3c4 1045 	ubfx	r0, r4, #5, #6
    4fa6:	930c      	str	r3, [sp, #48]	; 0x30
    4fa8:	eef0 6a47 	vmov.f32	s13, s14
    4fac:	9b0b      	ldr	r3, [sp, #44]	; 0x2c
    4fae:	f004 041f 	and.w	r4, r4, #31
    4fb2:	f838 7f02 	ldrh.w	r7, [r8, #2]!
    4fb6:	ecf3 7a01 	vldmia	r3!, {s15}
    4fba:	eefe 6acc 	vcvt.s32.f32	s13, s13, #8
    4fbe:	930b      	str	r3, [sp, #44]	; 0x2c
    4fc0:	eeb0 7a67 	vmov.f32	s14, s15
    4fc4:	9b0a      	ldr	r3, [sp, #40]	; 0x28
    4fc6:	ee16 ba90 	vmov	fp, s13
    4fca:	f833 5f02 	ldrh.w	r5, [r3, #2]!
    4fce:	eebe 7acc 	vcvt.s32.f32	s14, s14, #8
    4fd2:	f5cb 7680 	rsb	r6, fp, #256	; 0x100
    4fd6:	fb0b fc0c 	mul.w	ip, fp, ip
    4fda:	930a      	str	r3, [sp, #40]	; 0x28
    4fdc:	0ae9      	lsrs	r1, r5, #11
    4fde:	9b09      	ldr	r3, [sp, #36]	; 0x24
    4fe0:	f3c5 1e45 	ubfx	lr, r5, #5, #6
    4fe4:	f005 051f 	and.w	r5, r5, #31
    4fe8:	fb0b f101 	mul.w	r1, fp, r1
    4fec:	f833 2f02 	ldrh.w	r2, [r3, #2]!
    4ff0:	fb0b fe0e 	mul.w	lr, fp, lr
    4ff4:	fb0b f505 	mul.w	r5, fp, r5
    4ff8:	fb0b f000 	mul.w	r0, fp, r0
    4ffc:	fb0b f404 	mul.w	r4, fp, r4
    5000:	f3c2 1b45 	ubfx	fp, r2, #5, #6
    5004:	9309      	str	r3, [sp, #36]	; 0x24
    5006:	0ad3      	lsrs	r3, r2, #11
    5008:	f002 021f 	and.w	r2, r2, #31
    500c:	fb06 eb0b 	mla	fp, r6, fp, lr
    5010:	fb06 1303 	mla	r3, r6, r3, r1
    5014:	ee17 1a10 	vmov	r1, s14
    5018:	fb06 5202 	mla	r2, r6, r2, r5
    501c:	0afd      	lsrs	r5, r7, #11
    501e:	fb01 f303 	mul.w	r3, r1, r3
    5022:	fb01 fb0b 	mul.w	fp, r1, fp
    5026:	fb01 f202 	mul.w	r2, r1, r2
    502a:	f5c1 7180 	rsb	r1, r1, #256	; 0x100
    502e:	fb06 cc05 	mla	ip, r6, r5, ip
    5032:	f3c7 1545 	ubfx	r5, r7, #5, #6
    5036:	f007 071f 	and.w	r7, r7, #31
    503a:	fb01 330c 	mla	r3, r1, ip, r3
    503e:	fb06 0005 	mla	r0, r6, r5, r0
    5042:	f3c3 4304 	ubfx	r3, r3, #16, #5
    5046:	fb06 4407 	mla	r4, r6, r7, r4
    504a:	fb01 b000 	mla	r0, r1, r0, fp
    504e:	02db      	lsls	r3, r3, #11
    5050:	fb01 2204 	mla	r2, r1, r4, r2
    5054:	f3c0 4005 	ubfx	r0, r0, #16, #6
    5058:	f3c2 4204 	ubfx	r2, r2, #16, #5
    505c:	ea43 1340 	orr.w	r3, r3, r0, lsl #5
    5060:	4313      	orrs	r3, r2
    5062:	f829 3f02 	strh.w	r3, [r9, #2]!
    5066:	9b07      	ldr	r3, [sp, #28]
    5068:	4598      	cmp	r8, r3
    506a:	d193      	bne.n	4f94 <runSpanKernels()+0x1d34>
    506c:	9912      	ldr	r1, [sp, #72]	; 0x48
    506e:	4b70      	ldr	r3, [pc, #448]	; (5230 <runSpanKernels()+0x1fd0>)
    5070:	9808      	ldr	r0, [sp, #32]
    5072:	f831 2b02 	ldrh.w	r2, [r1], #2
    5076:	4053      	eors	r3, r2
    5078:	4281      	cmp	r1, r0
    507a:	4a6e      	ldr	r2, [pc, #440]	; (5234 <runSpanKernels()+0x1fd4>)
    507c:	fb02 f303 	mul.w	r3, r2, r3
    5080:	d1f7      	bne.n	5072 <runSpanKernels()+0x1e12>
    5082:	9a0e      	ldr	r2, [sp, #56]	; 0x38
    5084:	405a      	eors	r2, r3
    5086:	9b10      	ldr	r3, [sp, #64]	; 0x40
    5088:	3b01      	subs	r3, #1
    508a:	920e      	str	r2, [sp, #56]	; 0x38
    508c:	9310      	str	r3, [sp, #64]	; 0x40
    508e:	f47f af69 	bne.w	4f64 <runSpanKernels()+0x1d04>
    5092:	e9dd 8917 	ldrd	r8, r9, [sp, #92]	; 0x5c
    5096:	f8dd a048 	ldr.w	sl, [sp, #72]	; 0x48
    509a:	f001 f9d5 	bl	6448 <micros>
    509e:	9b2c      	ldr	r3, [sp, #176]	; 0xb0
    50a0:	4a65      	ldr	r2, [pc, #404]	; (5238 <runSpanKernels()+0x1fd8>)
    50a2:	1ac5      	subs	r5, r0, r3
    50a4:	4b5f      	ldr	r3, [pc, #380]	; (5224 <runSpanKernels()+0x1fc4>)
    50a6:	990e      	ldr	r1, [sp, #56]	; 0x38
    50a8:	a83a      	add	r0, sp, #232	; 0xe8
    50aa:	685c      	ldr	r4, [r3, #4]
    50ac:	9b2b      	ldr	r3, [sp, #172]	; 0xac
    50ae:	1ae4      	subs	r4, r4, r3
    50b0:	9b1a      	ldr	r3, [sp, #104]	; 0x68
    50b2:	9300      	str	r3, [sp, #0]
    50b4:	6813      	ldr	r3, [r2, #0]
    50b6:	4059      	eors	r1, r3
    50b8:	4643      	mov	r3, r8
    50ba:	6011      	str	r1, [r2, #0]
    50bc:	2130      	movs	r1, #48	; 0x30
    50be:	4a5f      	ldr	r2, [pc, #380]	; (523c <runSpanKernels()+0x1fdc>)
    50c0:	f004 f8aa 	bl	9218 <snprintf>
    50c4:	f1b8 0f00 	cmp.w	r8, #0
    50c8:	f000 84ce 	beq.w	5a68 <runSpanKernels()+0x2808>
    50cc:	4651      	mov	r1, sl
    50ce:	4b58      	ldr	r3, [pc, #352]	; (5230 <runSpanKernels()+0x1fd0>)
    50d0:	4858      	ldr	r0, [pc, #352]	; (5234 <runSpanKernels()+0x1fd4>)
    50d2:	9e08      	ldr	r6, [sp, #32]
    50d4:	f831 2b02 	ldrh.w	r2, [r1], #2
    50d8:	4053      	eors	r3, r2
    50da:	42b1      	cmp	r1, r6
    50dc:	fb00 f303 	mul.w	r3, r0, r3
    50e0:	d1f8      	bne.n	50d4 <runSpanKernels()+0x1e74>
    50e2:	2140      	movs	r1, #64	; 0x40
    50e4:	9a26      	ldr	r2, [sp, #152]	; 0x98
    50e6:	a83a      	add	r0, sp, #232	; 0xe8
    50e8:	9304      	str	r3, [sp, #16]
    50ea:	9102      	str	r1, [sp, #8]
    50ec:	9b23      	ldr	r3, [sp, #140]	; 0x8c
    50ee:	4954      	ldr	r1, [pc, #336]	; (5240 <runSpanKernels()+0x1fe0>)
    50f0:	f8cd 800c 	str.w	r8, [sp, #12]
    50f4:	e9cd 5400 	strd	r5, r4, [sp]
    50f8:	f7fb f9be 	bl	478 <printResult(char const*, char const*, unsigned long, unsigned long, unsigned long, unsigned long, unsigned long, unsigned long, unsigned long, char const*) [clone .constprop.1]>
    50fc:	9d1b      	ldr	r5, [sp, #108]	; 0x6c
    50fe:	ee1a 2a10 	vmov	r2, s20
    5102:	4649      	mov	r1, r9
    5104:	4628      	mov	r0, r5
    5106:	ee1a 4a10 	vmov	r4, s20
    510a:	f001 f9cf 	bl	64ac <memcpy>
    510e:	ee1a 2a10 	vmov	r2, s20
    5112:	4649      	mov	r1, r9
    5114:	4650      	mov	r0, sl
    5116:	f001 f9c9 	bl	64ac <memcpy>
    511a:	4941      	ldr	r1, [pc, #260]	; (5220 <runSpanKernels()+0x1fc0>)
    511c:	9a1c      	ldr	r2, [sp, #112]	; 0x70
    511e:	462b      	mov	r3, r5
    5120:	190c      	adds	r4, r1, r4
    5122:	2500      	movs	r5, #0
    5124:	4414      	add	r4, r2
    5126:	9a13      	ldr	r2, [sp, #76]	; 0x4c
    5128:	f833 1b02 	ldrh.w	r1, [r3], #2
    512c:	f832 0f02 	ldrh.w	r0, [r2, #2]!
    5130:	4288      	cmp	r0, r1
    5132:	bf18      	it	ne
    5134:	3501      	addne	r5, #1
    5136:	42a3      	cmp	r3, r4
    5138:	d1f6      	bne.n	5128 <runSpanKernels()+0x1ec8>
    513a:	fab5 f685 	clz	r6, r5
    513e:	0976      	lsrs	r6, r6, #5
    5140:	4b38      	ldr	r3, [pc, #224]	; (5224 <runSpanKernels()+0x1fc4>)
    5142:	4647      	mov	r7, r8
    5144:	f44f 7b00 	mov.w	fp, #512	; 0x200
    5148:	4c3a      	ldr	r4, [pc, #232]	; (5234 <runSpanKernels()+0x1fd4>)
    514a:	685b      	ldr	r3, [r3, #4]
    514c:	9307      	str	r3, [sp, #28]
    514e:	f001 f97b 	bl	6448 <micros>
    5152:	950a      	str	r5, [sp, #40]	; 0x28
    5154:	960b      	str	r6, [sp, #44]	; 0x2c
    5156:	ee1a 6a10 	vmov	r6, s20
    515a:	9d10      	ldr	r5, [sp, #64]	; 0x40
    515c:	f8dd 8020 	ldr.w	r8, [sp, #32]
    5160:	9009      	str	r0, [sp, #36]	; 0x24
    5162:	2f00      	cmp	r7, #0
    5164:	f000 82c0 	beq.w	56e8 <runSpanKernels()+0x2488>
    5168:	4649      	mov	r1, r9
    516a:	4632      	mov	r2, r6
    516c:	4650      	mov	r0, sl
    516e:	f001 f99d 	bl	64ac <memcpy>
    5172:	4651      	mov	r1, sl
    5174:	4b2e      	ldr	r3, [pc, #184]	; (5230 <runSpanKernels()+0x1fd0>)
    5176:	f831 2b02 	ldrh.w	r2, [r1], #2
    517a:	4053      	eors	r3, r2
    517c:	4541      	cmp	r1, r8
    517e:	fb04 f303 	mul.w	r3, r4, r3
    5182:	d1f8      	bne.n	5176 <runSpanKernels()+0x1f16>
    5184:	f1bb 0b01 	subs.w	fp, fp, #1
    5188:	ea85 0503 	eor.w	r5, r5, r3
    518c:	d1e9      	bne.n	5162 <runSpanKernels()+0x1f02>
    518e:	46b8      	mov	r8, r7
    5190:	46ab      	mov	fp, r5
    5192:	9f09      	ldr	r7, [sp, #36]	; 0x24
    5194:	e9dd 560a 	ldrd	r5, r6, [sp, #40]	; 0x28
    5198:	f001 f956 	bl	6448 <micros>
    519c:	4b21      	ldr	r3, [pc, #132]	; (5224 <runSpanKernels()+0x1fc4>)
    519e:	4a26      	ldr	r2, [pc, #152]	; (5238 <runSpanKernels()+0x1fd8>)
    51a0:	4659      	mov	r1, fp
    51a2:	685c      	ldr	r4, [r3, #4]
    51a4:	1bc7      	subs	r7, r0, r7
    51a6:	9b07      	ldr	r3, [sp, #28]
    51a8:	a83a      	add	r0, sp, #232	; 0xe8
    51aa:	1ae4      	subs	r4, r4, r3
    51ac:	9b1a      	ldr	r3, [sp, #104]	; 0x68
    51ae:	9300      	str	r3, [sp, #0]
    51b0:	6813      	ldr	r3, [r2, #0]
    51b2:	4059      	eors	r1, r3
    51b4:	4643      	mov	r3, r8
    51b6:	6011      	str	r1, [r2, #0]
    51b8:	2130      	movs	r1, #48	; 0x30
    51ba:	4a22      	ldr	r2, [pc, #136]	; (5244 <runSpanKernels()+0x1fe4>)
    51bc:	f004 f82c 	bl	9218 <snprintf>
    51c0:	f1b8 0f00 	cmp.w	r8, #0
    51c4:	f000 8441 	beq.w	5a4a <runSpanKernels()+0x27ea>
    51c8:	4651      	mov	r1, sl
    51ca:	4b19      	ldr	r3, [pc, #100]	; (5230 <runSpanKernels()+0x1fd0>)
    51cc:	4819      	ldr	r0, [pc, #100]	; (5234 <runSpanKernels()+0x1fd4>)
    51ce:	f8dd c020 	ldr.w	ip, [sp, #32]
    51d2:	f831 2b02 	ldrh.w	r2, [r1], #2
    51d6:	4053      	eors	r3, r2
    51d8:	4561      	cmp	r1, ip
    51da:	fb00 f303 	mul.w	r3, r0, r3
    51de:	d1f8      	bne.n	51d2 <runSpanKernels()+0x1f72>
    51e0:	4632      	mov	r2, r6
    51e2:	4919      	ldr	r1, [pc, #100]	; (5248 <runSpanKernels()+0x1fe8>)
    51e4:	a83a      	add	r0, sp, #232	; 0xe8
    51e6:	9303      	str	r3, [sp, #12]
    51e8:	f8cd 8008 	str.w	r8, [sp, #8]
    51ec:	462b      	mov	r3, r5
    51ee:	e9cd 7400 	strd	r7, r4, [sp]
    51f2:	f7fb fd47 	bl	c84 <printResult(char const*, char const*, unsigned long, unsigned long, unsigned long, unsigned long, unsigned long, unsigned long, unsigned long, char const*) [clone .constprop.0]>
    51f6:	ee1a 2a10 	vmov	r2, s20
    51fa:	4649      	mov	r1, r9
    51fc:	981b      	ldr	r0, [sp, #108]	; 0x6c
    51fe:	f001 f955 	bl	64ac <memcpy>
    5202:	f1b8 0f01 	cmp.w	r8, #1
    5206:	f000 8532 	beq.w	5c6e <runSpanKernels()+0x2a0e>
    520a:	ee1a 2a90 	vmov	r2, s21
    520e:	4649      	mov	r1, r9
    5210:	4650      	mov	r0, sl
    5212:	f001 f94b 	bl	64ac <memcpy>
    5216:	9b20      	ldr	r3, [sp, #128]	; 0x80
    5218:	4598      	cmp	r8, r3
    521a:	d920      	bls.n	525e <runSpanKernels()+0x1ffe>
    521c:	4618      	mov	r0, r3
    521e:	e015      	b.n	524c <runSpanKernels()+0x1fec>
    5220:	2000958c 	.word	0x2000958c
    5224:	e0001000 	.word	0xe0001000
    5228:	200028a8 	.word	0x200028a8
    522c:	200030b8 	.word	0x200030b8
    5230:	811c9dc5 	.word	0x811c9dc5
    5234:	01000193 	.word	0x01000193
    5238:	20007138 	.word	0x20007138
    523c:	2000062c 	.word	0x2000062c
    5240:	200006ac 	.word	0x200006ac
    5244:	20000644 	.word	0x20000644
    5248:	200006a0 	.word	0x200006a0
    524c:	eba8 0200 	sub.w	r2, r8, r0
    5250:	eb09 0140 	add.w	r1, r9, r0, lsl #1
    5254:	eb0a 0040 	add.w	r0, sl, r0, lsl #1
    5258:	0052      	lsls	r2, r2, #1
    525a:	f001 f927 	bl	64ac <memcpy>
    525e:	4bb4      	ldr	r3, [pc, #720]	; (5530 <runSpanKernels()+0x22d0>)
    5260:	2700      	movs	r7, #0
    5262:	9a1d      	ldr	r2, [sp, #116]	; 0x74
    5264:	1899      	adds	r1, r3, r2
    5266:	9a13      	ldr	r2, [sp, #76]	; 0x4c
    5268:	463b      	mov	r3, r7
    526a:	f831 4f02 	ldrh.w	r4, [r1, #2]!
    526e:	3301      	adds	r3, #1
    5270:	f832 0f02 	ldrh.w	r0, [r2, #2]!
    5274:	4284      	cmp	r4, r0
    5276:	bf18      	it	ne
    5278:	3701      	addne	r7, #1
    527a:	4598      	cmp	r8, r3
    527c:	d8f5      	bhi.n	526a <runSpanKernels()+0x200a>
    527e:	fab7 fb87 	clz	fp, r7
    5282:	ea4f 1b5b 	mov.w	fp, fp, lsr #5
    5286:	4bab      	ldr	r3, [pc, #684]	; (5534 <runSpanKernels()+0x22d4>)
    5288:	2500      	movs	r5, #0
    528a:	f44f 7400 	mov.w	r4, #512	; 0x200
    528e:	4eaa      	ldr	r6, [pc, #680]	; (5538 <runSpanKernels()+0x22d8>)
    5290:	685b      	ldr	r3, [r3, #4]
    5292:	9307      	str	r3, [sp, #28]
    5294:	f001 f8d8 	bl	6448 <micros>
    5298:	970a      	str	r7, [sp, #40]	; 0x28
    529a:	4647      	mov	r7, r8
    529c:	f8cd b02c 	str.w	fp, [sp, #44]	; 0x2c
    52a0:	ee1a ba90 	vmov	fp, s21
    52a4:	f8dd 8090 	ldr.w	r8, [sp, #144]	; 0x90
    52a8:	9009      	str	r0, [sp, #36]	; 0x24
    52aa:	2f01      	cmp	r7, #1
    52ac:	f240 820f 	bls.w	56ce <runSpanKernels()+0x246e>
    52b0:	465a      	mov	r2, fp
    52b2:	4649      	mov	r1, r9
    52b4:	4650      	mov	r0, sl
    52b6:	f001 f8f9 	bl	64ac <memcpy>
    52ba:	4547      	cmp	r7, r8
    52bc:	d905      	bls.n	52ca <runSpanKernels()+0x206a>
    52be:	ee19 2a90 	vmov	r2, s19
    52c2:	9914      	ldr	r1, [sp, #80]	; 0x50
    52c4:	980f      	ldr	r0, [sp, #60]	; 0x3c
    52c6:	f001 f8f1 	bl	64ac <memcpy>
    52ca:	9813      	ldr	r0, [sp, #76]	; 0x4c
    52cc:	2100      	movs	r1, #0
    52ce:	4b9b      	ldr	r3, [pc, #620]	; (553c <runSpanKernels()+0x22dc>)
    52d0:	3101      	adds	r1, #1
    52d2:	f830 2f02 	ldrh.w	r2, [r0, #2]!
    52d6:	428f      	cmp	r7, r1
    52d8:	ea83 0302 	eor.w	r3, r3, r2
    52dc:	fb06 f303 	mul.w	r3, r6, r3
    52e0:	d8f6      	bhi.n	52d0 <runSpanKernels()+0x2070>
    52e2:	3c01      	subs	r4, #1
    52e4:	ea85 0503 	eor.w	r5, r5, r3
    52e8:	d1df      	bne.n	52aa <runSpanKernels()+0x204a>
    52ea:	46b8      	mov	r8, r7
    52ec:	e9dd 7b0a 	ldrd	r7, fp, [sp, #40]	; 0x28
    52f0:	f001 f8aa 	bl	6448 <micros>
    52f4:	9b09      	ldr	r3, [sp, #36]	; 0x24
    52f6:	4a92      	ldr	r2, [pc, #584]	; (5540 <runSpanKernels()+0x22e0>)
    52f8:	2130      	movs	r1, #48	; 0x30
    52fa:	1ac6      	subs	r6, r0, r3
    52fc:	4b8d      	ldr	r3, [pc, #564]	; (5534 <runSpanKernels()+0x22d4>)
    52fe:	a83a      	add	r0, sp, #232	; 0xe8
    5300:	685c      	ldr	r4, [r3, #4]
    5302:	9b07      	ldr	r3, [sp, #28]
    5304:	1ae4      	subs	r4, r4, r3
    5306:	9b1a      	ldr	r3, [sp, #104]	; 0x68
    5308:	9300      	str	r3, [sp, #0]
    530a:	6813      	ldr	r3, [r2, #0]
    530c:	405d      	eors	r5, r3
    530e:	4643      	mov	r3, r8
    5310:	6015      	str	r5, [r2, #0]
    5312:	4a8c      	ldr	r2, [pc, #560]	; (5544 <runSpanKernels()+0x22e4>)
    5314:	f003 ff80 	bl	9218 <snprintf>
    5318:	f1b8 0f00 	cmp.w	r8, #0
    531c:	f000 8282 	beq.w	5824 <runSpanKernels()+0x25c4>
    5320:	4651      	mov	r1, sl
    5322:	4b86      	ldr	r3, [pc, #536]	; (553c <runSpanKernels()+0x22dc>)
    5324:	4884      	ldr	r0, [pc, #528]	; (5538 <runSpanKernels()+0x22d8>)
    5326:	9d08      	ldr	r5, [sp, #32]
    5328:	f831 2b02 	ldrh.w	r2, [r1], #2
    532c:	4053      	eors	r3, r2
    532e:	42a9      	cmp	r1, r5
    5330:	fb00 f303 	mul.w	r3, r0, r3
    5334:	d1f8      	bne.n	5328 <runSpanKernels()+0x20c8>
    5336:	9303      	str	r3, [sp, #12]
    5338:	465a      	mov	r2, fp
    533a:	463b      	mov	r3, r7
    533c:	4982      	ldr	r1, [pc, #520]	; (5548 <runSpanKernels()+0x22e8>)
    533e:	a83a      	add	r0, sp, #232	; 0xe8
    5340:	f8cd 8008 	str.w	r8, [sp, #8]
    5344:	e9cd 6400 	strd	r6, r4, [sp]
    5348:	f7fb fc9c 	bl	c84 <printResult(char const*, char const*, unsigned long, unsigned long, unsigned long, unsigned long, unsigned long, unsigned long, unsigned long, char const*) [clone .constprop.0]>
    534c:	f1b8 0f01 	cmp.w	r8, #1
    5350:	f000 8266 	beq.w	5820 <runSpanKernels()+0x25c0>
    5354:	9a1b      	ldr	r2, [sp, #108]	; 0x6c
    5356:	991e      	ldr	r1, [sp, #120]	; 0x78
    5358:	4613      	mov	r3, r2
    535a:	1851      	adds	r1, r2, r1
    535c:	4a7b      	ldr	r2, [pc, #492]	; (554c <runSpanKernels()+0x22ec>)
    535e:	f843 2b04 	str.w	r2, [r3], #4
    5362:	428b      	cmp	r3, r1
    5364:	d1fb      	bne.n	535e <runSpanKernels()+0x20fe>
    5366:	9b22      	ldr	r3, [sp, #136]	; 0x88
    5368:	4598      	cmp	r8, r3
    536a:	d00a      	beq.n	5382 <runSpanKernels()+0x2122>
    536c:	9a1a      	ldr	r2, [sp, #104]	; 0x68
    536e:	f1b8 0f01 	cmp.w	r8, #1
    5372:	496f      	ldr	r1, [pc, #444]	; (5530 <runSpanKernels()+0x22d0>)
    5374:	4413      	add	r3, r2
    5376:	f643 12e7 	movw	r2, #14823	; 0x39e7
    537a:	f821 2013 	strh.w	r2, [r1, r3, lsl #1]
    537e:	f000 8238 	beq.w	57f2 <runSpanKernels()+0x2592>
    5382:	9b1e      	ldr	r3, [sp, #120]	; 0x78
    5384:	4a71      	ldr	r2, [pc, #452]	; (554c <runSpanKernels()+0x22ec>)
    5386:	eb0a 0503 	add.w	r5, sl, r3
    538a:	4653      	mov	r3, sl
    538c:	f843 2b04 	str.w	r2, [r3], #4
    5390:	429d      	cmp	r5, r3
    5392:	d1fb      	bne.n	538c <runSpanKernels()+0x212c>
    5394:	9b22      	ldr	r3, [sp, #136]	; 0x88
    5396:	4598      	cmp	r8, r3
    5398:	d004      	beq.n	53a4 <runSpanKernels()+0x2144>
    539a:	461a      	mov	r2, r3
    539c:	f643 13e7 	movw	r3, #14823	; 0x39e7
    53a0:	f82a 3012 	strh.w	r3, [sl, r2, lsl #1]
    53a4:	4b62      	ldr	r3, [pc, #392]	; (5530 <runSpanKernels()+0x22d0>)
    53a6:	ee1a 2a10 	vmov	r2, s20
    53aa:	f04f 0b00 	mov.w	fp, #0
    53ae:	189c      	adds	r4, r3, r2
    53b0:	9b1c      	ldr	r3, [sp, #112]	; 0x70
    53b2:	9a13      	ldr	r2, [sp, #76]	; 0x4c
    53b4:	441c      	add	r4, r3
    53b6:	9b1b      	ldr	r3, [sp, #108]	; 0x6c
    53b8:	f833 1b02 	ldrh.w	r1, [r3], #2
    53bc:	f832 0f02 	ldrh.w	r0, [r2, #2]!
    53c0:	4288      	cmp	r0, r1
    53c2:	bf18      	it	ne
    53c4:	f10b 0b01 	addne.w	fp, fp, #1
    53c8:	42a3      	cmp	r3, r4
    53ca:	d1f5      	bne.n	53b8 <runSpanKernels()+0x2158>
    53cc:	fabb f98b 	clz	r9, fp
    53d0:	ea4f 1959 	mov.w	r9, r9, lsr #5
    53d4:	4b57      	ldr	r3, [pc, #348]	; (5534 <runSpanKernels()+0x22d4>)
    53d6:	2400      	movs	r4, #0
    53d8:	f643 16e7 	movw	r6, #14823	; 0x39e7
    53dc:	4f5b      	ldr	r7, [pc, #364]	; (554c <runSpanKernels()+0x22ec>)
    53de:	685b      	ldr	r3, [r3, #4]
    53e0:	9307      	str	r3, [sp, #28]
    53e2:	f001 f831 	bl	6448 <micros>
    53e6:	f8cd b028 	str.w	fp, [sp, #40]	; 0x28
    53ea:	f44f 7100 	mov.w	r1, #512	; 0x200
    53ee:	9009      	str	r0, [sp, #36]	; 0x24
    53f0:	4640      	mov	r0, r8
    53f2:	f8df c144 	ldr.w	ip, [pc, #324]	; 5538 <runSpanKernels()+0x22d8>
    53f6:	f8dd b020 	ldr.w	fp, [sp, #32]
    53fa:	f8dd 8088 	ldr.w	r8, [sp, #136]	; 0x88
    53fe:	2800      	cmp	r0, #0
    5400:	f000 815e 	beq.w	56c0 <runSpanKernels()+0x2460>
    5404:	2801      	cmp	r0, #1
    5406:	f000 81ed 	beq.w	57e4 <runSpanKernels()+0x2584>
    540a:	4653      	mov	r3, sl
    540c:	f843 7b04 	str.w	r7, [r3], #4
    5410:	429d      	cmp	r5, r3
    5412:	d1fb      	bne.n	540c <runSpanKernels()+0x21ac>
    5414:	4540      	cmp	r0, r8
    5416:	d002      	beq.n	541e <runSpanKernels()+0x21be>
    5418:	4643      	mov	r3, r8
    541a:	f82a 6013 	strh.w	r6, [sl, r3, lsl #1]
    541e:	46d6      	mov	lr, sl
    5420:	4b46      	ldr	r3, [pc, #280]	; (553c <runSpanKernels()+0x22dc>)
    5422:	f83e 2b02 	ldrh.w	r2, [lr], #2
    5426:	4053      	eors	r3, r2
    5428:	45de      	cmp	lr, fp
    542a:	fb0c f303 	mul.w	r3, ip, r3
    542e:	d1f8      	bne.n	5422 <runSpanKernels()+0x21c2>
    5430:	3901      	subs	r1, #1
    5432:	ea84 0403 	eor.w	r4, r4, r3
    5436:	d1e2      	bne.n	53fe <runSpanKernels()+0x219e>
    5438:	4680      	mov	r8, r0
    543a:	f8dd b028 	ldr.w	fp, [sp, #40]	; 0x28
    543e:	f001 f803 	bl	6448 <micros>
    5442:	9b09      	ldr	r3, [sp, #36]	; 0x24
    5444:	4a3e      	ldr	r2, [pc, #248]	; (5540 <runSpanKernels()+0x22e0>)
    5446:	2130      	movs	r1, #48	; 0x30
    5448:	1ac6      	subs	r6, r0, r3
    544a:	4b3a      	ldr	r3, [pc, #232]	; (5534 <runSpanKernels()+0x22d4>)
    544c:	a83a      	add	r0, sp, #232	; 0xe8
    544e:	685d      	ldr	r5, [r3, #4]
    5450:	9b07      	ldr	r3, [sp, #28]
    5452:	1aed      	subs	r5, r5, r3
    5454:	9b1a      	ldr	r3, [sp, #104]	; 0x68
    5456:	9300      	str	r3, [sp, #0]
    5458:	6813      	ldr	r3, [r2, #0]
    545a:	405c      	eors	r4, r3
    545c:	4643      	mov	r3, r8
    545e:	6014      	str	r4, [r2, #0]
    5460:	4a3b      	ldr	r2, [pc, #236]	; (5550 <runSpanKernels()+0x22f0>)
    5462:	f003 fed9 	bl	9218 <snprintf>
    5466:	f1b8 0f00 	cmp.w	r8, #0
    546a:	f000 826b 	beq.w	5944 <runSpanKernels()+0x26e4>
    546e:	4651      	mov	r1, sl
    5470:	4b32      	ldr	r3, [pc, #200]	; (553c <runSpanKernels()+0x22dc>)
    5472:	4831      	ldr	r0, [pc, #196]	; (5538 <runSpanKernels()+0x22d8>)
    5474:	9c08      	ldr	r4, [sp, #32]
    5476:	f831 2b02 	ldrh.w	r2, [r1], #2
    547a:	4053      	eors	r3, r2
    547c:	42a1      	cmp	r1, r4
    547e:	fb00 f303 	mul.w	r3, r0, r3
    5482:	d1f8      	bne.n	5476 <runSpanKernels()+0x2216>
    5484:	9303      	str	r3, [sp, #12]
    5486:	464a      	mov	r2, r9
    5488:	465b      	mov	r3, fp
    548a:	4932      	ldr	r1, [pc, #200]	; (5554 <runSpanKernels()+0x22f4>)
    548c:	a83a      	add	r0, sp, #232	; 0xe8
    548e:	f8cd 8008 	str.w	r8, [sp, #8]
    5492:	e9cd 6500 	strd	r6, r5, [sp]
    5496:	f7fb fbf5 	bl	c84 <printResult(char const*, char const*, unsigned long, unsigned long, unsigned long, unsigned long, unsigned long, unsigned long, unsigned long, char const*) [clone .constprop.0]>
    549a:	f1b8 0f01 	cmp.w	r8, #1
    549e:	f000 824f 	beq.w	5940 <runSpanKernels()+0x26e0>
    54a2:	9b1b      	ldr	r3, [sp, #108]	; 0x6c
    54a4:	9a1e      	ldr	r2, [sp, #120]	; 0x78
    54a6:	4929      	ldr	r1, [pc, #164]	; (554c <runSpanKernels()+0x22ec>)
    54a8:	189a      	adds	r2, r3, r2
    54aa:	f843 1b04 	str.w	r1, [r3], #4
    54ae:	429a      	cmp	r2, r3
    54b0:	d1fb      	bne.n	54aa <runSpanKernels()+0x224a>
    54b2:	9b22      	ldr	r3, [sp, #136]	; 0x88
    54b4:	4598      	cmp	r8, r3
    54b6:	d00a      	beq.n	54ce <runSpanKernels()+0x226e>
    54b8:	9a1a      	ldr	r2, [sp, #104]	; 0x68
    54ba:	f1b8 0f01 	cmp.w	r8, #1
    54be:	491c      	ldr	r1, [pc, #112]	; (5530 <runSpanKernels()+0x22d0>)
    54c0:	4413      	add	r3, r2
    54c2:	f643 12e7 	movw	r2, #14823	; 0x39e7
    54c6:	f821 2013 	strh.w	r2, [r1, r3, lsl #1]
    54ca:	f000 83c5 	beq.w	5c58 <runSpanKernels()+0x29f8>
    54ce:	f01a 0507 	ands.w	r5, sl, #7
    54d2:	f040 8197 	bne.w	5804 <runSpanKernels()+0x25a4>
    54d6:	9b27      	ldr	r3, [sp, #156]	; 0x9c
    54d8:	2b1d      	cmp	r3, #29
    54da:	f240 8193 	bls.w	5804 <runSpanKernels()+0x25a4>
    54de:	9b21      	ldr	r3, [sp, #132]	; 0x84
    54e0:	eb0a 0b03 	add.w	fp, sl, r3
    54e4:	4653      	mov	r3, sl
    54e6:	eca3 8b02 	vstmia	r3!, {d8}
    54ea:	459b      	cmp	fp, r3
    54ec:	d1fb      	bne.n	54e6 <runSpanKernels()+0x2286>
    54ee:	9b28      	ldr	r3, [sp, #160]	; 0xa0
    54f0:	9a16      	ldr	r2, [sp, #88]	; 0x58
    54f2:	4293      	cmp	r3, r2
    54f4:	d003      	beq.n	54fe <runSpanKernels()+0x229e>
    54f6:	4b15      	ldr	r3, [pc, #84]	; (554c <runSpanKernels()+0x22ec>)
    54f8:	9a1f      	ldr	r2, [sp, #124]	; 0x7c
    54fa:	f84a 3002 	str.w	r3, [sl, r2]
    54fe:	ee1a 3a90 	vmov	r3, s21
    5502:	eb0a 0603 	add.w	r6, sl, r3
    5506:	9b20      	ldr	r3, [sp, #128]	; 0x80
    5508:	4598      	cmp	r8, r3
    550a:	d90a      	bls.n	5522 <runSpanKernels()+0x22c2>
    550c:	1c59      	adds	r1, r3, #1
    550e:	f643 12e7 	movw	r2, #14823	; 0x39e7
    5512:	4588      	cmp	r8, r1
    5514:	f82a 2013 	strh.w	r2, [sl, r3, lsl #1]
    5518:	ea4f 0343 	mov.w	r3, r3, lsl #1
    551c:	d901      	bls.n	5522 <runSpanKernels()+0x22c2>
    551e:	4453      	add	r3, sl
    5520:	805a      	strh	r2, [r3, #2]
    5522:	4b03      	ldr	r3, [pc, #12]	; (5530 <runSpanKernels()+0x22d0>)
    5524:	991d      	ldr	r1, [sp, #116]	; 0x74
    5526:	9a13      	ldr	r2, [sp, #76]	; 0x4c
    5528:	4419      	add	r1, r3
    552a:	2300      	movs	r3, #0
    552c:	461f      	mov	r7, r3
    552e:	e013      	b.n	5558 <runSpanKernels()+0x22f8>
    5530:	2000958c 	.word	0x2000958c
    5534:	e0001000 	.word	0xe0001000
    5538:	01000193 	.word	0x01000193
    553c:	811c9dc5 	.word	0x811c9dc5
    5540:	20007138 	.word	0x20007138
    5544:	20000644 	.word	0x20000644
    5548:	2000068c 	.word	0x2000068c
    554c:	39e739e7 	.word	0x39e739e7
    5550:	20000658 	.word	0x20000658
    5554:	20000680 	.word	0x20000680
    5558:	f832 4f02 	ldrh.w	r4, [r2, #2]!
    555c:	3301      	adds	r3, #1
    555e:	f831 0f02 	ldrh.w	r0, [r1, #2]!
    5562:	4284      	cmp	r4, r0
    5564:	bf18      	it	ne
    5566:	3701      	addne	r7, #1
    5568:	4598      	cmp	r8, r3
    556a:	d8f5      	bhi.n	5558 <runSpanKernels()+0x22f8>
    556c:	fab7 f387 	clz	r3, r7
    5570:	970b      	str	r7, [sp, #44]	; 0x2c
    5572:	095b      	lsrs	r3, r3, #5
    5574:	930c      	str	r3, [sp, #48]	; 0x30
    5576:	4bb4      	ldr	r3, [pc, #720]	; (5848 <runSpanKernels()+0x25e8>)
    5578:	2400      	movs	r4, #0
    557a:	685b      	ldr	r3, [r3, #4]
    557c:	930d      	str	r3, [sp, #52]	; 0x34
    557e:	f000 ff63 	bl	6448 <micros>
    5582:	9b27      	ldr	r3, [sp, #156]	; 0x9c
    5584:	fab5 fc85 	clz	ip, r5
    5588:	900e      	str	r0, [sp, #56]	; 0x38
    558a:	f44f 7100 	mov.w	r1, #512	; 0x200
    558e:	2b1d      	cmp	r3, #29
    5590:	9b1f      	ldr	r3, [sp, #124]	; 0x7c
    5592:	ea4f 1c5c 	mov.w	ip, ip, lsr #5
    5596:	f8cd b028 	str.w	fp, [sp, #40]	; 0x28
    559a:	eb0a 0903 	add.w	r9, sl, r3
    559e:	bf98      	it	ls
    55a0:	f04f 0c00 	movls.w	ip, #0
    55a4:	f643 1ee7 	movw	lr, #14823	; 0x39e7
    55a8:	48a8      	ldr	r0, [pc, #672]	; (584c <runSpanKernels()+0x25ec>)
    55aa:	f8cd 9024 	str.w	r9, [sp, #36]	; 0x24
    55ae:	4645      	mov	r5, r8
    55b0:	9a28      	ldr	r2, [sp, #160]	; 0xa0
    55b2:	f8dd 9090 	ldr.w	r9, [sp, #144]	; 0x90
    55b6:	f8dd b04c 	ldr.w	fp, [sp, #76]	; 0x4c
    55ba:	2d01      	cmp	r5, #1
    55bc:	d974      	bls.n	56a8 <runSpanKernels()+0x2448>
    55be:	4653      	mov	r3, sl
    55c0:	f1bc 0f00 	cmp.w	ip, #0
    55c4:	d067      	beq.n	5696 <runSpanKernels()+0x2436>
    55c6:	9f0a      	ldr	r7, [sp, #40]	; 0x28
    55c8:	eca3 8b02 	vstmia	r3!, {d8}
    55cc:	429f      	cmp	r7, r3
    55ce:	d1fa      	bne.n	55c6 <runSpanKernels()+0x2366>
    55d0:	9b16      	ldr	r3, [sp, #88]	; 0x58
    55d2:	429a      	cmp	r2, r3
    55d4:	d001      	beq.n	55da <runSpanKernels()+0x237a>
    55d6:	9b09      	ldr	r3, [sp, #36]	; 0x24
    55d8:	6018      	str	r0, [r3, #0]
    55da:	454d      	cmp	r5, r9
    55dc:	d908      	bls.n	55f0 <runSpanKernels()+0x2390>
    55de:	9b0f      	ldr	r3, [sp, #60]	; 0x3c
    55e0:	f8a3 e000 	strh.w	lr, [r3]
    55e4:	9b15      	ldr	r3, [sp, #84]	; 0x54
    55e6:	429d      	cmp	r5, r3
    55e8:	d902      	bls.n	55f0 <runSpanKernels()+0x2390>
    55ea:	9b19      	ldr	r3, [sp, #100]	; 0x64
    55ec:	f8a3 e000 	strh.w	lr, [r3]
    55f0:	2700      	movs	r7, #0
    55f2:	46d8      	mov	r8, fp
    55f4:	4b96      	ldr	r3, [pc, #600]	; (5850 <runSpanKernels()+0x25f0>)
    55f6:	9707      	str	r7, [sp, #28]
    55f8:	9f07      	ldr	r7, [sp, #28]
    55fa:	3701      	adds	r7, #1
    55fc:	9707      	str	r7, [sp, #28]
    55fe:	f838 7f02 	ldrh.w	r7, [r8, #2]!
    5602:	407b      	eors	r3, r7
    5604:	4f93      	ldr	r7, [pc, #588]	; (5854 <runSpanKernels()+0x25f4>)
    5606:	fb07 f303 	mul.w	r3, r7, r3
    560a:	9f07      	ldr	r7, [sp, #28]
    560c:	42bd      	cmp	r5, r7
    560e:	d8f3      	bhi.n	55f8 <runSpanKernels()+0x2398>
    5610:	3901      	subs	r1, #1
    5612:	ea84 0403 	eor.w	r4, r4, r3
    5616:	d1d0      	bne.n	55ba <runSpanKernels()+0x235a>
    5618:	f000 ff16 	bl	6448 <micros>
    561c:	9b0e      	ldr	r3, [sp, #56]	; 0x38
    561e:	46a8      	mov	r8, r5
    5620:	4a8d      	ldr	r2, [pc, #564]	; (5858 <runSpanKernels()+0x25f8>)
    5622:	1ac6      	subs	r6, r0, r3
    5624:	4b88      	ldr	r3, [pc, #544]	; (5848 <runSpanKernels()+0x25e8>)
    5626:	2130      	movs	r1, #48	; 0x30
    5628:	a83a      	add	r0, sp, #232	; 0xe8
    562a:	685d      	ldr	r5, [r3, #4]
    562c:	9b0d      	ldr	r3, [sp, #52]	; 0x34
    562e:	1aed      	subs	r5, r5, r3
    5630:	9b1a      	ldr	r3, [sp, #104]	; 0x68
    5632:	9300      	str	r3, [sp, #0]
    5634:	6813      	ldr	r3, [r2, #0]
    5636:	405c      	eors	r4, r3
    5638:	4643      	mov	r3, r8
    563a:	6014      	str	r4, [r2, #0]
    563c:	4a87      	ldr	r2, [pc, #540]	; (585c <runSpanKernels()+0x25fc>)
    563e:	f003 fdeb 	bl	9218 <snprintf>
    5642:	4b83      	ldr	r3, [pc, #524]	; (5850 <runSpanKernels()+0x25f0>)
    5644:	f1b8 0f00 	cmp.w	r8, #0
    5648:	d009      	beq.n	565e <runSpanKernels()+0x23fe>
    564a:	4982      	ldr	r1, [pc, #520]	; (5854 <runSpanKernels()+0x25f4>)
    564c:	9c08      	ldr	r4, [sp, #32]
    564e:	9a2f      	ldr	r2, [sp, #188]	; 0xbc
    5650:	f832 0b02 	ldrh.w	r0, [r2], #2
    5654:	4043      	eors	r3, r0
    5656:	4294      	cmp	r4, r2
    5658:	fb01 f303 	mul.w	r3, r1, r3
    565c:	d1f8      	bne.n	5650 <runSpanKernels()+0x23f0>
    565e:	991a      	ldr	r1, [sp, #104]	; 0x68
    5660:	a83a      	add	r0, sp, #232	; 0xe8
    5662:	9303      	str	r3, [sp, #12]
    5664:	3101      	adds	r1, #1
    5666:	f8cd 8008 	str.w	r8, [sp, #8]
    566a:	e9dd 320b 	ldrd	r3, r2, [sp, #44]	; 0x2c
    566e:	911a      	str	r1, [sp, #104]	; 0x68
    5670:	497b      	ldr	r1, [pc, #492]	; (5860 <runSpanKernels()+0x2600>)
    5672:	e9cd 6500 	strd	r6, r5, [sp]
    5676:	f7fb fb05 	bl	c84 <printResult(char const*, char const*, unsigned long, unsigned long, unsigned long, unsigned long, unsigned long, unsigned long, unsigned long, char const*) [clone .constprop.0]>
    567a:	9b29      	ldr	r3, [sp, #164]	; 0xa4
    567c:	2b01      	cmp	r3, #1
    567e:	f040 80bd 	bne.w	57fc <runSpanKernels()+0x259c>
    5682:	aa39      	add	r2, sp, #228	; 0xe4
    5684:	9b25      	ldr	r3, [sp, #148]	; 0x94
    5686:	429a      	cmp	r2, r3
    5688:	f47d adfb 	bne.w	3282 <runSpanKernels()+0x22>
    568c:	b047      	add	sp, #284	; 0x11c
    568e:	ecbd 8b06 	vpop	{d8-d10}
    5692:	e8bd 8ff0 	ldmia.w	sp!, {r4, r5, r6, r7, r8, r9, sl, fp, pc}
    5696:	f843 0b04 	str.w	r0, [r3], #4
    569a:	42b3      	cmp	r3, r6
    569c:	d09d      	beq.n	55da <runSpanKernels()+0x237a>
    569e:	f843 0b04 	str.w	r0, [r3], #4
    56a2:	42b3      	cmp	r3, r6
    56a4:	d1f7      	bne.n	5696 <runSpanKernels()+0x2436>
    56a6:	e798      	b.n	55da <runSpanKernels()+0x237a>
    56a8:	454d      	cmp	r5, r9
    56aa:	d898      	bhi.n	55de <runSpanKernels()+0x237e>
    56ac:	2d00      	cmp	r5, #0
    56ae:	f040 82c5 	bne.w	5c3c <runSpanKernels()+0x29dc>
    56b2:	4b67      	ldr	r3, [pc, #412]	; (5850 <runSpanKernels()+0x25f0>)
    56b4:	3901      	subs	r1, #1
    56b6:	ea84 0403 	eor.w	r4, r4, r3
    56ba:	f47f af7e 	bne.w	55ba <runSpanKernels()+0x235a>
    56be:	e7ab      	b.n	5618 <runSpanKernels()+0x23b8>
    56c0:	4b63      	ldr	r3, [pc, #396]	; (5850 <runSpanKernels()+0x25f0>)
    56c2:	3901      	subs	r1, #1
    56c4:	ea84 0403 	eor.w	r4, r4, r3
    56c8:	f47f ae99 	bne.w	53fe <runSpanKernels()+0x219e>
    56cc:	e6b4      	b.n	5438 <runSpanKernels()+0x21d8>
    56ce:	4547      	cmp	r7, r8
    56d0:	f63f adf5 	bhi.w	52be <runSpanKernels()+0x205e>
    56d4:	2f00      	cmp	r7, #0
    56d6:	f040 82a3 	bne.w	5c20 <runSpanKernels()+0x29c0>
    56da:	4b5d      	ldr	r3, [pc, #372]	; (5850 <runSpanKernels()+0x25f0>)
    56dc:	3c01      	subs	r4, #1
    56de:	ea85 0503 	eor.w	r5, r5, r3
    56e2:	f47f ade2 	bne.w	52aa <runSpanKernels()+0x204a>
    56e6:	e600      	b.n	52ea <runSpanKernels()+0x208a>
    56e8:	4b59      	ldr	r3, [pc, #356]	; (5850 <runSpanKernels()+0x25f0>)
    56ea:	f1bb 0b01 	subs.w	fp, fp, #1
    56ee:	ea85 0503 	eor.w	r5, r5, r3
    56f2:	f47f ad36 	bne.w	5162 <runSpanKernels()+0x1f02>
    56f6:	e54a      	b.n	518e <runSpanKernels()+0x1f2e>
    56f8:	4b55      	ldr	r3, [pc, #340]	; (5850 <runSpanKernels()+0x25f0>)
    56fa:	3a01      	subs	r2, #1
    56fc:	ea87 0703 	eor.w	r7, r7, r3
    5700:	f47f a994 	bne.w	4a2c <runSpanKernels()+0x17cc>
    5704:	f7ff ba1f 	b.w	4b46 <runSpanKernels()+0x18e6>
    5708:	4b51      	ldr	r3, [pc, #324]	; (5850 <runSpanKernels()+0x25f0>)
    570a:	3f01      	subs	r7, #1
    570c:	ea85 0503 	eor.w	r5, r5, r3
    5710:	f47f a90b 	bne.w	492a <runSpanKernels()+0x16ca>
    5714:	f7ff b921 	b.w	495a <runSpanKernels()+0x16fa>
    5718:	4b4d      	ldr	r3, [pc, #308]	; (5850 <runSpanKernels()+0x25f0>)
    571a:	3d01      	subs	r5, #1
    571c:	ea84 0403 	eor.w	r4, r4, r3
    5720:	f47f a87e 	bne.w	4820 <runSpanKernels()+0x15c0>
    5724:	f7ff b894 	b.w	4850 <runSpanKernels()+0x15f0>
    5728:	4b49      	ldr	r3, [pc, #292]	; (5850 <runSpanKernels()+0x25f0>)
    572a:	3c01      	subs	r4, #1
    572c:	ea85 0503 	eor.w	r5, r5, r3
    5730:	f47e afaf 	bne.w	4692 <runSpanKernels()+0x1432>
    5734:	f7fe bfee 	b.w	4714 <runSpanKernels()+0x14b4>
    5738:	4b45      	ldr	r3, [pc, #276]	; (5850 <runSpanKernels()+0x25f0>)
    573a:	3d01      	subs	r5, #1
    573c:	ea84 0403 	eor.w	r4, r4, r3
    5740:	f47e aeb4 	bne.w	44ac <runSpanKernels()+0x124c>
    5744:	f7fe bef3 	b.w	452e <runSpanKernels()+0x12ce>
    5748:	4b41      	ldr	r3, [pc, #260]	; (5850 <runSpanKernels()+0x25f0>)
    574a:	3c01      	subs	r4, #1
    574c:	ea85 0503 	eor.w	r5, r5, r3
    5750:	f47e ad9d 	bne.w	428e <runSpanKernels()+0x102e>
    5754:	f7fe bddc 	b.w	4310 <runSpanKernels()+0x10b0>
    5758:	4b3d      	ldr	r3, [pc, #244]	; (5850 <runSpanKernels()+0x25f0>)
    575a:	3d01      	subs	r5, #1
    575c:	ea84 0403 	eor.w	r4, r4, r3
    5760:	f47e ac9e 	bne.w	40a0 <runSpanKernels()+0xe40>
    5764:	f7fe bcdd 	b.w	4122 <runSpanKernels()+0xec2>
    5768:	4b39      	ldr	r3, [pc, #228]	; (5850 <runSpanKernels()+0x25f0>)
    576a:	3c01      	subs	r4, #1
    576c:	ea85 0503 	eor.w	r5, r5, r3
    5770:	f47e ab8b 	bne.w	3e8a <runSpanKernels()+0xc2a>
    5774:	f7fe bbc0 	b.w	3ef8 <runSpanKernels()+0xc98>
    5778:	4b35      	ldr	r3, [pc, #212]	; (5850 <runSpanKernels()+0x25f0>)
    577a:	3d01      	subs	r5, #1
    577c:	ea84 0403 	eor.w	r4, r4, r3
    5780:	f47e aaa1 	bne.w	3cc6 <runSpanKernels()+0xa66>
    5784:	f7fe bad6 	b.w	3d34 <runSpanKernels()+0xad4>
    5788:	4b31      	ldr	r3, [pc, #196]	; (5850 <runSpanKernels()+0x25f0>)
    578a:	3c01      	subs	r4, #1
    578c:	ea85 0503 	eor.w	r5, r5, r3
    5790:	f47e a9ac 	bne.w	3aec <runSpanKernels()+0x88c>
    5794:	f7fe b9d7 	b.w	3b46 <runSpanKernels()+0x8e6>
    5798:	4b2d      	ldr	r3, [pc, #180]	; (5850 <runSpanKernels()+0x25f0>)
    579a:	3d01      	subs	r5, #1
    579c:	ea84 0403 	eor.w	r4, r4, r3
    57a0:	f47e a8e4 	bne.w	396c <runSpanKernels()+0x70c>
    57a4:	f7fe b90f 	b.w	39c6 <runSpanKernels()+0x766>
    57a8:	4573      	cmp	r3, lr
    57aa:	f63e a803 	bhi.w	37b4 <runSpanKernels()+0x554>
    57ae:	2b00      	cmp	r3, #0
    57b0:	f040 8227 	bne.w	5c02 <runSpanKernels()+0x29a2>
    57b4:	4a26      	ldr	r2, [pc, #152]	; (5850 <runSpanKernels()+0x25f0>)
    57b6:	3c01      	subs	r4, #1
    57b8:	ea85 0502 	eor.w	r5, r5, r2
    57bc:	f47d afe1 	bne.w	3782 <runSpanKernels()+0x522>
    57c0:	f7fe b823 	b.w	380a <runSpanKernels()+0x5aa>
    57c4:	4a22      	ldr	r2, [pc, #136]	; (5850 <runSpanKernels()+0x25f0>)
    57c6:	3b01      	subs	r3, #1
    57c8:	ea84 0402 	eor.w	r4, r4, r2
    57cc:	f47d aee6 	bne.w	359c <runSpanKernels()+0x33c>
    57d0:	f7fd bf0b 	b.w	35ea <runSpanKernels()+0x38a>
    57d4:	4b1e      	ldr	r3, [pc, #120]	; (5850 <runSpanKernels()+0x25f0>)
    57d6:	3c01      	subs	r4, #1
    57d8:	ea85 0503 	eor.w	r5, r5, r3
    57dc:	f47d ae0c 	bne.w	33f8 <runSpanKernels()+0x198>
    57e0:	f7fd be31 	b.w	3446 <runSpanKernels()+0x1e6>
    57e4:	2300      	movs	r3, #0
    57e6:	e618      	b.n	541a <runSpanKernels()+0x21ba>
    57e8:	4b19      	ldr	r3, [pc, #100]	; (5850 <runSpanKernels()+0x25f0>)
    57ea:	e44a      	b.n	5082 <runSpanKernels()+0x1e22>
    57ec:	4b18      	ldr	r3, [pc, #96]	; (5850 <runSpanKernels()+0x25f0>)
    57ee:	f7ff baa7 	b.w	4d40 <runSpanKernels()+0x1ae0>
    57f2:	9b1e      	ldr	r3, [sp, #120]	; 0x78
    57f4:	2200      	movs	r2, #0
    57f6:	eb0a 0503 	add.w	r5, sl, r3
    57fa:	e5cf      	b.n	539c <runSpanKernels()+0x213c>
    57fc:	2301      	movs	r3, #1
    57fe:	9329      	str	r3, [sp, #164]	; 0xa4
    5800:	f7fd bd7d 	b.w	32fe <runSpanKernels()+0x9e>
    5804:	ee1a 3a90 	vmov	r3, s21
    5808:	4a10      	ldr	r2, [pc, #64]	; (584c <runSpanKernels()+0x25ec>)
    580a:	eb0a 0603 	add.w	r6, sl, r3
    580e:	4653      	mov	r3, sl
    5810:	f843 2b04 	str.w	r2, [r3], #4
    5814:	429e      	cmp	r6, r3
    5816:	d1fb      	bne.n	5810 <runSpanKernels()+0x25b0>
    5818:	9b21      	ldr	r3, [sp, #132]	; 0x84
    581a:	eb0a 0b03 	add.w	fp, sl, r3
    581e:	e672      	b.n	5506 <runSpanKernels()+0x22a6>
    5820:	2300      	movs	r3, #0
    5822:	e5a3      	b.n	536c <runSpanKernels()+0x210c>
    5824:	490a      	ldr	r1, [pc, #40]	; (5850 <runSpanKernels()+0x25f0>)
    5826:	463b      	mov	r3, r7
    5828:	465a      	mov	r2, fp
    582a:	a83a      	add	r0, sp, #232	; 0xe8
    582c:	46c3      	mov	fp, r8
    582e:	f04f 0901 	mov.w	r9, #1
    5832:	e9cd 8102 	strd	r8, r1, [sp, #8]
    5836:	e9cd 6400 	strd	r6, r4, [sp]
    583a:	490a      	ldr	r1, [pc, #40]	; (5864 <runSpanKernels()+0x2604>)
    583c:	f7fb fa22 	bl	c84 <printResult(char const*, char const*, unsigned long, unsigned long, unsigned long, unsigned long, unsigned long, unsigned long, unsigned long, char const*) [clone .constprop.0]>
    5840:	9b1e      	ldr	r3, [sp, #120]	; 0x78
    5842:	eb0a 0503 	add.w	r5, sl, r3
    5846:	e5c5      	b.n	53d4 <runSpanKernels()+0x2174>
    5848:	e0001000 	.word	0xe0001000
    584c:	39e739e7 	.word	0x39e739e7
    5850:	811c9dc5 	.word	0x811c9dc5
    5854:	01000193 	.word	0x01000193
    5858:	20007138 	.word	0x20007138
    585c:	20000658 	.word	0x20000658
    5860:	2000066c 	.word	0x2000066c
    5864:	2000068c 	.word	0x2000068c
    5868:	49ba      	ldr	r1, [pc, #744]	; (5b54 <runSpanKernels()+0x28f4>)
    586a:	465b      	mov	r3, fp
    586c:	9a09      	ldr	r2, [sp, #36]	; 0x24
    586e:	a83a      	add	r0, sp, #232	; 0xe8
    5870:	46c3      	mov	fp, r8
    5872:	e9cd 8102 	strd	r8, r1, [sp, #8]
    5876:	e9cd 7600 	strd	r7, r6, [sp]
    587a:	49b7      	ldr	r1, [pc, #732]	; (5b58 <runSpanKernels()+0x28f8>)
    587c:	f7fb fa02 	bl	c84 <printResult(char const*, char const*, unsigned long, unsigned long, unsigned long, unsigned long, unsigned long, unsigned long, unsigned long, char const*) [clone .constprop.0]>
    5880:	2301      	movs	r3, #1
    5882:	9309      	str	r3, [sp, #36]	; 0x24
    5884:	f7fd be5e 	b.w	3544 <runSpanKernels()+0x2e4>
    5888:	4ab4      	ldr	r2, [pc, #720]	; (5b5c <runSpanKernels()+0x28fc>)
    588a:	46c3      	mov	fp, r8
    588c:	eb02 0a03 	add.w	sl, r2, r3
    5890:	2201      	movs	r2, #1
    5892:	3b02      	subs	r3, #2
    5894:	9209      	str	r2, [sp, #36]	; 0x24
    5896:	931d      	str	r3, [sp, #116]	; 0x74
    5898:	f7fd bd91 	b.w	33be <runSpanKernels()+0x15e>
    589c:	49ad      	ldr	r1, [pc, #692]	; (5b54 <runSpanKernels()+0x28f4>)
    589e:	a83a      	add	r0, sp, #232	; 0xe8
    58a0:	9b0e      	ldr	r3, [sp, #56]	; 0x38
    58a2:	46c3      	mov	fp, r8
    58a4:	9a10      	ldr	r2, [sp, #64]	; 0x40
    58a6:	e9cd 8102 	strd	r8, r1, [sp, #8]
    58aa:	e9cd 7600 	strd	r7, r6, [sp]
    58ae:	49ac      	ldr	r1, [pc, #688]	; (5b60 <runSpanKernels()+0x2900>)
    58b0:	f7fb f9e8 	bl	c84 <printResult(char const*, char const*, unsigned long, unsigned long, unsigned long, unsigned long, unsigned long, unsigned long, unsigned long, char const*) [clone .constprop.0]>
    58b4:	4bab      	ldr	r3, [pc, #684]	; (5b64 <runSpanKernels()+0x2904>)
    58b6:	9a1c      	ldr	r2, [sp, #112]	; 0x70
    58b8:	4413      	add	r3, r2
    58ba:	931b      	str	r3, [sp, #108]	; 0x6c
    58bc:	2301      	movs	r3, #1
    58be:	9309      	str	r3, [sp, #36]	; 0x24
    58c0:	f7fe b843 	b.w	394a <runSpanKernels()+0x6ea>
    58c4:	49a3      	ldr	r1, [pc, #652]	; (5b54 <runSpanKernels()+0x28f4>)
    58c6:	465b      	mov	r3, fp
    58c8:	9a09      	ldr	r2, [sp, #36]	; 0x24
    58ca:	a83a      	add	r0, sp, #232	; 0xe8
    58cc:	e9cd 7102 	strd	r7, r1, [sp, #8]
    58d0:	e9cd 6500 	strd	r6, r5, [sp]
    58d4:	49a4      	ldr	r1, [pc, #656]	; (5b68 <runSpanKernels()+0x2908>)
    58d6:	f7fb f9d5 	bl	c84 <printResult(char const*, char const*, unsigned long, unsigned long, unsigned long, unsigned long, unsigned long, unsigned long, unsigned long, char const*) [clone .constprop.0]>
    58da:	2301      	movs	r3, #1
    58dc:	970e      	str	r7, [sp, #56]	; 0x38
    58de:	9310      	str	r3, [sp, #64]	; 0x40
    58e0:	ee1a 3a90 	vmov	r3, s21
    58e4:	eb09 0b03 	add.w	fp, r9, r3
    58e8:	f7fd bf23 	b.w	3732 <runSpanKernels()+0x4d2>
    58ec:	4999      	ldr	r1, [pc, #612]	; (5b54 <runSpanKernels()+0x28f4>)
    58ee:	981c      	ldr	r0, [sp, #112]	; 0x70
    58f0:	9b17      	ldr	r3, [sp, #92]	; 0x5c
    58f2:	9a12      	ldr	r2, [sp, #72]	; 0x48
    58f4:	e9cd 8103 	strd	r8, r1, [sp, #12]
    58f8:	2180      	movs	r1, #128	; 0x80
    58fa:	9102      	str	r1, [sp, #8]
    58fc:	499b      	ldr	r1, [pc, #620]	; (5b6c <runSpanKernels()+0x290c>)
    58fe:	e9cd 5400 	strd	r5, r4, [sp]
    5902:	180c      	adds	r4, r1, r0
    5904:	499a      	ldr	r1, [pc, #616]	; (5b70 <runSpanKernels()+0x2910>)
    5906:	a83a      	add	r0, sp, #232	; 0xe8
    5908:	9411      	str	r4, [sp, #68]	; 0x44
    590a:	f7fa fdb5 	bl	478 <printResult(char const*, char const*, unsigned long, unsigned long, unsigned long, unsigned long, unsigned long, unsigned long, unsigned long, char const*) [clone .constprop.1]>
    590e:	9d0d      	ldr	r5, [sp, #52]	; 0x34
    5910:	ee19 3a10 	vmov	r3, s18
    5914:	4649      	mov	r1, r9
    5916:	981b      	ldr	r0, [sp, #108]	; 0x6c
    5918:	462a      	mov	r2, r5
    591a:	e9cd 4800 	strd	r4, r8, [sp]
    591e:	f7fa fd23 	bl	368 <spanBilinearRef(unsigned short*, unsigned short const*, unsigned short const*, unsigned short const*, unsigned short const*, unsigned long)>
    5922:	ee19 3a10 	vmov	r3, s18
    5926:	462a      	mov	r2, r5
    5928:	4649      	mov	r1, r9
    592a:	4650      	mov	r0, sl
    592c:	e9cd 4800 	strd	r4, r8, [sp]
    5930:	f7fa fd1a 	bl	368 <spanBilinearRef(unsigned short*, unsigned short const*, unsigned short const*, unsigned short const*, unsigned short const*, unsigned long)>
    5934:	2301      	movs	r3, #1
    5936:	f8cd 8060 	str.w	r8, [sp, #96]	; 0x60
    593a:	9323      	str	r3, [sp, #140]	; 0x8c
    593c:	f7ff b966 	b.w	4c0c <runSpanKernels()+0x19ac>
    5940:	2300      	movs	r3, #0
    5942:	e5b9      	b.n	54b8 <runSpanKernels()+0x2258>
    5944:	4983      	ldr	r1, [pc, #524]	; (5b54 <runSpanKernels()+0x28f4>)
    5946:	465b      	mov	r3, fp
    5948:	464a      	mov	r2, r9
    594a:	a83a      	add	r0, sp, #232	; 0xe8
    594c:	e9cd 6500 	strd	r6, r5, [sp]
    5950:	e9cd 8102 	strd	r8, r1, [sp, #8]
    5954:	4987      	ldr	r1, [pc, #540]	; (5b74 <runSpanKernels()+0x2914>)
    5956:	f00a 0507 	and.w	r5, sl, #7
    595a:	f7fb f993 	bl	c84 <printResult(char const*, char const*, unsigned long, unsigned long, unsigned long, unsigned long, unsigned long, unsigned long, unsigned long, char const*) [clone .constprop.0]>
    595e:	2301      	movs	r3, #1
    5960:	f8cd 802c 	str.w	r8, [sp, #44]	; 0x2c
    5964:	930c      	str	r3, [sp, #48]	; 0x30
    5966:	9b21      	ldr	r3, [sp, #132]	; 0x84
    5968:	eb0a 0b03 	add.w	fp, sl, r3
    596c:	ee1a 3a90 	vmov	r3, s21
    5970:	eb0a 0603 	add.w	r6, sl, r3
    5974:	e5ff      	b.n	5576 <runSpanKernels()+0x2316>
    5976:	4977      	ldr	r1, [pc, #476]	; (5b54 <runSpanKernels()+0x28f4>)
    5978:	a83a      	add	r0, sp, #232	; 0xe8
    597a:	9b18      	ldr	r3, [sp, #96]	; 0x60
    597c:	9a23      	ldr	r2, [sp, #140]	; 0x8c
    597e:	e9cd 8103 	strd	r8, r1, [sp, #12]
    5982:	2140      	movs	r1, #64	; 0x40
    5984:	e9cd 5400 	strd	r5, r4, [sp]
    5988:	9102      	str	r1, [sp, #8]
    598a:	4973      	ldr	r1, [pc, #460]	; (5b58 <runSpanKernels()+0x28f8>)
    598c:	f7fa fd74 	bl	478 <printResult(char const*, char const*, unsigned long, unsigned long, unsigned long, unsigned long, unsigned long, unsigned long, unsigned long, char const*) [clone .constprop.1]>
    5990:	9b11      	ldr	r3, [sp, #68]	; 0x44
    5992:	9a0d      	ldr	r2, [sp, #52]	; 0x34
    5994:	4649      	mov	r1, r9
    5996:	9300      	str	r3, [sp, #0]
    5998:	ee19 3a10 	vmov	r3, s18
    599c:	981b      	ldr	r0, [sp, #108]	; 0x6c
    599e:	f8cd 8004 	str.w	r8, [sp, #4]
    59a2:	f7fa fce1 	bl	368 <spanBilinearRef(unsigned short*, unsigned short const*, unsigned short const*, unsigned short const*, unsigned short const*, unsigned long)>
    59a6:	2301      	movs	r3, #1
    59a8:	f8cd 808c 	str.w	r8, [sp, #140]	; 0x8c
    59ac:	9326      	str	r3, [sp, #152]	; 0x98
    59ae:	f7ff bacd 	b.w	4f4c <runSpanKernels()+0x1cec>
    59b2:	4968      	ldr	r1, [pc, #416]	; (5b54 <runSpanKernels()+0x28f4>)
    59b4:	4633      	mov	r3, r6
    59b6:	9a09      	ldr	r2, [sp, #36]	; 0x24
    59b8:	a83a      	add	r0, sp, #232	; 0xe8
    59ba:	e9cd 8103 	strd	r8, r1, [sp, #12]
    59be:	2180      	movs	r1, #128	; 0x80
    59c0:	e9cd b400 	strd	fp, r4, [sp]
    59c4:	9102      	str	r1, [sp, #8]
    59c6:	496c      	ldr	r1, [pc, #432]	; (5b78 <runSpanKernels()+0x2918>)
    59c8:	f7fa fd56 	bl	478 <printResult(char const*, char const*, unsigned long, unsigned long, unsigned long, unsigned long, unsigned long, unsigned long, unsigned long, char const*) [clone .constprop.1]>
    59cc:	9c0d      	ldr	r4, [sp, #52]	; 0x34
    59ce:	ee19 3a10 	vmov	r3, s18
    59d2:	4649      	mov	r1, r9
    59d4:	4622      	mov	r2, r4
    59d6:	981b      	ldr	r0, [sp, #108]	; 0x6c
    59d8:	f8cd 8000 	str.w	r8, [sp]
    59dc:	f7fa fbc2 	bl	164 <spanTriangleRef(unsigned short*, unsigned short const*, unsigned short const*, unsigned short const*, unsigned long)>
    59e0:	ee19 3a10 	vmov	r3, s18
    59e4:	4622      	mov	r2, r4
    59e6:	4649      	mov	r1, r9
    59e8:	4650      	mov	r0, sl
    59ea:	f8cd 8000 	str.w	r8, [sp]
    59ee:	f7fa fc55 	bl	29c <spanTriangleScalar(unsigned short*, unsigned short const*, unsigned short const*, unsigned short const*, unsigned long)>
    59f2:	2301      	movs	r3, #1
    59f4:	f8cd 805c 	str.w	r8, [sp, #92]	; 0x5c
    59f8:	9312      	str	r3, [sp, #72]	; 0x48
    59fa:	f7ff b80c 	b.w	4a16 <runSpanKernels()+0x17b6>
    59fe:	4955      	ldr	r1, [pc, #340]	; (5b54 <runSpanKernels()+0x28f4>)
    5a00:	465a      	mov	r2, fp
    5a02:	9b09      	ldr	r3, [sp, #36]	; 0x24
    5a04:	a83a      	add	r0, sp, #232	; 0xe8
    5a06:	9601      	str	r6, [sp, #4]
    5a08:	4646      	mov	r6, r8
    5a0a:	9300      	str	r3, [sp, #0]
    5a0c:	463b      	mov	r3, r7
    5a0e:	e9cd 8103 	strd	r8, r1, [sp, #12]
    5a12:	2180      	movs	r1, #128	; 0x80
    5a14:	9102      	str	r1, [sp, #8]
    5a16:	4950      	ldr	r1, [pc, #320]	; (5b58 <runSpanKernels()+0x28f8>)
    5a18:	f7fa fd2e 	bl	478 <printResult(char const*, char const*, unsigned long, unsigned long, unsigned long, unsigned long, unsigned long, unsigned long, unsigned long, char const*) [clone .constprop.1]>
    5a1c:	9c0d      	ldr	r4, [sp, #52]	; 0x34
    5a1e:	ee19 3a10 	vmov	r3, s18
    5a22:	4649      	mov	r1, r9
    5a24:	4622      	mov	r2, r4
    5a26:	981b      	ldr	r0, [sp, #108]	; 0x6c
    5a28:	f8cd 8000 	str.w	r8, [sp]
    5a2c:	f7fa fb9a 	bl	164 <spanTriangleRef(unsigned short*, unsigned short const*, unsigned short const*, unsigned short const*, unsigned long)>
    5a30:	ee19 3a10 	vmov	r3, s18
    5a34:	4622      	mov	r2, r4
    5a36:	4649      	mov	r1, r9
    5a38:	4650      	mov	r0, sl
    5a3a:	f8cd 8000 	str.w	r8, [sp]
    5a3e:	f7fa fbdf 	bl	200 <spanTrianglePacked(unsigned short*, unsigned short const*, unsigned short const*, unsigned short const*, unsigned long)>
    5a42:	2301      	movs	r3, #1
    5a44:	9309      	str	r3, [sp, #36]	; 0x24
    5a46:	f7fe bf62 	b.w	490e <runSpanKernels()+0x16ae>
    5a4a:	4942      	ldr	r1, [pc, #264]	; (5b54 <runSpanKernels()+0x28f4>)
    5a4c:	462b      	mov	r3, r5
    5a4e:	4632      	mov	r2, r6
    5a50:	a83a      	add	r0, sp, #232	; 0xe8
    5a52:	f04f 0b01 	mov.w	fp, #1
    5a56:	e9cd 7400 	strd	r7, r4, [sp]
    5a5a:	e9cd 8102 	strd	r8, r1, [sp, #8]
    5a5e:	4947      	ldr	r1, [pc, #284]	; (5b7c <runSpanKernels()+0x291c>)
    5a60:	4647      	mov	r7, r8
    5a62:	f7fb f90f 	bl	c84 <printResult(char const*, char const*, unsigned long, unsigned long, unsigned long, unsigned long, unsigned long, unsigned long, unsigned long, char const*) [clone .constprop.0]>
    5a66:	e40e      	b.n	5286 <runSpanKernels()+0x2026>
    5a68:	493a      	ldr	r1, [pc, #232]	; (5b54 <runSpanKernels()+0x28f4>)
    5a6a:	a83a      	add	r0, sp, #232	; 0xe8
    5a6c:	9b23      	ldr	r3, [sp, #140]	; 0x8c
    5a6e:	2601      	movs	r6, #1
    5a70:	9a26      	ldr	r2, [sp, #152]	; 0x98
    5a72:	e9cd 8103 	strd	r8, r1, [sp, #12]
    5a76:	2140      	movs	r1, #64	; 0x40
    5a78:	e9cd 5400 	strd	r5, r4, [sp]
    5a7c:	9102      	str	r1, [sp, #8]
    5a7e:	4645      	mov	r5, r8
    5a80:	493b      	ldr	r1, [pc, #236]	; (5b70 <runSpanKernels()+0x2910>)
    5a82:	f7fa fcf9 	bl	478 <printResult(char const*, char const*, unsigned long, unsigned long, unsigned long, unsigned long, unsigned long, unsigned long, unsigned long, char const*) [clone .constprop.1]>
    5a86:	f7ff bb5b 	b.w	5140 <runSpanKernels()+0x1ee0>
    5a8a:	4932      	ldr	r1, [pc, #200]	; (5b54 <runSpanKernels()+0x28f4>)
    5a8c:	465b      	mov	r3, fp
    5a8e:	9a09      	ldr	r2, [sp, #36]	; 0x24
    5a90:	a83a      	add	r0, sp, #232	; 0xe8
    5a92:	e9cd 8102 	strd	r8, r1, [sp, #8]
    5a96:	e9cd 7600 	strd	r7, r6, [sp]
    5a9a:	4937      	ldr	r1, [pc, #220]	; (5b78 <runSpanKernels()+0x2918>)
    5a9c:	f7fb f8f2 	bl	c84 <printResult(char const*, char const*, unsigned long, unsigned long, unsigned long, unsigned long, unsigned long, unsigned long, unsigned long, char const*) [clone .constprop.0]>
    5aa0:	2301      	movs	r3, #1
    5aa2:	f8cd 802c 	str.w	r8, [sp, #44]	; 0x2c
    5aa6:	930a      	str	r3, [sp, #40]	; 0x28
    5aa8:	f7fe b8fd 	b.w	3ca6 <runSpanKernels()+0xa46>
    5aac:	4929      	ldr	r1, [pc, #164]	; (5b54 <runSpanKernels()+0x28f4>)
    5aae:	465b      	mov	r3, fp
    5ab0:	9a09      	ldr	r2, [sp, #36]	; 0x24
    5ab2:	a83a      	add	r0, sp, #232	; 0xe8
    5ab4:	46c3      	mov	fp, r8
    5ab6:	e9cd 8102 	strd	r8, r1, [sp, #8]
    5aba:	e9cd 7600 	strd	r7, r6, [sp]
    5abe:	4926      	ldr	r1, [pc, #152]	; (5b58 <runSpanKernels()+0x28f8>)
    5ac0:	f7fb f8e0 	bl	c84 <printResult(char const*, char const*, unsigned long, unsigned long, unsigned long, unsigned long, unsigned long, unsigned long, unsigned long, char const*) [clone .constprop.0]>
    5ac4:	2301      	movs	r3, #1
    5ac6:	9309      	str	r3, [sp, #36]	; 0x24
    5ac8:	f7fd bfff 	b.w	3aca <runSpanKernels()+0x86a>
    5acc:	4921      	ldr	r1, [pc, #132]	; (5b54 <runSpanKernels()+0x28f4>)
    5ace:	a83a      	add	r0, sp, #232	; 0xe8
    5ad0:	e9dd 230a 	ldrd	r2, r3, [sp, #40]	; 0x28
    5ad4:	e9cd 8102 	strd	r8, r1, [sp, #8]
    5ad8:	e9cd 7600 	strd	r7, r6, [sp]
    5adc:	4926      	ldr	r1, [pc, #152]	; (5b78 <runSpanKernels()+0x2918>)
    5ade:	f7fb f8d1 	bl	c84 <printResult(char const*, char const*, unsigned long, unsigned long, unsigned long, unsigned long, unsigned long, unsigned long, unsigned long, char const*) [clone .constprop.0]>
    5ae2:	2301      	movs	r3, #1
    5ae4:	f8cd 8030 	str.w	r8, [sp, #48]	; 0x30
    5ae8:	930b      	str	r3, [sp, #44]	; 0x2c
    5aea:	f7fe bad1 	b.w	4090 <runSpanKernels()+0xe30>
    5aee:	4919      	ldr	r1, [pc, #100]	; (5b54 <runSpanKernels()+0x28f4>)
    5af0:	a83a      	add	r0, sp, #232	; 0xe8
    5af2:	e9dd 230a 	ldrd	r2, r3, [sp, #40]	; 0x28
    5af6:	e9cd 8102 	strd	r8, r1, [sp, #8]
    5afa:	e9cd 7600 	strd	r7, r6, [sp]
    5afe:	4916      	ldr	r1, [pc, #88]	; (5b58 <runSpanKernels()+0x28f8>)
    5b00:	f7fb f8c0 	bl	c84 <printResult(char const*, char const*, unsigned long, unsigned long, unsigned long, unsigned long, unsigned long, unsigned long, unsigned long, char const*) [clone .constprop.0]>
    5b04:	2301      	movs	r3, #1
    5b06:	f8cd 802c 	str.w	r8, [sp, #44]	; 0x2c
    5b0a:	930a      	str	r3, [sp, #40]	; 0x28
    5b0c:	f7fe b9ad 	b.w	3e6a <runSpanKernels()+0xc0a>
    5b10:	4910      	ldr	r1, [pc, #64]	; (5b54 <runSpanKernels()+0x28f4>)
    5b12:	a83a      	add	r0, sp, #232	; 0xe8
    5b14:	e9dd 230a 	ldrd	r2, r3, [sp, #40]	; 0x28
    5b18:	e9cd 8102 	strd	r8, r1, [sp, #8]
    5b1c:	e9cd 7600 	strd	r7, r6, [sp]
    5b20:	4917      	ldr	r1, [pc, #92]	; (5b80 <runSpanKernels()+0x2920>)
    5b22:	f7fb f8af 	bl	c84 <printResult(char const*, char const*, unsigned long, unsigned long, unsigned long, unsigned long, unsigned long, unsigned long, unsigned long, char const*) [clone .constprop.0]>
    5b26:	2301      	movs	r3, #1
    5b28:	f8cd 8030 	str.w	r8, [sp, #48]	; 0x30
    5b2c:	930b      	str	r3, [sp, #44]	; 0x2c
    5b2e:	f7fe bcb5 	b.w	449c <runSpanKernels()+0x123c>
    5b32:	4908      	ldr	r1, [pc, #32]	; (5b54 <runSpanKernels()+0x28f4>)
    5b34:	a83a      	add	r0, sp, #232	; 0xe8
    5b36:	e9dd 230b 	ldrd	r2, r3, [sp, #44]	; 0x2c
    5b3a:	e9cd 8102 	strd	r8, r1, [sp, #8]
    5b3e:	e9cd 7600 	strd	r7, r6, [sp]
    5b42:	4905      	ldr	r1, [pc, #20]	; (5b58 <runSpanKernels()+0x28f8>)
    5b44:	f7fb f89e 	bl	c84 <printResult(char const*, char const*, unsigned long, unsigned long, unsigned long, unsigned long, unsigned long, unsigned long, unsigned long, char const*) [clone .constprop.0]>
    5b48:	2301      	movs	r3, #1
    5b4a:	f8cd 802c 	str.w	r8, [sp, #44]	; 0x2c
    5b4e:	930a      	str	r3, [sp, #40]	; 0x28
    5b50:	f7fe bb95 	b.w	427e <runSpanKernels()+0x101e>
    5b54:	811c9dc5 	.word	0x811c9dc5
    5b58:	200006c4 	.word	0x200006c4
    5b5c:	2000917c 	.word	0x2000917c
    5b60:	200006fc 	.word	0x200006fc
    5b64:	2000958c 	.word	0x2000958c
    5b68:	20000710 	.word	0x20000710
    5b6c:	200024a0 	.word	0x200024a0
    5b70:	200006ac 	.word	0x200006ac
    5b74:	20000680 	.word	0x20000680
    5b78:	200006d8 	.word	0x200006d8
    5b7c:	200006a0 	.word	0x200006a0
    5b80:	200006ec 	.word	0x200006ec
    5b84:	493b      	ldr	r1, [pc, #236]	; (5c74 <runSpanKernels()+0x2a14>)
    5b86:	f04f 0b01 	mov.w	fp, #1
    5b8a:	981c      	ldr	r0, [sp, #112]	; 0x70
    5b8c:	e9cd 8102 	strd	r8, r1, [sp, #8]
    5b90:	4939      	ldr	r1, [pc, #228]	; (5c78 <runSpanKernels()+0x2a18>)
    5b92:	4401      	add	r1, r0
    5b94:	a83a      	add	r0, sp, #232	; 0xe8
    5b96:	e9dd 230a 	ldrd	r2, r3, [sp, #40]	; 0x28
    5b9a:	e9cd 7600 	strd	r7, r6, [sp]
    5b9e:	ee09 1a10 	vmov	s18, r1
    5ba2:	460e      	mov	r6, r1
    5ba4:	4935      	ldr	r1, [pc, #212]	; (5c7c <runSpanKernels()+0x2a1c>)
    5ba6:	4647      	mov	r7, r8
    5ba8:	f7fb f86c 	bl	c84 <printResult(char const*, char const*, unsigned long, unsigned long, unsigned long, unsigned long, unsigned long, unsigned long, unsigned long, char const*) [clone .constprop.0]>
    5bac:	9d0d      	ldr	r5, [sp, #52]	; 0x34
    5bae:	4633      	mov	r3, r6
    5bb0:	4649      	mov	r1, r9
    5bb2:	462a      	mov	r2, r5
    5bb4:	981b      	ldr	r0, [sp, #108]	; 0x6c
    5bb6:	f8cd 8000 	str.w	r8, [sp]
    5bba:	f7fa fad3 	bl	164 <spanTriangleRef(unsigned short*, unsigned short const*, unsigned short const*, unsigned short const*, unsigned long)>
    5bbe:	4633      	mov	r3, r6
    5bc0:	462a      	mov	r2, r5
    5bc2:	4649      	mov	r1, r9
    5bc4:	4650      	mov	r0, sl
    5bc6:	f8cd 8000 	str.w	r8, [sp]
    5bca:	f7fa facb 	bl	164 <spanTriangleRef(unsigned short*, unsigned short const*, unsigned short const*, unsigned short const*, unsigned long)>
    5bce:	f7fe be17 	b.w	4800 <runSpanKernels()+0x15a0>
    5bd2:	4928      	ldr	r1, [pc, #160]	; (5c74 <runSpanKernels()+0x2a14>)
    5bd4:	a83a      	add	r0, sp, #232	; 0xe8
    5bd6:	e9dd 230b 	ldrd	r2, r3, [sp, #44]	; 0x2c
    5bda:	e9cd 8102 	strd	r8, r1, [sp, #8]
    5bde:	e9cd 7600 	strd	r7, r6, [sp]
    5be2:	4927      	ldr	r1, [pc, #156]	; (5c80 <runSpanKernels()+0x2a20>)
    5be4:	f7fb f84e 	bl	c84 <printResult(char const*, char const*, unsigned long, unsigned long, unsigned long, unsigned long, unsigned long, unsigned long, unsigned long, char const*) [clone .constprop.0]>
    5be8:	2301      	movs	r3, #1
    5bea:	f8cd 802c 	str.w	r8, [sp, #44]	; 0x2c
    5bee:	930a      	str	r3, [sp, #40]	; 0x28
    5bf0:	f7fe bd47 	b.w	4682 <runSpanKernels()+0x1422>
    5bf4:	ee1a 2a90 	vmov	r2, s21
    5bf8:	2300      	movs	r3, #0
    5bfa:	eb09 0b02 	add.w	fp, r9, r2
    5bfe:	f7fd bd5f 	b.w	36c0 <runSpanKernels()+0x460>
    5c02:	f8bb 2002 	ldrh.w	r2, [fp, #2]
    5c06:	491f      	ldr	r1, [pc, #124]	; (5c84 <runSpanKernels()+0x2a24>)
    5c08:	f082 4201 	eor.w	r2, r2, #2164260864	; 0x81000000
    5c0c:	f482 12e4 	eor.w	r2, r2, #1867776	; 0x1c8000
    5c10:	f482 52ee 	eor.w	r2, r2, #7616	; 0x1dc0
    5c14:	f082 0205 	eor.w	r2, r2, #5
    5c18:	fb01 f202 	mul.w	r2, r1, r2
    5c1c:	f7fd bdf1 	b.w	3802 <runSpanKernels()+0x5a2>
    5c20:	9b13      	ldr	r3, [sp, #76]	; 0x4c
    5c22:	885b      	ldrh	r3, [r3, #2]
    5c24:	f083 4301 	eor.w	r3, r3, #2164260864	; 0x81000000
    5c28:	f483 13e4 	eor.w	r3, r3, #1867776	; 0x1c8000
    5c2c:	f483 53ee 	eor.w	r3, r3, #7616	; 0x1dc0
    5c30:	f083 0305 	eor.w	r3, r3, #5
    5c34:	fb06 f303 	mul.w	r3, r6, r3
    5c38:	f7ff bb53 	b.w	52e2 <runSpanKernels()+0x2082>
    5c3c:	f8bb 3002 	ldrh.w	r3, [fp, #2]
    5c40:	4f10      	ldr	r7, [pc, #64]	; (5c84 <runSpanKernels()+0x2a24>)
    5c42:	f083 4301 	eor.w	r3, r3, #2164260864	; 0x81000000
    5c46:	f483 13e4 	eor.w	r3, r3, #1867776	; 0x1c8000
    5c4a:	f483 53ee 	eor.w	r3, r3, #7616	; 0x1dc0
    5c4e:	f083 0305 	eor.w	r3, r3, #5
    5c52:	fb07 f303 	mul.w	r3, r7, r3
    5c56:	e4db      	b.n	5610 <runSpanKernels()+0x23b0>
    5c58:	9a21      	ldr	r2, [sp, #132]	; 0x84
    5c5a:	2300      	movs	r3, #0
    5c5c:	f00a 0507 	and.w	r5, sl, #7
    5c60:	eb0a 0b02 	add.w	fp, sl, r2
    5c64:	ee1a 2a90 	vmov	r2, s21
    5c68:	eb0a 0602 	add.w	r6, sl, r2
    5c6c:	e44e      	b.n	550c <runSpanKernels()+0x22ac>
    5c6e:	2000      	movs	r0, #0
    5c70:	f7ff baec 	b.w	524c <runSpanKernels()+0x1fec>
    5c74:	811c9dc5 	.word	0x811c9dc5
    5c78:	20002098 	.word	0x20002098
    5c7c:	200006ec 	.word	0x200006ec
    5c80:	200006c4 	.word	0x200006c4
    5c84:	01000193 	.word	0x01000193

00005c88 <setup>:
    5c88:	e92d 4ff0 	stmdb	sp!, {r4, r5, r6, r7, r8, r9, sl, fp, lr}
    5c8c:	4c43      	ldr	r4, [pc, #268]	; (5d9c <setup+0x114>)
    5c8e:	b08f      	sub	sp, #60	; 0x3c
    5c90:	4d43      	ldr	r5, [pc, #268]	; (5da0 <setup+0x118>)
    5c92:	f240 28ee 	movw	r8, #750	; 0x2ee
    5c96:	4f43      	ldr	r7, [pc, #268]	; (5da4 <setup+0x11c>)
    5c98:	f8df 9154 	ldr.w	r9, [pc, #340]	; 5df0 <setup+0x168>
    5c9c:	6826      	ldr	r6, [r4, #0]
    5c9e:	f002 f823 	bl	7ce8 <yield>
    5ca2:	782b      	ldrb	r3, [r5, #0]
    5ca4:	2b00      	cmp	r3, #0
    5ca6:	f000 81d5 	beq.w	6054 <setup+0x3cc>
    5caa:	783b      	ldrb	r3, [r7, #0]
    5cac:	07da      	lsls	r2, r3, #31
    5cae:	f140 81d1 	bpl.w	6054 <setup+0x3cc>
    5cb2:	6823      	ldr	r3, [r4, #0]
    5cb4:	f8d9 2000 	ldr.w	r2, [r9]
    5cb8:	1a9b      	subs	r3, r3, r2
    5cba:	2b0e      	cmp	r3, #14
    5cbc:	f240 81ca 	bls.w	6054 <setup+0x3cc>
    5cc0:	6827      	ldr	r7, [r4, #0]
    5cc2:	f241 3687 	movw	r6, #4999	; 0x1387
    5cc6:	f8df 80dc 	ldr.w	r8, [pc, #220]	; 5da4 <setup+0x11c>
    5cca:	f8df 9124 	ldr.w	r9, [pc, #292]	; 5df0 <setup+0x168>
    5cce:	f002 f80b 	bl	7ce8 <yield>
    5cd2:	782b      	ldrb	r3, [r5, #0]
    5cd4:	200a      	movs	r0, #10
    5cd6:	2b00      	cmp	r3, #0
    5cd8:	f000 81c7 	beq.w	606a <setup+0x3e2>
    5cdc:	f898 3000 	ldrb.w	r3, [r8]
    5ce0:	07db      	lsls	r3, r3, #31
    5ce2:	f140 81c2 	bpl.w	606a <setup+0x3e2>
    5ce6:	6823      	ldr	r3, [r4, #0]
    5ce8:	f8d9 2000 	ldr.w	r2, [r9]
    5cec:	1a9b      	subs	r3, r3, r2
    5cee:	2b0e      	cmp	r3, #14
    5cf0:	f240 81bb 	bls.w	606a <setup+0x3e2>
    5cf4:	6826      	ldr	r6, [r4, #0]
    5cf6:	f642 65df 	movw	r5, #11999	; 0x2edf
    5cfa:	6823      	ldr	r3, [r4, #0]
    5cfc:	1b9b      	subs	r3, r3, r6
    5cfe:	42ab      	cmp	r3, r5
    5d00:	d906      	bls.n	5d10 <setup+0x88>
    5d02:	e012      	b.n	5d2a <setup+0xa2>
    5d04:	f000 fb4c 	bl	63a0 <delay>
    5d08:	6823      	ldr	r3, [r4, #0]
    5d0a:	1b9b      	subs	r3, r3, r6
    5d0c:	42ab      	cmp	r3, r5
    5d0e:	d80c      	bhi.n	5d2a <setup+0xa2>
    5d10:	f001 fed4 	bl	7abc <usb_serial_available>
    5d14:	4603      	mov	r3, r0
    5d16:	200a      	movs	r0, #10
    5d18:	2b00      	cmp	r3, #0
    5d1a:	ddf3      	ble.n	5d04 <setup+0x7c>
    5d1c:	e001      	b.n	5d22 <setup+0x9a>
    5d1e:	f001 ff3f 	bl	7ba0 <usb_serial_getchar>
    5d22:	f001 fecb 	bl	7abc <usb_serial_available>
    5d26:	2800      	cmp	r0, #0
    5d28:	dcf9      	bgt.n	5d1e <setup+0x96>
    5d2a:	2064      	movs	r0, #100	; 0x64
    5d2c:	4c1e      	ldr	r4, [pc, #120]	; (5da8 <setup+0x120>)
    5d2e:	f000 fb37 	bl	63a0 <delay>
    5d32:	f04f 21e0 	mov.w	r1, #3758153728	; 0xe000e000
    5d36:	4b1d      	ldr	r3, [pc, #116]	; (5dac <setup+0x124>)
    5d38:	2000      	movs	r0, #0
    5d3a:	f8d1 2dfc 	ldr.w	r2, [r1, #3580]	; 0xdfc
    5d3e:	4f1c      	ldr	r7, [pc, #112]	; (5db0 <setup+0x128>)
    5d40:	f042 7280 	orr.w	r2, r2, #16777216	; 0x1000000
    5d44:	f8df 80ac 	ldr.w	r8, [pc, #172]	; 5df4 <setup+0x16c>
    5d48:	4e1a      	ldr	r6, [pc, #104]	; (5db4 <setup+0x12c>)
    5d4a:	f8c1 2dfc 	str.w	r2, [r1, #3580]	; 0xdfc
    5d4e:	6058      	str	r0, [r3, #4]
    5d50:	681a      	ldr	r2, [r3, #0]
    5d52:	4919      	ldr	r1, [pc, #100]	; (5db8 <setup+0x130>)
    5d54:	f042 0201 	orr.w	r2, r2, #1
    5d58:	ed9f 7a18 	vldr	s14, [pc, #96]	; 5dbc <setup+0x134>
    5d5c:	f8df c098 	ldr.w	ip, [pc, #152]	; 5df8 <setup+0x170>
    5d60:	601a      	str	r2, [r3, #0]
    5d62:	4b17      	ldr	r3, [pc, #92]	; (5dc0 <setup+0x138>)
    5d64:	4a17      	ldr	r2, [pc, #92]	; (5dc4 <setup+0x13c>)
    5d66:	4d18      	ldr	r5, [pc, #96]	; (5dc8 <setup+0x140>)
    5d68:	9103      	str	r1, [sp, #12]
    5d6a:	9601      	str	r6, [sp, #4]
    5d6c:	e9cd 430a 	strd	r4, r3, [sp, #40]	; 0x28
    5d70:	4b16      	ldr	r3, [pc, #88]	; (5dcc <setup+0x144>)
    5d72:	4c17      	ldr	r4, [pc, #92]	; (5dd0 <setup+0x148>)
    5d74:	e9cd 230c 	strd	r2, r3, [sp, #48]	; 0x30
    5d78:	4b16      	ldr	r3, [pc, #88]	; (5dd4 <setup+0x14c>)
    5d7a:	4a17      	ldr	r2, [pc, #92]	; (5dd8 <setup+0x150>)
    5d7c:	9304      	str	r3, [sp, #16]
    5d7e:	4b17      	ldr	r3, [pc, #92]	; (5ddc <setup+0x154>)
    5d80:	9305      	str	r3, [sp, #20]
    5d82:	4b17      	ldr	r3, [pc, #92]	; (5de0 <setup+0x158>)
    5d84:	9306      	str	r3, [sp, #24]
    5d86:	4b17      	ldr	r3, [pc, #92]	; (5de4 <setup+0x15c>)
    5d88:	9307      	str	r3, [sp, #28]
    5d8a:	4b17      	ldr	r3, [pc, #92]	; (5de8 <setup+0x160>)
    5d8c:	9308      	str	r3, [sp, #32]
    5d8e:	4b17      	ldr	r3, [pc, #92]	; (5dec <setup+0x164>)
    5d90:	9302      	str	r3, [sp, #8]
    5d92:	463b      	mov	r3, r7
    5d94:	4647      	mov	r7, r8
    5d96:	4698      	mov	r8, r3
    5d98:	e139      	b.n	600e <setup+0x386>
    5d9a:	bf00      	nop
    5d9c:	20009bd0 	.word	0x20009bd0
    5da0:	20009bfe 	.word	0x20009bfe
    5da4:	20009bfd 	.word	0x20009bfd
    5da8:	ffff0000 	.word	0xffff0000
    5dac:	e0001000 	.word	0xe0001000
    5db0:	20001888 	.word	0x20001888
    5db4:	20002098 	.word	0x20002098
    5db8:	2000249e 	.word	0x2000249e
    5dbc:	477fff00 	.word	0x477fff00
    5dc0:	07e0f800 	.word	0x07e0f800
    5dc4:	ffff001f 	.word	0xffff001f
    5dc8:	ff00ff01 	.word	0xff00ff01
    5dcc:	f7de0821 	.word	0xf7de0821
    5dd0:	2000794c 	.word	0x2000794c
    5dd4:	20007138 	.word	0x20007138
    5dd8:	9e3779b9 	.word	0x9e3779b9
    5ddc:	20005904 	.word	0x20005904
    5de0:	200050f4 	.word	0x200050f4
    5de4:	200048e4 	.word	0x200048e4
    5de8:	20006924 	.word	0x20006924
    5dec:	200040d4 	.word	0x200040d4
    5df0:	20009be0 	.word	0x20009be0
    5df4:	20001c90 	.word	0x20001c90
    5df8:	200038c4 	.word	0x200038c4
    5dfc:	ea82 3242 	eor.w	r2, r2, r2, lsl #13
    5e00:	9b01      	ldr	r3, [sp, #4]
    5e02:	ea82 4252 	eor.w	r2, r2, r2, lsr #17
    5e06:	ea82 1242 	eor.w	r2, r2, r2, lsl #5
    5e0a:	f8a8 2000 	strh.w	r2, [r8]
    5e0e:	ea82 3242 	eor.w	r2, r2, r2, lsl #13
    5e12:	ea82 4252 	eor.w	r2, r2, r2, lsr #17
    5e16:	ea82 1242 	eor.w	r2, r2, r2, lsl #5
    5e1a:	803a      	strh	r2, [r7, #0]
    5e1c:	ea82 3242 	eor.w	r2, r2, r2, lsl #13
    5e20:	ea82 4252 	eor.w	r2, r2, r2, lsr #17
    5e24:	ea82 1242 	eor.w	r2, r2, r2, lsl #5
    5e28:	801a      	strh	r2, [r3, #0]
    5e2a:	ea82 3242 	eor.w	r2, r2, r2, lsl #13
    5e2e:	ea82 4252 	eor.w	r2, r2, r2, lsr #17
    5e32:	ea82 1242 	eor.w	r2, r2, r2, lsl #5
    5e36:	b293      	uxth	r3, r2
    5e38:	9903      	ldr	r1, [sp, #12]
    5e3a:	340c      	adds	r4, #12
    5e3c:	9e05      	ldr	r6, [sp, #20]
    5e3e:	f108 0802 	add.w	r8, r8, #2
    5e42:	f821 3f02 	strh.w	r3, [r1, #2]!
    5e46:	ea82 3342 	eor.w	r3, r2, r2, lsl #13
    5e4a:	9a01      	ldr	r2, [sp, #4]
    5e4c:	3702      	adds	r7, #2
    5e4e:	ea83 4353 	eor.w	r3, r3, r3, lsr #17
    5e52:	9103      	str	r1, [sp, #12]
    5e54:	3202      	adds	r2, #2
    5e56:	498a      	ldr	r1, [pc, #552]	; (6080 <setup+0x3f8>)
    5e58:	ea83 1343 	eor.w	r3, r3, r3, lsl #5
    5e5c:	9201      	str	r2, [sp, #4]
    5e5e:	eb01 0e80 	add.w	lr, r1, r0, lsl #2
    5e62:	4a88      	ldr	r2, [pc, #544]	; (6084 <setup+0x3fc>)
    5e64:	fba5 1b03 	umull	r1, fp, r5, r3
    5e68:	eb02 0280 	add.w	r2, r2, r0, lsl #2
    5e6c:	3001      	adds	r0, #1
    5e6e:	9209      	str	r2, [sp, #36]	; 0x24
    5e70:	ea83 3243 	eor.w	r2, r3, r3, lsl #13
    5e74:	f5b0 7f01 	cmp.w	r0, #516	; 0x204
    5e78:	ea82 4252 	eor.w	r2, r2, r2, lsr #17
    5e7c:	ea82 1242 	eor.w	r2, r2, r2, lsl #5
    5e80:	fba5 1a02 	umull	r1, sl, r5, r2
    5e84:	ea82 3942 	eor.w	r9, r2, r2, lsl #13
    5e88:	f02b 01ff 	bic.w	r1, fp, #255	; 0xff
    5e8c:	ea89 4959 	eor.w	r9, r9, r9, lsr #17
    5e90:	eb01 211b 	add.w	r1, r1, fp, lsr #8
    5e94:	ea89 1949 	eor.w	r9, r9, r9, lsl #5
    5e98:	eba3 0301 	sub.w	r3, r3, r1
    5e9c:	9904      	ldr	r1, [sp, #16]
    5e9e:	f841 3f04 	str.w	r3, [r1, #4]!
    5ea2:	fba5 b309 	umull	fp, r3, r5, r9
    5ea6:	f02a 0bff 	bic.w	fp, sl, #255	; 0xff
    5eaa:	9104      	str	r1, [sp, #16]
    5eac:	ea89 3149 	eor.w	r1, r9, r9, lsl #13
    5eb0:	eb0b 2b1a 	add.w	fp, fp, sl, lsr #8
    5eb4:	ea81 4151 	eor.w	r1, r1, r1, lsr #17
    5eb8:	eba2 020b 	sub.w	r2, r2, fp
    5ebc:	ea81 1141 	eor.w	r1, r1, r1, lsl #5
    5ec0:	f846 2f04 	str.w	r2, [r6, #4]!
    5ec4:	ea81 3241 	eor.w	r2, r1, r1, lsl #13
    5ec8:	fba5 ba01 	umull	fp, sl, r5, r1
    5ecc:	f023 0bff 	bic.w	fp, r3, #255	; 0xff
    5ed0:	9605      	str	r6, [sp, #20]
    5ed2:	ea82 4252 	eor.w	r2, r2, r2, lsr #17
    5ed6:	9e06      	ldr	r6, [sp, #24]
    5ed8:	eb0b 2b13 	add.w	fp, fp, r3, lsr #8
    5edc:	ea82 1242 	eor.w	r2, r2, r2, lsl #5
    5ee0:	eba9 030b 	sub.w	r3, r9, fp
    5ee4:	ea82 3242 	eor.w	r2, r2, r2, lsl #13
    5ee8:	f846 3f04 	str.w	r3, [r6, #4]!
    5eec:	ea82 4252 	eor.w	r2, r2, r2, lsr #17
    5ef0:	4b65      	ldr	r3, [pc, #404]	; (6088 <setup+0x400>)
    5ef2:	9606      	str	r6, [sp, #24]
    5ef4:	ea82 1242 	eor.w	r2, r2, r2, lsl #5
    5ef8:	9e07      	ldr	r6, [sp, #28]
    5efa:	fba3 b302 	umull	fp, r3, r3, r2
    5efe:	ea82 3942 	eor.w	r9, r2, r2, lsl #13
    5f02:	f02a 0bff 	bic.w	fp, sl, #255	; 0xff
    5f06:	ea89 4959 	eor.w	r9, r9, r9, lsr #17
    5f0a:	eb0b 2b1a 	add.w	fp, fp, sl, lsr #8
    5f0e:	eba2 0a03 	sub.w	sl, r2, r3
    5f12:	ea89 1949 	eor.w	r9, r9, r9, lsl #5
    5f16:	eba1 010b 	sub.w	r1, r1, fp
    5f1a:	eb03 035a 	add.w	r3, r3, sl, lsr #1
    5f1e:	f846 1f04 	str.w	r1, [r6, #4]!
    5f22:	ea89 3149 	eor.w	r1, r9, r9, lsl #13
    5f26:	ea4f 23d3 	mov.w	r3, r3, lsr #11
    5f2a:	9607      	str	r6, [sp, #28]
    5f2c:	ea81 4151 	eor.w	r1, r1, r1, lsr #17
    5f30:	9e08      	ldr	r6, [sp, #32]
    5f32:	ebc3 3303 	rsb	r3, r3, r3, lsl #12
    5f36:	ea81 1141 	eor.w	r1, r1, r1, lsl #5
    5f3a:	eba2 0303 	sub.w	r3, r2, r3
    5f3e:	ea81 3241 	eor.w	r2, r1, r1, lsl #13
    5f42:	f103 0a02 	add.w	sl, r3, #2
    5f46:	f103 0301 	add.w	r3, r3, #1
    5f4a:	ea82 4252 	eor.w	r2, r2, r2, lsr #17
    5f4e:	f846 3f04 	str.w	r3, [r6, #4]!
    5f52:	ea82 1242 	eor.w	r2, r2, r2, lsl #5
    5f56:	9608      	str	r6, [sp, #32]
    5f58:	ea82 3b42 	eor.w	fp, r2, r2, lsl #13
    5f5c:	b292      	uxth	r2, r2
    5f5e:	ea8b 4b5b 	eor.w	fp, fp, fp, lsr #17
    5f62:	ee07 2a90 	vmov	s15, r2
    5f66:	9a09      	ldr	r2, [sp, #36]	; 0x24
    5f68:	ea8b 1b4b 	eor.w	fp, fp, fp, lsl #5
    5f6c:	eef8 7ae7 	vcvt.f32.s32	s15, s15
    5f70:	eec7 6a87 	vdiv.f32	s13, s15, s14
    5f74:	edc2 6a00 	vstr	s13, [r2]
    5f78:	ea8b 324b 	eor.w	r2, fp, fp, lsl #13
    5f7c:	fa1f fb8b 	uxth.w	fp, fp
    5f80:	ea82 4252 	eor.w	r2, r2, r2, lsr #17
    5f84:	ee07 ba90 	vmov	s15, fp
    5f88:	ea82 1242 	eor.w	r2, r2, r2, lsl #5
    5f8c:	eef8 7ae7 	vcvt.f32.s32	s15, s15
    5f90:	eec7 6a87 	vdiv.f32	s13, s15, s14
    5f94:	edce 6a00 	vstr	s13, [lr]
    5f98:	ea82 3e42 	eor.w	lr, r2, r2, lsl #13
    5f9c:	b292      	uxth	r2, r2
    5f9e:	ea8e 4e5e 	eor.w	lr, lr, lr, lsr #17
    5fa2:	ee07 2a90 	vmov	s15, r2
    5fa6:	ea8e 1e4e 	eor.w	lr, lr, lr, lsl #5
    5faa:	eef8 7ae7 	vcvt.f32.s32	s15, s15
    5fae:	ea8e 324e 	eor.w	r2, lr, lr, lsl #13
    5fb2:	fa1f fe8e 	uxth.w	lr, lr
    5fb6:	eec7 6a87 	vdiv.f32	s13, s15, s14
    5fba:	ea82 4252 	eor.w	r2, r2, r2, lsr #17
    5fbe:	ee07 ea90 	vmov	s15, lr
    5fc2:	ea82 1242 	eor.w	r2, r2, r2, lsl #5
    5fc6:	b296      	uxth	r6, r2
    5fc8:	eef8 7ae7 	vcvt.f32.s32	s15, s15
    5fcc:	fbb9 fefa 	udiv	lr, r9, sl
    5fd0:	fb0a 9e1e 	mls	lr, sl, lr, r9
    5fd4:	eba3 030e 	sub.w	r3, r3, lr
    5fd8:	f84c ef04 	str.w	lr, [ip, #4]!
    5fdc:	f103 0301 	add.w	r3, r3, #1
    5fe0:	ed44 6a03 	vstr	s13, [r4, #-12]
    5fe4:	eec7 6a87 	vdiv.f32	s13, s15, s14
    5fe8:	ee07 6a90 	vmov	s15, r6
    5fec:	eef8 7ae7 	vcvt.f32.s32	s15, s15
    5ff0:	fbb1 fef3 	udiv	lr, r1, r3
    5ff4:	fb03 111e 	mls	r1, r3, lr, r1
    5ff8:	9b02      	ldr	r3, [sp, #8]
    5ffa:	f843 1f04 	str.w	r1, [r3, #4]!
    5ffe:	9302      	str	r3, [sp, #8]
    6000:	ed44 6a02 	vstr	s13, [r4, #-8]
    6004:	eec7 6a87 	vdiv.f32	s13, s15, s14
    6008:	ed44 6a01 	vstr	s13, [r4, #-4]
    600c:	d03e      	beq.n	608c <setup+0x404>
    600e:	2807      	cmp	r0, #7
    6010:	f63f aef4 	bhi.w	5dfc <setup+0x174>
    6014:	1cc3      	adds	r3, r0, #3
    6016:	a90e      	add	r1, sp, #56	; 0x38
    6018:	f003 0307 	and.w	r3, r3, #7
    601c:	eb01 0343 	add.w	r3, r1, r3, lsl #1
    6020:	f833 3c10 	ldrh.w	r3, [r3, #-16]
    6024:	803b      	strh	r3, [r7, #0]
    6026:	1d43      	adds	r3, r0, #5
    6028:	f003 0307 	and.w	r3, r3, #7
    602c:	eb01 0343 	add.w	r3, r1, r3, lsl #1
    6030:	9901      	ldr	r1, [sp, #4]
    6032:	f833 3c10 	ldrh.w	r3, [r3, #-16]
    6036:	800b      	strh	r3, [r1, #0]
    6038:	1dc3      	adds	r3, r0, #7
    603a:	a90e      	add	r1, sp, #56	; 0x38
    603c:	f003 0307 	and.w	r3, r3, #7
    6040:	eb01 0343 	add.w	r3, r1, r3, lsl #1
    6044:	a90a      	add	r1, sp, #40	; 0x28
    6046:	f831 1010 	ldrh.w	r1, [r1, r0, lsl #1]
    604a:	f833 3c10 	ldrh.w	r3, [r3, #-16]
    604e:	f8a8 1000 	strh.w	r1, [r8]
    6052:	e6f1      	b.n	5e38 <setup+0x1b0>
    6054:	6823      	ldr	r3, [r4, #0]
    6056:	782a      	ldrb	r2, [r5, #0]
    6058:	1b9b      	subs	r3, r3, r6
    605a:	b172      	cbz	r2, 607a <setup+0x3f2>
    605c:	f5b3 6ffa 	cmp.w	r3, #2000	; 0x7d0
    6060:	f63f ae2e 	bhi.w	5cc0 <setup+0x38>
    6064:	f001 fe40 	bl	7ce8 <yield>
    6068:	e619      	b.n	5c9e <setup+0x16>
    606a:	6823      	ldr	r3, [r4, #0]
    606c:	1bdb      	subs	r3, r3, r7
    606e:	42b3      	cmp	r3, r6
    6070:	f63f ae40 	bhi.w	5cf4 <setup+0x6c>
    6074:	f000 f994 	bl	63a0 <delay>
    6078:	e629      	b.n	5cce <setup+0x46>
    607a:	4543      	cmp	r3, r8
    607c:	d9f2      	bls.n	6064 <setup+0x3dc>
    607e:	e61f      	b.n	5cc0 <setup+0x38>
    6080:	200030b8 	.word	0x200030b8
    6084:	200028a8 	.word	0x200028a8
    6088:	00100101 	.word	0x00100101
    608c:	4b43      	ldr	r3, [pc, #268]	; (619c <setup+0x514>)
    608e:	2401      	movs	r4, #1
    6090:	4843      	ldr	r0, [pc, #268]	; (61a0 <setup+0x518>)
    6092:	f04f 0800 	mov.w	r8, #0
    6096:	601a      	str	r2, [r3, #0]
    6098:	f04f 537e 	mov.w	r3, #1065353216	; 0x3f800000
    609c:	4d41      	ldr	r5, [pc, #260]	; (61a4 <setup+0x51c>)
    609e:	2710      	movs	r7, #16
    60a0:	4941      	ldr	r1, [pc, #260]	; (61a8 <setup+0x520>)
    60a2:	f04f 527c 	mov.w	r2, #1056964608	; 0x3f000000
    60a6:	4e41      	ldr	r6, [pc, #260]	; (61ac <setup+0x524>)
    60a8:	6043      	str	r3, [r0, #4]
    60aa:	606b      	str	r3, [r5, #4]
    60ac:	2380      	movs	r3, #128	; 0x80
    60ae:	4d40      	ldr	r5, [pc, #256]	; (61b0 <setup+0x528>)
    60b0:	4840      	ldr	r0, [pc, #256]	; (61b4 <setup+0x52c>)
    60b2:	614b      	str	r3, [r1, #20]
    60b4:	60f3      	str	r3, [r6, #12]
    60b6:	60eb      	str	r3, [r5, #12]
    60b8:	60c3      	str	r3, [r0, #12]
    60ba:	23ff      	movs	r3, #255	; 0xff
    60bc:	60af      	str	r7, [r5, #8]
    60be:	61cb      	str	r3, [r1, #28]
    60c0:	6133      	str	r3, [r6, #16]
    60c2:	612b      	str	r3, [r5, #16]
    60c4:	6103      	str	r3, [r0, #16]
    60c6:	f44f 7380 	mov.w	r3, #256	; 0x100
    60ca:	6087      	str	r7, [r0, #8]
    60cc:	6173      	str	r3, [r6, #20]
    60ce:	616b      	str	r3, [r5, #20]
    60d0:	6143      	str	r3, [r0, #20]
    60d2:	620b      	str	r3, [r1, #32]
    60d4:	2300      	movs	r3, #0
    60d6:	60b7      	str	r7, [r6, #8]
    60d8:	608f      	str	r7, [r1, #8]
    60da:	e9c5 8400 	strd	r8, r4, [r5]
    60de:	e9c0 8400 	strd	r8, r4, [r0]
    60e2:	4d30      	ldr	r5, [pc, #192]	; (61a4 <setup+0x51c>)
    60e4:	482e      	ldr	r0, [pc, #184]	; (61a0 <setup+0x518>)
    60e6:	602b      	str	r3, [r5, #0]
    60e8:	6003      	str	r3, [r0, #0]
    60ea:	2340      	movs	r3, #64	; 0x40
    60ec:	e9c6 8400 	strd	r8, r4, [r6]
    60f0:	2620      	movs	r6, #32
    60f2:	e9c1 6303 	strd	r6, r3, [r1, #12]
    60f6:	23c0      	movs	r3, #192	; 0xc0
    60f8:	e9c1 8400 	strd	r8, r4, [r1]
    60fc:	618b      	str	r3, [r1, #24]
    60fe:	211c      	movs	r1, #28
    6100:	6082      	str	r2, [r0, #8]
    6102:	60aa      	str	r2, [r5, #8]
    6104:	482c      	ldr	r0, [pc, #176]	; (61b8 <setup+0x530>)
    6106:	f001 fd71 	bl	7bec <usb_serial_write>
    610a:	482c      	ldr	r0, [pc, #176]	; (61bc <setup+0x534>)
    610c:	f000 f8d8 	bl	62c0 <Print::println()>
    6110:	210e      	movs	r1, #14
    6112:	482b      	ldr	r0, [pc, #172]	; (61c0 <setup+0x538>)
    6114:	f001 fd6a 	bl	7bec <usb_serial_write>
    6118:	4828      	ldr	r0, [pc, #160]	; (61bc <setup+0x534>)
    611a:	f000 f8d1 	bl	62c0 <Print::println()>
    611e:	211c      	movs	r1, #28
    6120:	4828      	ldr	r0, [pc, #160]	; (61c4 <setup+0x53c>)
    6122:	f001 fd63 	bl	7bec <usb_serial_write>
    6126:	4621      	mov	r1, r4
    6128:	4824      	ldr	r0, [pc, #144]	; (61bc <setup+0x534>)
    612a:	f000 f863 	bl	61f4 <Print::print(long)>
    612e:	2107      	movs	r1, #7
    6130:	4825      	ldr	r0, [pc, #148]	; (61c8 <setup+0x540>)
    6132:	f001 fd5b 	bl	7bec <usb_serial_write>
    6136:	4621      	mov	r1, r4
    6138:	4820      	ldr	r0, [pc, #128]	; (61bc <setup+0x534>)
    613a:	f000 f85b 	bl	61f4 <Print::print(long)>
    613e:	2105      	movs	r1, #5
    6140:	4822      	ldr	r0, [pc, #136]	; (61cc <setup+0x544>)
    6142:	f001 fd53 	bl	7bec <usb_serial_write>
    6146:	4621      	mov	r1, r4
    6148:	481c      	ldr	r0, [pc, #112]	; (61bc <setup+0x534>)
    614a:	f000 f853 	bl	61f4 <Print::print(long)>
    614e:	210c      	movs	r1, #12
    6150:	481f      	ldr	r0, [pc, #124]	; (61d0 <setup+0x548>)
    6152:	f001 fd4b 	bl	7bec <usb_serial_write>
    6156:	211e      	movs	r1, #30
    6158:	481e      	ldr	r0, [pc, #120]	; (61d4 <setup+0x54c>)
    615a:	f001 fd47 	bl	7bec <usb_serial_write>
    615e:	4817      	ldr	r0, [pc, #92]	; (61bc <setup+0x534>)
    6160:	f000 f8ae 	bl	62c0 <Print::println()>
    6164:	f7fb f820 	bl	11a8 <runCoreKernels()>
    6168:	f7fd f87a 	bl	3260 <runSpanKernels()>
    616c:	2107      	movs	r1, #7
    616e:	481a      	ldr	r0, [pc, #104]	; (61d8 <setup+0x550>)
    6170:	f001 fd3c 	bl	7bec <usb_serial_write>
    6174:	4919      	ldr	r1, [pc, #100]	; (61dc <setup+0x554>)
    6176:	4643      	mov	r3, r8
    6178:	463a      	mov	r2, r7
    617a:	6809      	ldr	r1, [r1, #0]
    617c:	480f      	ldr	r0, [pc, #60]	; (61bc <setup+0x534>)
    617e:	f000 f8bb 	bl	62f8 <Print::printNumber(unsigned long, unsigned char, unsigned char)>
    6182:	480e      	ldr	r0, [pc, #56]	; (61bc <setup+0x534>)
    6184:	f000 f89c 	bl	62c0 <Print::println()>
    6188:	211a      	movs	r1, #26
    618a:	4815      	ldr	r0, [pc, #84]	; (61e0 <setup+0x558>)
    618c:	f001 fd2e 	bl	7bec <usb_serial_write>
    6190:	480a      	ldr	r0, [pc, #40]	; (61bc <setup+0x534>)
    6192:	b00f      	add	sp, #60	; 0x3c
    6194:	e8bd 4ff0 	ldmia.w	sp!, {r4, r5, r6, r7, r8, r9, sl, fp, lr}
    6198:	f000 b892 	b.w	62c0 <Print::println()>
    619c:	20000cb0 	.word	0x20000cb0
    61a0:	200028a8 	.word	0x200028a8
    61a4:	200030b8 	.word	0x200030b8
    61a8:	2000713c 	.word	0x2000713c
    61ac:	20005908 	.word	0x20005908
    61b0:	200050f8 	.word	0x200050f8
    61b4:	200048e8 	.word	0x200048e8
    61b8:	200009d8 	.word	0x200009d8
    61bc:	20000ca0 	.word	0x20000ca0
    61c0:	200009f8 	.word	0x200009f8
    61c4:	20000a08 	.word	0x20000a08
    61c8:	20000a28 	.word	0x20000a28
    61cc:	20000a30 	.word	0x20000a30
    61d0:	20000a38 	.word	0x20000a38
    61d4:	20000a48 	.word	0x20000a48
    61d8:	20000a68 	.word	0x20000a68
    61dc:	20007138 	.word	0x20007138
    61e0:	20000a70 	.word	0x20000a70

000061e4 <loop>:
    61e4:	f44f 707a 	mov.w	r0, #1000	; 0x3e8
    61e8:	f000 b8da 	b.w	63a0 <delay>

000061ec <usb_serial_class::write(unsigned char)>:
    61ec:	4608      	mov	r0, r1
    61ee:	f001 bce7 	b.w	7bc0 <usb_serial_putchar>
    61f2:	bf00      	nop

000061f4 <Print::print(long)>:
    61f4:	2900      	cmp	r1, #0
    61f6:	b5f0      	push	{r4, r5, r6, r7, lr}
    61f8:	b08b      	sub	sp, #44	; 0x2c
    61fa:	db42      	blt.n	6282 <Print::print(long)+0x8e>
    61fc:	d03b      	beq.n	6276 <Print::print(long)+0x82>
    61fe:	4b2f      	ldr	r3, [pc, #188]	; (62bc <Print::print(long)+0xc8>)
    6200:	2909      	cmp	r1, #9
    6202:	fba3 3c01 	umull	r3, ip, r3, r1
    6206:	ea4f 0cdc 	mov.w	ip, ip, lsr #3
    620a:	eb0c 038c 	add.w	r3, ip, ip, lsl #2
    620e:	eba1 0343 	sub.w	r3, r1, r3, lsl #1
    6212:	f103 0330 	add.w	r3, r3, #48	; 0x30
    6216:	f88d 3025 	strb.w	r3, [sp, #37]	; 0x25
    621a:	dd4b      	ble.n	62b4 <Print::print(long)+0xc0>
    621c:	2700      	movs	r7, #0
    621e:	2121      	movs	r1, #33	; 0x21
    6220:	4e26      	ldr	r6, [pc, #152]	; (62bc <Print::print(long)+0xc8>)
    6222:	fba6 320c 	umull	r3, r2, r6, ip
    6226:	1e4b      	subs	r3, r1, #1
    6228:	460d      	mov	r5, r1
    622a:	46e6      	mov	lr, ip
    622c:	08d2      	lsrs	r2, r2, #3
    622e:	b2d9      	uxtb	r1, r3
    6230:	f1be 0f09 	cmp.w	lr, #9
    6234:	eb02 0382 	add.w	r3, r2, r2, lsl #2
    6238:	f101 0428 	add.w	r4, r1, #40	; 0x28
    623c:	ebac 0343 	sub.w	r3, ip, r3, lsl #1
    6240:	4694      	mov	ip, r2
    6242:	446c      	add	r4, sp
    6244:	f103 0330 	add.w	r3, r3, #48	; 0x30
    6248:	f804 3c24 	strb.w	r3, [r4, #-36]
    624c:	d8e9      	bhi.n	6222 <Print::print(long)+0x2e>
    624e:	b357      	cbz	r7, 62a6 <Print::print(long)+0xb2>
    6250:	3d02      	subs	r5, #2
    6252:	b2ed      	uxtb	r5, r5
    6254:	4629      	mov	r1, r5
    6256:	f1c5 0222 	rsb	r2, r5, #34	; 0x22
    625a:	f105 0328 	add.w	r3, r5, #40	; 0x28
    625e:	eb0d 0503 	add.w	r5, sp, r3
    6262:	232d      	movs	r3, #45	; 0x2d
    6264:	f805 3c24 	strb.w	r3, [r5, #-36]
    6268:	6803      	ldr	r3, [r0, #0]
    626a:	ac01      	add	r4, sp, #4
    626c:	685b      	ldr	r3, [r3, #4]
    626e:	4421      	add	r1, r4
    6270:	4798      	blx	r3
    6272:	b00b      	add	sp, #44	; 0x2c
    6274:	bdf0      	pop	{r4, r5, r6, r7, pc}
    6276:	2330      	movs	r3, #48	; 0x30
    6278:	2201      	movs	r2, #1
    627a:	2121      	movs	r1, #33	; 0x21
    627c:	f88d 3025 	strb.w	r3, [sp, #37]	; 0x25
    6280:	e7f2      	b.n	6268 <Print::print(long)+0x74>
    6282:	424a      	negs	r2, r1
    6284:	4b0d      	ldr	r3, [pc, #52]	; (62bc <Print::print(long)+0xc8>)
    6286:	3109      	adds	r1, #9
    6288:	fba3 3c02 	umull	r3, ip, r3, r2
    628c:	ea4f 0cdc 	mov.w	ip, ip, lsr #3
    6290:	eb0c 038c 	add.w	r3, ip, ip, lsl #2
    6294:	eba2 0243 	sub.w	r2, r2, r3, lsl #1
    6298:	f102 0230 	add.w	r2, r2, #48	; 0x30
    629c:	f88d 2025 	strb.w	r2, [sp, #37]	; 0x25
    62a0:	da04      	bge.n	62ac <Print::print(long)+0xb8>
    62a2:	272d      	movs	r7, #45	; 0x2d
    62a4:	e7bb      	b.n	621e <Print::print(long)+0x2a>
    62a6:	f1c1 0222 	rsb	r2, r1, #34	; 0x22
    62aa:	e7dd      	b.n	6268 <Print::print(long)+0x74>
    62ac:	2120      	movs	r1, #32
    62ae:	2202      	movs	r2, #2
    62b0:	460d      	mov	r5, r1
    62b2:	e7d2      	b.n	625a <Print::print(long)+0x66>
    62b4:	2201      	movs	r2, #1
    62b6:	2121      	movs	r1, #33	; 0x21
    62b8:	e7d6      	b.n	6268 <Print::print(long)+0x74>
    62ba:	bf00      	nop
    62bc:	cccccccd 	.word	0xcccccccd

000062c0 <Print::println()>:
    62c0:	b500      	push	{lr}
    62c2:	6803      	ldr	r3, [r0, #0]
    62c4:	b083      	sub	sp, #12
    62c6:	f640 2c0d 	movw	ip, #2573	; 0xa0d
    62ca:	2202      	movs	r2, #2
    62cc:	a901      	add	r1, sp, #4
    62ce:	685b      	ldr	r3, [r3, #4]
    62d0:	f8ad c004 	strh.w	ip, [sp, #4]
    62d4:	4798      	blx	r3
    62d6:	b003      	add	sp, #12
    62d8:	f85d fb04 	ldr.w	pc, [sp], #4

000062dc <_write>:
    62dc:	4b05      	ldr	r3, [pc, #20]	; (62f4 <_write+0x18>)
    62de:	2802      	cmp	r0, #2
    62e0:	bf88      	it	hi
    62e2:	4603      	movhi	r3, r0
    62e4:	b410      	push	{r4}
    62e6:	681c      	ldr	r4, [r3, #0]
    62e8:	4618      	mov	r0, r3
    62ea:	6863      	ldr	r3, [r4, #4]
    62ec:	f85d 4b04 	ldr.w	r4, [sp], #4
    62f0:	4718      	bx	r3
    62f2:	bf00      	nop
    62f4:	20000ca0 	.word	0x20000ca0

000062f8 <Print::printNumber(unsigned long, unsigned char, unsigned char)>:
    62f8:	b570      	push	{r4, r5, r6, lr}
    62fa:	4606      	mov	r6, r0
    62fc:	b08a      	sub	sp, #40	; 0x28
    62fe:	b95a      	cbnz	r2, 6318 <Print::printNumber(unsigned long, unsigned char, unsigned char)+0x20>
    6300:	6803      	ldr	r3, [r0, #0]
    6302:	b2c9      	uxtb	r1, r1
    6304:	4a25      	ldr	r2, [pc, #148]	; (639c <Print::printNumber(unsigned long, unsigned char, unsigned char)+0xa4>)
    6306:	681b      	ldr	r3, [r3, #0]
    6308:	4293      	cmp	r3, r2
    630a:	d143      	bne.n	6394 <Print::printNumber(unsigned long, unsigned char, unsigned char)+0x9c>
    630c:	4608      	mov	r0, r1
    630e:	b00a      	add	sp, #40	; 0x28
    6310:	e8bd 4070 	ldmia.w	sp!, {r4, r5, r6, lr}
    6314:	f001 bc54 	b.w	7bc0 <usb_serial_putchar>
    6318:	2a01      	cmp	r2, #1
    631a:	bf08      	it	eq
    631c:	220a      	moveq	r2, #10
    631e:	b399      	cbz	r1, 6388 <Print::printNumber(unsigned long, unsigned char, unsigned char)+0x90>
    6320:	f04f 0e21 	mov.w	lr, #33	; 0x21
    6324:	e001      	b.n	632a <Print::printNumber(unsigned long, unsigned char, unsigned char)+0x32>
    6326:	fa5f fe80 	uxtb.w	lr, r0
    632a:	f10e 30ff 	add.w	r0, lr, #4294967295
    632e:	fbb1 f5f2 	udiv	r5, r1, r2
    6332:	fb02 1415 	mls	r4, r2, r5, r1
    6336:	fa5f fc84 	uxtb.w	ip, r4
    633a:	2c09      	cmp	r4, #9
    633c:	f10c 0437 	add.w	r4, ip, #55	; 0x37
    6340:	f10c 0c30 	add.w	ip, ip, #48	; 0x30
    6344:	bf98      	it	ls
    6346:	fa5f f48c 	uxtbls.w	r4, ip
    634a:	f10e 0c28 	add.w	ip, lr, #40	; 0x28
    634e:	bf88      	it	hi
    6350:	b2e4      	uxtbhi	r4, r4
    6352:	4291      	cmp	r1, r2
    6354:	44ec      	add	ip, sp
    6356:	4629      	mov	r1, r5
    6358:	f80c 4c24 	strb.w	r4, [ip, #-36]
    635c:	d2e3      	bcs.n	6326 <Print::printNumber(unsigned long, unsigned char, unsigned char)+0x2e>
    635e:	b14b      	cbz	r3, 6374 <Print::printNumber(unsigned long, unsigned char, unsigned char)+0x7c>
    6360:	f10e 3eff 	add.w	lr, lr, #4294967295
    6364:	222d      	movs	r2, #45	; 0x2d
    6366:	fa5f fe8e 	uxtb.w	lr, lr
    636a:	f10e 0328 	add.w	r3, lr, #40	; 0x28
    636e:	446b      	add	r3, sp
    6370:	f803 2c24 	strb.w	r2, [r3, #-36]
    6374:	6833      	ldr	r3, [r6, #0]
    6376:	a901      	add	r1, sp, #4
    6378:	f1ce 0222 	rsb	r2, lr, #34	; 0x22
    637c:	4630      	mov	r0, r6
    637e:	685b      	ldr	r3, [r3, #4]
    6380:	4471      	add	r1, lr
    6382:	4798      	blx	r3
    6384:	b00a      	add	sp, #40	; 0x28
    6386:	bd70      	pop	{r4, r5, r6, pc}
    6388:	2230      	movs	r2, #48	; 0x30
    638a:	f04f 0e21 	mov.w	lr, #33	; 0x21
    638e:	f88d 2025 	strb.w	r2, [sp, #37]	; 0x25
    6392:	e7e4      	b.n	635e <Print::printNumber(unsigned long, unsigned char, unsigned char)+0x66>
    6394:	b00a      	add	sp, #40	; 0x28
    6396:	e8bd 4070 	ldmia.w	sp!, {r4, r5, r6, lr}
    639a:	4718      	bx	r3
    639c:	000061ed 	.word	0x000061ed

000063a0 <delay>:
    63a0:	2800      	cmp	r0, #0
    63a2:	d046      	beq.n	6432 <delay+0x92>
    63a4:	2101      	movs	r1, #1
    63a6:	e92d 4ff8 	stmdb	sp!, {r3, r4, r5, r6, r7, r8, r9, sl, fp, lr}
    63aa:	4681      	mov	r9, r0
    63ac:	4c21      	ldr	r4, [pc, #132]	; (6434 <delay+0x94>)
    63ae:	4d22      	ldr	r5, [pc, #136]	; (6438 <delay+0x98>)
    63b0:	4e22      	ldr	r6, [pc, #136]	; (643c <delay+0x9c>)
    63b2:	e854 3f00 	ldrex	r3, [r4]
    63b6:	682a      	ldr	r2, [r5, #0]
    63b8:	6830      	ldr	r0, [r6, #0]
    63ba:	e844 1300 	strex	r3, r1, [r4]
    63be:	2b00      	cmp	r3, #0
    63c0:	d1f7      	bne.n	63b2 <delay+0x12>
    63c2:	491f      	ldr	r1, [pc, #124]	; (6440 <delay+0xa0>)
    63c4:	684b      	ldr	r3, [r1, #4]
    63c6:	f44f 7b7a 	mov.w	fp, #1000	; 0x3e8
    63ca:	f8df a078 	ldr.w	sl, [pc, #120]	; 6444 <delay+0xa4>
    63ce:	1a1b      	subs	r3, r3, r0
    63d0:	2701      	movs	r7, #1
    63d2:	fb0b f802 	mul.w	r8, fp, r2
    63d6:	f8da 2000 	ldr.w	r2, [sl]
    63da:	fba3 3202 	umull	r3, r2, r3, r2
    63de:	455a      	cmp	r2, fp
    63e0:	bf94      	ite	ls
    63e2:	4490      	addls	r8, r2
    63e4:	44d8      	addhi	r8, fp
    63e6:	e854 3f00 	ldrex	r3, [r4]
    63ea:	682a      	ldr	r2, [r5, #0]
    63ec:	6830      	ldr	r0, [r6, #0]
    63ee:	e844 7300 	strex	r3, r7, [r4]
    63f2:	2b00      	cmp	r3, #0
    63f4:	d1f7      	bne.n	63e6 <delay+0x46>
    63f6:	684b      	ldr	r3, [r1, #4]
    63f8:	f8da c000 	ldr.w	ip, [sl]
    63fc:	1a1b      	subs	r3, r3, r0
    63fe:	fb0b f202 	mul.w	r2, fp, r2
    6402:	fba3 3c0c 	umull	r3, ip, r3, ip
    6406:	f5bc 7f7a 	cmp.w	ip, #1000	; 0x3e8
    640a:	bf94      	ite	ls
    640c:	4462      	addls	r2, ip
    640e:	f502 727a 	addhi.w	r2, r2, #1000	; 0x3e8
    6412:	eba2 0208 	sub.w	r2, r2, r8
    6416:	f5b2 7f7a 	cmp.w	r2, #1000	; 0x3e8
    641a:	d306      	bcc.n	642a <delay+0x8a>
    641c:	f1b9 0901 	subs.w	r9, r9, #1
    6420:	f508 787a 	add.w	r8, r8, #1000	; 0x3e8
    6424:	d1df      	bne.n	63e6 <delay+0x46>
    6426:	e8bd 8ff8 	ldmia.w	sp!, {r3, r4, r5, r6, r7, r8, r9, sl, fp, pc}
    642a:	f001 fc5d 	bl	7ce8 <yield>
    642e:	4904      	ldr	r1, [pc, #16]	; (6440 <delay+0xa0>)
    6430:	e7d9      	b.n	63e6 <delay+0x46>
    6432:	4770      	bx	lr
    6434:	20009bd4 	.word	0x20009bd4
    6438:	20009bd0 	.word	0x20009bd0
    643c:	20009bcc 	.word	0x20009bcc
    6440:	e0001000 	.word	0xe0001000
    6444:	20009bc8 	.word	0x20009bc8

00006448 <micros>:
    6448:	b430      	push	{r4, r5}
    644a:	4b0f      	ldr	r3, [pc, #60]	; (6488 <micros+0x40>)
    644c:	f04f 0c01 	mov.w	ip, #1
    6450:	4d0e      	ldr	r5, [pc, #56]	; (648c <micros+0x44>)
    6452:	4c0f      	ldr	r4, [pc, #60]	; (6490 <micros+0x48>)
    6454:	e853 2f00 	ldrex	r2, [r3]
    6458:	6828      	ldr	r0, [r5, #0]
    645a:	6821      	ldr	r1, [r4, #0]
    645c:	e843 c200 	strex	r2, ip, [r3]
    6460:	2a00      	cmp	r2, #0
    6462:	d1f7      	bne.n	6454 <micros+0xc>
    6464:	4b0b      	ldr	r3, [pc, #44]	; (6494 <micros+0x4c>)
    6466:	685b      	ldr	r3, [r3, #4]
    6468:	4a0b      	ldr	r2, [pc, #44]	; (6498 <micros+0x50>)
    646a:	1a5b      	subs	r3, r3, r1
    646c:	f44f 717a 	mov.w	r1, #1000	; 0x3e8
    6470:	6812      	ldr	r2, [r2, #0]
    6472:	fb01 f000 	mul.w	r0, r1, r0
    6476:	fba3 3202 	umull	r3, r2, r3, r2
    647a:	bc30      	pop	{r4, r5}
    647c:	428a      	cmp	r2, r1
    647e:	bf94      	ite	ls
    6480:	1880      	addls	r0, r0, r2
    6482:	1840      	addhi	r0, r0, r1
    6484:	4770      	bx	lr
    6486:	bf00      	nop
    6488:	20009bd4 	.word	0x20009bd4
    648c:	20009bd0 	.word	0x20009bd0
    6490:	20009bcc 	.word	0x20009bcc
    6494:	e0001000 	.word	0xe0001000
    6498:	20009bc8 	.word	0x20009bc8

0000649c <main>:
    649c:	b508      	push	{r3, lr}
    649e:	f7ff fbf3 	bl	5c88 <setup>
    64a2:	f7ff fe9f 	bl	61e4 <loop>
    64a6:	f001 fc1f 	bl	7ce8 <yield>
    64aa:	e7fa      	b.n	64a2 <main+0x6>

000064ac <memcpy>:
    64ac:	4684      	mov	ip, r0
    64ae:	ea41 0300 	orr.w	r3, r1, r0
    64b2:	f013 0303 	ands.w	r3, r3, #3
    64b6:	d16d      	bne.n	6594 <memcpy+0xe8>
    64b8:	3a40      	subs	r2, #64	; 0x40
    64ba:	d341      	bcc.n	6540 <memcpy+0x94>
    64bc:	f851 3b04 	ldr.w	r3, [r1], #4
    64c0:	f840 3b04 	str.w	r3, [r0], #4
    64c4:	f851 3b04 	ldr.w	r3, [r1], #4
    64c8:	f840 3b04 	str.w	r3, [r0], #4
    64cc:	f851 3b04 	ldr.w	r3, [r1], #4
    64d0:	f840 3b04 	str.w	r3, [r0], #4
    64d4:	f851 3b04 	ldr.w	r3, [r1], #4
    64d8:	f840 3b04 	str.w	r3, [r0], #4
    64dc:	f851 3b04 	ldr.w	r3, [r1], #4
    64e0:	f840 3b04 	str.w	r3, [r0], #4
    64e4:	f851 3b04 	ldr.w	r3, [r1], #4
    64e8:	f840 3b04 	str.w	r3, [r0], #4
    64ec:	f851 3b04 	ldr.w	r3, [r1], #4
    64f0:	f840 3b04 	str.w	r3, [r0], #4
    64f4:	f851 3b04 	ldr.w	r3, [r1], #4
    64f8:	f840 3b04 	str.w	r3, [r0], #4
    64fc:	f851 3b04 	ldr.w	r3, [r1], #4
    6500:	f840 3b04 	str.w	r3, [r0], #4
    6504:	f851 3b04 	ldr.w	r3, [r1], #4
    6508:	f840 3b04 	str.w	r3, [r0], #4
    650c:	f851 3b04 	ldr.w	r3, [r1], #4
    6510:	f840 3b04 	str.w	r3, [r0], #4
    6514:	f851 3b04 	ldr.w	r3, [r1], #4
    6518:	f840 3b04 	str.w	r3, [r0], #4
    651c:	f851 3b04 	ldr.w	r3, [r1], #4
    6520:	f840 3b04 	str.w	r3, [r0], #4
    6524:	f851 3b04 	ldr.w	r3, [r1], #4
    6528:	f840 3b04 	str.w	r3, [r0], #4
    652c:	f851 3b04 	ldr.w	r3, [r1], #4
    6530:	f840 3b04 	str.w	r3, [r0], #4
    6534:	f851 3b04 	ldr.w	r3, [r1], #4
    6538:	f840 3b04 	str.w	r3, [r0], #4
    653c:	3a40      	subs	r2, #64	; 0x40
    653e:	d2bd      	bcs.n	64bc <memcpy+0x10>
    6540:	3230      	adds	r2, #48	; 0x30
    6542:	d311      	bcc.n	6568 <memcpy+0xbc>
    6544:	f851 3b04 	ldr.w	r3, [r1], #4
    6548:	f840 3b04 	str.w	r3, [r0], #4
    654c:	f851 3b04 	ldr.w	r3, [r1], #4
    6550:	f840 3b04 	str.w	r3, [r0], #4
    6554:	f851 3b04 	ldr.w	r3, [r1], #4
    6558:	f840 3b04 	str.w	r3, [r0], #4
    655c:	f851 3b04 	ldr.w	r3, [r1], #4
    6560:	f840 3b04 	str.w	r3, [r0], #4
    6564:	3a10      	subs	r2, #16
    6566:	d2ed      	bcs.n	6544 <memcpy+0x98>
    6568:	320c      	adds	r2, #12
    656a:	d305      	bcc.n	6578 <memcpy+0xcc>
    656c:	f851 3b04 	ldr.w	r3, [r1], #4
    6570:	f840 3b04 	str.w	r3, [r0], #4
    6574:	3a04      	subs	r2, #4
    6576:	d2f9      	bcs.n	656c <memcpy+0xc0>
    6578:	3204      	adds	r2, #4
    657a:	d008      	beq.n	658e <memcpy+0xe2>
    657c:	07d2      	lsls	r2, r2, #31
    657e:	bf1c      	itt	ne
    6580:	f811 3b01 	ldrbne.w	r3, [r1], #1
    6584:	f800 3b01 	strbne.w	r3, [r0], #1
    6588:	d301      	bcc.n	658e <memcpy+0xe2>
    658a:	880b      	ldrh	r3, [r1, #0]
    658c:	8003      	strh	r3, [r0, #0]
    658e:	4660      	mov	r0, ip
    6590:	4770      	bx	lr
    6592:	bf00      	nop
    6594:	2a08      	cmp	r2, #8
    6596:	d313      	bcc.n	65c0 <memcpy+0x114>
    6598:	078b      	lsls	r3, r1, #30
    659a:	d08d      	beq.n	64b8 <memcpy+0xc>
    659c:	f010 0303 	ands.w	r3, r0, #3
    65a0:	d08a      	beq.n	64b8 <memcpy+0xc>
    65a2:	f1c3 0304 	rsb	r3, r3, #4
    65a6:	1ad2      	subs	r2, r2, r3
    65a8:	07db      	lsls	r3, r3, #31
    65aa:	bf1c      	itt	ne
    65ac:	f811 3b01 	ldrbne.w	r3, [r1], #1
    65b0:	f800 3b01 	strbne.w	r3, [r0], #1
    65b4:	d380      	bcc.n	64b8 <memcpy+0xc>
    65b6:	f831 3b02 	ldrh.w	r3, [r1], #2
    65ba:	f820 3b02 	strh.w	r3, [r0], #2
    65be:	e77b      	b.n	64b8 <memcpy+0xc>
    65c0:	3a04      	subs	r2, #4
    65c2:	d3d9      	bcc.n	6578 <memcpy+0xcc>
    65c4:	3a01      	subs	r2, #1
    65c6:	f811 3b01 	ldrb.w	r3, [r1], #1
    65ca:	f800 3b01 	strb.w	r3, [r0], #1
    65ce:	d2f9      	bcs.n	65c4 <memcpy+0x118>
    65d0:	780b      	ldrb	r3, [r1, #0]
    65d2:	7003      	strb	r3, [r0, #0]
    65d4:	784b      	ldrb	r3, [r1, #1]
    65d6:	7043      	strb	r3, [r0, #1]
    65d8:	788b      	ldrb	r3, [r1, #2]
    65da:	7083      	strb	r3, [r0, #2]
    65dc:	4660      	mov	r0, ip
    65de:	4770      	bx	lr

000065e0 <ultoa>:
    65e0:	f101 3cff 	add.w	ip, r1, #4294967295
    65e4:	b5f0      	push	{r4, r5, r6, r7, lr}
    65e6:	4665      	mov	r5, ip
    65e8:	2400      	movs	r4, #0
    65ea:	e005      	b.n	65f8 <ultoa+0x18>
    65ec:	4290      	cmp	r0, r2
    65ee:	f805 7f01 	strb.w	r7, [r5, #1]!
    65f2:	d30f      	bcc.n	6614 <ultoa+0x34>
    65f4:	3401      	adds	r4, #1
    65f6:	4670      	mov	r0, lr
    65f8:	fbb0 fef2 	udiv	lr, r0, r2
    65fc:	fb02 031e 	mls	r3, r2, lr, r0
    6600:	2b09      	cmp	r3, #9
    6602:	f103 0730 	add.w	r7, r3, #48	; 0x30
    6606:	f103 0637 	add.w	r6, r3, #55	; 0x37
    660a:	d9ef      	bls.n	65ec <ultoa+0xc>
    660c:	4290      	cmp	r0, r2
    660e:	f805 6f01 	strb.w	r6, [r5, #1]!
    6612:	d2ef      	bcs.n	65f4 <ultoa+0x14>
    6614:	1c63      	adds	r3, r4, #1
    6616:	2200      	movs	r2, #0
    6618:	18c8      	adds	r0, r1, r3
    661a:	54ca      	strb	r2, [r1, r3]
    661c:	b17c      	cbz	r4, 663e <ultoa+0x5e>
    661e:	4662      	mov	r2, ip
    6620:	f81c 5f01 	ldrb.w	r5, [ip, #1]!
    6624:	f810 ed01 	ldrb.w	lr, [r0, #-1]!
    6628:	eba1 030c 	sub.w	r3, r1, ip
    662c:	3202      	adds	r2, #2
    662e:	f88c e000 	strb.w	lr, [ip]
    6632:	3b01      	subs	r3, #1
    6634:	1a52      	subs	r2, r2, r1
    6636:	7005      	strb	r5, [r0, #0]
    6638:	4423      	add	r3, r4
    663a:	429a      	cmp	r2, r3
    663c:	dbef      	blt.n	661e <ultoa+0x3e>
    663e:	4608      	mov	r0, r1
    6640:	bdf0      	pop	{r4, r5, r6, r7, pc}
    6642:	bf00      	nop

00006644 <unused_interrupt_vector>:
    6644:	b672      	cpsid	i
    6646:	f3ef 8305 	mrs	r3, IPSR
    664a:	4c50      	ldr	r4, [pc, #320]	; (678c <unused_interrupt_vector+0x148>)
    664c:	f8c4 3084 	str.w	r3, [r4, #132]	; 0x84
    6650:	f01e 0f04 	tst.w	lr, #4
    6654:	bf0c      	ite	eq
    6656:	f3ef 8208 	mrseq	r2, MSP
    665a:	f3ef 8209 	mrsne	r2, PSP
    665e:	f04f 23e0 	mov.w	r3, #3758153728	; 0xe000e000
    6662:	4d4b      	ldr	r5, [pc, #300]	; (6790 <unused_interrupt_vector+0x14c>)
    6664:	f8d3 0d28 	ldr.w	r0, [r3, #3368]	; 0xd28
    6668:	f8d3 1d2c 	ldr.w	r1, [r3, #3372]	; 0xd2c
    666c:	e9c4 0122 	strd	r0, r1, [r4, #136]	; 0x88
    6670:	f8d3 1d34 	ldr.w	r1, [r3, #3380]	; 0xd34
    6674:	f8d3 3d38 	ldr.w	r3, [r3, #3384]	; 0xd38
    6678:	e9c4 1324 	strd	r1, r3, [r4, #144]	; 0x90
    667c:	6993      	ldr	r3, [r2, #24]
    667e:	f8c4 3098 	str.w	r3, [r4, #152]	; 0x98
    6682:	69d3      	ldr	r3, [r2, #28]
    6684:	f8c4 309c 	str.w	r3, [r4, #156]	; 0x9c
    6688:	f000 f8ce 	bl	6828 <tempmonGetTemp>
    668c:	ed84 0a28 	vstr	s0, [r4, #160]	; 0xa0
    6690:	f001 ffd6 	bl	8640 <rtc_get>
    6694:	230b      	movs	r3, #11
    6696:	f8c4 00a4 	str.w	r0, [r4, #164]	; 0xa4
    669a:	f04f 32ff 	mov.w	r2, #4294967295
    669e:	493d      	ldr	r1, [pc, #244]	; (6794 <unused_interrupt_vector+0x150>)
    66a0:	483d      	ldr	r0, [pc, #244]	; (6798 <unused_interrupt_vector+0x154>)
    66a2:	f8c4 3080 	str.w	r3, [r4, #128]	; 0x80
    66a6:	682b      	ldr	r3, [r5, #0]
    66a8:	2420      	movs	r4, #32
    66aa:	3504      	adds	r5, #4
    66ac:	405a      	eors	r2, r3
    66ae:	f002 0301 	and.w	r3, r2, #1
    66b2:	3c01      	subs	r4, #1
    66b4:	fb01 f303 	mul.w	r3, r1, r3
    66b8:	ea83 0252 	eor.w	r2, r3, r2, lsr #1
    66bc:	d1f7      	bne.n	66ae <unused_interrupt_vector+0x6a>
    66be:	4285      	cmp	r5, r0
    66c0:	d1f1      	bne.n	66a6 <unused_interrupt_vector+0x62>
    66c2:	4b32      	ldr	r3, [pc, #200]	; (678c <unused_interrupt_vector+0x148>)
    66c4:	f8c3 20a8 	str.w	r2, [r3, #168]	; 0xa8
    66c8:	f3bf 8f4f 	dsb	sy
    66cc:	f04f 23e0 	mov.w	r3, #3758153728	; 0xe000e000
    66d0:	492f      	ldr	r1, [pc, #188]	; (6790 <unused_interrupt_vector+0x14c>)
    66d2:	4a32      	ldr	r2, [pc, #200]	; (679c <unused_interrupt_vector+0x158>)
    66d4:	f8c3 1f70 	str.w	r1, [r3, #3952]	; 0xf70
    66d8:	f8c3 2f70 	str.w	r2, [r3, #3952]	; 0xf70
    66dc:	f3bf 8f4f 	dsb	sy
    66e0:	f3bf 8f6f 	isb	sy
    66e4:	4a2e      	ldr	r2, [pc, #184]	; (67a0 <unused_interrupt_vector+0x15c>)
    66e6:	2502      	movs	r5, #2
    66e8:	482e      	ldr	r0, [pc, #184]	; (67a4 <unused_interrupt_vector+0x160>)
    66ea:	6ed3      	ldr	r3, [r2, #108]	; 0x6c
    66ec:	492e      	ldr	r1, [pc, #184]	; (67a8 <unused_interrupt_vector+0x164>)
    66ee:	f443 5340 	orr.w	r3, r3, #12288	; 0x3000
    66f2:	66d3      	str	r3, [r2, #108]	; 0x6c
    66f4:	6005      	str	r5, [r0, #0]
    66f6:	69d3      	ldr	r3, [r2, #28]
    66f8:	482c      	ldr	r0, [pc, #176]	; (67ac <unused_interrupt_vector+0x168>)
    66fa:	f023 037f 	bic.w	r3, r3, #127	; 0x7f
    66fe:	f043 0340 	orr.w	r3, r3, #64	; 0x40
    6702:	61d3      	str	r3, [r2, #28]
    6704:	680b      	ldr	r3, [r1, #0]
    6706:	4283      	cmp	r3, r0
    6708:	d83d      	bhi.n	6786 <unused_interrupt_vector+0x142>
    670a:	4d26      	ldr	r5, [pc, #152]	; (67a4 <unused_interrupt_vector+0x160>)
    670c:	2100      	movs	r1, #0
    670e:	f04f 23e0 	mov.w	r3, #3758153728	; 0xe000e000
    6712:	f04f 32ff 	mov.w	r2, #4294967295
    6716:	6029      	str	r1, [r5, #0]
    6718:	2601      	movs	r6, #1
    671a:	f8c5 1108 	str.w	r1, [r5, #264]	; 0x108
    671e:	4924      	ldr	r1, [pc, #144]	; (67b0 <unused_interrupt_vector+0x16c>)
    6720:	f8c5 1100 	str.w	r1, [r5, #256]	; 0x100
    6724:	f8c5 6108 	str.w	r6, [r5, #264]	; 0x108
    6728:	f8c3 2180 	str.w	r2, [r3, #384]	; 0x180
    672c:	f8c3 2184 	str.w	r2, [r3, #388]	; 0x184
    6730:	f8c3 2188 	str.w	r2, [r3, #392]	; 0x188
    6734:	f8c3 218c 	str.w	r2, [r3, #396]	; 0x18c
    6738:	f8c3 2190 	str.w	r2, [r3, #400]	; 0x190
    673c:	e001      	b.n	6742 <unused_interrupt_vector+0xfe>
    673e:	f000 f8a3 	bl	6888 <usb_isr>
    6742:	f8d5 310c 	ldr.w	r3, [r5, #268]	; 0x10c
    6746:	2b00      	cmp	r3, #0
    6748:	d0f9      	beq.n	673e <unused_interrupt_vector+0xfa>
    674a:	3401      	adds	r4, #1
    674c:	f8c5 610c 	str.w	r6, [r5, #268]	; 0x10c
    6750:	2c4f      	cmp	r4, #79	; 0x4f
    6752:	d9f4      	bls.n	673e <unused_interrupt_vector+0xfa>
    6754:	4b17      	ldr	r3, [pc, #92]	; (67b4 <unused_interrupt_vector+0x170>)
    6756:	2002      	movs	r0, #2
    6758:	4917      	ldr	r1, [pc, #92]	; (67b8 <unused_interrupt_vector+0x174>)
    675a:	f04f 4200 	mov.w	r2, #2147483648	; 0x80000000
    675e:	f8c1 0140 	str.w	r0, [r1, #320]	; 0x140
    6762:	635a      	str	r2, [r3, #52]	; 0x34
    6764:	f8d5 310c 	ldr.w	r3, [r5, #268]	; 0x10c
    6768:	b93b      	cbnz	r3, 677a <unused_interrupt_vector+0x136>
    676a:	4814      	ldr	r0, [pc, #80]	; (67bc <unused_interrupt_vector+0x178>)
    676c:	4914      	ldr	r1, [pc, #80]	; (67c0 <unused_interrupt_vector+0x17c>)
    676e:	4a0d      	ldr	r2, [pc, #52]	; (67a4 <unused_interrupt_vector+0x160>)
    6770:	6301      	str	r1, [r0, #48]	; 0x30
    6772:	f8d2 310c 	ldr.w	r3, [r2, #268]	; 0x10c
    6776:	2b00      	cmp	r3, #0
    6778:	d0fa      	beq.n	6770 <unused_interrupt_vector+0x12c>
    677a:	f04f 23e0 	mov.w	r3, #3758153728	; 0xe000e000
    677e:	4a11      	ldr	r2, [pc, #68]	; (67c4 <unused_interrupt_vector+0x180>)
    6780:	f8c3 2d0c 	str.w	r2, [r3, #3340]	; 0xd0c
    6784:	e7fe      	b.n	6784 <unused_interrupt_vector+0x140>
    6786:	f001 fb57 	bl	7e38 <set_arm_clock>
    678a:	e7be      	b.n	670a <unused_interrupt_vector+0xc6>
    678c:	2027ff00 	.word	0x2027ff00
    6790:	2027ff80 	.word	0x2027ff80
    6794:	edb88320 	.word	0xedb88320
    6798:	2027ffa8 	.word	0x2027ffa8
    679c:	2027ffa0 	.word	0x2027ffa0
    67a0:	400fc000 	.word	0x400fc000
    67a4:	40084000 	.word	0x40084000
    67a8:	20000c9c 	.word	0x20000c9c
    67ac:	0bcd3d80 	.word	0x0bcd3d80
    67b0:	00249f00 	.word	0x00249f00
    67b4:	400d9000 	.word	0x400d9000
    67b8:	402e0000 	.word	0x402e0000
    67bc:	400f8000 	.word	0x400f8000
    67c0:	0bad00f1 	.word	0x0bad00f1
    67c4:	05fa0004 	.word	0x05fa0004

000067c8 <_sbrk>:
    67c8:	490a      	ldr	r1, [pc, #40]	; (67f4 <_sbrk+0x2c>)
    67ca:	680a      	ldr	r2, [r1, #0]
    67cc:	b138      	cbz	r0, 67de <_sbrk+0x16>
    67ce:	b508      	push	{r3, lr}
    67d0:	1813      	adds	r3, r2, r0
    67d2:	4809      	ldr	r0, [pc, #36]	; (67f8 <_sbrk+0x30>)
    67d4:	4283      	cmp	r3, r0
    67d6:	d804      	bhi.n	67e2 <_sbrk+0x1a>
    67d8:	4610      	mov	r0, r2
    67da:	600b      	str	r3, [r1, #0]
    67dc:	bd08      	pop	{r3, pc}
    67de:	4610      	mov	r0, r2
    67e0:	4770      	bx	lr
    67e2:	f002 ff0f 	bl	9604 <__errno>
    67e6:	230c      	movs	r3, #12
    67e8:	f04f 32ff 	mov.w	r2, #4294967295
    67ec:	6003      	str	r3, [r0, #0]
    67ee:	4610      	mov	r0, r2
    67f0:	bd08      	pop	{r3, pc}
    67f2:	bf00      	nop
    67f4:	20000cb4 	.word	0x20000cb4
    67f8:	20280000 	.word	0x20280000

000067fc <_read>:
    67fc:	2000      	movs	r0, #0
    67fe:	4770      	bx	lr

00006800 <_close>:
    6800:	f04f 30ff 	mov.w	r0, #4294967295
    6804:	4770      	bx	lr
    6806:	bf00      	nop

00006808 <_fstat>:
    6808:	f44f 5300 	mov.w	r3, #8192	; 0x2000
    680c:	2000      	movs	r0, #0
    680e:	604b      	str	r3, [r1, #4]
    6810:	4770      	bx	lr
    6812:	bf00      	nop

00006814 <_isatty>:
    6814:	2001      	movs	r0, #1
    6816:	4770      	bx	lr

00006818 <_lseek>:
    6818:	f04f 30ff 	mov.w	r0, #4294967295
    681c:	4770      	bx	lr
    681e:	bf00      	nop

00006820 <abort>:
    6820:	bf30      	wfi
    6822:	e7fd      	b.n	6820 <abort>

00006824 <Panic_Temp_isr>:
    6824:	f7ff bf0e 	b.w	6644 <unused_interrupt_vector>

00006828 <tempmonGetTemp>:
    6828:	4a12      	ldr	r2, [pc, #72]	; (6874 <tempmonGetTemp+0x4c>)
    682a:	f8d2 3080 	ldr.w	r3, [r2, #128]	; 0x80
    682e:	075b      	lsls	r3, r3, #29
    6830:	d5fb      	bpl.n	682a <tempmonGetTemp+0x2>
    6832:	f8d2 3080 	ldr.w	r3, [r2, #128]	; 0x80
    6836:	4810      	ldr	r0, [pc, #64]	; (6878 <tempmonGetTemp+0x50>)
    6838:	f3c3 230b 	ubfx	r3, r3, #8, #12
    683c:	490f      	ldr	r1, [pc, #60]	; (687c <tempmonGetTemp+0x54>)
    683e:	ed90 7a00 	vldr	s14, [r0]
    6842:	ee07 3a90 	vmov	s15, r3
    6846:	ed91 6a00 	vldr	s12, [r1]
    684a:	eeb8 7a47 	vcvt.f32.u32	s14, s14
    684e:	4a0c      	ldr	r2, [pc, #48]	; (6880 <tempmonGetTemp+0x58>)
    6850:	eef8 7ae7 	vcvt.f32.s32	s15, s15
    6854:	4b0b      	ldr	r3, [pc, #44]	; (6884 <tempmonGetTemp+0x5c>)
    6856:	edd2 6a00 	vldr	s13, [r2]
    685a:	ee77 7ac7 	vsub.f32	s15, s15, s14
    685e:	ed93 7a00 	vldr	s14, [r3]
    6862:	eeb8 7a47 	vcvt.f32.u32	s14, s14
    6866:	ee67 7a86 	vmul.f32	s15, s15, s12
    686a:	ee87 0aa6 	vdiv.f32	s0, s15, s13
    686e:	ee37 0a40 	vsub.f32	s0, s14, s0
    6872:	4770      	bx	lr
    6874:	400d8100 	.word	0x400d8100
    6878:	20009bb8 	.word	0x20009bb8
    687c:	20009bc0 	.word	0x20009bc0
    6880:	20009bc4 	.word	0x20009bc4
    6884:	20009bbc 	.word	0x20009bbc

00006888 <usb_isr>:
    6888:	e92d 4ff0 	stmdb	sp!, {r4, r5, r6, r7, r8, r9, sl, fp, lr}
    688c:	4caa      	ldr	r4, [pc, #680]	; (6b38 <usb_isr+0x2b0>)
    688e:	b083      	sub	sp, #12
    6890:	f8d4 7144 	ldr.w	r7, [r4, #324]	; 0x144
    6894:	07fb      	lsls	r3, r7, #31
    6896:	f8c4 7144 	str.w	r7, [r4, #324]	; 0x144
    689a:	d553      	bpl.n	6944 <usb_isr+0xbc>
    689c:	f8d4 21ac 	ldr.w	r2, [r4, #428]	; 0x1ac
    68a0:	2a00      	cmp	r2, #0
    68a2:	d04a      	beq.n	693a <usb_isr+0xb2>
    68a4:	f8df 92c4 	ldr.w	r9, [pc, #708]	; 6b6c <usb_isr+0x2e4>
    68a8:	4ea4      	ldr	r6, [pc, #656]	; (6b3c <usb_isr+0x2b4>)
    68aa:	f8df 82a8 	ldr.w	r8, [pc, #680]	; 6b54 <usb_isr+0x2cc>
    68ae:	f509 5b80 	add.w	fp, r9, #4096	; 0x1000
    68b2:	f8df a2bc 	ldr.w	sl, [pc, #700]	; 6b70 <usb_isr+0x2e8>
    68b6:	f8c4 21ac 	str.w	r2, [r4, #428]	; 0x1ac
    68ba:	e9d6 200a 	ldrd	r2, r0, [r6, #40]	; 0x28
    68be:	f8d4 3140 	ldr.w	r3, [r4, #320]	; 0x140
    68c2:	f443 5300 	orr.w	r3, r3, #8192	; 0x2000
    68c6:	f8c4 3140 	str.w	r3, [r4, #320]	; 0x140
    68ca:	f8d4 3140 	ldr.w	r3, [r4, #320]	; 0x140
    68ce:	049d      	lsls	r5, r3, #18
    68d0:	d5f5      	bpl.n	68be <usb_isr+0x36>
    68d2:	f8d4 3140 	ldr.w	r3, [r4, #320]	; 0x140
    68d6:	f423 5300 	bic.w	r3, r3, #8192	; 0x2000
    68da:	f8c4 3140 	str.w	r3, [r4, #320]	; 0x140
    68de:	f04f 1301 	mov.w	r3, #65537	; 0x10001
    68e2:	f8c4 31b4 	str.w	r3, [r4, #436]	; 0x1b4
    68e6:	f8d4 51b4 	ldr.w	r5, [r4, #436]	; 0x1b4
    68ea:	f015 1501 	ands.w	r5, r5, #65537	; 0x10001
    68ee:	d1fa      	bne.n	68e6 <usb_isr+0x5e>
    68f0:	b293      	uxth	r3, r2
    68f2:	4684      	mov	ip, r0
    68f4:	f8c8 5000 	str.w	r5, [r8]
    68f8:	f5b3 6f08 	cmp.w	r3, #2176	; 0x880
    68fc:	f000 823a 	beq.w	6d74 <usb_isr+0x4ec>
    6900:	f200 815f 	bhi.w	6bc2 <usb_isr+0x33a>
    6904:	f240 3102 	movw	r1, #770	; 0x302
    6908:	428b      	cmp	r3, r1
    690a:	f000 82dd 	beq.w	6ec8 <usb_isr+0x640>
    690e:	f200 80ff 	bhi.w	6b10 <usb_isr+0x288>
    6912:	2b82      	cmp	r3, #130	; 0x82
    6914:	f000 8264 	beq.w	6de0 <usb_isr+0x558>
    6918:	f5b3 7f81 	cmp.w	r3, #258	; 0x102
    691c:	f040 80c1 	bne.w	6aa2 <usb_isr+0x21a>
    6920:	f010 0f78 	tst.w	r0, #120	; 0x78
    6924:	b283      	uxth	r3, r0
    6926:	f000 82f9 	beq.w	6f1c <usb_isr+0x694>
    692a:	f04f 1301 	mov.w	r3, #65537	; 0x10001
    692e:	f8c4 31c0 	str.w	r3, [r4, #448]	; 0x1c0
    6932:	f8d4 21ac 	ldr.w	r2, [r4, #428]	; 0x1ac
    6936:	2a00      	cmp	r2, #0
    6938:	d1bd      	bne.n	68b6 <usb_isr+0x2e>
    693a:	4b7f      	ldr	r3, [pc, #508]	; (6b38 <usb_isr+0x2b0>)
    693c:	f8d3 51bc 	ldr.w	r5, [r3, #444]	; 0x1bc
    6940:	2d00      	cmp	r5, #0
    6942:	d142      	bne.n	69ca <usb_isr+0x142>
    6944:	067e      	lsls	r6, r7, #25
    6946:	d516      	bpl.n	6976 <usb_isr+0xee>
    6948:	4b7b      	ldr	r3, [pc, #492]	; (6b38 <usb_isr+0x2b0>)
    694a:	f8d3 21ac 	ldr.w	r2, [r3, #428]	; 0x1ac
    694e:	f8c3 21ac 	str.w	r2, [r3, #428]	; 0x1ac
    6952:	f8d3 21bc 	ldr.w	r2, [r3, #444]	; 0x1bc
    6956:	f8c3 21bc 	str.w	r2, [r3, #444]	; 0x1bc
    695a:	f8d3 41b0 	ldr.w	r4, [r3, #432]	; 0x1b0
    695e:	2c00      	cmp	r4, #0
    6960:	d1fb      	bne.n	695a <usb_isr+0xd2>
    6962:	f04f 32ff 	mov.w	r2, #4294967295
    6966:	f8c3 21b4 	str.w	r2, [r3, #436]	; 0x1b4
    696a:	f8d3 3184 	ldr.w	r3, [r3, #388]	; 0x184
    696e:	f000 ff3f 	bl	77f0 <usb_serial_reset>
    6972:	4b73      	ldr	r3, [pc, #460]	; (6b40 <usb_isr+0x2b8>)
    6974:	601c      	str	r4, [r3, #0]
    6976:	01fd      	lsls	r5, r7, #7
    6978:	d503      	bpl.n	6982 <usb_isr+0xfa>
    697a:	4b72      	ldr	r3, [pc, #456]	; (6b44 <usb_isr+0x2bc>)
    697c:	681b      	ldr	r3, [r3, #0]
    697e:	b103      	cbz	r3, 6982 <usb_isr+0xfa>
    6980:	4798      	blx	r3
    6982:	01bc      	lsls	r4, r7, #6
    6984:	d503      	bpl.n	698e <usb_isr+0x106>
    6986:	4b70      	ldr	r3, [pc, #448]	; (6b48 <usb_isr+0x2c0>)
    6988:	681b      	ldr	r3, [r3, #0]
    698a:	b103      	cbz	r3, 698e <usb_isr+0x106>
    698c:	4798      	blx	r3
    698e:	0778      	lsls	r0, r7, #29
    6990:	d508      	bpl.n	69a4 <usb_isr+0x11c>
    6992:	4b69      	ldr	r3, [pc, #420]	; (6b38 <usb_isr+0x2b0>)
    6994:	f8d3 3184 	ldr.w	r3, [r3, #388]	; 0x184
    6998:	f413 7300 	ands.w	r3, r3, #512	; 0x200
    699c:	d07e      	beq.n	6a9c <usb_isr+0x214>
    699e:	4b6b      	ldr	r3, [pc, #428]	; (6b4c <usb_isr+0x2c4>)
    69a0:	2201      	movs	r2, #1
    69a2:	701a      	strb	r2, [r3, #0]
    69a4:	4b64      	ldr	r3, [pc, #400]	; (6b38 <usb_isr+0x2b0>)
    69a6:	f8d3 2148 	ldr.w	r2, [r3, #328]	; 0x148
    69aa:	0611      	lsls	r1, r2, #24
    69ac:	d50a      	bpl.n	69c4 <usb_isr+0x13c>
    69ae:	063a      	lsls	r2, r7, #24
    69b0:	d508      	bpl.n	69c4 <usb_isr+0x13c>
    69b2:	4967      	ldr	r1, [pc, #412]	; (6b50 <usb_isr+0x2c8>)
    69b4:	780a      	ldrb	r2, [r1, #0]
    69b6:	b12a      	cbz	r2, 69c4 <usb_isr+0x13c>
    69b8:	3a01      	subs	r2, #1
    69ba:	b2d2      	uxtb	r2, r2
    69bc:	700a      	strb	r2, [r1, #0]
    69be:	2a00      	cmp	r2, #0
    69c0:	f000 8376 	beq.w	70b0 <usb_isr+0x828>
    69c4:	b003      	add	sp, #12
    69c6:	e8bd 8ff0 	ldmia.w	sp!, {r4, r5, r6, r7, r8, r9, sl, fp, pc}
    69ca:	4a62      	ldr	r2, [pc, #392]	; (6b54 <usb_isr+0x2cc>)
    69cc:	f8c3 51bc 	str.w	r5, [r3, #444]	; 0x1bc
    69d0:	6811      	ldr	r1, [r2, #0]
    69d2:	420d      	tst	r5, r1
    69d4:	f040 82c7 	bne.w	6f66 <usb_isr+0x6de>
    69d8:	4b59      	ldr	r3, [pc, #356]	; (6b40 <usb_isr+0x2b8>)
    69da:	681b      	ldr	r3, [r3, #0]
    69dc:	402b      	ands	r3, r5
    69de:	9301      	str	r3, [sp, #4]
    69e0:	d0b0      	beq.n	6944 <usb_isr+0xbc>
    69e2:	ea5f 4913 	movs.w	r9, r3, lsr #16
    69e6:	d02a      	beq.n	6a3e <usb_isr+0x1b6>
    69e8:	4e54      	ldr	r6, [pc, #336]	; (6b3c <usb_isr+0x2b4>)
    69ea:	f04f 0a01 	mov.w	sl, #1
    69ee:	46b8      	mov	r8, r7
    69f0:	fa99 f5a9 	rbit	r5, r9
    69f4:	fab5 f585 	clz	r5, r5
    69f8:	eb06 1bc5 	add.w	fp, r6, r5, lsl #7
    69fc:	f8db 7070 	ldr.w	r7, [fp, #112]	; 0x70
    6a00:	f10b 0b40 	add.w	fp, fp, #64	; 0x40
    6a04:	b1af      	cbz	r7, 6a32 <usb_isr+0x1aa>
    6a06:	463a      	mov	r2, r7
    6a08:	2400      	movs	r4, #0
    6a0a:	e004      	b.n	6a16 <usb_isr+0x18e>
    6a0c:	6812      	ldr	r2, [r2, #0]
    6a0e:	3401      	adds	r4, #1
    6a10:	2a01      	cmp	r2, #1
    6a12:	f000 82f8 	beq.w	7006 <usb_isr+0x77e>
    6a16:	6853      	ldr	r3, [r2, #4]
    6a18:	f013 0380 	ands.w	r3, r3, #128	; 0x80
    6a1c:	d0f6      	beq.n	6a0c <usb_isr+0x184>
    6a1e:	f8cb 2030 	str.w	r2, [fp, #48]	; 0x30
    6a22:	b134      	cbz	r4, 6a32 <usb_isr+0x1aa>
    6a24:	4638      	mov	r0, r7
    6a26:	f8db 3038 	ldr.w	r3, [fp, #56]	; 0x38
    6a2a:	683f      	ldr	r7, [r7, #0]
    6a2c:	4798      	blx	r3
    6a2e:	3c01      	subs	r4, #1
    6a30:	d1f8      	bne.n	6a24 <usb_isr+0x19c>
    6a32:	fa0a f505 	lsl.w	r5, sl, r5
    6a36:	ea39 0905 	bics.w	r9, r9, r5
    6a3a:	d1d9      	bne.n	69f0 <usb_isr+0x168>
    6a3c:	4647      	mov	r7, r8
    6a3e:	f8bd 5004 	ldrh.w	r5, [sp, #4]
    6a42:	2d00      	cmp	r5, #0
    6a44:	f43f af7e 	beq.w	6944 <usb_isr+0xbc>
    6a48:	4e3c      	ldr	r6, [pc, #240]	; (6b3c <usb_isr+0x2b4>)
    6a4a:	f04f 0901 	mov.w	r9, #1
    6a4e:	46ba      	mov	sl, r7
    6a50:	fa95 f8a5 	rbit	r8, r5
    6a54:	fab8 f888 	clz	r8, r8
    6a58:	eb06 1bc8 	add.w	fp, r6, r8, lsl #7
    6a5c:	f8db 7030 	ldr.w	r7, [fp, #48]	; 0x30
    6a60:	b1af      	cbz	r7, 6a8e <usb_isr+0x206>
    6a62:	463a      	mov	r2, r7
    6a64:	2400      	movs	r4, #0
    6a66:	e004      	b.n	6a72 <usb_isr+0x1ea>
    6a68:	6812      	ldr	r2, [r2, #0]
    6a6a:	3401      	adds	r4, #1
    6a6c:	2a01      	cmp	r2, #1
    6a6e:	f000 82c7 	beq.w	7000 <usb_isr+0x778>
    6a72:	6853      	ldr	r3, [r2, #4]
    6a74:	f013 0380 	ands.w	r3, r3, #128	; 0x80
    6a78:	d0f6      	beq.n	6a68 <usb_isr+0x1e0>
    6a7a:	f8cb 2030 	str.w	r2, [fp, #48]	; 0x30
    6a7e:	b134      	cbz	r4, 6a8e <usb_isr+0x206>
    6a80:	4638      	mov	r0, r7
    6a82:	f8db 3038 	ldr.w	r3, [fp, #56]	; 0x38
    6a86:	683f      	ldr	r7, [r7, #0]
    6a88:	4798      	blx	r3
    6a8a:	3c01      	subs	r4, #1
    6a8c:	d1f8      	bne.n	6a80 <usb_isr+0x1f8>
    6a8e:	fa09 f808 	lsl.w	r8, r9, r8
    6a92:	ea35 0508 	bics.w	r5, r5, r8
    6a96:	d1db      	bne.n	6a50 <usb_isr+0x1c8>
    6a98:	4657      	mov	r7, sl
    6a9a:	e753      	b.n	6944 <usb_isr+0xbc>
    6a9c:	4a2b      	ldr	r2, [pc, #172]	; (6b4c <usb_isr+0x2c4>)
    6a9e:	7013      	strb	r3, [r2, #0]
    6aa0:	e780      	b.n	69a4 <usb_isr+0x11c>
    6aa2:	2b80      	cmp	r3, #128	; 0x80
    6aa4:	f47f af41 	bne.w	692a <usb_isr+0xa2>
    6aa8:	4a2b      	ldr	r2, [pc, #172]	; (6b58 <usb_isr+0x2d0>)
    6aaa:	2301      	movs	r3, #1
    6aac:	f8a9 5000 	strh.w	r5, [r9]
    6ab0:	6013      	str	r3, [r2, #0]
    6ab2:	4b2a      	ldr	r3, [pc, #168]	; (6b5c <usb_isr+0x2d4>)
    6ab4:	64f5      	str	r5, [r6, #76]	; 0x4c
    6ab6:	6053      	str	r3, [r2, #4]
    6ab8:	4b29      	ldr	r3, [pc, #164]	; (6b60 <usb_isr+0x2d8>)
    6aba:	64b2      	str	r2, [r6, #72]	; 0x48
    6abc:	6113      	str	r3, [r2, #16]
    6abe:	e9c2 9b02 	strd	r9, fp, [r2, #8]
    6ac2:	f8d4 11b0 	ldr.w	r1, [r4, #432]	; 0x1b0
    6ac6:	f441 3180 	orr.w	r1, r1, #65536	; 0x10000
    6aca:	f8c4 11b0 	str.w	r1, [r4, #432]	; 0x1b0
    6ace:	f503 5180 	add.w	r1, r3, #4096	; 0x1000
    6ad2:	f503 5300 	add.w	r3, r3, #8192	; 0x2000
    6ad6:	6151      	str	r1, [r2, #20]
    6ad8:	6193      	str	r3, [r2, #24]
    6ada:	f8d4 31b0 	ldr.w	r3, [r4, #432]	; 0x1b0
    6ade:	2b00      	cmp	r3, #0
    6ae0:	d1fb      	bne.n	6ada <usb_isr+0x252>
    6ae2:	4a20      	ldr	r2, [pc, #128]	; (6b64 <usb_isr+0x2dc>)
    6ae4:	60f3      	str	r3, [r6, #12]
    6ae6:	6093      	str	r3, [r2, #8]
    6ae8:	2301      	movs	r3, #1
    6aea:	60b2      	str	r2, [r6, #8]
    6aec:	6013      	str	r3, [r2, #0]
    6aee:	2380      	movs	r3, #128	; 0x80
    6af0:	6053      	str	r3, [r2, #4]
    6af2:	f04f 1301 	mov.w	r3, #65537	; 0x10001
    6af6:	f8c4 31bc 	str.w	r3, [r4, #444]	; 0x1bc
    6afa:	f8d4 31b0 	ldr.w	r3, [r4, #432]	; 0x1b0
    6afe:	f043 0301 	orr.w	r3, r3, #1
    6b02:	f8c4 31b0 	str.w	r3, [r4, #432]	; 0x1b0
    6b06:	f8d4 31b0 	ldr.w	r3, [r4, #432]	; 0x1b0
    6b0a:	2b00      	cmp	r3, #0
    6b0c:	d1fb      	bne.n	6b06 <usb_isr+0x27e>
    6b0e:	e710      	b.n	6932 <usb_isr+0xaa>
    6b10:	f5b3 6fa0 	cmp.w	r3, #1280	; 0x500
    6b14:	f000 8111 	beq.w	6d3a <usb_isr+0x4b2>
    6b18:	f5a3 63d0 	sub.w	r3, r3, #1664	; 0x680
    6b1c:	2b01      	cmp	r3, #1
    6b1e:	f63f af04 	bhi.w	692a <usb_isr+0xa2>
    6b22:	4b11      	ldr	r3, [pc, #68]	; (6b68 <usb_isr+0x2e0>)
    6b24:	6859      	ldr	r1, [r3, #4]
    6b26:	2900      	cmp	r1, #0
    6b28:	f43f aeff 	beq.w	692a <usb_isr+0xa2>
    6b2c:	fa1f fc8c 	uxth.w	ip, ip
    6b30:	ea4f 4e12 	mov.w	lr, r2, lsr #16
    6b34:	e023      	b.n	6b7e <usb_isr+0x2f6>
    6b36:	bf00      	nop
    6b38:	402e0000 	.word	0x402e0000
    6b3c:	20000000 	.word	0x20000000
    6b40:	20009b50 	.word	0x20009b50
    6b44:	20009be4 	.word	0x20009be4
    6b48:	20009be8 	.word	0x20009be8
    6b4c:	20009bff 	.word	0x20009bff
    6b50:	20009c00 	.word	0x20009c00
    6b54:	20009b4c 	.word	0x20009b4c
    6b58:	200016e0 	.word	0x200016e0
    6b5c:	00020080 	.word	0x00020080
    6b60:	2000bb80 	.word	0x2000bb80
    6b64:	200016c0 	.word	0x200016c0
    6b68:	20000ad4 	.word	0x20000ad4
    6b6c:	20009b80 	.word	0x20009b80
    6b70:	402e01c0 	.word	0x402e01c0
    6b74:	6919      	ldr	r1, [r3, #16]
    6b76:	330c      	adds	r3, #12
    6b78:	2900      	cmp	r1, #0
    6b7a:	f43f aed6 	beq.w	692a <usb_isr+0xa2>
    6b7e:	881a      	ldrh	r2, [r3, #0]
    6b80:	4572      	cmp	r2, lr
    6b82:	d1f7      	bne.n	6b74 <usb_isr+0x2ec>
    6b84:	885a      	ldrh	r2, [r3, #2]
    6b86:	4562      	cmp	r2, ip
    6b88:	d1f4      	bne.n	6b74 <usb_isr+0x2ec>
    6b8a:	ea4f 221e 	mov.w	r2, lr, lsr #8
    6b8e:	2a03      	cmp	r2, #3
    6b90:	f000 8217 	beq.w	6fc2 <usb_isr+0x73a>
    6b94:	891d      	ldrh	r5, [r3, #8]
    6b96:	0c00      	lsrs	r0, r0, #16
    6b98:	4285      	cmp	r5, r0
    6b9a:	bf28      	it	cs
    6b9c:	4605      	movcs	r5, r0
    6b9e:	f5be 7f00 	cmp.w	lr, #512	; 0x200
    6ba2:	f040 8213 	bne.w	6fcc <usb_isr+0x744>
    6ba6:	4bb2      	ldr	r3, [pc, #712]	; (6e70 <usb_isr+0x5e8>)
    6ba8:	4ab2      	ldr	r2, [pc, #712]	; (6e74 <usb_isr+0x5ec>)
    6baa:	7819      	ldrb	r1, [r3, #0]
    6bac:	4bb2      	ldr	r3, [pc, #712]	; (6e78 <usb_isr+0x5f0>)
    6bae:	48b3      	ldr	r0, [pc, #716]	; (6e7c <usb_isr+0x5f4>)
    6bb0:	2900      	cmp	r1, #0
    6bb2:	bf0c      	ite	eq
    6bb4:	4611      	moveq	r1, r2
    6bb6:	4619      	movne	r1, r3
    6bb8:	462a      	mov	r2, r5
    6bba:	f7ff fc77 	bl	64ac <memcpy>
    6bbe:	4baf      	ldr	r3, [pc, #700]	; (6e7c <usb_isr+0x5f4>)
    6bc0:	e22b      	b.n	701a <usb_isr+0x792>
    6bc2:	f242 2121 	movw	r1, #8737	; 0x2221
    6bc6:	428b      	cmp	r3, r1
    6bc8:	d05d      	beq.n	6c86 <usb_isr+0x3fe>
    6bca:	d912      	bls.n	6bf2 <usb_isr+0x36a>
    6bcc:	f242 3121 	movw	r1, #8993	; 0x2321
    6bd0:	428b      	cmp	r3, r1
    6bd2:	d062      	beq.n	6c9a <usb_isr+0x412>
    6bd4:	f64f 01c0 	movw	r1, #63680	; 0xf8c0
    6bd8:	428b      	cmp	r3, r1
    6bda:	f47f aea6 	bne.w	692a <usb_isr+0xa2>
    6bde:	f410 4f7f 	tst.w	r0, #65280	; 0xff00
    6be2:	b283      	uxth	r3, r0
    6be4:	f47f aea1 	bne.w	692a <usb_isr+0xa2>
    6be8:	f443 436e 	orr.w	r3, r3, #60928	; 0xee00
    6bec:	f363 0c0f 	bfi	ip, r3, #0, #16
    6bf0:	e797      	b.n	6b22 <usb_isr+0x29a>
    6bf2:	f5b3 6f10 	cmp.w	r3, #2304	; 0x900
    6bf6:	d068      	beq.n	6cca <usb_isr+0x442>
    6bf8:	f242 0121 	movw	r1, #8225	; 0x2021
    6bfc:	428b      	cmp	r3, r1
    6bfe:	f47f ae94 	bne.w	692a <usb_isr+0xa2>
    6c02:	0c03      	lsrs	r3, r0, #16
    6c04:	2b07      	cmp	r3, #7
    6c06:	f47f ae90 	bne.w	692a <usb_isr+0xa2>
    6c0a:	499d      	ldr	r1, [pc, #628]	; (6e80 <usb_isr+0x5f8>)
    6c0c:	4b9d      	ldr	r3, [pc, #628]	; (6e84 <usb_isr+0x5fc>)
    6c0e:	60f5      	str	r5, [r6, #12]
    6c10:	60b3      	str	r3, [r6, #8]
    6c12:	e9c1 2000 	strd	r2, r0, [r1]
    6c16:	2201      	movs	r2, #1
    6c18:	601a      	str	r2, [r3, #0]
    6c1a:	4a9b      	ldr	r2, [pc, #620]	; (6e88 <usb_isr+0x600>)
    6c1c:	605a      	str	r2, [r3, #4]
    6c1e:	4a9b      	ldr	r2, [pc, #620]	; (6e8c <usb_isr+0x604>)
    6c20:	609a      	str	r2, [r3, #8]
    6c22:	f8d4 11b0 	ldr.w	r1, [r4, #432]	; 0x1b0
    6c26:	f041 0101 	orr.w	r1, r1, #1
    6c2a:	f8c4 11b0 	str.w	r1, [r4, #432]	; 0x1b0
    6c2e:	f502 5180 	add.w	r1, r2, #4096	; 0x1000
    6c32:	60d9      	str	r1, [r3, #12]
    6c34:	f502 5100 	add.w	r1, r2, #8192	; 0x2000
    6c38:	6119      	str	r1, [r3, #16]
    6c3a:	f502 5140 	add.w	r1, r2, #12288	; 0x3000
    6c3e:	f502 4280 	add.w	r2, r2, #16384	; 0x4000
    6c42:	6159      	str	r1, [r3, #20]
    6c44:	619a      	str	r2, [r3, #24]
    6c46:	f8d4 31b0 	ldr.w	r3, [r4, #432]	; 0x1b0
    6c4a:	2b00      	cmp	r3, #0
    6c4c:	d1fb      	bne.n	6c46 <usb_isr+0x3be>
    6c4e:	4a90      	ldr	r2, [pc, #576]	; (6e90 <usb_isr+0x608>)
    6c50:	64f3      	str	r3, [r6, #76]	; 0x4c
    6c52:	6093      	str	r3, [r2, #8]
    6c54:	2301      	movs	r3, #1
    6c56:	64b2      	str	r2, [r6, #72]	; 0x48
    6c58:	6013      	str	r3, [r2, #0]
    6c5a:	f248 0380 	movw	r3, #32896	; 0x8080
    6c5e:	6053      	str	r3, [r2, #4]
    6c60:	f04f 1301 	mov.w	r3, #65537	; 0x10001
    6c64:	f8c4 31bc 	str.w	r3, [r4, #444]	; 0x1bc
    6c68:	f8d4 31b0 	ldr.w	r3, [r4, #432]	; 0x1b0
    6c6c:	f443 3380 	orr.w	r3, r3, #65536	; 0x10000
    6c70:	f8c4 31b0 	str.w	r3, [r4, #432]	; 0x1b0
    6c74:	f44f 3380 	mov.w	r3, #65536	; 0x10000
    6c78:	f8c8 3000 	str.w	r3, [r8]
    6c7c:	f8d4 31b0 	ldr.w	r3, [r4, #432]	; 0x1b0
    6c80:	2b00      	cmp	r3, #0
    6c82:	d1fb      	bne.n	6c7c <usb_isr+0x3f4>
    6c84:	e655      	b.n	6932 <usb_isr+0xaa>
    6c86:	b280      	uxth	r0, r0
    6c88:	b938      	cbnz	r0, 6c9a <usb_isr+0x412>
    6c8a:	4b82      	ldr	r3, [pc, #520]	; (6e94 <usb_isr+0x60c>)
    6c8c:	f3c2 4207 	ubfx	r2, r2, #16, #8
    6c90:	6819      	ldr	r1, [r3, #0]
    6c92:	4b81      	ldr	r3, [pc, #516]	; (6e98 <usb_isr+0x610>)
    6c94:	6019      	str	r1, [r3, #0]
    6c96:	4b81      	ldr	r3, [pc, #516]	; (6e9c <usb_isr+0x614>)
    6c98:	701a      	strb	r2, [r3, #0]
    6c9a:	4b7d      	ldr	r3, [pc, #500]	; (6e90 <usb_isr+0x608>)
    6c9c:	2200      	movs	r2, #0
    6c9e:	609a      	str	r2, [r3, #8]
    6ca0:	64f2      	str	r2, [r6, #76]	; 0x4c
    6ca2:	2201      	movs	r2, #1
    6ca4:	64b3      	str	r3, [r6, #72]	; 0x48
    6ca6:	601a      	str	r2, [r3, #0]
    6ca8:	2280      	movs	r2, #128	; 0x80
    6caa:	605a      	str	r2, [r3, #4]
    6cac:	f04f 1301 	mov.w	r3, #65537	; 0x10001
    6cb0:	f8c4 31bc 	str.w	r3, [r4, #444]	; 0x1bc
    6cb4:	f8d4 31b0 	ldr.w	r3, [r4, #432]	; 0x1b0
    6cb8:	f443 3380 	orr.w	r3, r3, #65536	; 0x10000
    6cbc:	f8c4 31b0 	str.w	r3, [r4, #432]	; 0x1b0
    6cc0:	f8d4 31b0 	ldr.w	r3, [r4, #432]	; 0x1b0
    6cc4:	2b00      	cmp	r3, #0
    6cc6:	d1fb      	bne.n	6cc0 <usb_isr+0x438>
    6cc8:	e633      	b.n	6932 <usb_isr+0xaa>
    6cca:	f3c2 4207 	ubfx	r2, r2, #16, #8
    6cce:	4b74      	ldr	r3, [pc, #464]	; (6ea0 <usb_isr+0x618>)
    6cd0:	701a      	strb	r2, [r3, #0]
    6cd2:	4b74      	ldr	r3, [pc, #464]	; (6ea4 <usb_isr+0x61c>)
    6cd4:	f8c4 31c8 	str.w	r3, [r4, #456]	; 0x1c8
    6cd8:	4b73      	ldr	r3, [pc, #460]	; (6ea8 <usb_isr+0x620>)
    6cda:	f8c4 31cc 	str.w	r3, [r4, #460]	; 0x1cc
    6cde:	4b73      	ldr	r3, [pc, #460]	; (6eac <usb_isr+0x624>)
    6ce0:	f8c4 31d0 	str.w	r3, [r4, #464]	; 0x1d0
    6ce4:	f000 fd86 	bl	77f4 <usb_serial_configure>
    6ce8:	2280      	movs	r2, #128	; 0x80
    6cea:	4629      	mov	r1, r5
    6cec:	4870      	ldr	r0, [pc, #448]	; (6eb0 <usb_isr+0x628>)
    6cee:	f002 fb99 	bl	9424 <memset>
    6cf2:	4b70      	ldr	r3, [pc, #448]	; (6eb4 <usb_isr+0x62c>)
    6cf4:	2280      	movs	r2, #128	; 0x80
    6cf6:	64f5      	str	r5, [r6, #76]	; 0x4c
    6cf8:	f8c6 30a0 	str.w	r3, [r6, #160]	; 0xa0
    6cfc:	f103 433c 	add.w	r3, r3, #3154116608	; 0xbc000000
    6d00:	f503 236c 	add.w	r3, r3, #966656	; 0xec000
    6d04:	f503 736f 	add.w	r3, r3, #956	; 0x3bc
    6d08:	f8c6 30e0 	str.w	r3, [r6, #224]	; 0xe0
    6d0c:	4b60      	ldr	r3, [pc, #384]	; (6e90 <usb_isr+0x608>)
    6d0e:	605a      	str	r2, [r3, #4]
    6d10:	2201      	movs	r2, #1
    6d12:	64b3      	str	r3, [r6, #72]	; 0x48
    6d14:	609d      	str	r5, [r3, #8]
    6d16:	601a      	str	r2, [r3, #0]
    6d18:	f04f 1301 	mov.w	r3, #65537	; 0x10001
    6d1c:	f8c4 31bc 	str.w	r3, [r4, #444]	; 0x1bc
    6d20:	f8d4 31b0 	ldr.w	r3, [r4, #432]	; 0x1b0
    6d24:	f443 3380 	orr.w	r3, r3, #65536	; 0x10000
    6d28:	f8c4 31b0 	str.w	r3, [r4, #432]	; 0x1b0
    6d2c:	f8c8 5000 	str.w	r5, [r8]
    6d30:	f8d4 31b0 	ldr.w	r3, [r4, #432]	; 0x1b0
    6d34:	2b00      	cmp	r3, #0
    6d36:	d1fb      	bne.n	6d30 <usb_isr+0x4a8>
    6d38:	e5fb      	b.n	6932 <usb_isr+0xaa>
    6d3a:	4b55      	ldr	r3, [pc, #340]	; (6e90 <usb_isr+0x608>)
    6d3c:	2101      	movs	r1, #1
    6d3e:	64f5      	str	r5, [r6, #76]	; 0x4c
    6d40:	6019      	str	r1, [r3, #0]
    6d42:	2180      	movs	r1, #128	; 0x80
    6d44:	609d      	str	r5, [r3, #8]
    6d46:	64b3      	str	r3, [r6, #72]	; 0x48
    6d48:	6059      	str	r1, [r3, #4]
    6d4a:	f04f 1301 	mov.w	r3, #65537	; 0x10001
    6d4e:	f8c4 31bc 	str.w	r3, [r4, #444]	; 0x1bc
    6d52:	f8d4 31b0 	ldr.w	r3, [r4, #432]	; 0x1b0
    6d56:	f443 3380 	orr.w	r3, r3, #65536	; 0x10000
    6d5a:	f8c4 31b0 	str.w	r3, [r4, #432]	; 0x1b0
    6d5e:	f8d4 31b0 	ldr.w	r3, [r4, #432]	; 0x1b0
    6d62:	2b00      	cmp	r3, #0
    6d64:	d1fb      	bne.n	6d5e <usb_isr+0x4d6>
    6d66:	0c13      	lsrs	r3, r2, #16
    6d68:	065b      	lsls	r3, r3, #25
    6d6a:	f043 7380 	orr.w	r3, r3, #16777216	; 0x1000000
    6d6e:	f8c4 3154 	str.w	r3, [r4, #340]	; 0x154
    6d72:	e5de      	b.n	6932 <usb_isr+0xaa>
    6d74:	4b4a      	ldr	r3, [pc, #296]	; (6ea0 <usb_isr+0x618>)
    6d76:	4a43      	ldr	r2, [pc, #268]	; (6e84 <usb_isr+0x5fc>)
    6d78:	781b      	ldrb	r3, [r3, #0]
    6d7a:	64f5      	str	r5, [r6, #76]	; 0x4c
    6d7c:	f889 3000 	strb.w	r3, [r9]
    6d80:	2301      	movs	r3, #1
    6d82:	64b2      	str	r2, [r6, #72]	; 0x48
    6d84:	6013      	str	r3, [r2, #0]
    6d86:	4b4c      	ldr	r3, [pc, #304]	; (6eb8 <usb_isr+0x630>)
    6d88:	6053      	str	r3, [r2, #4]
    6d8a:	4b4c      	ldr	r3, [pc, #304]	; (6ebc <usb_isr+0x634>)
    6d8c:	e9c2 9b02 	strd	r9, fp, [r2, #8]
    6d90:	6113      	str	r3, [r2, #16]
    6d92:	f8d4 11b0 	ldr.w	r1, [r4, #432]	; 0x1b0
    6d96:	f441 3180 	orr.w	r1, r1, #65536	; 0x10000
    6d9a:	f8c4 11b0 	str.w	r1, [r4, #432]	; 0x1b0
    6d9e:	f503 5180 	add.w	r1, r3, #4096	; 0x1000
    6da2:	f503 5300 	add.w	r3, r3, #8192	; 0x2000
    6da6:	6151      	str	r1, [r2, #20]
    6da8:	6193      	str	r3, [r2, #24]
    6daa:	f8d4 31b0 	ldr.w	r3, [r4, #432]	; 0x1b0
    6dae:	2b00      	cmp	r3, #0
    6db0:	d1fb      	bne.n	6daa <usb_isr+0x522>
    6db2:	4a37      	ldr	r2, [pc, #220]	; (6e90 <usb_isr+0x608>)
    6db4:	60f3      	str	r3, [r6, #12]
    6db6:	6093      	str	r3, [r2, #8]
    6db8:	2301      	movs	r3, #1
    6dba:	60b2      	str	r2, [r6, #8]
    6dbc:	6013      	str	r3, [r2, #0]
    6dbe:	2380      	movs	r3, #128	; 0x80
    6dc0:	6053      	str	r3, [r2, #4]
    6dc2:	f04f 1301 	mov.w	r3, #65537	; 0x10001
    6dc6:	f8c4 31bc 	str.w	r3, [r4, #444]	; 0x1bc
    6dca:	f8d4 31b0 	ldr.w	r3, [r4, #432]	; 0x1b0
    6dce:	f043 0301 	orr.w	r3, r3, #1
    6dd2:	f8c4 31b0 	str.w	r3, [r4, #432]	; 0x1b0
    6dd6:	f8d4 31b0 	ldr.w	r3, [r4, #432]	; 0x1b0
    6dda:	2b00      	cmp	r3, #0
    6ddc:	d1fb      	bne.n	6dd6 <usb_isr+0x54e>
    6dde:	e5a8      	b.n	6932 <usb_isr+0xaa>
    6de0:	b283      	uxth	r3, r0
    6de2:	f010 0078 	ands.w	r0, r0, #120	; 0x78
    6de6:	f47f ada0 	bne.w	692a <usb_isr+0xa2>
    6dea:	f003 027f 	and.w	r2, r3, #127	; 0x7f
    6dee:	0619      	lsls	r1, r3, #24
    6df0:	f85a 2022 	ldr.w	r2, [sl, r2, lsl #2]
    6df4:	f8a9 0000 	strh.w	r0, [r9]
    6df8:	f100 80fb 	bmi.w	6ff2 <usb_isr+0x76a>
    6dfc:	07d3      	lsls	r3, r2, #31
    6dfe:	f100 80fb 	bmi.w	6ff8 <usb_isr+0x770>
    6e02:	4b20      	ldr	r3, [pc, #128]	; (6e84 <usb_isr+0x5fc>)
    6e04:	2201      	movs	r2, #1
    6e06:	601a      	str	r2, [r3, #0]
    6e08:	4a2d      	ldr	r2, [pc, #180]	; (6ec0 <usb_isr+0x638>)
    6e0a:	64b3      	str	r3, [r6, #72]	; 0x48
    6e0c:	605a      	str	r2, [r3, #4]
    6e0e:	2200      	movs	r2, #0
    6e10:	f8c3 9008 	str.w	r9, [r3, #8]
    6e14:	64f2      	str	r2, [r6, #76]	; 0x4c
    6e16:	4a2b      	ldr	r2, [pc, #172]	; (6ec4 <usb_isr+0x63c>)
    6e18:	60da      	str	r2, [r3, #12]
    6e1a:	f8d4 11b0 	ldr.w	r1, [r4, #432]	; 0x1b0
    6e1e:	f441 3180 	orr.w	r1, r1, #65536	; 0x10000
    6e22:	f8c4 11b0 	str.w	r1, [r4, #432]	; 0x1b0
    6e26:	f502 5180 	add.w	r1, r2, #4096	; 0x1000
    6e2a:	6119      	str	r1, [r3, #16]
    6e2c:	f502 5100 	add.w	r1, r2, #8192	; 0x2000
    6e30:	f502 5240 	add.w	r2, r2, #12288	; 0x3000
    6e34:	6159      	str	r1, [r3, #20]
    6e36:	619a      	str	r2, [r3, #24]
    6e38:	f8d4 31b0 	ldr.w	r3, [r4, #432]	; 0x1b0
    6e3c:	2b00      	cmp	r3, #0
    6e3e:	d1fb      	bne.n	6e38 <usb_isr+0x5b0>
    6e40:	4a13      	ldr	r2, [pc, #76]	; (6e90 <usb_isr+0x608>)
    6e42:	60f3      	str	r3, [r6, #12]
    6e44:	6093      	str	r3, [r2, #8]
    6e46:	2301      	movs	r3, #1
    6e48:	60b2      	str	r2, [r6, #8]
    6e4a:	6013      	str	r3, [r2, #0]
    6e4c:	2380      	movs	r3, #128	; 0x80
    6e4e:	6053      	str	r3, [r2, #4]
    6e50:	f04f 1301 	mov.w	r3, #65537	; 0x10001
    6e54:	f8c4 31bc 	str.w	r3, [r4, #444]	; 0x1bc
    6e58:	f8d4 31b0 	ldr.w	r3, [r4, #432]	; 0x1b0
    6e5c:	f043 0301 	orr.w	r3, r3, #1
    6e60:	f8c4 31b0 	str.w	r3, [r4, #432]	; 0x1b0
    6e64:	f8d4 31b0 	ldr.w	r3, [r4, #432]	; 0x1b0
    6e68:	2b00      	cmp	r3, #0
    6e6a:	d1fb      	bne.n	6e64 <usb_isr+0x5dc>
    6e6c:	e561      	b.n	6932 <usb_isr+0xaa>
    6e6e:	bf00      	nop
    6e70:	20009bff 	.word	0x20009bff
    6e74:	60001e08 	.word	0x60001e08
    6e78:	60001e6c 	.word	0x60001e6c
    6e7c:	20200000 	.word	0x20200000
    6e80:	20001880 	.word	0x20001880
    6e84:	200016e0 	.word	0x200016e0
    6e88:	00070080 	.word	0x00070080
    6e8c:	20009b44 	.word	0x20009b44
    6e90:	200016c0 	.word	0x200016c0
    6e94:	20009bd0 	.word	0x20009bd0
    6e98:	20009be0 	.word	0x20009be0
    6e9c:	20009bfd 	.word	0x20009bfd
    6ea0:	20009bfe 	.word	0x20009bfe
    6ea4:	00cc0002 	.word	0x00cc0002
    6ea8:	000200c8 	.word	0x000200c8
    6eac:	00c80002 	.word	0x00c80002
    6eb0:	20000080 	.word	0x20000080
    6eb4:	b8c6cf5d 	.word	0xb8c6cf5d
    6eb8:	00010080 	.word	0x00010080
    6ebc:	2000bb80 	.word	0x2000bb80
    6ec0:	00020080 	.word	0x00020080
    6ec4:	2000ab80 	.word	0x2000ab80
    6ec8:	f010 0f78 	tst.w	r0, #120	; 0x78
    6ecc:	b283      	uxth	r3, r0
    6ece:	f47f ad2c 	bne.w	692a <usb_isr+0xa2>
    6ed2:	f003 027f 	and.w	r2, r3, #127	; 0x7f
    6ed6:	f013 0f80 	tst.w	r3, #128	; 0x80
    6eda:	f85a 3022 	ldr.w	r3, [sl, r2, lsl #2]
    6ede:	bf14      	ite	ne
    6ee0:	f443 3380 	orrne.w	r3, r3, #65536	; 0x10000
    6ee4:	f043 0301 	orreq.w	r3, r3, #1
    6ee8:	f84a 3022 	str.w	r3, [sl, r2, lsl #2]
    6eec:	2200      	movs	r2, #0
    6eee:	4b77      	ldr	r3, [pc, #476]	; (70cc <usb_isr+0x844>)
    6ef0:	64f2      	str	r2, [r6, #76]	; 0x4c
    6ef2:	609a      	str	r2, [r3, #8]
    6ef4:	2201      	movs	r2, #1
    6ef6:	64b3      	str	r3, [r6, #72]	; 0x48
    6ef8:	601a      	str	r2, [r3, #0]
    6efa:	2280      	movs	r2, #128	; 0x80
    6efc:	605a      	str	r2, [r3, #4]
    6efe:	f04f 1301 	mov.w	r3, #65537	; 0x10001
    6f02:	f8c4 31bc 	str.w	r3, [r4, #444]	; 0x1bc
    6f06:	f8d4 31b0 	ldr.w	r3, [r4, #432]	; 0x1b0
    6f0a:	f443 3380 	orr.w	r3, r3, #65536	; 0x10000
    6f0e:	f8c4 31b0 	str.w	r3, [r4, #432]	; 0x1b0
    6f12:	f8d4 31b0 	ldr.w	r3, [r4, #432]	; 0x1b0
    6f16:	2b00      	cmp	r3, #0
    6f18:	d1fb      	bne.n	6f12 <usb_isr+0x68a>
    6f1a:	e50a      	b.n	6932 <usb_isr+0xaa>
    6f1c:	f003 027f 	and.w	r2, r3, #127	; 0x7f
    6f20:	f013 0f80 	tst.w	r3, #128	; 0x80
    6f24:	f85a 3022 	ldr.w	r3, [sl, r2, lsl #2]
    6f28:	bf14      	ite	ne
    6f2a:	f423 3380 	bicne.w	r3, r3, #65536	; 0x10000
    6f2e:	f023 0301 	biceq.w	r3, r3, #1
    6f32:	f84a 3022 	str.w	r3, [sl, r2, lsl #2]
    6f36:	2200      	movs	r2, #0
    6f38:	4b64      	ldr	r3, [pc, #400]	; (70cc <usb_isr+0x844>)
    6f3a:	64f2      	str	r2, [r6, #76]	; 0x4c
    6f3c:	609a      	str	r2, [r3, #8]
    6f3e:	2201      	movs	r2, #1
    6f40:	64b3      	str	r3, [r6, #72]	; 0x48
    6f42:	601a      	str	r2, [r3, #0]
    6f44:	2280      	movs	r2, #128	; 0x80
    6f46:	605a      	str	r2, [r3, #4]
    6f48:	f04f 1301 	mov.w	r3, #65537	; 0x10001
    6f4c:	f8c4 31bc 	str.w	r3, [r4, #444]	; 0x1bc
    6f50:	f8d4 31b0 	ldr.w	r3, [r4, #432]	; 0x1b0
    6f54:	f443 3380 	orr.w	r3, r3, #65536	; 0x10000
    6f58:	f8c4 31b0 	str.w	r3, [r4, #432]	; 0x1b0
    6f5c:	f8d4 31b0 	ldr.w	r3, [r4, #432]	; 0x1b0
    6f60:	2b00      	cmp	r3, #0
    6f62:	d1fb      	bne.n	6f5c <usb_isr+0x6d4>
    6f64:	e4e5      	b.n	6932 <usb_isr+0xaa>
    6f66:	2100      	movs	r1, #0
    6f68:	6011      	str	r1, [r2, #0]
    6f6a:	4a59      	ldr	r2, [pc, #356]	; (70d0 <usb_isr+0x848>)
    6f6c:	8810      	ldrh	r0, [r2, #0]
    6f6e:	6851      	ldr	r1, [r2, #4]
    6f70:	f242 0221 	movw	r2, #8225	; 0x2021
    6f74:	4290      	cmp	r0, r2
    6f76:	f47f ad2f 	bne.w	69d8 <usb_isr+0x150>
    6f7a:	b289      	uxth	r1, r1
    6f7c:	2900      	cmp	r1, #0
    6f7e:	f47f ad2b 	bne.w	69d8 <usb_isr+0x150>
    6f82:	4954      	ldr	r1, [pc, #336]	; (70d4 <usb_isr+0x84c>)
    6f84:	4a54      	ldr	r2, [pc, #336]	; (70d8 <usb_isr+0x850>)
    6f86:	c903      	ldmia	r1, {r0, r1}
    6f88:	8091      	strh	r1, [r2, #4]
    6f8a:	2886      	cmp	r0, #134	; 0x86
    6f8c:	ea4f 4111 	mov.w	r1, r1, lsr #16
    6f90:	6010      	str	r0, [r2, #0]
    6f92:	7191      	strb	r1, [r2, #6]
    6f94:	f47f ad20 	bne.w	69d8 <usb_isr+0x150>
    6f98:	b672      	cpsid	i
    6f9a:	4950      	ldr	r1, [pc, #320]	; (70dc <usb_isr+0x854>)
    6f9c:	780a      	ldrb	r2, [r1, #0]
    6f9e:	f042 0208 	orr.w	r2, r2, #8
    6fa2:	700a      	strb	r2, [r1, #0]
    6fa4:	f8d3 2148 	ldr.w	r2, [r3, #328]	; 0x148
    6fa8:	0616      	lsls	r6, r2, #24
    6faa:	d405      	bmi.n	6fb8 <usb_isr+0x730>
    6fac:	2180      	movs	r1, #128	; 0x80
    6fae:	430a      	orrs	r2, r1
    6fb0:	f8c3 1144 	str.w	r1, [r3, #324]	; 0x144
    6fb4:	f8c3 2148 	str.w	r2, [r3, #328]	; 0x148
    6fb8:	b662      	cpsie	i
    6fba:	4b49      	ldr	r3, [pc, #292]	; (70e0 <usb_isr+0x858>)
    6fbc:	2250      	movs	r2, #80	; 0x50
    6fbe:	701a      	strb	r2, [r3, #0]
    6fc0:	e50a      	b.n	69d8 <usb_isr+0x150>
    6fc2:	0c00      	lsrs	r0, r0, #16
    6fc4:	780d      	ldrb	r5, [r1, #0]
    6fc6:	4285      	cmp	r5, r0
    6fc8:	bf28      	it	cs
    6fca:	4605      	movcs	r5, r0
    6fcc:	f5be 6fe0 	cmp.w	lr, #1792	; 0x700
    6fd0:	d11c      	bne.n	700c <usb_isr+0x784>
    6fd2:	4b44      	ldr	r3, [pc, #272]	; (70e4 <usb_isr+0x85c>)
    6fd4:	4a44      	ldr	r2, [pc, #272]	; (70e8 <usb_isr+0x860>)
    6fd6:	7818      	ldrb	r0, [r3, #0]
    6fd8:	4944      	ldr	r1, [pc, #272]	; (70ec <usb_isr+0x864>)
    6fda:	4b45      	ldr	r3, [pc, #276]	; (70f0 <usb_isr+0x868>)
    6fdc:	2800      	cmp	r0, #0
    6fde:	bf18      	it	ne
    6fe0:	4611      	movne	r1, r2
    6fe2:	462a      	mov	r2, r5
    6fe4:	4618      	mov	r0, r3
    6fe6:	f7ff fa61 	bl	64ac <memcpy>
    6fea:	2207      	movs	r2, #7
    6fec:	4603      	mov	r3, r0
    6fee:	7042      	strb	r2, [r0, #1]
    6ff0:	e013      	b.n	701a <usb_isr+0x792>
    6ff2:	03d2      	lsls	r2, r2, #15
    6ff4:	f57f af05 	bpl.w	6e02 <usb_isr+0x57a>
    6ff8:	2301      	movs	r3, #1
    6ffa:	f889 3000 	strb.w	r3, [r9]
    6ffe:	e700      	b.n	6e02 <usb_isr+0x57a>
    7000:	e9cb 330c 	strd	r3, r3, [fp, #48]	; 0x30
    7004:	e53b      	b.n	6a7e <usb_isr+0x1f6>
    7006:	e9cb 330c 	strd	r3, r3, [fp, #48]	; 0x30
    700a:	e50a      	b.n	6a22 <usb_isr+0x19a>
    700c:	4b38      	ldr	r3, [pc, #224]	; (70f0 <usb_isr+0x868>)
    700e:	462a      	mov	r2, r5
    7010:	4618      	mov	r0, r3
    7012:	9301      	str	r3, [sp, #4]
    7014:	f7ff fa4a 	bl	64ac <memcpy>
    7018:	9b01      	ldr	r3, [sp, #4]
    701a:	f023 021f 	bic.w	r2, r3, #31
    701e:	1958      	adds	r0, r3, r5
    7020:	f3bf 8f4f 	dsb	sy
    7024:	f04f 21e0 	mov.w	r1, #3758153728	; 0xe000e000
    7028:	f8c1 2f70 	str.w	r2, [r1, #3952]	; 0xf70
    702c:	3220      	adds	r2, #32
    702e:	4290      	cmp	r0, r2
    7030:	d8fa      	bhi.n	7028 <usb_isr+0x7a0>
    7032:	f3bf 8f4f 	dsb	sy
    7036:	f3bf 8f6f 	isb	sy
    703a:	b1fd      	cbz	r5, 707c <usb_isr+0x7f4>
    703c:	492d      	ldr	r1, [pc, #180]	; (70f4 <usb_isr+0x86c>)
    703e:	042a      	lsls	r2, r5, #16
    7040:	608b      	str	r3, [r1, #8]
    7042:	2301      	movs	r3, #1
    7044:	f042 0280 	orr.w	r2, r2, #128	; 0x80
    7048:	64b1      	str	r1, [r6, #72]	; 0x48
    704a:	600b      	str	r3, [r1, #0]
    704c:	2300      	movs	r3, #0
    704e:	604a      	str	r2, [r1, #4]
    7050:	64f3      	str	r3, [r6, #76]	; 0x4c
    7052:	4b29      	ldr	r3, [pc, #164]	; (70f8 <usb_isr+0x870>)
    7054:	60cb      	str	r3, [r1, #12]
    7056:	f8d4 21b0 	ldr.w	r2, [r4, #432]	; 0x1b0
    705a:	f442 3280 	orr.w	r2, r2, #65536	; 0x10000
    705e:	f8c4 21b0 	str.w	r2, [r4, #432]	; 0x1b0
    7062:	f503 5280 	add.w	r2, r3, #4096	; 0x1000
    7066:	610a      	str	r2, [r1, #16]
    7068:	f503 5200 	add.w	r2, r3, #8192	; 0x2000
    706c:	f503 5340 	add.w	r3, r3, #12288	; 0x3000
    7070:	614a      	str	r2, [r1, #20]
    7072:	618b      	str	r3, [r1, #24]
    7074:	f8d4 31b0 	ldr.w	r3, [r4, #432]	; 0x1b0
    7078:	2b00      	cmp	r3, #0
    707a:	d1fb      	bne.n	7074 <usb_isr+0x7ec>
    707c:	4b13      	ldr	r3, [pc, #76]	; (70cc <usb_isr+0x844>)
    707e:	2101      	movs	r1, #1
    7080:	2200      	movs	r2, #0
    7082:	6019      	str	r1, [r3, #0]
    7084:	2180      	movs	r1, #128	; 0x80
    7086:	60b3      	str	r3, [r6, #8]
    7088:	609a      	str	r2, [r3, #8]
    708a:	6059      	str	r1, [r3, #4]
    708c:	f04f 1301 	mov.w	r3, #65537	; 0x10001
    7090:	60f2      	str	r2, [r6, #12]
    7092:	f8c4 31bc 	str.w	r3, [r4, #444]	; 0x1bc
    7096:	f8d4 31b0 	ldr.w	r3, [r4, #432]	; 0x1b0
    709a:	f043 0301 	orr.w	r3, r3, #1
    709e:	f8c4 31b0 	str.w	r3, [r4, #432]	; 0x1b0
    70a2:	f8c8 2000 	str.w	r2, [r8]
    70a6:	f8d4 31b0 	ldr.w	r3, [r4, #432]	; 0x1b0
    70aa:	2b00      	cmp	r3, #0
    70ac:	d1fb      	bne.n	70a6 <usb_isr+0x81e>
    70ae:	e440      	b.n	6932 <usb_isr+0xaa>
    70b0:	490a      	ldr	r1, [pc, #40]	; (70dc <usb_isr+0x854>)
    70b2:	780a      	ldrb	r2, [r1, #0]
    70b4:	f002 02f7 	and.w	r2, r2, #247	; 0xf7
    70b8:	700a      	strb	r2, [r1, #0]
    70ba:	b92a      	cbnz	r2, 70c8 <usb_isr+0x840>
    70bc:	f8d3 2148 	ldr.w	r2, [r3, #328]	; 0x148
    70c0:	f022 0280 	bic.w	r2, r2, #128	; 0x80
    70c4:	f8c3 2148 	str.w	r2, [r3, #328]	; 0x148
    70c8:	f007 fc32 	bl	e930 <___reboot_Teensyduino__veneer>
    70cc:	200016c0 	.word	0x200016c0
    70d0:	20001880 	.word	0x20001880
    70d4:	20009b44 	.word	0x20009b44
    70d8:	20009bd8 	.word	0x20009bd8
    70dc:	20009bf9 	.word	0x20009bf9
    70e0:	20009c00 	.word	0x20009c00
    70e4:	20009bff 	.word	0x20009bff
    70e8:	60001e08 	.word	0x60001e08
    70ec:	60001e6c 	.word	0x60001e6c
    70f0:	20200000 	.word	0x20200000
    70f4:	200016e0 	.word	0x200016e0
    70f8:	20201000 	.word	0x20201000

000070fc <usb_config_rx>:
    70fc:	e92d 47f0 	stmdb	sp!, {r4, r5, r6, r7, r8, r9, sl, lr}
    7100:	461f      	mov	r7, r3
    7102:	1e83      	subs	r3, r0, #2
    7104:	2b02      	cmp	r3, #2
    7106:	d901      	bls.n	710c <usb_config_rx+0x10>
    7108:	e8bd 87f0 	ldmia.w	sp!, {r4, r5, r6, r7, r8, r9, sl, pc}
    710c:	f8df 904c 	ldr.w	r9, [pc, #76]	; 715c <usb_config_rx+0x60>
    7110:	4615      	mov	r5, r2
    7112:	460c      	mov	r4, r1
    7114:	223c      	movs	r2, #60	; 0x3c
    7116:	eb09 18c0 	add.w	r8, r9, r0, lsl #7
    711a:	4606      	mov	r6, r0
    711c:	ea4f 1ac0 	mov.w	sl, r0, lsl #7
    7120:	2100      	movs	r1, #0
    7122:	f108 0004 	add.w	r0, r8, #4
    7126:	0424      	lsls	r4, r4, #16
    7128:	f002 f97c 	bl	9424 <memset>
    712c:	fab5 f285 	clz	r2, r5
    7130:	2301      	movs	r3, #1
    7132:	0952      	lsrs	r2, r2, #5
    7134:	ea44 7442 	orr.w	r4, r4, r2, lsl #29
    7138:	f849 400a 	str.w	r4, [r9, sl]
    713c:	f8c8 7038 	str.w	r7, [r8, #56]	; 0x38
    7140:	f8c8 3008 	str.w	r3, [r8, #8]
    7144:	2f00      	cmp	r7, #0
    7146:	d0df      	beq.n	7108 <usb_config_rx+0xc>
    7148:	4a03      	ldr	r2, [pc, #12]	; (7158 <usb_config_rx+0x5c>)
    714a:	40b3      	lsls	r3, r6
    714c:	6811      	ldr	r1, [r2, #0]
    714e:	430b      	orrs	r3, r1
    7150:	6013      	str	r3, [r2, #0]
    7152:	e8bd 87f0 	ldmia.w	sp!, {r4, r5, r6, r7, r8, r9, sl, pc}
    7156:	bf00      	nop
    7158:	20009b50 	.word	0x20009b50
    715c:	20000000 	.word	0x20000000

00007160 <usb_config_tx>:
    7160:	e92d 47f0 	stmdb	sp!, {r4, r5, r6, r7, r8, r9, sl, lr}
    7164:	460d      	mov	r5, r1
    7166:	1e81      	subs	r1, r0, #2
    7168:	2902      	cmp	r1, #2
    716a:	d901      	bls.n	7170 <usb_config_tx+0x10>
    716c:	e8bd 87f0 	ldmia.w	sp!, {r4, r5, r6, r7, r8, r9, sl, pc}
    7170:	01c7      	lsls	r7, r0, #7
    7172:	f8df 904c 	ldr.w	r9, [pc, #76]	; 71c0 <usb_config_tx+0x60>
    7176:	4692      	mov	sl, r2
    7178:	4604      	mov	r4, r0
    717a:	3740      	adds	r7, #64	; 0x40
    717c:	223c      	movs	r2, #60	; 0x3c
    717e:	2100      	movs	r1, #0
    7180:	461e      	mov	r6, r3
    7182:	eb09 0807 	add.w	r8, r9, r7
    7186:	042d      	lsls	r5, r5, #16
    7188:	f108 0004 	add.w	r0, r8, #4
    718c:	f002 f94a 	bl	9424 <memset>
    7190:	faba f28a 	clz	r2, sl
    7194:	0952      	lsrs	r2, r2, #5
    7196:	ea45 7242 	orr.w	r2, r5, r2, lsl #29
    719a:	f849 2007 	str.w	r2, [r9, r7]
    719e:	2201      	movs	r2, #1
    71a0:	f8c8 6038 	str.w	r6, [r8, #56]	; 0x38
    71a4:	f8c8 2008 	str.w	r2, [r8, #8]
    71a8:	2e00      	cmp	r6, #0
    71aa:	d0df      	beq.n	716c <usb_config_tx+0xc>
    71ac:	4b03      	ldr	r3, [pc, #12]	; (71bc <usb_config_tx+0x5c>)
    71ae:	3410      	adds	r4, #16
    71b0:	6819      	ldr	r1, [r3, #0]
    71b2:	40a2      	lsls	r2, r4
    71b4:	430a      	orrs	r2, r1
    71b6:	601a      	str	r2, [r3, #0]
    71b8:	e8bd 87f0 	ldmia.w	sp!, {r4, r5, r6, r7, r8, r9, sl, pc}
    71bc:	20009b50 	.word	0x20009b50
    71c0:	20000000 	.word	0x20000000

000071c4 <usb_prepare_transfer>:
    71c4:	0412      	lsls	r2, r2, #16
    71c6:	6081      	str	r1, [r0, #8]
    71c8:	61c3      	str	r3, [r0, #28]
    71ca:	f501 5340 	add.w	r3, r1, #12288	; 0x3000
    71ce:	f042 0280 	orr.w	r2, r2, #128	; 0x80
    71d2:	b410      	push	{r4}
    71d4:	2401      	movs	r4, #1
    71d6:	6042      	str	r2, [r0, #4]
    71d8:	f501 5200 	add.w	r2, r1, #8192	; 0x2000
    71dc:	6004      	str	r4, [r0, #0]
    71de:	f501 5480 	add.w	r4, r1, #4096	; 0x1000
    71e2:	f501 4180 	add.w	r1, r1, #16384	; 0x4000
    71e6:	60c4      	str	r4, [r0, #12]
    71e8:	6181      	str	r1, [r0, #24]
    71ea:	f85d 4b04 	ldr.w	r4, [sp], #4
    71ee:	e9c0 2304 	strd	r2, r3, [r0, #16]
    71f2:	4770      	bx	lr

000071f4 <usb_transmit>:
    71f4:	1e83      	subs	r3, r0, #2
    71f6:	2b02      	cmp	r3, #2
    71f8:	d900      	bls.n	71fc <usb_transmit+0x8>
    71fa:	4770      	bx	lr
    71fc:	4b28      	ldr	r3, [pc, #160]	; (72a0 <usb_transmit+0xac>)
    71fe:	f100 0210 	add.w	r2, r0, #16
    7202:	f04f 0c01 	mov.w	ip, #1
    7206:	eb03 10c0 	add.w	r0, r3, r0, lsl #7
    720a:	fa0c fc02 	lsl.w	ip, ip, r2
    720e:	6f83      	ldr	r3, [r0, #120]	; 0x78
    7210:	3040      	adds	r0, #64	; 0x40
    7212:	b470      	push	{r4, r5, r6}
    7214:	b11b      	cbz	r3, 721e <usb_transmit+0x2a>
    7216:	684b      	ldr	r3, [r1, #4]
    7218:	f443 4300 	orr.w	r3, r3, #32768	; 0x8000
    721c:	604b      	str	r3, [r1, #4]
    721e:	b672      	cpsid	i
    7220:	6b42      	ldr	r2, [r0, #52]	; 0x34
    7222:	b372      	cbz	r2, 7282 <usb_transmit+0x8e>
    7224:	4b1f      	ldr	r3, [pc, #124]	; (72a4 <usb_transmit+0xb0>)
    7226:	6011      	str	r1, [r2, #0]
    7228:	f8d3 21b0 	ldr.w	r2, [r3, #432]	; 0x1b0
    722c:	ea1c 0f02 	tst.w	ip, r2
    7230:	d116      	bne.n	7260 <usb_transmit+0x6c>
    7232:	4d1d      	ldr	r5, [pc, #116]	; (72a8 <usb_transmit+0xb4>)
    7234:	686e      	ldr	r6, [r5, #4]
    7236:	e004      	b.n	7242 <usb_transmit+0x4e>
    7238:	686a      	ldr	r2, [r5, #4]
    723a:	1b92      	subs	r2, r2, r6
    723c:	f5b2 6f16 	cmp.w	r2, #2400	; 0x960
    7240:	d20b      	bcs.n	725a <usb_transmit+0x66>
    7242:	f8d3 2140 	ldr.w	r2, [r3, #320]	; 0x140
    7246:	f442 4280 	orr.w	r2, r2, #16384	; 0x4000
    724a:	f8c3 2140 	str.w	r2, [r3, #320]	; 0x140
    724e:	f8d3 41b8 	ldr.w	r4, [r3, #440]	; 0x1b8
    7252:	f8d3 2140 	ldr.w	r2, [r3, #320]	; 0x140
    7256:	0452      	lsls	r2, r2, #17
    7258:	d5ee      	bpl.n	7238 <usb_transmit+0x44>
    725a:	ea1c 0404 	ands.w	r4, ip, r4
    725e:	d003      	beq.n	7268 <usb_transmit+0x74>
    7260:	6341      	str	r1, [r0, #52]	; 0x34
    7262:	b662      	cpsie	i
    7264:	bc70      	pop	{r4, r5, r6}
    7266:	4770      	bx	lr
    7268:	4a0e      	ldr	r2, [pc, #56]	; (72a4 <usb_transmit+0xb0>)
    726a:	e9c0 1402 	strd	r1, r4, [r0, #8]
    726e:	f8d2 31b0 	ldr.w	r3, [r2, #432]	; 0x1b0
    7272:	ea4c 0303 	orr.w	r3, ip, r3
    7276:	f8c2 31b0 	str.w	r3, [r2, #432]	; 0x1b0
    727a:	6341      	str	r1, [r0, #52]	; 0x34
    727c:	b662      	cpsie	i
    727e:	bc70      	pop	{r4, r5, r6}
    7280:	4770      	bx	lr
    7282:	4c08      	ldr	r4, [pc, #32]	; (72a4 <usb_transmit+0xb0>)
    7284:	e9c0 1202 	strd	r1, r2, [r0, #8]
    7288:	f8d4 31b0 	ldr.w	r3, [r4, #432]	; 0x1b0
    728c:	ea4c 0303 	orr.w	r3, ip, r3
    7290:	f8c4 31b0 	str.w	r3, [r4, #432]	; 0x1b0
    7294:	6301      	str	r1, [r0, #48]	; 0x30
    7296:	6341      	str	r1, [r0, #52]	; 0x34
    7298:	b662      	cpsie	i
    729a:	bc70      	pop	{r4, r5, r6}
    729c:	4770      	bx	lr
    729e:	bf00      	nop
    72a0:	20000000 	.word	0x20000000
    72a4:	402e0000 	.word	0x402e0000
    72a8:	e0001000 	.word	0xe0001000

000072ac <usb_receive>:
    72ac:	1e83      	subs	r3, r0, #2
    72ae:	2b02      	cmp	r3, #2
    72b0:	d900      	bls.n	72b4 <usb_receive+0x8>
    72b2:	4770      	bx	lr
    72b4:	4b28      	ldr	r3, [pc, #160]	; (7358 <usb_receive+0xac>)
    72b6:	eb03 1cc0 	add.w	ip, r3, r0, lsl #7
    72ba:	b530      	push	{r4, r5, lr}
    72bc:	f8dc 3038 	ldr.w	r3, [ip, #56]	; 0x38
    72c0:	f04f 0e01 	mov.w	lr, #1
    72c4:	fa0e fe00 	lsl.w	lr, lr, r0
    72c8:	b11b      	cbz	r3, 72d2 <usb_receive+0x26>
    72ca:	684b      	ldr	r3, [r1, #4]
    72cc:	f443 4300 	orr.w	r3, r3, #32768	; 0x8000
    72d0:	604b      	str	r3, [r1, #4]
    72d2:	b672      	cpsid	i
    72d4:	f8dc 2034 	ldr.w	r2, [ip, #52]	; 0x34
    72d8:	b372      	cbz	r2, 7338 <usb_receive+0x8c>
    72da:	4b20      	ldr	r3, [pc, #128]	; (735c <usb_receive+0xb0>)
    72dc:	6011      	str	r1, [r2, #0]
    72de:	f8d3 21b0 	ldr.w	r2, [r3, #432]	; 0x1b0
    72e2:	ea1e 0f02 	tst.w	lr, r2
    72e6:	d116      	bne.n	7316 <usb_receive+0x6a>
    72e8:	4c1d      	ldr	r4, [pc, #116]	; (7360 <usb_receive+0xb4>)
    72ea:	6865      	ldr	r5, [r4, #4]
    72ec:	e004      	b.n	72f8 <usb_receive+0x4c>
    72ee:	6862      	ldr	r2, [r4, #4]
    72f0:	1b52      	subs	r2, r2, r5
    72f2:	f5b2 6f16 	cmp.w	r2, #2400	; 0x960
    72f6:	d20b      	bcs.n	7310 <usb_receive+0x64>
    72f8:	f8d3 2140 	ldr.w	r2, [r3, #320]	; 0x140
    72fc:	f442 4280 	orr.w	r2, r2, #16384	; 0x4000
    7300:	f8c3 2140 	str.w	r2, [r3, #320]	; 0x140
    7304:	f8d3 01b8 	ldr.w	r0, [r3, #440]	; 0x1b8
    7308:	f8d3 2140 	ldr.w	r2, [r3, #320]	; 0x140
    730c:	0452      	lsls	r2, r2, #17
    730e:	d5ee      	bpl.n	72ee <usb_receive+0x42>
    7310:	ea1e 0000 	ands.w	r0, lr, r0
    7314:	d003      	beq.n	731e <usb_receive+0x72>
    7316:	f8cc 1034 	str.w	r1, [ip, #52]	; 0x34
    731a:	b662      	cpsie	i
    731c:	bd30      	pop	{r4, r5, pc}
    731e:	4a0f      	ldr	r2, [pc, #60]	; (735c <usb_receive+0xb0>)
    7320:	e9cc 1002 	strd	r1, r0, [ip, #8]
    7324:	f8d2 31b0 	ldr.w	r3, [r2, #432]	; 0x1b0
    7328:	ea4e 0303 	orr.w	r3, lr, r3
    732c:	f8c2 31b0 	str.w	r3, [r2, #432]	; 0x1b0
    7330:	f8cc 1034 	str.w	r1, [ip, #52]	; 0x34
    7334:	b662      	cpsie	i
    7336:	bd30      	pop	{r4, r5, pc}
    7338:	4808      	ldr	r0, [pc, #32]	; (735c <usb_receive+0xb0>)
    733a:	e9cc 1202 	strd	r1, r2, [ip, #8]
    733e:	f8d0 31b0 	ldr.w	r3, [r0, #432]	; 0x1b0
    7342:	ea4e 0303 	orr.w	r3, lr, r3
    7346:	f8c0 31b0 	str.w	r3, [r0, #432]	; 0x1b0
    734a:	f8cc 1030 	str.w	r1, [ip, #48]	; 0x30
    734e:	f8cc 1034 	str.w	r1, [ip, #52]	; 0x34
    7352:	b662      	cpsie	i
    7354:	bd30      	pop	{r4, r5, pc}
    7356:	bf00      	nop
    7358:	20000000 	.word	0x20000000
    735c:	402e0000 	.word	0x402e0000
    7360:	e0001000 	.word	0xe0001000

00007364 <usb_transfer_status>:
    7364:	6840      	ldr	r0, [r0, #4]
    7366:	4770      	bx	lr

00007368 <usb_init_serialnumber>:
    7368:	4a2a      	ldr	r2, [pc, #168]	; (7414 <usb_init_serialnumber+0xac>)
    736a:	4b2b      	ldr	r3, [pc, #172]	; (7418 <usb_init_serialnumber+0xb0>)
    736c:	f8d2 0220 	ldr.w	r0, [r2, #544]	; 0x220
    7370:	f020 407f 	bic.w	r0, r0, #4278190080	; 0xff000000
    7374:	4298      	cmp	r0, r3
    7376:	b500      	push	{lr}
    7378:	b085      	sub	sp, #20
    737a:	d202      	bcs.n	7382 <usb_init_serialnumber+0x1a>
    737c:	eb00 0080 	add.w	r0, r0, r0, lsl #2
    7380:	0040      	lsls	r0, r0, #1
    7382:	220a      	movs	r2, #10
    7384:	a901      	add	r1, sp, #4
    7386:	f7ff f92b 	bl	65e0 <ultoa>
    738a:	f89d 2004 	ldrb.w	r2, [sp, #4]
    738e:	4b23      	ldr	r3, [pc, #140]	; (741c <usb_init_serialnumber+0xb4>)
    7390:	b352      	cbz	r2, 73e8 <usb_init_serialnumber+0x80>
    7392:	f89d 1005 	ldrb.w	r1, [sp, #5]
    7396:	805a      	strh	r2, [r3, #2]
    7398:	b329      	cbz	r1, 73e6 <usb_init_serialnumber+0x7e>
    739a:	f89d 2006 	ldrb.w	r2, [sp, #6]
    739e:	8099      	strh	r1, [r3, #4]
    73a0:	b342      	cbz	r2, 73f4 <usb_init_serialnumber+0x8c>
    73a2:	f89d 1007 	ldrb.w	r1, [sp, #7]
    73a6:	80da      	strh	r2, [r3, #6]
    73a8:	b331      	cbz	r1, 73f8 <usb_init_serialnumber+0x90>
    73aa:	f89d 2008 	ldrb.w	r2, [sp, #8]
    73ae:	8119      	strh	r1, [r3, #8]
    73b0:	b322      	cbz	r2, 73fc <usb_init_serialnumber+0x94>
    73b2:	f89d 1009 	ldrb.w	r1, [sp, #9]
    73b6:	815a      	strh	r2, [r3, #10]
    73b8:	b311      	cbz	r1, 7400 <usb_init_serialnumber+0x98>
    73ba:	f89d 200a 	ldrb.w	r2, [sp, #10]
    73be:	8199      	strh	r1, [r3, #12]
    73c0:	b302      	cbz	r2, 7404 <usb_init_serialnumber+0x9c>
    73c2:	f89d 100b 	ldrb.w	r1, [sp, #11]
    73c6:	81da      	strh	r2, [r3, #14]
    73c8:	b1f1      	cbz	r1, 7408 <usb_init_serialnumber+0xa0>
    73ca:	f89d 200c 	ldrb.w	r2, [sp, #12]
    73ce:	8219      	strh	r1, [r3, #16]
    73d0:	b1e2      	cbz	r2, 740c <usb_init_serialnumber+0xa4>
    73d2:	f89d 100d 	ldrb.w	r1, [sp, #13]
    73d6:	825a      	strh	r2, [r3, #18]
    73d8:	b1d1      	cbz	r1, 7410 <usb_init_serialnumber+0xa8>
    73da:	2216      	movs	r2, #22
    73dc:	8299      	strh	r1, [r3, #20]
    73de:	701a      	strb	r2, [r3, #0]
    73e0:	b005      	add	sp, #20
    73e2:	f85d fb04 	ldr.w	pc, [sp], #4
    73e6:	2201      	movs	r2, #1
    73e8:	0052      	lsls	r2, r2, #1
    73ea:	3202      	adds	r2, #2
    73ec:	701a      	strb	r2, [r3, #0]
    73ee:	b005      	add	sp, #20
    73f0:	f85d fb04 	ldr.w	pc, [sp], #4
    73f4:	2202      	movs	r2, #2
    73f6:	e7f7      	b.n	73e8 <usb_init_serialnumber+0x80>
    73f8:	2203      	movs	r2, #3
    73fa:	e7f5      	b.n	73e8 <usb_init_serialnumber+0x80>
    73fc:	2204      	movs	r2, #4
    73fe:	e7f3      	b.n	73e8 <usb_init_serialnumber+0x80>
    7400:	2205      	movs	r2, #5
    7402:	e7f1      	b.n	73e8 <usb_init_serialnumber+0x80>
    7404:	2206      	movs	r2, #6
    7406:	e7ef      	b.n	73e8 <usb_init_serialnumber+0x80>
    7408:	2207      	movs	r2, #7
    740a:	e7ed      	b.n	73e8 <usb_init_serialnumber+0x80>
    740c:	2208      	movs	r2, #8
    740e:	e7eb      	b.n	73e8 <usb_init_serialnumber+0x80>
    7410:	2209      	movs	r2, #9
    7412:	e7e9      	b.n	73e8 <usb_init_serialnumber+0x80>
    7414:	401f4400 	.word	0x401f4400
    7418:	00989680 	.word	0x00989680
    741c:	20001294 	.word	0x20001294

00007420 <usb_serial_class::clear()>:
    7420:	f000 bb58 	b.w	7ad4 <usb_serial_flush_input>

00007424 <usb_serial_class::peek()>:
    7424:	f000 bb28 	b.w	7a78 <usb_serial_peekchar>

00007428 <usb_serial_class::read()>:
    7428:	f000 bbba 	b.w	7ba0 <usb_serial_getchar>

0000742c <usb_serial_class::available()>:
    742c:	f000 bb46 	b.w	7abc <usb_serial_available>

00007430 <usb_serial_class::flush()>:
    7430:	f000 bc10 	b.w	7c54 <usb_serial_flush_output>

00007434 <usb_serial_class::availableForWrite()>:
    7434:	f000 bbe6 	b.w	7c04 <usb_serial_write_buffer_free>

00007438 <usb_serial_class::write(unsigned char const*, unsigned int)>:
    7438:	4608      	mov	r0, r1
    743a:	4611      	mov	r1, r2
    743c:	f000 bbd6 	b.w	7bec <usb_serial_write>

00007440 <usb_serial_flush_callback>:
    7440:	4b1d      	ldr	r3, [pc, #116]	; (74b8 <usb_serial_flush_callback+0x78>)
    7442:	781a      	ldrb	r2, [r3, #0]
    7444:	2a00      	cmp	r2, #0
    7446:	d136      	bne.n	74b6 <usb_serial_flush_callback+0x76>
    7448:	f002 03ff 	and.w	r3, r2, #255	; 0xff
    744c:	4a1b      	ldr	r2, [pc, #108]	; (74bc <usb_serial_flush_callback+0x7c>)
    744e:	7812      	ldrb	r2, [r2, #0]
    7450:	b38a      	cbz	r2, 74b6 <usb_serial_flush_callback+0x76>
    7452:	e92d 41f0 	stmdb	sp!, {r4, r5, r6, r7, r8, lr}
    7456:	4d1a      	ldr	r5, [pc, #104]	; (74c0 <usb_serial_flush_callback+0x80>)
    7458:	882a      	ldrh	r2, [r5, #0]
    745a:	b352      	cbz	r2, 74b2 <usb_serial_flush_callback+0x72>
    745c:	4e19      	ldr	r6, [pc, #100]	; (74c4 <usb_serial_flush_callback+0x84>)
    745e:	f5c2 6800 	rsb	r8, r2, #2048	; 0x800
    7462:	4f19      	ldr	r7, [pc, #100]	; (74c8 <usb_serial_flush_callback+0x88>)
    7464:	7832      	ldrb	r2, [r6, #0]
    7466:	4c19      	ldr	r4, [pc, #100]	; (74cc <usb_serial_flush_callback+0x8c>)
    7468:	eb07 1742 	add.w	r7, r7, r2, lsl #5
    746c:	eb04 24c2 	add.w	r4, r4, r2, lsl #11
    7470:	4642      	mov	r2, r8
    7472:	4638      	mov	r0, r7
    7474:	4621      	mov	r1, r4
    7476:	f7ff fea5 	bl	71c4 <usb_prepare_transfer>
    747a:	eb04 0208 	add.w	r2, r4, r8
    747e:	f3bf 8f4f 	dsb	sy
    7482:	f04f 23e0 	mov.w	r3, #3758153728	; 0xe000e000
    7486:	f8c3 4f70 	str.w	r4, [r3, #3952]	; 0xf70
    748a:	3420      	adds	r4, #32
    748c:	42a2      	cmp	r2, r4
    748e:	d8fa      	bhi.n	7486 <usb_serial_flush_callback+0x46>
    7490:	f3bf 8f4f 	dsb	sy
    7494:	f3bf 8f6f 	isb	sy
    7498:	2004      	movs	r0, #4
    749a:	4639      	mov	r1, r7
    749c:	f7ff feaa 	bl	71f4 <usb_transmit>
    74a0:	7833      	ldrb	r3, [r6, #0]
    74a2:	3301      	adds	r3, #1
    74a4:	b2db      	uxtb	r3, r3
    74a6:	2b03      	cmp	r3, #3
    74a8:	bf88      	it	hi
    74aa:	2300      	movhi	r3, #0
    74ac:	7033      	strb	r3, [r6, #0]
    74ae:	2300      	movs	r3, #0
    74b0:	802b      	strh	r3, [r5, #0]
    74b2:	e8bd 81f0 	ldmia.w	sp!, {r4, r5, r6, r7, r8, pc}
    74b6:	4770      	bx	lr
    74b8:	20009bfc 	.word	0x20009bfc
    74bc:	20009bfe 	.word	0x20009bfe
    74c0:	20009bee 	.word	0x20009bee
    74c4:	20009bfb 	.word	0x20009bfb
    74c8:	20001800 	.word	0x20001800
    74cc:	20201080 	.word	0x20201080

000074d0 <usb_serial_write.part.0>:
    74d0:	e92d 4ff0 	stmdb	sp!, {r4, r5, r6, r7, r8, r9, sl, fp, lr}
    74d4:	b085      	sub	sp, #20
    74d6:	e9cd 1001 	strd	r1, r0, [sp, #4]
    74da:	2900      	cmp	r1, #0
    74dc:	f000 80cb 	beq.w	7676 <usb_serial_write.part.0+0x1a6>
    74e0:	2300      	movs	r3, #0
    74e2:	4c66      	ldr	r4, [pc, #408]	; (767c <usb_serial_write.part.0+0x1ac>)
    74e4:	f8df 81b0 	ldr.w	r8, [pc, #432]	; 7698 <usb_serial_write.part.0+0x1c8>
    74e8:	f8df a1b0 	ldr.w	sl, [pc, #432]	; 769c <usb_serial_write.part.0+0x1cc>
    74ec:	4f64      	ldr	r7, [pc, #400]	; (7680 <usb_serial_write.part.0+0x1b0>)
    74ee:	9300      	str	r3, [sp, #0]
    74f0:	2301      	movs	r3, #1
    74f2:	4a64      	ldr	r2, [pc, #400]	; (7684 <usb_serial_write.part.0+0x1b4>)
    74f4:	7023      	strb	r3, [r4, #0]
    74f6:	4b64      	ldr	r3, [pc, #400]	; (7688 <usb_serial_write.part.0+0x1b8>)
    74f8:	7819      	ldrb	r1, [r3, #0]
    74fa:	f8b8 3000 	ldrh.w	r3, [r8]
    74fe:	eb02 1941 	add.w	r9, r2, r1, lsl #5
    7502:	2b00      	cmp	r3, #0
    7504:	f040 80b3 	bne.w	766e <usb_serial_write.part.0+0x19e>
    7508:	461e      	mov	r6, r3
    750a:	461d      	mov	r5, r3
    750c:	469b      	mov	fp, r3
    750e:	4648      	mov	r0, r9
    7510:	f7ff ff28 	bl	7364 <usb_transfer_status>
    7514:	f010 0080 	ands.w	r0, r0, #128	; 0x80
    7518:	f000 8089 	beq.w	762e <usb_serial_write.part.0+0x15e>
    751c:	f3bf 8f4f 	dsb	sy
    7520:	f89a 3000 	ldrb.w	r3, [sl]
    7524:	f884 b000 	strb.w	fp, [r4]
    7528:	b905      	cbnz	r5, 752c <usb_serial_write.part.0+0x5c>
    752a:	683e      	ldr	r6, [r7, #0]
    752c:	2b00      	cmp	r3, #0
    752e:	d17a      	bne.n	7626 <usb_serial_write.part.0+0x156>
    7530:	683b      	ldr	r3, [r7, #0]
    7532:	1b9b      	subs	r3, r3, r6
    7534:	2b78      	cmp	r3, #120	; 0x78
    7536:	f200 8084 	bhi.w	7642 <usb_serial_write.part.0+0x172>
    753a:	4b54      	ldr	r3, [pc, #336]	; (768c <usb_serial_write.part.0+0x1bc>)
    753c:	781b      	ldrb	r3, [r3, #0]
    753e:	2b00      	cmp	r3, #0
    7540:	d071      	beq.n	7626 <usb_serial_write.part.0+0x156>
    7542:	f000 fbd1 	bl	7ce8 <yield>
    7546:	2201      	movs	r2, #1
    7548:	f8b8 3000 	ldrh.w	r3, [r8]
    754c:	4615      	mov	r5, r2
    754e:	7022      	strb	r2, [r4, #0]
    7550:	2b00      	cmp	r3, #0
    7552:	d0dc      	beq.n	750e <usb_serial_write.part.0+0x3e>
    7554:	4a4c      	ldr	r2, [pc, #304]	; (7688 <usb_serial_write.part.0+0x1b8>)
    7556:	f5c3 6000 	rsb	r0, r3, #2048	; 0x800
    755a:	7811      	ldrb	r1, [r2, #0]
    755c:	461a      	mov	r2, r3
    755e:	eb00 20c1 	add.w	r0, r0, r1, lsl #11
    7562:	4d4b      	ldr	r5, [pc, #300]	; (7690 <usb_serial_write.part.0+0x1c0>)
    7564:	02c9      	lsls	r1, r1, #11
    7566:	4428      	add	r0, r5
    7568:	9d01      	ldr	r5, [sp, #4]
    756a:	4295      	cmp	r5, r2
    756c:	d216      	bcs.n	759c <usb_serial_write.part.0+0xcc>
    756e:	462a      	mov	r2, r5
    7570:	9902      	ldr	r1, [sp, #8]
    7572:	9303      	str	r3, [sp, #12]
    7574:	f7fe ff9a 	bl	64ac <memcpy>
    7578:	9b03      	ldr	r3, [sp, #12]
    757a:	f04f 4240 	mov.w	r2, #3221225472	; 0xc0000000
    757e:	1b5b      	subs	r3, r3, r5
    7580:	f8a8 3000 	strh.w	r3, [r8]
    7584:	4b43      	ldr	r3, [pc, #268]	; (7694 <usb_serial_write.part.0+0x1c4>)
    7586:	f8c3 2084 	str.w	r2, [r3, #132]	; 0x84
    758a:	f3bf 8f4f 	dsb	sy
    758e:	9800      	ldr	r0, [sp, #0]
    7590:	2300      	movs	r3, #0
    7592:	4428      	add	r0, r5
    7594:	7023      	strb	r3, [r4, #0]
    7596:	b005      	add	sp, #20
    7598:	e8bd 8ff0 	ldmia.w	sp!, {r4, r5, r6, r7, r8, r9, sl, fp, pc}
    759c:	4b3c      	ldr	r3, [pc, #240]	; (7690 <usb_serial_write.part.0+0x1c0>)
    759e:	18cd      	adds	r5, r1, r3
    75a0:	9902      	ldr	r1, [sp, #8]
    75a2:	f7fe ff83 	bl	64ac <memcpy>
    75a6:	2300      	movs	r3, #0
    75a8:	f44f 6200 	mov.w	r2, #2048	; 0x800
    75ac:	4629      	mov	r1, r5
    75ae:	4648      	mov	r0, r9
    75b0:	f7ff fe08 	bl	71c4 <usb_prepare_transfer>
    75b4:	f3bf 8f4f 	dsb	sy
    75b8:	f105 0220 	add.w	r2, r5, #32
    75bc:	f505 6300 	add.w	r3, r5, #2048	; 0x800
    75c0:	4293      	cmp	r3, r2
    75c2:	bf34      	ite	cc
    75c4:	2301      	movcc	r3, #1
    75c6:	2340      	movcs	r3, #64	; 0x40
    75c8:	f04f 22e0 	mov.w	r2, #3758153728	; 0xe000e000
    75cc:	eb05 1343 	add.w	r3, r5, r3, lsl #5
    75d0:	f8c2 5f70 	str.w	r5, [r2, #3952]	; 0xf70
    75d4:	3520      	adds	r5, #32
    75d6:	429d      	cmp	r5, r3
    75d8:	d1fa      	bne.n	75d0 <usb_serial_write.part.0+0x100>
    75da:	f3bf 8f4f 	dsb	sy
    75de:	f3bf 8f6f 	isb	sy
    75e2:	2004      	movs	r0, #4
    75e4:	4649      	mov	r1, r9
    75e6:	f7ff fe05 	bl	71f4 <usb_transmit>
    75ea:	4a27      	ldr	r2, [pc, #156]	; (7688 <usb_serial_write.part.0+0x1b8>)
    75ec:	7813      	ldrb	r3, [r2, #0]
    75ee:	3301      	adds	r3, #1
    75f0:	b2db      	uxtb	r3, r3
    75f2:	2b03      	cmp	r3, #3
    75f4:	d82c      	bhi.n	7650 <usb_serial_write.part.0+0x180>
    75f6:	7013      	strb	r3, [r2, #0]
    75f8:	f8b8 3000 	ldrh.w	r3, [r8]
    75fc:	9a01      	ldr	r2, [sp, #4]
    75fe:	1ad1      	subs	r1, r2, r3
    7600:	9a00      	ldr	r2, [sp, #0]
    7602:	441a      	add	r2, r3
    7604:	9101      	str	r1, [sp, #4]
    7606:	9200      	str	r2, [sp, #0]
    7608:	9a02      	ldr	r2, [sp, #8]
    760a:	441a      	add	r2, r3
    760c:	2300      	movs	r3, #0
    760e:	9202      	str	r2, [sp, #8]
    7610:	4a20      	ldr	r2, [pc, #128]	; (7694 <usb_serial_write.part.0+0x1c4>)
    7612:	f8a8 3000 	strh.w	r3, [r8]
    7616:	f8c2 3084 	str.w	r3, [r2, #132]	; 0x84
    761a:	f3bf 8f4f 	dsb	sy
    761e:	7023      	strb	r3, [r4, #0]
    7620:	2900      	cmp	r1, #0
    7622:	f47f af65 	bne.w	74f0 <usb_serial_write.part.0+0x20>
    7626:	9800      	ldr	r0, [sp, #0]
    7628:	b005      	add	sp, #20
    762a:	e8bd 8ff0 	ldmia.w	sp!, {r4, r5, r6, r7, r8, r9, sl, fp, pc}
    762e:	f44f 6200 	mov.w	r2, #2048	; 0x800
    7632:	4b15      	ldr	r3, [pc, #84]	; (7688 <usb_serial_write.part.0+0x1b8>)
    7634:	f88a 0000 	strb.w	r0, [sl]
    7638:	7819      	ldrb	r1, [r3, #0]
    763a:	4613      	mov	r3, r2
    763c:	f8a8 2000 	strh.w	r2, [r8]
    7640:	e78d      	b.n	755e <usb_serial_write.part.0+0x8e>
    7642:	2301      	movs	r3, #1
    7644:	9800      	ldr	r0, [sp, #0]
    7646:	f88a 3000 	strb.w	r3, [sl]
    764a:	b005      	add	sp, #20
    764c:	e8bd 8ff0 	ldmia.w	sp!, {r4, r5, r6, r7, r8, r9, sl, fp, pc}
    7650:	f8b8 3000 	ldrh.w	r3, [r8]
    7654:	9a01      	ldr	r2, [sp, #4]
    7656:	1ad1      	subs	r1, r2, r3
    7658:	9a00      	ldr	r2, [sp, #0]
    765a:	441a      	add	r2, r3
    765c:	9101      	str	r1, [sp, #4]
    765e:	9200      	str	r2, [sp, #0]
    7660:	9a02      	ldr	r2, [sp, #8]
    7662:	441a      	add	r2, r3
    7664:	2300      	movs	r3, #0
    7666:	9202      	str	r2, [sp, #8]
    7668:	4a07      	ldr	r2, [pc, #28]	; (7688 <usb_serial_write.part.0+0x1b8>)
    766a:	7013      	strb	r3, [r2, #0]
    766c:	e7d0      	b.n	7610 <usb_serial_write.part.0+0x140>
    766e:	461a      	mov	r2, r3
    7670:	f5c3 6000 	rsb	r0, r3, #2048	; 0x800
    7674:	e773      	b.n	755e <usb_serial_write.part.0+0x8e>
    7676:	4608      	mov	r0, r1
    7678:	e7d6      	b.n	7628 <usb_serial_write.part.0+0x158>
    767a:	bf00      	nop
    767c:	20009bfc 	.word	0x20009bfc
    7680:	20009bd0 	.word	0x20009bd0
    7684:	20001800 	.word	0x20001800
    7688:	20009bfb 	.word	0x20009bfb
    768c:	20009bfe 	.word	0x20009bfe
    7690:	20201080 	.word	0x20201080
    7694:	402e0000 	.word	0x402e0000
    7698:	20009bee 	.word	0x20009bee
    769c:	20009bfa 	.word	0x20009bfa

000076a0 <rx_event>:
    76a0:	e92d 4ff0 	stmdb	sp!, {r4, r5, r6, r7, r8, r9, sl, fp, lr}
    76a4:	4d49      	ldr	r5, [pc, #292]	; (77cc <rx_event+0x12c>)
    76a6:	b083      	sub	sp, #12
    76a8:	6844      	ldr	r4, [r0, #4]
    76aa:	882f      	ldrh	r7, [r5, #0]
    76ac:	f3c4 440e 	ubfx	r4, r4, #16, #15
    76b0:	69c6      	ldr	r6, [r0, #28]
    76b2:	1b3c      	subs	r4, r7, r4
    76b4:	2c00      	cmp	r4, #0
    76b6:	dd25      	ble.n	7704 <rx_event+0x64>
    76b8:	4a45      	ldr	r2, [pc, #276]	; (77d0 <rx_event+0x130>)
    76ba:	4946      	ldr	r1, [pc, #280]	; (77d4 <rx_event+0x134>)
    76bc:	f8df 812c 	ldr.w	r8, [pc, #300]	; 77ec <rx_event+0x14c>
    76c0:	780b      	ldrb	r3, [r1, #0]
    76c2:	7810      	ldrb	r0, [r2, #0]
    76c4:	b2da      	uxtb	r2, r3
    76c6:	4283      	cmp	r3, r0
    76c8:	4843      	ldr	r0, [pc, #268]	; (77d8 <rx_event+0x138>)
    76ca:	d007      	beq.n	76dc <rx_event+0x3c>
    76cc:	f810 b002 	ldrb.w	fp, [r0, r2]
    76d0:	f838 901b 	ldrh.w	r9, [r8, fp, lsl #1]
    76d4:	f5c9 7300 	rsb	r3, r9, #512	; 0x200
    76d8:	429c      	cmp	r4, r3
    76da:	d93d      	bls.n	7758 <rx_event+0xb8>
    76dc:	3201      	adds	r2, #1
    76de:	2300      	movs	r3, #0
    76e0:	4d3e      	ldr	r5, [pc, #248]	; (77dc <rx_event+0x13c>)
    76e2:	2a08      	cmp	r2, #8
    76e4:	f828 4016 	strh.w	r4, [r8, r6, lsl #1]
    76e8:	f825 3016 	strh.w	r3, [r5, r6, lsl #1]
    76ec:	bf94      	ite	ls
    76ee:	b2d3      	uxtbls	r3, r2
    76f0:	461a      	movhi	r2, r3
    76f2:	700b      	strb	r3, [r1, #0]
    76f4:	4b3a      	ldr	r3, [pc, #232]	; (77e0 <rx_event+0x140>)
    76f6:	5486      	strb	r6, [r0, r2]
    76f8:	681a      	ldr	r2, [r3, #0]
    76fa:	4414      	add	r4, r2
    76fc:	601c      	str	r4, [r3, #0]
    76fe:	b003      	add	sp, #12
    7700:	e8bd 8ff0 	ldmia.w	sp!, {r4, r5, r6, r7, r8, r9, sl, fp, pc}
    7704:	463a      	mov	r2, r7
    7706:	4c37      	ldr	r4, [pc, #220]	; (77e4 <rx_event+0x144>)
    7708:	4f37      	ldr	r7, [pc, #220]	; (77e8 <rx_event+0x148>)
    770a:	f04f 28e0 	mov.w	r8, #3758153728	; 0xe000e000
    770e:	eb04 2446 	add.w	r4, r4, r6, lsl #9
    7712:	f44f 3300 	mov.w	r3, #131072	; 0x20000
    7716:	eb07 1746 	add.w	r7, r7, r6, lsl #5
    771a:	f8c8 318c 	str.w	r3, [r8, #396]	; 0x18c
    771e:	4621      	mov	r1, r4
    7720:	4633      	mov	r3, r6
    7722:	4638      	mov	r0, r7
    7724:	f7ff fd4e 	bl	71c4 <usb_prepare_transfer>
    7728:	882b      	ldrh	r3, [r5, #0]
    772a:	4423      	add	r3, r4
    772c:	f3bf 8f4f 	dsb	sy
    7730:	f8c8 4f5c 	str.w	r4, [r8, #3932]	; 0xf5c
    7734:	3420      	adds	r4, #32
    7736:	42a3      	cmp	r3, r4
    7738:	d8fa      	bhi.n	7730 <rx_event+0x90>
    773a:	f3bf 8f4f 	dsb	sy
    773e:	f3bf 8f6f 	isb	sy
    7742:	2003      	movs	r0, #3
    7744:	4639      	mov	r1, r7
    7746:	f7ff fdb1 	bl	72ac <usb_receive>
    774a:	f44f 3300 	mov.w	r3, #131072	; 0x20000
    774e:	f8c8 310c 	str.w	r3, [r8, #268]	; 0x10c
    7752:	b003      	add	sp, #12
    7754:	e8bd 8ff0 	ldmia.w	sp!, {r4, r5, r6, r7, r8, r9, sl, fp, pc}
    7758:	eb09 204b 	add.w	r0, r9, fp, lsl #9
    775c:	4921      	ldr	r1, [pc, #132]	; (77e4 <rx_event+0x144>)
    775e:	4622      	mov	r2, r4
    7760:	f04f 2ae0 	mov.w	sl, #3758153728	; 0xe000e000
    7764:	4408      	add	r0, r1
    7766:	eb01 2146 	add.w	r1, r1, r6, lsl #9
    776a:	44a1      	add	r9, r4
    776c:	9101      	str	r1, [sp, #4]
    776e:	f7fe fe9d 	bl	64ac <memcpy>
    7772:	f8df c06c 	ldr.w	ip, [pc, #108]	; 77e0 <rx_event+0x140>
    7776:	463a      	mov	r2, r7
    7778:	4f1b      	ldr	r7, [pc, #108]	; (77e8 <rx_event+0x148>)
    777a:	4633      	mov	r3, r6
    777c:	f8dc 0000 	ldr.w	r0, [ip]
    7780:	eb07 1746 	add.w	r7, r7, r6, lsl #5
    7784:	9901      	ldr	r1, [sp, #4]
    7786:	4420      	add	r0, r4
    7788:	f828 901b 	strh.w	r9, [r8, fp, lsl #1]
    778c:	f8cc 0000 	str.w	r0, [ip]
    7790:	f44f 3000 	mov.w	r0, #131072	; 0x20000
    7794:	f8ca 018c 	str.w	r0, [sl, #396]	; 0x18c
    7798:	4638      	mov	r0, r7
    779a:	f7ff fd13 	bl	71c4 <usb_prepare_transfer>
    779e:	9901      	ldr	r1, [sp, #4]
    77a0:	882b      	ldrh	r3, [r5, #0]
    77a2:	440b      	add	r3, r1
    77a4:	f3bf 8f4f 	dsb	sy
    77a8:	f8ca 1f5c 	str.w	r1, [sl, #3932]	; 0xf5c
    77ac:	3120      	adds	r1, #32
    77ae:	428b      	cmp	r3, r1
    77b0:	d8fa      	bhi.n	77a8 <rx_event+0x108>
    77b2:	f3bf 8f4f 	dsb	sy
    77b6:	f3bf 8f6f 	isb	sy
    77ba:	2003      	movs	r0, #3
    77bc:	4639      	mov	r1, r7
    77be:	f7ff fd75 	bl	72ac <usb_receive>
    77c2:	f44f 3300 	mov.w	r3, #131072	; 0x20000
    77c6:	f8ca 310c 	str.w	r3, [sl, #268]	; 0x10c
    77ca:	e798      	b.n	76fe <rx_event+0x5e>
    77cc:	20009bec 	.word	0x20009bec
    77d0:	20009bf8 	.word	0x20009bf8
    77d4:	20009bf7 	.word	0x20009bf7
    77d8:	20009bac 	.word	0x20009bac
    77dc:	20009b9c 	.word	0x20009b9c
    77e0:	20009b88 	.word	0x20009b88
    77e4:	20200080 	.word	0x20200080
    77e8:	20001700 	.word	0x20001700
    77ec:	20009b8c 	.word	0x20009b8c

000077f0 <usb_serial_reset>:
    77f0:	4770      	bx	lr
    77f2:	bf00      	nop

000077f4 <usb_serial_configure>:
    77f4:	e92d 43f8 	stmdb	sp!, {r3, r4, r5, r6, r7, r8, r9, lr}
    77f8:	4b40      	ldr	r3, [pc, #256]	; (78fc <usb_serial_configure+0x108>)
    77fa:	2100      	movs	r1, #0
    77fc:	4d40      	ldr	r5, [pc, #256]	; (7900 <usb_serial_configure+0x10c>)
    77fe:	2280      	movs	r2, #128	; 0x80
    7800:	781b      	ldrb	r3, [r3, #0]
    7802:	2400      	movs	r4, #0
    7804:	4f3f      	ldr	r7, [pc, #252]	; (7904 <usb_serial_configure+0x110>)
    7806:	f44f 3800 	mov.w	r8, #131072	; 0x20000
    780a:	428b      	cmp	r3, r1
    780c:	483e      	ldr	r0, [pc, #248]	; (7908 <usb_serial_configure+0x114>)
    780e:	46a1      	mov	r9, r4
    7810:	4e3e      	ldr	r6, [pc, #248]	; (790c <usb_serial_configure+0x118>)
    7812:	bf14      	ite	ne
    7814:	f44f 7300 	movne.w	r3, #512	; 0x200
    7818:	2340      	moveq	r3, #64	; 0x40
    781a:	802b      	strh	r3, [r5, #0]
    781c:	803b      	strh	r3, [r7, #0]
    781e:	f001 fe01 	bl	9424 <memset>
    7822:	4a3b      	ldr	r2, [pc, #236]	; (7910 <usb_serial_configure+0x11c>)
    7824:	4621      	mov	r1, r4
    7826:	4b3b      	ldr	r3, [pc, #236]	; (7914 <usb_serial_configure+0x120>)
    7828:	7014      	strb	r4, [r2, #0]
    782a:	f44f 7280 	mov.w	r2, #256	; 0x100
    782e:	4837      	ldr	r0, [pc, #220]	; (790c <usb_serial_configure+0x118>)
    7830:	801c      	strh	r4, [r3, #0]
    7832:	f001 fdf7 	bl	9424 <memset>
    7836:	4a38      	ldr	r2, [pc, #224]	; (7918 <usb_serial_configure+0x124>)
    7838:	2110      	movs	r1, #16
    783a:	4b38      	ldr	r3, [pc, #224]	; (791c <usb_serial_configure+0x128>)
    783c:	2002      	movs	r0, #2
    783e:	e9c2 4400 	strd	r4, r4, [r2]
    7842:	e9c2 4402 	strd	r4, r4, [r2, #8]
    7846:	4a36      	ldr	r2, [pc, #216]	; (7920 <usb_serial_configure+0x12c>)
    7848:	e9c3 4400 	strd	r4, r4, [r3]
    784c:	7014      	strb	r4, [r2, #0]
    784e:	4a35      	ldr	r2, [pc, #212]	; (7924 <usb_serial_configure+0x130>)
    7850:	e9c3 4402 	strd	r4, r4, [r3, #8]
    7854:	4b34      	ldr	r3, [pc, #208]	; (7928 <usb_serial_configure+0x134>)
    7856:	701c      	strb	r4, [r3, #0]
    7858:	4623      	mov	r3, r4
    785a:	6014      	str	r4, [r2, #0]
    785c:	4622      	mov	r2, r4
    785e:	f7ff fc7f 	bl	7160 <usb_config_tx>
    7862:	4622      	mov	r2, r4
    7864:	8839      	ldrh	r1, [r7, #0]
    7866:	2003      	movs	r0, #3
    7868:	4b30      	ldr	r3, [pc, #192]	; (792c <usb_serial_configure+0x138>)
    786a:	f7ff fc47 	bl	70fc <usb_config_rx>
    786e:	4623      	mov	r3, r4
    7870:	8829      	ldrh	r1, [r5, #0]
    7872:	2201      	movs	r2, #1
    7874:	2004      	movs	r0, #4
    7876:	4d2e      	ldr	r5, [pc, #184]	; (7930 <usb_serial_configure+0x13c>)
    7878:	f04f 24e0 	mov.w	r4, #3758153728	; 0xe000e000
    787c:	f7ff fc70 	bl	7160 <usb_config_tx>
    7880:	4629      	mov	r1, r5
    7882:	464b      	mov	r3, r9
    7884:	883a      	ldrh	r2, [r7, #0]
    7886:	4630      	mov	r0, r6
    7888:	f8c4 818c 	str.w	r8, [r4, #396]	; 0x18c
    788c:	f7ff fc9a 	bl	71c4 <usb_prepare_transfer>
    7890:	8839      	ldrh	r1, [r7, #0]
    7892:	4429      	add	r1, r5
    7894:	f3bf 8f4f 	dsb	sy
    7898:	462a      	mov	r2, r5
    789a:	f8c4 2f5c 	str.w	r2, [r4, #3932]	; 0xf5c
    789e:	3220      	adds	r2, #32
    78a0:	4291      	cmp	r1, r2
    78a2:	d8fa      	bhi.n	789a <usb_serial_configure+0xa6>
    78a4:	f3bf 8f4f 	dsb	sy
    78a8:	f3bf 8f6f 	isb	sy
    78ac:	f109 0901 	add.w	r9, r9, #1
    78b0:	4631      	mov	r1, r6
    78b2:	2003      	movs	r0, #3
    78b4:	3620      	adds	r6, #32
    78b6:	f7ff fcf9 	bl	72ac <usb_receive>
    78ba:	f1b9 0f08 	cmp.w	r9, #8
    78be:	f505 7500 	add.w	r5, r5, #512	; 0x200
    78c2:	f8c4 810c 	str.w	r8, [r4, #268]	; 0x10c
    78c6:	d1db      	bne.n	7880 <usb_serial_configure+0x8c>
    78c8:	4b1a      	ldr	r3, [pc, #104]	; (7934 <usb_serial_configure+0x140>)
    78ca:	2100      	movs	r1, #0
    78cc:	224a      	movs	r2, #74	; 0x4a
    78ce:	481a      	ldr	r0, [pc, #104]	; (7938 <usb_serial_configure+0x144>)
    78d0:	4c1a      	ldr	r4, [pc, #104]	; (793c <usb_serial_configure+0x148>)
    78d2:	6004      	str	r4, [r0, #0]
    78d4:	f8c3 1084 	str.w	r1, [r3, #132]	; 0x84
    78d8:	f8c3 2080 	str.w	r2, [r3, #128]	; 0x80
    78dc:	f8d3 2148 	ldr.w	r2, [r3, #328]	; 0x148
    78e0:	4917      	ldr	r1, [pc, #92]	; (7940 <usb_serial_configure+0x14c>)
    78e2:	f042 7280 	orr.w	r2, r2, #16777216	; 0x1000000
    78e6:	f8c3 2148 	str.w	r2, [r3, #328]	; 0x148
    78ea:	b121      	cbz	r1, 78f6 <usb_serial_configure+0x102>
    78ec:	4a15      	ldr	r2, [pc, #84]	; (7944 <usb_serial_configure+0x150>)
    78ee:	7813      	ldrb	r3, [r2, #0]
    78f0:	f043 0301 	orr.w	r3, r3, #1
    78f4:	7013      	strb	r3, [r2, #0]
    78f6:	e8bd 83f8 	ldmia.w	sp!, {r3, r4, r5, r6, r7, r8, r9, pc}
    78fa:	bf00      	nop
    78fc:	20009bff 	.word	0x20009bff
    7900:	20009bf0 	.word	0x20009bf0
    7904:	20009bec 	.word	0x20009bec
    7908:	20001800 	.word	0x20001800
    790c:	20001700 	.word	0x20001700
    7910:	20009bfb 	.word	0x20009bfb
    7914:	20009bee 	.word	0x20009bee
    7918:	20009b8c 	.word	0x20009b8c
    791c:	20009b9c 	.word	0x20009b9c
    7920:	20009bf7 	.word	0x20009bf7
    7924:	20009b88 	.word	0x20009b88
    7928:	20009bf8 	.word	0x20009bf8
    792c:	000076a1 	.word	0x000076a1
    7930:	20200080 	.word	0x20200080
    7934:	402e0000 	.word	0x402e0000
    7938:	20009be4 	.word	0x20009be4
    793c:	00007441 	.word	0x00007441
    7940:	00000000 	.word	0x00000000
    7944:	20009c01 	.word	0x20009c01

00007948 <usb_serial_read>:
    7948:	f04f 23e0 	mov.w	r3, #3758153728	; 0xe000e000
    794c:	f44f 3200 	mov.w	r2, #131072	; 0x20000
    7950:	e92d 4ff0 	stmdb	sp!, {r4, r5, r6, r7, r8, r9, sl, fp, lr}
    7954:	f8c3 218c 	str.w	r2, [r3, #396]	; 0x18c
    7958:	b083      	sub	sp, #12
    795a:	4b3e      	ldr	r3, [pc, #248]	; (7a54 <usb_serial_read+0x10c>)
    795c:	460f      	mov	r7, r1
    795e:	781c      	ldrb	r4, [r3, #0]
    7960:	2900      	cmp	r1, #0
    7962:	d075      	beq.n	7a50 <usb_serial_read+0x108>
    7964:	4681      	mov	r9, r0
    7966:	b2e4      	uxtb	r4, r4
    7968:	2600      	movs	r6, #0
    796a:	f8df a104 	ldr.w	sl, [pc, #260]	; 7a70 <usb_serial_read+0x128>
    796e:	4b3a      	ldr	r3, [pc, #232]	; (7a58 <usb_serial_read+0x110>)
    7970:	781b      	ldrb	r3, [r3, #0]
    7972:	429c      	cmp	r4, r3
    7974:	d06a      	beq.n	7a4c <usb_serial_read+0x104>
    7976:	3401      	adds	r4, #1
    7978:	4b38      	ldr	r3, [pc, #224]	; (7a5c <usb_serial_read+0x114>)
    797a:	1bbd      	subs	r5, r7, r6
    797c:	2c09      	cmp	r4, #9
    797e:	bf28      	it	cs
    7980:	2400      	movcs	r4, #0
    7982:	f813 b004 	ldrb.w	fp, [r3, r4]
    7986:	4b36      	ldr	r3, [pc, #216]	; (7a60 <usb_serial_read+0x118>)
    7988:	f83a 101b 	ldrh.w	r1, [sl, fp, lsl #1]
    798c:	f833 801b 	ldrh.w	r8, [r3, fp, lsl #1]
    7990:	eba8 0801 	sub.w	r8, r8, r1
    7994:	eb01 214b 	add.w	r1, r1, fp, lsl #9
    7998:	4545      	cmp	r5, r8
    799a:	d219      	bcs.n	79d0 <usb_serial_read+0x88>
    799c:	4b31      	ldr	r3, [pc, #196]	; (7a64 <usb_serial_read+0x11c>)
    799e:	462a      	mov	r2, r5
    79a0:	4648      	mov	r0, r9
    79a2:	4419      	add	r1, r3
    79a4:	f7fe fd82 	bl	64ac <memcpy>
    79a8:	4a2f      	ldr	r2, [pc, #188]	; (7a68 <usb_serial_read+0x120>)
    79aa:	f83a 101b 	ldrh.w	r1, [sl, fp, lsl #1]
    79ae:	4638      	mov	r0, r7
    79b0:	6813      	ldr	r3, [r2, #0]
    79b2:	440d      	add	r5, r1
    79b4:	1bdb      	subs	r3, r3, r7
    79b6:	f82a 501b 	strh.w	r5, [sl, fp, lsl #1]
    79ba:	4433      	add	r3, r6
    79bc:	6013      	str	r3, [r2, #0]
    79be:	f04f 23e0 	mov.w	r3, #3758153728	; 0xe000e000
    79c2:	f44f 3200 	mov.w	r2, #131072	; 0x20000
    79c6:	f8c3 210c 	str.w	r2, [r3, #268]	; 0x10c
    79ca:	b003      	add	sp, #12
    79cc:	e8bd 8ff0 	ldmia.w	sp!, {r4, r5, r6, r7, r8, r9, sl, fp, pc}
    79d0:	4d24      	ldr	r5, [pc, #144]	; (7a64 <usb_serial_read+0x11c>)
    79d2:	4642      	mov	r2, r8
    79d4:	4648      	mov	r0, r9
    79d6:	4446      	add	r6, r8
    79d8:	4429      	add	r1, r5
    79da:	44c1      	add	r9, r8
    79dc:	f7fe fd66 	bl	64ac <memcpy>
    79e0:	4a21      	ldr	r2, [pc, #132]	; (7a68 <usb_serial_read+0x120>)
    79e2:	ea4f 214b 	mov.w	r1, fp, lsl #9
    79e6:	6813      	ldr	r3, [r2, #0]
    79e8:	4429      	add	r1, r5
    79ea:	f04f 25e0 	mov.w	r5, #3758153728	; 0xe000e000
    79ee:	eba3 0308 	sub.w	r3, r3, r8
    79f2:	6013      	str	r3, [r2, #0]
    79f4:	b2e3      	uxtb	r3, r4
    79f6:	4a17      	ldr	r2, [pc, #92]	; (7a54 <usb_serial_read+0x10c>)
    79f8:	7013      	strb	r3, [r2, #0]
    79fa:	f44f 3200 	mov.w	r2, #131072	; 0x20000
    79fe:	4b1b      	ldr	r3, [pc, #108]	; (7a6c <usb_serial_read+0x124>)
    7a00:	f8c5 218c 	str.w	r2, [r5, #396]	; 0x18c
    7a04:	eb03 184b 	add.w	r8, r3, fp, lsl #5
    7a08:	465b      	mov	r3, fp
    7a0a:	f8df b068 	ldr.w	fp, [pc, #104]	; 7a74 <usb_serial_read+0x12c>
    7a0e:	4640      	mov	r0, r8
    7a10:	9101      	str	r1, [sp, #4]
    7a12:	f8bb 2000 	ldrh.w	r2, [fp]
    7a16:	f7ff fbd5 	bl	71c4 <usb_prepare_transfer>
    7a1a:	9901      	ldr	r1, [sp, #4]
    7a1c:	f8bb 3000 	ldrh.w	r3, [fp]
    7a20:	440b      	add	r3, r1
    7a22:	f3bf 8f4f 	dsb	sy
    7a26:	f8c5 1f5c 	str.w	r1, [r5, #3932]	; 0xf5c
    7a2a:	3120      	adds	r1, #32
    7a2c:	428b      	cmp	r3, r1
    7a2e:	d8fa      	bhi.n	7a26 <usb_serial_read+0xde>
    7a30:	f3bf 8f4f 	dsb	sy
    7a34:	f3bf 8f6f 	isb	sy
    7a38:	2003      	movs	r0, #3
    7a3a:	4641      	mov	r1, r8
    7a3c:	f7ff fc36 	bl	72ac <usb_receive>
    7a40:	f44f 3300 	mov.w	r3, #131072	; 0x20000
    7a44:	42b7      	cmp	r7, r6
    7a46:	f8c5 310c 	str.w	r3, [r5, #268]	; 0x10c
    7a4a:	d890      	bhi.n	796e <usb_serial_read+0x26>
    7a4c:	4630      	mov	r0, r6
    7a4e:	e7b6      	b.n	79be <usb_serial_read+0x76>
    7a50:	4608      	mov	r0, r1
    7a52:	e7b4      	b.n	79be <usb_serial_read+0x76>
    7a54:	20009bf8 	.word	0x20009bf8
    7a58:	20009bf7 	.word	0x20009bf7
    7a5c:	20009bac 	.word	0x20009bac
    7a60:	20009b8c 	.word	0x20009b8c
    7a64:	20200080 	.word	0x20200080
    7a68:	20009b88 	.word	0x20009b88
    7a6c:	20001700 	.word	0x20001700
    7a70:	20009b9c 	.word	0x20009b9c
    7a74:	20009bec 	.word	0x20009bec

00007a78 <usb_serial_peekchar>:
    7a78:	4b0b      	ldr	r3, [pc, #44]	; (7aa8 <usb_serial_peekchar+0x30>)
    7a7a:	4a0c      	ldr	r2, [pc, #48]	; (7aac <usb_serial_peekchar+0x34>)
    7a7c:	7812      	ldrb	r2, [r2, #0]
    7a7e:	7819      	ldrb	r1, [r3, #0]
    7a80:	b2d3      	uxtb	r3, r2
    7a82:	428a      	cmp	r2, r1
    7a84:	d00d      	beq.n	7aa2 <usb_serial_peekchar+0x2a>
    7a86:	3301      	adds	r3, #1
    7a88:	4809      	ldr	r0, [pc, #36]	; (7ab0 <usb_serial_peekchar+0x38>)
    7a8a:	4a0a      	ldr	r2, [pc, #40]	; (7ab4 <usb_serial_peekchar+0x3c>)
    7a8c:	2b09      	cmp	r3, #9
    7a8e:	490a      	ldr	r1, [pc, #40]	; (7ab8 <usb_serial_peekchar+0x40>)
    7a90:	bf28      	it	cs
    7a92:	2300      	movcs	r3, #0
    7a94:	5cc3      	ldrb	r3, [r0, r3]
    7a96:	f831 1013 	ldrh.w	r1, [r1, r3, lsl #1]
    7a9a:	eb02 2343 	add.w	r3, r2, r3, lsl #9
    7a9e:	5c58      	ldrb	r0, [r3, r1]
    7aa0:	4770      	bx	lr
    7aa2:	f04f 30ff 	mov.w	r0, #4294967295
    7aa6:	4770      	bx	lr
    7aa8:	20009bf7 	.word	0x20009bf7
    7aac:	20009bf8 	.word	0x20009bf8
    7ab0:	20009bac 	.word	0x20009bac
    7ab4:	20200080 	.word	0x20200080
    7ab8:	20009b9c 	.word	0x20009b9c

00007abc <usb_serial_available>:
    7abc:	4b04      	ldr	r3, [pc, #16]	; (7ad0 <usb_serial_available+0x14>)
    7abe:	b510      	push	{r4, lr}
    7ac0:	681c      	ldr	r4, [r3, #0]
    7ac2:	b10c      	cbz	r4, 7ac8 <usb_serial_available+0xc>
    7ac4:	4620      	mov	r0, r4
    7ac6:	bd10      	pop	{r4, pc}
    7ac8:	f000 f90e 	bl	7ce8 <yield>
    7acc:	4620      	mov	r0, r4
    7ace:	bd10      	pop	{r4, pc}
    7ad0:	20009b88 	.word	0x20009b88

00007ad4 <usb_serial_flush_input>:
    7ad4:	e92d 4ff0 	stmdb	sp!, {r4, r5, r6, r7, r8, r9, sl, fp, lr}
    7ad8:	4a28      	ldr	r2, [pc, #160]	; (7b7c <usb_serial_flush_input+0xa8>)
    7ada:	b083      	sub	sp, #12
    7adc:	f8df b0b8 	ldr.w	fp, [pc, #184]	; 7b98 <usb_serial_flush_input+0xc4>
    7ae0:	f89b 3000 	ldrb.w	r3, [fp]
    7ae4:	7812      	ldrb	r2, [r2, #0]
    7ae6:	4293      	cmp	r3, r2
    7ae8:	d041      	beq.n	7b6e <usb_serial_flush_input+0x9a>
    7aea:	b2dd      	uxtb	r5, r3
    7aec:	f8df 80ac 	ldr.w	r8, [pc, #172]	; 7b9c <usb_serial_flush_input+0xc8>
    7af0:	4f23      	ldr	r7, [pc, #140]	; (7b80 <usb_serial_flush_input+0xac>)
    7af2:	f04f 24e0 	mov.w	r4, #3758153728	; 0xe000e000
    7af6:	f44f 3600 	mov.w	r6, #131072	; 0x20000
    7afa:	3501      	adds	r5, #1
    7afc:	2d08      	cmp	r5, #8
    7afe:	d839      	bhi.n	7b74 <usb_serial_flush_input+0xa0>
    7b00:	fa5f f985 	uxtb.w	r9, r5
    7b04:	4b1f      	ldr	r3, [pc, #124]	; (7b84 <usb_serial_flush_input+0xb0>)
    7b06:	4920      	ldr	r1, [pc, #128]	; (7b88 <usb_serial_flush_input+0xb4>)
    7b08:	5d5b      	ldrb	r3, [r3, r5]
    7b0a:	4820      	ldr	r0, [pc, #128]	; (7b8c <usb_serial_flush_input+0xb8>)
    7b0c:	f831 1013 	ldrh.w	r1, [r1, r3, lsl #1]
    7b10:	f830 0013 	ldrh.w	r0, [r0, r3, lsl #1]
    7b14:	f8d8 2000 	ldr.w	r2, [r8]
    7b18:	1a09      	subs	r1, r1, r0
    7b1a:	1a52      	subs	r2, r2, r1
    7b1c:	f8c8 2000 	str.w	r2, [r8]
    7b20:	4a1b      	ldr	r2, [pc, #108]	; (7b90 <usb_serial_flush_input+0xbc>)
    7b22:	f8c4 618c 	str.w	r6, [r4, #396]	; 0x18c
    7b26:	eb02 2143 	add.w	r1, r2, r3, lsl #9
    7b2a:	4a1a      	ldr	r2, [pc, #104]	; (7b94 <usb_serial_flush_input+0xc0>)
    7b2c:	eb02 1a43 	add.w	sl, r2, r3, lsl #5
    7b30:	883a      	ldrh	r2, [r7, #0]
    7b32:	9101      	str	r1, [sp, #4]
    7b34:	4650      	mov	r0, sl
    7b36:	f7ff fb45 	bl	71c4 <usb_prepare_transfer>
    7b3a:	9901      	ldr	r1, [sp, #4]
    7b3c:	883b      	ldrh	r3, [r7, #0]
    7b3e:	440b      	add	r3, r1
    7b40:	f3bf 8f4f 	dsb	sy
    7b44:	f8c4 1f5c 	str.w	r1, [r4, #3932]	; 0xf5c
    7b48:	3120      	adds	r1, #32
    7b4a:	428b      	cmp	r3, r1
    7b4c:	d8fa      	bhi.n	7b44 <usb_serial_flush_input+0x70>
    7b4e:	f3bf 8f4f 	dsb	sy
    7b52:	f3bf 8f6f 	isb	sy
    7b56:	2003      	movs	r0, #3
    7b58:	4651      	mov	r1, sl
    7b5a:	f7ff fba7 	bl	72ac <usb_receive>
    7b5e:	4b07      	ldr	r3, [pc, #28]	; (7b7c <usb_serial_flush_input+0xa8>)
    7b60:	f8c4 610c 	str.w	r6, [r4, #268]	; 0x10c
    7b64:	f88b 9000 	strb.w	r9, [fp]
    7b68:	781b      	ldrb	r3, [r3, #0]
    7b6a:	42ab      	cmp	r3, r5
    7b6c:	d1c5      	bne.n	7afa <usb_serial_flush_input+0x26>
    7b6e:	b003      	add	sp, #12
    7b70:	e8bd 8ff0 	ldmia.w	sp!, {r4, r5, r6, r7, r8, r9, sl, fp, pc}
    7b74:	2500      	movs	r5, #0
    7b76:	46a9      	mov	r9, r5
    7b78:	e7c4      	b.n	7b04 <usb_serial_flush_input+0x30>
    7b7a:	bf00      	nop
    7b7c:	20009bf7 	.word	0x20009bf7
    7b80:	20009bec 	.word	0x20009bec
    7b84:	20009bac 	.word	0x20009bac
    7b88:	20009b8c 	.word	0x20009b8c
    7b8c:	20009b9c 	.word	0x20009b9c
    7b90:	20200080 	.word	0x20200080
    7b94:	20001700 	.word	0x20001700
    7b98:	20009bf8 	.word	0x20009bf8
    7b9c:	20009b88 	.word	0x20009b88

00007ba0 <usb_serial_getchar>:
    7ba0:	b500      	push	{lr}
    7ba2:	b083      	sub	sp, #12
    7ba4:	2101      	movs	r1, #1
    7ba6:	f10d 0007 	add.w	r0, sp, #7
    7baa:	f7ff fecd 	bl	7948 <usb_serial_read>
    7bae:	b120      	cbz	r0, 7bba <usb_serial_getchar+0x1a>
    7bb0:	f89d 0007 	ldrb.w	r0, [sp, #7]
    7bb4:	b003      	add	sp, #12
    7bb6:	f85d fb04 	ldr.w	pc, [sp], #4
    7bba:	f04f 30ff 	mov.w	r0, #4294967295
    7bbe:	e7f9      	b.n	7bb4 <usb_serial_getchar+0x14>

00007bc0 <usb_serial_putchar>:
    7bc0:	4b09      	ldr	r3, [pc, #36]	; (7be8 <usb_serial_putchar+0x28>)
    7bc2:	b500      	push	{lr}
    7bc4:	b083      	sub	sp, #12
    7bc6:	781b      	ldrb	r3, [r3, #0]
    7bc8:	f88d 0007 	strb.w	r0, [sp, #7]
    7bcc:	b13b      	cbz	r3, 7bde <usb_serial_putchar+0x1e>
    7bce:	2101      	movs	r1, #1
    7bd0:	f10d 0007 	add.w	r0, sp, #7
    7bd4:	f7ff fc7c 	bl	74d0 <usb_serial_write.part.0>
    7bd8:	b003      	add	sp, #12
    7bda:	f85d fb04 	ldr.w	pc, [sp], #4
    7bde:	f003 00ff 	and.w	r0, r3, #255	; 0xff
    7be2:	b003      	add	sp, #12
    7be4:	f85d fb04 	ldr.w	pc, [sp], #4
    7be8:	20009bfe 	.word	0x20009bfe

00007bec <usb_serial_write>:
    7bec:	4b04      	ldr	r3, [pc, #16]	; (7c00 <usb_serial_write+0x14>)
    7bee:	781b      	ldrb	r3, [r3, #0]
    7bf0:	f003 02ff 	and.w	r2, r3, #255	; 0xff
    7bf4:	b10b      	cbz	r3, 7bfa <usb_serial_write+0xe>
    7bf6:	f7ff bc6b 	b.w	74d0 <usb_serial_write.part.0>
    7bfa:	4610      	mov	r0, r2
    7bfc:	4770      	bx	lr
    7bfe:	bf00      	nop
    7c00:	20009bfe 	.word	0x20009bfe

00007c04 <usb_serial_write_buffer_free>:
    7c04:	e92d 41f0 	stmdb	sp!, {r4, r5, r6, r7, r8, lr}
    7c08:	2400      	movs	r4, #0
    7c0a:	f8df 8044 	ldr.w	r8, [pc, #68]	; 7c50 <usb_serial_write_buffer_free+0x4c>
    7c0e:	2301      	movs	r3, #1
    7c10:	4d0d      	ldr	r5, [pc, #52]	; (7c48 <usb_serial_write_buffer_free+0x44>)
    7c12:	4627      	mov	r7, r4
    7c14:	4e0d      	ldr	r6, [pc, #52]	; (7c4c <usb_serial_write_buffer_free+0x48>)
    7c16:	f888 3000 	strb.w	r3, [r8]
    7c1a:	7833      	ldrb	r3, [r6, #0]
    7c1c:	4628      	mov	r0, r5
    7c1e:	3520      	adds	r5, #32
    7c20:	42a3      	cmp	r3, r4
    7c22:	f104 0401 	add.w	r4, r4, #1
    7c26:	d005      	beq.n	7c34 <usb_serial_write_buffer_free+0x30>
    7c28:	f7ff fb9c 	bl	7364 <usb_transfer_status>
    7c2c:	0603      	lsls	r3, r0, #24
    7c2e:	bf58      	it	pl
    7c30:	f507 6700 	addpl.w	r7, r7, #2048	; 0x800
    7c34:	2c04      	cmp	r4, #4
    7c36:	d1f0      	bne.n	7c1a <usb_serial_write_buffer_free+0x16>
    7c38:	f3bf 8f4f 	dsb	sy
    7c3c:	2300      	movs	r3, #0
    7c3e:	4638      	mov	r0, r7
    7c40:	f888 3000 	strb.w	r3, [r8]
    7c44:	e8bd 81f0 	ldmia.w	sp!, {r4, r5, r6, r7, r8, pc}
    7c48:	20001800 	.word	0x20001800
    7c4c:	20009bfb 	.word	0x20009bfb
    7c50:	20009bfc 	.word	0x20009bfc

00007c54 <usb_serial_flush_output>:
    7c54:	e92d 43f8 	stmdb	sp!, {r3, r4, r5, r6, r7, r8, r9, lr}
    7c58:	4b1d      	ldr	r3, [pc, #116]	; (7cd0 <usb_serial_flush_output+0x7c>)
    7c5a:	781b      	ldrb	r3, [r3, #0]
    7c5c:	b113      	cbz	r3, 7c64 <usb_serial_flush_output+0x10>
    7c5e:	4d1d      	ldr	r5, [pc, #116]	; (7cd4 <usb_serial_flush_output+0x80>)
    7c60:	882a      	ldrh	r2, [r5, #0]
    7c62:	b90a      	cbnz	r2, 7c68 <usb_serial_flush_output+0x14>
    7c64:	e8bd 83f8 	ldmia.w	sp!, {r3, r4, r5, r6, r7, r8, r9, pc}
    7c68:	4e1b      	ldr	r6, [pc, #108]	; (7cd8 <usb_serial_flush_output+0x84>)
    7c6a:	f5c2 6900 	rsb	r9, r2, #2048	; 0x800
    7c6e:	491b      	ldr	r1, [pc, #108]	; (7cdc <usb_serial_flush_output+0x88>)
    7c70:	7833      	ldrb	r3, [r6, #0]
    7c72:	464a      	mov	r2, r9
    7c74:	4c1a      	ldr	r4, [pc, #104]	; (7ce0 <usb_serial_flush_output+0x8c>)
    7c76:	eb01 1843 	add.w	r8, r1, r3, lsl #5
    7c7a:	4f1a      	ldr	r7, [pc, #104]	; (7ce4 <usb_serial_flush_output+0x90>)
    7c7c:	eb04 24c3 	add.w	r4, r4, r3, lsl #11
    7c80:	2301      	movs	r3, #1
    7c82:	4640      	mov	r0, r8
    7c84:	703b      	strb	r3, [r7, #0]
    7c86:	4621      	mov	r1, r4
    7c88:	2300      	movs	r3, #0
    7c8a:	f7ff fa9b 	bl	71c4 <usb_prepare_transfer>
    7c8e:	eb04 0209 	add.w	r2, r4, r9
    7c92:	f3bf 8f4f 	dsb	sy
    7c96:	f04f 23e0 	mov.w	r3, #3758153728	; 0xe000e000
    7c9a:	f8c3 4f70 	str.w	r4, [r3, #3952]	; 0xf70
    7c9e:	3420      	adds	r4, #32
    7ca0:	42a2      	cmp	r2, r4
    7ca2:	d8fa      	bhi.n	7c9a <usb_serial_flush_output+0x46>
    7ca4:	f3bf 8f4f 	dsb	sy
    7ca8:	f3bf 8f6f 	isb	sy
    7cac:	2004      	movs	r0, #4
    7cae:	4641      	mov	r1, r8
    7cb0:	f7ff faa0 	bl	71f4 <usb_transmit>
    7cb4:	7833      	ldrb	r3, [r6, #0]
    7cb6:	3301      	adds	r3, #1
    7cb8:	b2db      	uxtb	r3, r3
    7cba:	2b03      	cmp	r3, #3
    7cbc:	bf88      	it	hi
    7cbe:	2300      	movhi	r3, #0
    7cc0:	7033      	strb	r3, [r6, #0]
    7cc2:	2300      	movs	r3, #0
    7cc4:	802b      	strh	r3, [r5, #0]
    7cc6:	f3bf 8f4f 	dsb	sy
    7cca:	703b      	strb	r3, [r7, #0]
    7ccc:	e8bd 83f8 	ldmia.w	sp!, {r3, r4, r5, r6, r7, r8, r9, pc}
    7cd0:	20009bfe 	.word	0x20009bfe
    7cd4:	20009bee 	.word	0x20009bee
    7cd8:	20009bfb 	.word	0x20009bfb
    7cdc:	20001800 	.word	0x20001800
    7ce0:	20201080 	.word	0x20201080
    7ce4:	20009bfc 	.word	0x20009bfc

00007ce8 <yield>:
    7ce8:	e92d 43f8 	stmdb	sp!, {r3, r4, r5, r6, r7, r8, r9, lr}
    7cec:	4b30      	ldr	r3, [pc, #192]	; (7db0 <yield+0xc8>)
    7cee:	781e      	ldrb	r6, [r3, #0]
    7cf0:	2e00      	cmp	r6, #0
    7cf2:	d02b      	beq.n	7d4c <yield+0x64>
    7cf4:	4f2f      	ldr	r7, [pc, #188]	; (7db4 <yield+0xcc>)
    7cf6:	783b      	ldrb	r3, [r7, #0]
    7cf8:	2b00      	cmp	r3, #0
    7cfa:	d127      	bne.n	7d4c <yield+0x64>
    7cfc:	2301      	movs	r3, #1
    7cfe:	07f1      	lsls	r1, r6, #31
    7d00:	703b      	strb	r3, [r7, #0]
    7d02:	d447      	bmi.n	7d94 <yield+0xac>
    7d04:	07b2      	lsls	r2, r6, #30
    7d06:	d423      	bmi.n	7d50 <yield+0x68>
    7d08:	2300      	movs	r3, #0
    7d0a:	703b      	strb	r3, [r7, #0]
    7d0c:	0773      	lsls	r3, r6, #29
    7d0e:	d51d      	bpl.n	7d4c <yield+0x64>
    7d10:	4b29      	ldr	r3, [pc, #164]	; (7db8 <yield+0xd0>)
    7d12:	681a      	ldr	r2, [r3, #0]
    7d14:	b1d2      	cbz	r2, 7d4c <yield+0x64>
    7d16:	f3ef 8205 	mrs	r2, IPSR
    7d1a:	b9ba      	cbnz	r2, 7d4c <yield+0x64>
    7d1c:	f3ef 8510 	mrs	r5, PRIMASK
    7d20:	b672      	cpsid	i
    7d22:	6818      	ldr	r0, [r3, #0]
    7d24:	2800      	cmp	r0, #0
    7d26:	d03c      	beq.n	7da2 <yield+0xba>
    7d28:	4c24      	ldr	r4, [pc, #144]	; (7dbc <yield+0xd4>)
    7d2a:	7821      	ldrb	r1, [r4, #0]
    7d2c:	2900      	cmp	r1, #0
    7d2e:	d138      	bne.n	7da2 <yield+0xba>
    7d30:	2201      	movs	r2, #1
    7d32:	7022      	strb	r2, [r4, #0]
    7d34:	6942      	ldr	r2, [r0, #20]
    7d36:	601a      	str	r2, [r3, #0]
    7d38:	2a00      	cmp	r2, #0
    7d3a:	d036      	beq.n	7daa <yield+0xc2>
    7d3c:	6191      	str	r1, [r2, #24]
    7d3e:	b905      	cbnz	r5, 7d42 <yield+0x5a>
    7d40:	b662      	cpsie	i
    7d42:	2500      	movs	r5, #0
    7d44:	6883      	ldr	r3, [r0, #8]
    7d46:	7745      	strb	r5, [r0, #29]
    7d48:	4798      	blx	r3
    7d4a:	7025      	strb	r5, [r4, #0]
    7d4c:	e8bd 83f8 	ldmia.w	sp!, {r3, r4, r5, r6, r7, r8, r9, pc}
    7d50:	f8df 8070 	ldr.w	r8, [pc, #112]	; 7dc4 <yield+0xdc>
    7d54:	f898 3000 	ldrb.w	r3, [r8]
    7d58:	2b00      	cmp	r3, #0
    7d5a:	d0d5      	beq.n	7d08 <yield+0x20>
    7d5c:	2500      	movs	r5, #0
    7d5e:	f8df 9068 	ldr.w	r9, [pc, #104]	; 7dc8 <yield+0xe0>
    7d62:	462b      	mov	r3, r5
    7d64:	f859 4023 	ldr.w	r4, [r9, r3, lsl #2]
    7d68:	6823      	ldr	r3, [r4, #0]
    7d6a:	4620      	mov	r0, r4
    7d6c:	691b      	ldr	r3, [r3, #16]
    7d6e:	4798      	blx	r3
    7d70:	b148      	cbz	r0, 7d86 <yield+0x9e>
    7d72:	6963      	ldr	r3, [r4, #20]
    7d74:	3501      	adds	r5, #1
    7d76:	689b      	ldr	r3, [r3, #8]
    7d78:	4798      	blx	r3
    7d7a:	f898 2000 	ldrb.w	r2, [r8]
    7d7e:	b2eb      	uxtb	r3, r5
    7d80:	429a      	cmp	r2, r3
    7d82:	d8ef      	bhi.n	7d64 <yield+0x7c>
    7d84:	e7c0      	b.n	7d08 <yield+0x20>
    7d86:	3501      	adds	r5, #1
    7d88:	f898 2000 	ldrb.w	r2, [r8]
    7d8c:	b2eb      	uxtb	r3, r5
    7d8e:	429a      	cmp	r2, r3
    7d90:	d8e8      	bhi.n	7d64 <yield+0x7c>
    7d92:	e7b9      	b.n	7d08 <yield+0x20>
    7d94:	f7ff fe92 	bl	7abc <usb_serial_available>
    7d98:	2800      	cmp	r0, #0
    7d9a:	d0b3      	beq.n	7d04 <yield+0x1c>
    7d9c:	f3af 8000 	nop.w
    7da0:	e7b0      	b.n	7d04 <yield+0x1c>
    7da2:	2d00      	cmp	r5, #0
    7da4:	d1d2      	bne.n	7d4c <yield+0x64>
    7da6:	b662      	cpsie	i
    7da8:	e7d0      	b.n	7d4c <yield+0x64>
    7daa:	4b05      	ldr	r3, [pc, #20]	; (7dc0 <yield+0xd8>)
    7dac:	601a      	str	r2, [r3, #0]
    7dae:	e7c6      	b.n	7d3e <yield+0x56>
    7db0:	20009c01 	.word	0x20009c01
    7db4:	20009bf4 	.word	0x20009bf4
    7db8:	2000999c 	.word	0x2000999c
    7dbc:	20009bf2 	.word	0x20009bf2
    7dc0:	200099a8 	.word	0x200099a8
    7dc4:	20009bf3 	.word	0x20009bf3
    7dc8:	200099ac 	.word	0x200099ac

00007dcc <pendablesrvreq_isr>:
    7dcc:	b570      	push	{r4, r5, r6, lr}
    7dce:	f3ef 8110 	mrs	r1, PRIMASK
    7dd2:	b672      	cpsid	i
    7dd4:	4c0e      	ldr	r4, [pc, #56]	; (7e10 <pendablesrvreq_isr+0x44>)
    7dd6:	6823      	ldr	r3, [r4, #0]
    7dd8:	b1bb      	cbz	r3, 7e0a <pendablesrvreq_isr+0x3e>
    7dda:	4e0e      	ldr	r6, [pc, #56]	; (7e14 <pendablesrvreq_isr+0x48>)
    7ddc:	2500      	movs	r5, #0
    7dde:	e008      	b.n	7df2 <pendablesrvreq_isr+0x26>
    7de0:	b662      	cpsie	i
    7de2:	689a      	ldr	r2, [r3, #8]
    7de4:	7759      	strb	r1, [r3, #29]
    7de6:	4790      	blx	r2
    7de8:	f3ef 8110 	mrs	r1, PRIMASK
    7dec:	b672      	cpsid	i
    7dee:	6823      	ldr	r3, [r4, #0]
    7df0:	b15b      	cbz	r3, 7e0a <pendablesrvreq_isr+0x3e>
    7df2:	695a      	ldr	r2, [r3, #20]
    7df4:	6022      	str	r2, [r4, #0]
    7df6:	b132      	cbz	r2, 7e06 <pendablesrvreq_isr+0x3a>
    7df8:	6195      	str	r5, [r2, #24]
    7dfa:	4618      	mov	r0, r3
    7dfc:	2900      	cmp	r1, #0
    7dfe:	d0ef      	beq.n	7de0 <pendablesrvreq_isr+0x14>
    7e00:	689a      	ldr	r2, [r3, #8]
    7e02:	775d      	strb	r5, [r3, #29]
    7e04:	e7ef      	b.n	7de6 <pendablesrvreq_isr+0x1a>
    7e06:	6032      	str	r2, [r6, #0]
    7e08:	e7f7      	b.n	7dfa <pendablesrvreq_isr+0x2e>
    7e0a:	b901      	cbnz	r1, 7e0e <pendablesrvreq_isr+0x42>
    7e0c:	b662      	cpsie	i
    7e0e:	bd70      	pop	{r4, r5, r6, pc}
    7e10:	200099a4 	.word	0x200099a4
    7e14:	200099a0 	.word	0x200099a0

00007e18 <systick_isr>:
    7e18:	4904      	ldr	r1, [pc, #16]	; (7e2c <systick_isr+0x14>)
    7e1a:	4a05      	ldr	r2, [pc, #20]	; (7e30 <systick_isr+0x18>)
    7e1c:	6849      	ldr	r1, [r1, #4]
    7e1e:	4b05      	ldr	r3, [pc, #20]	; (7e34 <systick_isr+0x1c>)
    7e20:	6019      	str	r1, [r3, #0]
    7e22:	6813      	ldr	r3, [r2, #0]
    7e24:	3301      	adds	r3, #1
    7e26:	6013      	str	r3, [r2, #0]
    7e28:	4770      	bx	lr
    7e2a:	bf00      	nop
    7e2c:	e0001000 	.word	0xe0001000
    7e30:	20009bd0 	.word	0x20009bd0
    7e34:	20009bcc 	.word	0x20009bcc

00007e38 <set_arm_clock>:
    7e38:	49ac      	ldr	r1, [pc, #688]	; (80ec <set_arm_clock+0x2b4>)
    7e3a:	4bad      	ldr	r3, [pc, #692]	; (80f0 <set_arm_clock+0x2b8>)
    7e3c:	4288      	cmp	r0, r1
    7e3e:	e92d 47f0 	stmdb	sp!, {r4, r5, r6, r7, r8, r9, sl, lr}
    7e42:	4cac      	ldr	r4, [pc, #688]	; (80f4 <set_arm_clock+0x2bc>)
    7e44:	695f      	ldr	r7, [r3, #20]
    7e46:	699a      	ldr	r2, [r3, #24]
    7e48:	f8d4 800c 	ldr.w	r8, [r4, #12]
    7e4c:	f200 80ff 	bhi.w	804e <set_arm_clock+0x216>
    7e50:	f103 7343 	add.w	r3, r3, #51118080	; 0x30c0000
    7e54:	f503 53f4 	add.w	r3, r3, #7808	; 0x1e80
    7e58:	3303      	adds	r3, #3
    7e5a:	fba3 1300 	umull	r1, r3, r3, r0
    7e5e:	0ddb      	lsrs	r3, r3, #23
    7e60:	eb03 0383 	add.w	r3, r3, r3, lsl #2
    7e64:	eb03 0483 	add.w	r4, r3, r3, lsl #2
    7e68:	f204 34b6 	addw	r4, r4, #950	; 0x3b6
    7e6c:	f240 6327 	movw	r3, #1575	; 0x627
    7e70:	429c      	cmp	r4, r3
    7e72:	bf28      	it	cs
    7e74:	461c      	movcs	r4, r3
    7e76:	4ba0      	ldr	r3, [pc, #640]	; (80f8 <set_arm_clock+0x2c0>)
    7e78:	f5a4 7448 	sub.w	r4, r4, #800	; 0x320
    7e7c:	fba3 3404 	umull	r3, r4, r3, r4
    7e80:	08e4      	lsrs	r4, r4, #3
    7e82:	499b      	ldr	r1, [pc, #620]	; (80f0 <set_arm_clock+0x2b8>)
    7e84:	f008 091f 	and.w	r9, r8, #31
    7e88:	f8d1 3080 	ldr.w	r3, [r1, #128]	; 0x80
    7e8c:	45a1      	cmp	r9, r4
    7e8e:	f043 03c0 	orr.w	r3, r3, #192	; 0xc0
    7e92:	f8c1 3080 	str.w	r3, [r1, #128]	; 0x80
    7e96:	d20c      	bcs.n	7eb2 <set_arm_clock+0x7a>
    7e98:	f028 081f 	bic.w	r8, r8, #31
    7e9c:	f5a1 21f8 	sub.w	r1, r1, #507904	; 0x7c000
    7ea0:	ea48 0804 	orr.w	r8, r8, r4
    7ea4:	f8c1 800c 	str.w	r8, [r1, #12]
    7ea8:	680b      	ldr	r3, [r1, #0]
    7eaa:	2b00      	cmp	r3, #0
    7eac:	dafc      	bge.n	7ea8 <set_arm_clock+0x70>
    7eae:	f008 091f 	and.w	r9, r8, #31
    7eb2:	f017 7300 	ands.w	r3, r7, #33554432	; 0x2000000
    7eb6:	d124      	bne.n	7f02 <set_arm_clock+0xca>
    7eb8:	4990      	ldr	r1, [pc, #576]	; (80fc <set_arm_clock+0x2c4>)
    7eba:	690d      	ldr	r5, [r1, #16]
    7ebc:	4990      	ldr	r1, [pc, #576]	; (8100 <set_arm_clock+0x2c8>)
    7ebe:	43a9      	bics	r1, r5
    7ec0:	f000 8101 	beq.w	80c6 <set_arm_clock+0x28e>
    7ec4:	f482 5180 	eor.w	r1, r2, #4096	; 0x1000
    7ec8:	463d      	mov	r5, r7
    7eca:	f44f 5680 	mov.w	r6, #4096	; 0x1000
    7ece:	f015 5f60 	tst.w	r5, #939524096	; 0x38000000
    7ed2:	d004      	beq.n	7ede <set_arm_clock+0xa6>
    7ed4:	f027 5760 	bic.w	r7, r7, #939524096	; 0x38000000
    7ed8:	431f      	orrs	r7, r3
    7eda:	4b85      	ldr	r3, [pc, #532]	; (80f0 <set_arm_clock+0x2b8>)
    7edc:	615f      	str	r7, [r3, #20]
    7ede:	f411 5f40 	tst.w	r1, #12288	; 0x3000
    7ee2:	d007      	beq.n	7ef4 <set_arm_clock+0xbc>
    7ee4:	f422 5240 	bic.w	r2, r2, #12288	; 0x3000
    7ee8:	4981      	ldr	r1, [pc, #516]	; (80f0 <set_arm_clock+0x2b8>)
    7eea:	4332      	orrs	r2, r6
    7eec:	618a      	str	r2, [r1, #24]
    7eee:	6c8b      	ldr	r3, [r1, #72]	; 0x48
    7ef0:	071a      	lsls	r2, r3, #28
    7ef2:	d4fc      	bmi.n	7eee <set_arm_clock+0xb6>
    7ef4:	f047 7700 	orr.w	r7, r7, #33554432	; 0x2000000
    7ef8:	4a7d      	ldr	r2, [pc, #500]	; (80f0 <set_arm_clock+0x2b8>)
    7efa:	6157      	str	r7, [r2, #20]
    7efc:	6c93      	ldr	r3, [r2, #72]	; 0x48
    7efe:	069b      	lsls	r3, r3, #26
    7f00:	d4fc      	bmi.n	7efc <set_arm_clock+0xc4>
    7f02:	4d80      	ldr	r5, [pc, #512]	; (8104 <set_arm_clock+0x2cc>)
    7f04:	42a8      	cmp	r0, r5
    7f06:	f200 80e9 	bhi.w	80dc <set_arm_clock+0x2a4>
    7f0a:	f04f 0c01 	mov.w	ip, #1
    7f0e:	4601      	mov	r1, r0
    7f10:	4663      	mov	r3, ip
    7f12:	fb03 1201 	mla	r2, r3, r1, r1
    7f16:	f103 0e01 	add.w	lr, r3, #1
    7f1a:	f10c 0601 	add.w	r6, ip, #1
    7f1e:	42aa      	cmp	r2, r5
    7f20:	d818      	bhi.n	7f54 <set_arm_clock+0x11c>
    7f22:	f1be 0f08 	cmp.w	lr, #8
    7f26:	f04f 0301 	mov.w	r3, #1
    7f2a:	f040 808e 	bne.w	804a <set_arm_clock+0x212>
    7f2e:	f1bc 0f04 	cmp.w	ip, #4
    7f32:	f200 80a8 	bhi.w	8086 <set_arm_clock+0x24e>
    7f36:	180a      	adds	r2, r1, r0
    7f38:	42aa      	cmp	r2, r5
    7f3a:	f200 80bb 	bhi.w	80b4 <set_arm_clock+0x27c>
    7f3e:	fb06 f100 	mul.w	r1, r6, r0
    7f42:	46b4      	mov	ip, r6
    7f44:	f103 0e01 	add.w	lr, r3, #1
    7f48:	fb03 1201 	mla	r2, r3, r1, r1
    7f4c:	f10c 0601 	add.w	r6, ip, #1
    7f50:	42aa      	cmp	r2, r5
    7f52:	d9e6      	bls.n	7f22 <set_arm_clock+0xea>
    7f54:	f10c 31ff 	add.w	r1, ip, #4294967295
    7f58:	028d      	lsls	r5, r1, #10
    7f5a:	ea87 2181 	eor.w	r1, r7, r1, lsl #10
    7f5e:	486a      	ldr	r0, [pc, #424]	; (8108 <set_arm_clock+0x2d0>)
    7f60:	4410      	add	r0, r2
    7f62:	4a6a      	ldr	r2, [pc, #424]	; (810c <set_arm_clock+0x2d4>)
    7f64:	4290      	cmp	r0, r2
    7f66:	f240 8096 	bls.w	8096 <set_arm_clock+0x25e>
    7f6a:	f8df a1dc 	ldr.w	sl, [pc, #476]	; 8148 <set_arm_clock+0x310>
    7f6e:	226c      	movs	r2, #108	; 0x6c
    7f70:	4867      	ldr	r0, [pc, #412]	; (8110 <set_arm_clock+0x2d8>)
    7f72:	4e62      	ldr	r6, [pc, #392]	; (80fc <set_arm_clock+0x2c4>)
    7f74:	fbb0 f0fe 	udiv	r0, r0, lr
    7f78:	f8d6 e000 	ldr.w	lr, [r6]
    7f7c:	fbb0 f0fc 	udiv	r0, r0, ip
    7f80:	f8df c1c8 	ldr.w	ip, [pc, #456]	; 814c <set_arm_clock+0x314>
    7f84:	ea0e 0c0c 	and.w	ip, lr, ip
    7f88:	45d4      	cmp	ip, sl
    7f8a:	d009      	beq.n	7fa0 <set_arm_clock+0x168>
    7f8c:	f442 5200 	orr.w	r2, r2, #8192	; 0x2000
    7f90:	f44f 5c80 	mov.w	ip, #4096	; 0x1000
    7f94:	f8c6 c000 	str.w	ip, [r6]
    7f98:	6032      	str	r2, [r6, #0]
    7f9a:	6832      	ldr	r2, [r6, #0]
    7f9c:	2a00      	cmp	r2, #0
    7f9e:	dafc      	bge.n	7f9a <set_arm_clock+0x162>
    7fa0:	4a53      	ldr	r2, [pc, #332]	; (80f0 <set_arm_clock+0x2b8>)
    7fa2:	6916      	ldr	r6, [r2, #16]
    7fa4:	f006 0607 	and.w	r6, r6, #7
    7fa8:	429e      	cmp	r6, r3
    7faa:	d003      	beq.n	7fb4 <set_arm_clock+0x17c>
    7fac:	6113      	str	r3, [r2, #16]
    7fae:	6c93      	ldr	r3, [r2, #72]	; 0x48
    7fb0:	03de      	lsls	r6, r3, #15
    7fb2:	d4fc      	bmi.n	7fae <set_arm_clock+0x176>
    7fb4:	f411 5fe0 	tst.w	r1, #7168	; 0x1c00
    7fb8:	d009      	beq.n	7fce <set_arm_clock+0x196>
    7fba:	f427 57e0 	bic.w	r7, r7, #7168	; 0x1c00
    7fbe:	f405 55e0 	and.w	r5, r5, #7168	; 0x1c00
    7fc2:	4a4b      	ldr	r2, [pc, #300]	; (80f0 <set_arm_clock+0x2b8>)
    7fc4:	432f      	orrs	r7, r5
    7fc6:	6157      	str	r7, [r2, #20]
    7fc8:	6c93      	ldr	r3, [r2, #72]	; 0x48
    7fca:	0799      	lsls	r1, r3, #30
    7fcc:	d4fc      	bmi.n	7fc8 <set_arm_clock+0x190>
    7fce:	4951      	ldr	r1, [pc, #324]	; (8114 <set_arm_clock+0x2dc>)
    7fd0:	4a51      	ldr	r2, [pc, #324]	; (8118 <set_arm_clock+0x2e0>)
    7fd2:	4401      	add	r1, r0
    7fd4:	4291      	cmp	r1, r2
    7fd6:	d852      	bhi.n	807e <set_arm_clock+0x246>
    7fd8:	4b50      	ldr	r3, [pc, #320]	; (811c <set_arm_clock+0x2e4>)
    7fda:	09c9      	lsrs	r1, r1, #7
    7fdc:	fba3 3101 	umull	r3, r1, r3, r1
    7fe0:	0b09      	lsrs	r1, r1, #12
    7fe2:	1e4b      	subs	r3, r1, #1
    7fe4:	021b      	lsls	r3, r3, #8
    7fe6:	ea87 0203 	eor.w	r2, r7, r3
    7fea:	f412 7f40 	tst.w	r2, #768	; 0x300
    7fee:	d006      	beq.n	7ffe <set_arm_clock+0x1c6>
    7ff0:	f427 7740 	bic.w	r7, r7, #768	; 0x300
    7ff4:	f403 7340 	and.w	r3, r3, #768	; 0x300
    7ff8:	4a3d      	ldr	r2, [pc, #244]	; (80f0 <set_arm_clock+0x2b8>)
    7ffa:	433b      	orrs	r3, r7
    7ffc:	6153      	str	r3, [r2, #20]
    7ffe:	4a3c      	ldr	r2, [pc, #240]	; (80f0 <set_arm_clock+0x2b8>)
    8000:	6953      	ldr	r3, [r2, #20]
    8002:	f023 7300 	bic.w	r3, r3, #33554432	; 0x2000000
    8006:	6153      	str	r3, [r2, #20]
    8008:	6c93      	ldr	r3, [r2, #72]	; 0x48
    800a:	069b      	lsls	r3, r3, #26
    800c:	d4fc      	bmi.n	8008 <set_arm_clock+0x1d0>
    800e:	4b44      	ldr	r3, [pc, #272]	; (8120 <set_arm_clock+0x2e8>)
    8010:	454c      	cmp	r4, r9
    8012:	fba3 2300 	umull	r2, r3, r3, r0
    8016:	f04f 32ff 	mov.w	r2, #4294967295
    801a:	ea4f 4393 	mov.w	r3, r3, lsr #18
    801e:	fbb0 f1f1 	udiv	r1, r0, r1
    8022:	fbb2 f3f3 	udiv	r3, r2, r3
    8026:	4a3f      	ldr	r2, [pc, #252]	; (8124 <set_arm_clock+0x2ec>)
    8028:	6010      	str	r0, [r2, #0]
    802a:	4a3f      	ldr	r2, [pc, #252]	; (8128 <set_arm_clock+0x2f0>)
    802c:	6011      	str	r1, [r2, #0]
    802e:	4a3f      	ldr	r2, [pc, #252]	; (812c <set_arm_clock+0x2f4>)
    8030:	6013      	str	r3, [r2, #0]
    8032:	d208      	bcs.n	8046 <set_arm_clock+0x20e>
    8034:	f028 081f 	bic.w	r8, r8, #31
    8038:	4a2e      	ldr	r2, [pc, #184]	; (80f4 <set_arm_clock+0x2bc>)
    803a:	ea48 0404 	orr.w	r4, r8, r4
    803e:	60d4      	str	r4, [r2, #12]
    8040:	6813      	ldr	r3, [r2, #0]
    8042:	2b00      	cmp	r3, #0
    8044:	dafc      	bge.n	8040 <set_arm_clock+0x208>
    8046:	e8bd 87f0 	ldmia.w	sp!, {r4, r5, r6, r7, r8, r9, sl, pc}
    804a:	4673      	mov	r3, lr
    804c:	e761      	b.n	7f12 <set_arm_clock+0xda>
    804e:	4b38      	ldr	r3, [pc, #224]	; (8130 <set_arm_clock+0x2f8>)
    8050:	4298      	cmp	r0, r3
    8052:	d801      	bhi.n	8058 <set_arm_clock+0x220>
    8054:	240e      	movs	r4, #14
    8056:	e714      	b.n	7e82 <set_arm_clock+0x4a>
    8058:	4b36      	ldr	r3, [pc, #216]	; (8134 <set_arm_clock+0x2fc>)
    805a:	4298      	cmp	r0, r3
    805c:	d93a      	bls.n	80d4 <set_arm_clock+0x29c>
    805e:	4c36      	ldr	r4, [pc, #216]	; (8138 <set_arm_clock+0x300>)
    8060:	42a0      	cmp	r0, r4
    8062:	d939      	bls.n	80d8 <set_arm_clock+0x2a0>
    8064:	1b04      	subs	r4, r0, r4
    8066:	4b35      	ldr	r3, [pc, #212]	; (813c <set_arm_clock+0x304>)
    8068:	0a24      	lsrs	r4, r4, #8
    806a:	fba3 3404 	umull	r3, r4, r3, r4
    806e:	09e4      	lsrs	r4, r4, #7
    8070:	eb04 0484 	add.w	r4, r4, r4, lsl #2
    8074:	eb04 0484 	add.w	r4, r4, r4, lsl #2
    8078:	f204 44e2 	addw	r4, r4, #1250	; 0x4e2
    807c:	e6f6      	b.n	7e6c <set_arm_clock+0x34>
    807e:	f44f 7340 	mov.w	r3, #768	; 0x300
    8082:	2104      	movs	r1, #4
    8084:	e7af      	b.n	7fe6 <set_arm_clock+0x1ae>
    8086:	f10c 31ff 	add.w	r1, ip, #4294967295
    808a:	481f      	ldr	r0, [pc, #124]	; (8108 <set_arm_clock+0x2d0>)
    808c:	2307      	movs	r3, #7
    808e:	028d      	lsls	r5, r1, #10
    8090:	4410      	add	r0, r2
    8092:	ea87 2181 	eor.w	r1, r7, r1, lsl #10
    8096:	4a2a      	ldr	r2, [pc, #168]	; (8140 <set_arm_clock+0x308>)
    8098:	f8df a0b4 	ldr.w	sl, [pc, #180]	; 8150 <set_arm_clock+0x318>
    809c:	fba2 2000 	umull	r2, r0, r2, r0
    80a0:	0d02      	lsrs	r2, r0, #20
    80a2:	4828      	ldr	r0, [pc, #160]	; (8144 <set_arm_clock+0x30c>)
    80a4:	2a36      	cmp	r2, #54	; 0x36
    80a6:	bf38      	it	cc
    80a8:	2236      	movcc	r2, #54	; 0x36
    80aa:	fb02 f000 	mul.w	r0, r2, r0
    80ae:	ea42 0a0a 	orr.w	sl, r2, sl
    80b2:	e75e      	b.n	7f72 <set_arm_clock+0x13a>
    80b4:	ea4f 258c 	mov.w	r5, ip, lsl #10
    80b8:	2300      	movs	r3, #0
    80ba:	ea87 218c 	eor.w	r1, r7, ip, lsl #10
    80be:	f04f 0e01 	mov.w	lr, #1
    80c2:	46b4      	mov	ip, r6
    80c4:	e74b      	b.n	7f5e <set_arm_clock+0x126>
    80c6:	461e      	mov	r6, r3
    80c8:	f087 55c0 	eor.w	r5, r7, #402653184	; 0x18000000
    80cc:	4611      	mov	r1, r2
    80ce:	f04f 53c0 	mov.w	r3, #402653184	; 0x18000000
    80d2:	e6fc      	b.n	7ece <set_arm_clock+0x96>
    80d4:	240f      	movs	r4, #15
    80d6:	e6d4      	b.n	7e82 <set_arm_clock+0x4a>
    80d8:	2412      	movs	r4, #18
    80da:	e6d2      	b.n	7e82 <set_arm_clock+0x4a>
    80dc:	2500      	movs	r5, #0
    80de:	f04f 0c01 	mov.w	ip, #1
    80e2:	4602      	mov	r2, r0
    80e4:	4639      	mov	r1, r7
    80e6:	462b      	mov	r3, r5
    80e8:	46e6      	mov	lr, ip
    80ea:	e738      	b.n	7f5e <set_arm_clock+0x126>
    80ec:	0e4e1c00 	.word	0x0e4e1c00
    80f0:	400fc000 	.word	0x400fc000
    80f4:	40080000 	.word	0x40080000
    80f8:	51eb851f 	.word	0x51eb851f
    80fc:	400d8000 	.word	0x400d8000
    8100:	80003040 	.word	0x80003040
    8104:	269fb1ff 	.word	0x269fb1ff
    8108:	005b8d80 	.word	0x005b8d80
    810c:	4df67eff 	.word	0x4df67eff
    8110:	4d3f6400 	.word	0x4d3f6400
    8114:	08f0d17f 	.word	0x08f0d17f
    8118:	2cb4177f 	.word	0x2cb4177f
    811c:	00e5109f 	.word	0x00e5109f
    8120:	431bde83 	.word	0x431bde83
    8124:	20000c9c 	.word	0x20000c9c
    8128:	20000c98 	.word	0x20000c98
    812c:	20009bc8 	.word	0x20009bc8
    8130:	1b6b0aff 	.word	0x1b6b0aff
    8134:	1f78a400 	.word	0x1f78a400
    8138:	23c34600 	.word	0x23c34600
    813c:	004cb223 	.word	0x004cb223
    8140:	165e9f81 	.word	0x165e9f81
    8144:	00b71b00 	.word	0x00b71b00
    8148:	8000206c 	.word	0x8000206c
    814c:	8001307f 	.word	0x8001307f
    8150:	80002000 	.word	0x80002000

00008154 <pwm_init>:
    8154:	49e1      	ldr	r1, [pc, #900]	; (84dc <pwm_init+0x388>)
    8156:	2300      	movs	r3, #0
    8158:	48e1      	ldr	r0, [pc, #900]	; (84e0 <pwm_init+0x38c>)
    815a:	f04f 0c0f 	mov.w	ip, #15
    815e:	4ae1      	ldr	r2, [pc, #900]	; (84e4 <pwm_init+0x390>)
    8160:	b530      	push	{r4, r5, lr}
    8162:	6f8c      	ldr	r4, [r1, #120]	; 0x78
    8164:	f44f 4570 	mov.w	r5, #61440	; 0xf000
    8168:	f44f 4e60 	mov.w	lr, #57344	; 0xe000
    816c:	f444 047f 	orr.w	r4, r4, #16711680	; 0xff0000
    8170:	678c      	str	r4, [r1, #120]	; 0x78
    8172:	f8d1 4080 	ldr.w	r4, [r1, #128]	; 0x80
    8176:	4320      	orrs	r0, r4
    8178:	f8c1 0080 	str.w	r0, [r1, #128]	; 0x80
    817c:	f44f 6080 	mov.w	r0, #1024	; 0x400
    8180:	f8a2 518c 	strh.w	r5, [r2, #396]	; 0x18c
    8184:	f8a2 c18e 	strh.w	ip, [r2, #398]	; 0x18e
    8188:	f8a2 3190 	strh.w	r3, [r2, #400]	; 0x190
    818c:	f8b2 1188 	ldrh.w	r1, [r2, #392]	; 0x188
    8190:	b289      	uxth	r1, r1
    8192:	f041 01f0 	orr.w	r1, r1, #240	; 0xf0
    8196:	f8a2 1188 	strh.w	r1, [r2, #392]	; 0x188
    819a:	f248 21b8 	movw	r1, #33464	; 0x82b8
    819e:	f8a2 e004 	strh.w	lr, [r2, #4]
    81a2:	80d0      	strh	r0, [r2, #6]
    81a4:	8453      	strh	r3, [r2, #34]	; 0x22
    81a6:	8613      	strh	r3, [r2, #48]	; 0x30
    81a8:	8053      	strh	r3, [r2, #2]
    81aa:	8153      	strh	r3, [r2, #10]
    81ac:	81d1      	strh	r1, [r2, #14]
    81ae:	8253      	strh	r3, [r2, #18]
    81b0:	82d3      	strh	r3, [r2, #22]
    81b2:	8353      	strh	r3, [r2, #26]
    81b4:	83d3      	strh	r3, [r2, #30]
    81b6:	f8a2 e064 	strh.w	lr, [r2, #100]	; 0x64
    81ba:	f8a2 0066 	strh.w	r0, [r2, #102]	; 0x66
    81be:	f8a2 3082 	strh.w	r3, [r2, #130]	; 0x82
    81c2:	f8a2 3090 	strh.w	r3, [r2, #144]	; 0x90
    81c6:	f8a2 3062 	strh.w	r3, [r2, #98]	; 0x62
    81ca:	f8a2 306a 	strh.w	r3, [r2, #106]	; 0x6a
    81ce:	f8a2 106e 	strh.w	r1, [r2, #110]	; 0x6e
    81d2:	f8a2 3072 	strh.w	r3, [r2, #114]	; 0x72
    81d6:	f8a2 3076 	strh.w	r3, [r2, #118]	; 0x76
    81da:	f8a2 307a 	strh.w	r3, [r2, #122]	; 0x7a
    81de:	f8a2 307e 	strh.w	r3, [r2, #126]	; 0x7e
    81e2:	f8a2 e0c4 	strh.w	lr, [r2, #196]	; 0xc4
    81e6:	f8a2 00c6 	strh.w	r0, [r2, #198]	; 0xc6
    81ea:	f8a2 30e2 	strh.w	r3, [r2, #226]	; 0xe2
    81ee:	f8a2 30f0 	strh.w	r3, [r2, #240]	; 0xf0
    81f2:	f8a2 30c2 	strh.w	r3, [r2, #194]	; 0xc2
    81f6:	f8a2 30ca 	strh.w	r3, [r2, #202]	; 0xca
    81fa:	f8a2 10ce 	strh.w	r1, [r2, #206]	; 0xce
    81fe:	f8a2 30d2 	strh.w	r3, [r2, #210]	; 0xd2
    8202:	f8a2 30d6 	strh.w	r3, [r2, #214]	; 0xd6
    8206:	f8a2 30da 	strh.w	r3, [r2, #218]	; 0xda
    820a:	f8a2 30de 	strh.w	r3, [r2, #222]	; 0xde
    820e:	f8a2 e124 	strh.w	lr, [r2, #292]	; 0x124
    8212:	f8a2 0126 	strh.w	r0, [r2, #294]	; 0x126
    8216:	f8a2 3142 	strh.w	r3, [r2, #322]	; 0x142
    821a:	f8a2 3150 	strh.w	r3, [r2, #336]	; 0x150
    821e:	f8a2 3122 	strh.w	r3, [r2, #290]	; 0x122
    8222:	f8a2 312a 	strh.w	r3, [r2, #298]	; 0x12a
    8226:	f8a2 112e 	strh.w	r1, [r2, #302]	; 0x12e
    822a:	f8a2 3132 	strh.w	r3, [r2, #306]	; 0x132
    822e:	f8a2 3136 	strh.w	r3, [r2, #310]	; 0x136
    8232:	f8a2 313a 	strh.w	r3, [r2, #314]	; 0x13a
    8236:	f8a2 313e 	strh.w	r3, [r2, #318]	; 0x13e
    823a:	f8b2 4188 	ldrh.w	r4, [r2, #392]	; 0x188
    823e:	b2a4      	uxth	r4, r4
    8240:	ea44 040c 	orr.w	r4, r4, ip
    8244:	f8a2 4188 	strh.w	r4, [r2, #392]	; 0x188
    8248:	f8b2 4188 	ldrh.w	r4, [r2, #392]	; 0x188
    824c:	b2a4      	uxth	r4, r4
    824e:	f444 6470 	orr.w	r4, r4, #3840	; 0xf00
    8252:	f8a2 4188 	strh.w	r4, [r2, #392]	; 0x188
    8256:	f502 4280 	add.w	r2, r2, #16384	; 0x4000
    825a:	f8a2 518c 	strh.w	r5, [r2, #396]	; 0x18c
    825e:	f8a2 c18e 	strh.w	ip, [r2, #398]	; 0x18e
    8262:	f8a2 3190 	strh.w	r3, [r2, #400]	; 0x190
    8266:	f8b2 4188 	ldrh.w	r4, [r2, #392]	; 0x188
    826a:	b2a4      	uxth	r4, r4
    826c:	f044 04f0 	orr.w	r4, r4, #240	; 0xf0
    8270:	f8a2 4188 	strh.w	r4, [r2, #392]	; 0x188
    8274:	f8a2 e004 	strh.w	lr, [r2, #4]
    8278:	80d0      	strh	r0, [r2, #6]
    827a:	8453      	strh	r3, [r2, #34]	; 0x22
    827c:	8613      	strh	r3, [r2, #48]	; 0x30
    827e:	8053      	strh	r3, [r2, #2]
    8280:	8153      	strh	r3, [r2, #10]
    8282:	81d1      	strh	r1, [r2, #14]
    8284:	8253      	strh	r3, [r2, #18]
    8286:	82d3      	strh	r3, [r2, #22]
    8288:	8353      	strh	r3, [r2, #26]
    828a:	83d3      	strh	r3, [r2, #30]
    828c:	f8a2 e064 	strh.w	lr, [r2, #100]	; 0x64
    8290:	f8a2 0066 	strh.w	r0, [r2, #102]	; 0x66
    8294:	f8a2 3082 	strh.w	r3, [r2, #130]	; 0x82
    8298:	f8a2 3090 	strh.w	r3, [r2, #144]	; 0x90
    829c:	f8a2 3062 	strh.w	r3, [r2, #98]	; 0x62
    82a0:	f8a2 306a 	strh.w	r3, [r2, #106]	; 0x6a
    82a4:	f8a2 106e 	strh.w	r1, [r2, #110]	; 0x6e
    82a8:	f8a2 3072 	strh.w	r3, [r2, #114]	; 0x72
    82ac:	f8a2 3076 	strh.w	r3, [r2, #118]	; 0x76
    82b0:	f8a2 307a 	strh.w	r3, [r2, #122]	; 0x7a
    82b4:	f8a2 307e 	strh.w	r3, [r2, #126]	; 0x7e
    82b8:	f8a2 e0c4 	strh.w	lr, [r2, #196]	; 0xc4
    82bc:	f8a2 00c6 	strh.w	r0, [r2, #198]	; 0xc6
    82c0:	f8a2 30e2 	strh.w	r3, [r2, #226]	; 0xe2
    82c4:	f8a2 30f0 	strh.w	r3, [r2, #240]	; 0xf0
    82c8:	f8a2 30c2 	strh.w	r3, [r2, #194]	; 0xc2
    82cc:	f8a2 30ca 	strh.w	r3, [r2, #202]	; 0xca
    82d0:	f8a2 10ce 	strh.w	r1, [r2, #206]	; 0xce
    82d4:	f8a2 30d2 	strh.w	r3, [r2, #210]	; 0xd2
    82d8:	f8a2 30d6 	strh.w	r3, [r2, #214]	; 0xd6
    82dc:	f8a2 30da 	strh.w	r3, [r2, #218]	; 0xda
    82e0:	f8a2 30de 	strh.w	r3, [r2, #222]	; 0xde
    82e4:	f8a2 e124 	strh.w	lr, [r2, #292]	; 0x124
    82e8:	f8a2 0126 	strh.w	r0, [r2, #294]	; 0x126
    82ec:	f8a2 3142 	strh.w	r3, [r2, #322]	; 0x142
    82f0:	f8a2 3150 	strh.w	r3, [r2, #336]	; 0x150
    82f4:	f8a2 3122 	strh.w	r3, [r2, #290]	; 0x122
    82f8:	f8a2 312a 	strh.w	r3, [r2, #298]	; 0x12a
    82fc:	f8a2 112e 	strh.w	r1, [r2, #302]	; 0x12e
    8300:	f8a2 3132 	strh.w	r3, [r2, #306]	; 0x132
    8304:	f8a2 3136 	strh.w	r3, [r2, #310]	; 0x136
    8308:	f8a2 313a 	strh.w	r3, [r2, #314]	; 0x13a
    830c:	f8a2 313e 	strh.w	r3, [r2, #318]	; 0x13e
    8310:	f8b2 4188 	ldrh.w	r4, [r2, #392]	; 0x188
    8314:	b2a4      	uxth	r4, r4
    8316:	ea44 040c 	orr.w	r4, r4, ip
    831a:	f8a2 4188 	strh.w	r4, [r2, #392]	; 0x188
    831e:	f8b2 4188 	ldrh.w	r4, [r2, #392]	; 0x188
    8322:	b2a4      	uxth	r4, r4
    8324:	f444 6470 	orr.w	r4, r4, #3840	; 0xf00
    8328:	f8a2 4188 	strh.w	r4, [r2, #392]	; 0x188
    832c:	f502 4280 	add.w	r2, r2, #16384	; 0x4000
    8330:	f8a2 518c 	strh.w	r5, [r2, #396]	; 0x18c
    8334:	f8a2 c18e 	strh.w	ip, [r2, #398]	; 0x18e
    8338:	f8a2 3190 	strh.w	r3, [r2, #400]	; 0x190
    833c:	f8b2 4188 	ldrh.w	r4, [r2, #392]	; 0x188
    8340:	b2a4      	uxth	r4, r4
    8342:	f044 04f0 	orr.w	r4, r4, #240	; 0xf0
    8346:	f8a2 4188 	strh.w	r4, [r2, #392]	; 0x188
    834a:	f8a2 e004 	strh.w	lr, [r2, #4]
    834e:	80d0      	strh	r0, [r2, #6]
    8350:	8453      	strh	r3, [r2, #34]	; 0x22
    8352:	8613      	strh	r3, [r2, #48]	; 0x30
    8354:	8053      	strh	r3, [r2, #2]
    8356:	8153      	strh	r3, [r2, #10]
    8358:	81d1      	strh	r1, [r2, #14]
    835a:	8253      	strh	r3, [r2, #18]
    835c:	82d3      	strh	r3, [r2, #22]
    835e:	8353      	strh	r3, [r2, #26]
    8360:	83d3      	strh	r3, [r2, #30]
    8362:	f8a2 e064 	strh.w	lr, [r2, #100]	; 0x64
    8366:	f8a2 0066 	strh.w	r0, [r2, #102]	; 0x66
    836a:	f8a2 3082 	strh.w	r3, [r2, #130]	; 0x82
    836e:	f8a2 3090 	strh.w	r3, [r2, #144]	; 0x90
    8372:	f8a2 3062 	strh.w	r3, [r2, #98]	; 0x62
    8376:	f8a2 306a 	strh.w	r3, [r2, #106]	; 0x6a
    837a:	f8a2 106e 	strh.w	r1, [r2, #110]	; 0x6e
    837e:	f8a2 3072 	strh.w	r3, [r2, #114]	; 0x72
    8382:	f8a2 3076 	strh.w	r3, [r2, #118]	; 0x76
    8386:	f8a2 307a 	strh.w	r3, [r2, #122]	; 0x7a
    838a:	f8a2 307e 	strh.w	r3, [r2, #126]	; 0x7e
    838e:	f8a2 e0c4 	strh.w	lr, [r2, #196]	; 0xc4
    8392:	f8a2 00c6 	strh.w	r0, [r2, #198]	; 0xc6
    8396:	f8a2 30e2 	strh.w	r3, [r2, #226]	; 0xe2
    839a:	f8a2 30f0 	strh.w	r3, [r2, #240]	; 0xf0
    839e:	f8a2 30c2 	strh.w	r3, [r2, #194]	; 0xc2
    83a2:	f8a2 30ca 	strh.w	r3, [r2, #202]	; 0xca
    83a6:	f8a2 10ce 	strh.w	r1, [r2, #206]	; 0xce
    83aa:	f8a2 30d2 	strh.w	r3, [r2, #210]	; 0xd2
    83ae:	f8a2 30d6 	strh.w	r3, [r2, #214]	; 0xd6
    83b2:	f8a2 30da 	strh.w	r3, [r2, #218]	; 0xda
    83b6:	f8a2 30de 	strh.w	r3, [r2, #222]	; 0xde
    83ba:	f8a2 e124 	strh.w	lr, [r2, #292]	; 0x124
    83be:	f8a2 0126 	strh.w	r0, [r2, #294]	; 0x126
    83c2:	f8a2 3142 	strh.w	r3, [r2, #322]	; 0x142
    83c6:	f8a2 3150 	strh.w	r3, [r2, #336]	; 0x150
    83ca:	f8a2 3122 	strh.w	r3, [r2, #290]	; 0x122
    83ce:	f8a2 312a 	strh.w	r3, [r2, #298]	; 0x12a
    83d2:	f8a2 112e 	strh.w	r1, [r2, #302]	; 0x12e
    83d6:	f8a2 3132 	strh.w	r3, [r2, #306]	; 0x132
    83da:	f8a2 3136 	strh.w	r3, [r2, #310]	; 0x136
    83de:	f8a2 313a 	strh.w	r3, [r2, #314]	; 0x13a
    83e2:	f8a2 313e 	strh.w	r3, [r2, #318]	; 0x13e
    83e6:	f8b2 4188 	ldrh.w	r4, [r2, #392]	; 0x188
    83ea:	b2a4      	uxth	r4, r4
    83ec:	ea44 040c 	orr.w	r4, r4, ip
    83f0:	f8a2 4188 	strh.w	r4, [r2, #392]	; 0x188
    83f4:	f8b2 4188 	ldrh.w	r4, [r2, #392]	; 0x188
    83f8:	b2a4      	uxth	r4, r4
    83fa:	f444 6470 	orr.w	r4, r4, #3840	; 0xf00
    83fe:	f8a2 4188 	strh.w	r4, [r2, #392]	; 0x188
    8402:	f502 4280 	add.w	r2, r2, #16384	; 0x4000
    8406:	f8a2 518c 	strh.w	r5, [r2, #396]	; 0x18c
    840a:	f241 0501 	movw	r5, #4097	; 0x1001
    840e:	f8a2 c18e 	strh.w	ip, [r2, #398]	; 0x18e
    8412:	f8a2 3190 	strh.w	r3, [r2, #400]	; 0x190
    8416:	f8b2 4188 	ldrh.w	r4, [r2, #392]	; 0x188
    841a:	b2a4      	uxth	r4, r4
    841c:	f044 04f0 	orr.w	r4, r4, #240	; 0xf0
    8420:	f8a2 4188 	strh.w	r4, [r2, #392]	; 0x188
    8424:	f645 54c0 	movw	r4, #24000	; 0x5dc0
    8428:	f8a2 e004 	strh.w	lr, [r2, #4]
    842c:	80d0      	strh	r0, [r2, #6]
    842e:	8453      	strh	r3, [r2, #34]	; 0x22
    8430:	8613      	strh	r3, [r2, #48]	; 0x30
    8432:	8053      	strh	r3, [r2, #2]
    8434:	8153      	strh	r3, [r2, #10]
    8436:	81d1      	strh	r1, [r2, #14]
    8438:	8253      	strh	r3, [r2, #18]
    843a:	82d3      	strh	r3, [r2, #22]
    843c:	8353      	strh	r3, [r2, #26]
    843e:	83d3      	strh	r3, [r2, #30]
    8440:	f8a2 e064 	strh.w	lr, [r2, #100]	; 0x64
    8444:	f8a2 0066 	strh.w	r0, [r2, #102]	; 0x66
    8448:	f8a2 3082 	strh.w	r3, [r2, #130]	; 0x82
    844c:	f8a2 3090 	strh.w	r3, [r2, #144]	; 0x90
    8450:	f8a2 3062 	strh.w	r3, [r2, #98]	; 0x62
    8454:	f8a2 306a 	strh.w	r3, [r2, #106]	; 0x6a
    8458:	f8a2 106e 	strh.w	r1, [r2, #110]	; 0x6e
    845c:	f8a2 3072 	strh.w	r3, [r2, #114]	; 0x72
    8460:	f8a2 3076 	strh.w	r3, [r2, #118]	; 0x76
    8464:	f8a2 307a 	strh.w	r3, [r2, #122]	; 0x7a
    8468:	f8a2 307e 	strh.w	r3, [r2, #126]	; 0x7e
    846c:	f8a2 e0c4 	strh.w	lr, [r2, #196]	; 0xc4
    8470:	f8a2 00c6 	strh.w	r0, [r2, #198]	; 0xc6
    8474:	f8a2 30e2 	strh.w	r3, [r2, #226]	; 0xe2
    8478:	f8a2 30f0 	strh.w	r3, [r2, #240]	; 0xf0
    847c:	f8a2 30c2 	strh.w	r3, [r2, #194]	; 0xc2
    8480:	f8a2 30ca 	strh.w	r3, [r2, #202]	; 0xca
    8484:	f8a2 10ce 	strh.w	r1, [r2, #206]	; 0xce
    8488:	f8a2 30d2 	strh.w	r3, [r2, #210]	; 0xd2
    848c:	f8a2 30d6 	strh.w	r3, [r2, #214]	; 0xd6
    8490:	f8a2 30da 	strh.w	r3, [r2, #218]	; 0xda
    8494:	f8a2 30de 	strh.w	r3, [r2, #222]	; 0xde
    8498:	f8a2 e124 	strh.w	lr, [r2, #292]	; 0x124
    849c:	f243 0e26 	movw	lr, #12326	; 0x3026
    84a0:	f8a2 0126 	strh.w	r0, [r2, #294]	; 0x126
    84a4:	f8a2 3142 	strh.w	r3, [r2, #322]	; 0x142
    84a8:	f8a2 3150 	strh.w	r3, [r2, #336]	; 0x150
    84ac:	f8a2 3122 	strh.w	r3, [r2, #290]	; 0x122
    84b0:	f8a2 312a 	strh.w	r3, [r2, #298]	; 0x12a
    84b4:	f8a2 112e 	strh.w	r1, [r2, #302]	; 0x12e
    84b8:	f8a2 3132 	strh.w	r3, [r2, #306]	; 0x132
    84bc:	f8a2 3136 	strh.w	r3, [r2, #310]	; 0x136
    84c0:	f8a2 313a 	strh.w	r3, [r2, #314]	; 0x13a
    84c4:	f8a2 313e 	strh.w	r3, [r2, #318]	; 0x13e
    84c8:	f8b2 1188 	ldrh.w	r1, [r2, #392]	; 0x188
    84cc:	4806      	ldr	r0, [pc, #24]	; (84e8 <pwm_init+0x394>)
    84ce:	b289      	uxth	r1, r1
    84d0:	ea41 010c 	orr.w	r1, r1, ip
    84d4:	f8a2 1188 	strh.w	r1, [r2, #392]	; 0x188
    84d8:	e008      	b.n	84ec <pwm_init+0x398>
    84da:	bf00      	nop
    84dc:	400fc000 	.word	0x400fc000
    84e0:	fc030000 	.word	0xfc030000
    84e4:	403dc000 	.word	0x403dc000
    84e8:	401dc000 	.word	0x401dc000
    84ec:	f8b2 1188 	ldrh.w	r1, [r2, #392]	; 0x188
    84f0:	b289      	uxth	r1, r1
    84f2:	f441 6170 	orr.w	r1, r1, #3840	; 0xf00
    84f6:	f8a2 1188 	strh.w	r1, [r2, #392]	; 0x188
    84fa:	f5a2 1201 	sub.w	r2, r2, #2113536	; 0x204000
    84fe:	494f      	ldr	r1, [pc, #316]	; (863c <pwm_init+0x4e8>)
    8500:	8183      	strh	r3, [r0, #12]
    8502:	8143      	strh	r3, [r0, #10]
    8504:	f8a0 c00e 	strh.w	ip, [r0, #14]
    8508:	8285      	strh	r5, [r0, #20]
    850a:	80c4      	strh	r4, [r0, #6]
    850c:	8003      	strh	r3, [r0, #0]
    850e:	8203      	strh	r3, [r0, #16]
    8510:	f8a0 e00c 	strh.w	lr, [r0, #12]
    8514:	8583      	strh	r3, [r0, #44]	; 0x2c
    8516:	8543      	strh	r3, [r0, #42]	; 0x2a
    8518:	f8a0 c02e 	strh.w	ip, [r0, #46]	; 0x2e
    851c:	8685      	strh	r5, [r0, #52]	; 0x34
    851e:	84c4      	strh	r4, [r0, #38]	; 0x26
    8520:	8403      	strh	r3, [r0, #32]
    8522:	8603      	strh	r3, [r0, #48]	; 0x30
    8524:	f8a0 e02c 	strh.w	lr, [r0, #44]	; 0x2c
    8528:	f8a0 304c 	strh.w	r3, [r0, #76]	; 0x4c
    852c:	f8a0 304a 	strh.w	r3, [r0, #74]	; 0x4a
    8530:	f8a0 c04e 	strh.w	ip, [r0, #78]	; 0x4e
    8534:	f8a0 5054 	strh.w	r5, [r0, #84]	; 0x54
    8538:	f8a0 4046 	strh.w	r4, [r0, #70]	; 0x46
    853c:	f8a0 3040 	strh.w	r3, [r0, #64]	; 0x40
    8540:	f8a0 3050 	strh.w	r3, [r0, #80]	; 0x50
    8544:	f8a0 e04c 	strh.w	lr, [r0, #76]	; 0x4c
    8548:	f8a0 306c 	strh.w	r3, [r0, #108]	; 0x6c
    854c:	f8a0 306a 	strh.w	r3, [r0, #106]	; 0x6a
    8550:	f8a0 c06e 	strh.w	ip, [r0, #110]	; 0x6e
    8554:	f8a0 5074 	strh.w	r5, [r0, #116]	; 0x74
    8558:	f8a0 4066 	strh.w	r4, [r0, #102]	; 0x66
    855c:	f8a0 3060 	strh.w	r3, [r0, #96]	; 0x60
    8560:	f8a0 3070 	strh.w	r3, [r0, #112]	; 0x70
    8564:	f8a0 e06c 	strh.w	lr, [r0, #108]	; 0x6c
    8568:	818b      	strh	r3, [r1, #12]
    856a:	814b      	strh	r3, [r1, #10]
    856c:	f8a1 c00e 	strh.w	ip, [r1, #14]
    8570:	828d      	strh	r5, [r1, #20]
    8572:	80cc      	strh	r4, [r1, #6]
    8574:	800b      	strh	r3, [r1, #0]
    8576:	820b      	strh	r3, [r1, #16]
    8578:	f8a1 e00c 	strh.w	lr, [r1, #12]
    857c:	858b      	strh	r3, [r1, #44]	; 0x2c
    857e:	854b      	strh	r3, [r1, #42]	; 0x2a
    8580:	f8a1 c02e 	strh.w	ip, [r1, #46]	; 0x2e
    8584:	868d      	strh	r5, [r1, #52]	; 0x34
    8586:	84cc      	strh	r4, [r1, #38]	; 0x26
    8588:	840b      	strh	r3, [r1, #32]
    858a:	860b      	strh	r3, [r1, #48]	; 0x30
    858c:	f8a1 e02c 	strh.w	lr, [r1, #44]	; 0x2c
    8590:	f8a1 304c 	strh.w	r3, [r1, #76]	; 0x4c
    8594:	f8a1 304a 	strh.w	r3, [r1, #74]	; 0x4a
    8598:	f8a1 c04e 	strh.w	ip, [r1, #78]	; 0x4e
    859c:	f8a1 5054 	strh.w	r5, [r1, #84]	; 0x54
    85a0:	f8a1 4046 	strh.w	r4, [r1, #70]	; 0x46
    85a4:	f8a1 3040 	strh.w	r3, [r1, #64]	; 0x40
    85a8:	f8a1 3050 	strh.w	r3, [r1, #80]	; 0x50
    85ac:	f8a1 e04c 	strh.w	lr, [r1, #76]	; 0x4c
    85b0:	f8a1 306c 	strh.w	r3, [r1, #108]	; 0x6c
    85b4:	f8a1 306a 	strh.w	r3, [r1, #106]	; 0x6a
    85b8:	f8a1 c06e 	strh.w	ip, [r1, #110]	; 0x6e
    85bc:	f8a1 5074 	strh.w	r5, [r1, #116]	; 0x74
    85c0:	f8a1 4066 	strh.w	r4, [r1, #102]	; 0x66
    85c4:	f8a1 3060 	strh.w	r3, [r1, #96]	; 0x60
    85c8:	f8a1 3070 	strh.w	r3, [r1, #112]	; 0x70
    85cc:	f8a1 e06c 	strh.w	lr, [r1, #108]	; 0x6c
    85d0:	8193      	strh	r3, [r2, #12]
    85d2:	8153      	strh	r3, [r2, #10]
    85d4:	f8a2 c00e 	strh.w	ip, [r2, #14]
    85d8:	8295      	strh	r5, [r2, #20]
    85da:	80d4      	strh	r4, [r2, #6]
    85dc:	8013      	strh	r3, [r2, #0]
    85de:	8213      	strh	r3, [r2, #16]
    85e0:	f8a2 e00c 	strh.w	lr, [r2, #12]
    85e4:	8593      	strh	r3, [r2, #44]	; 0x2c
    85e6:	8553      	strh	r3, [r2, #42]	; 0x2a
    85e8:	f8a2 c02e 	strh.w	ip, [r2, #46]	; 0x2e
    85ec:	8695      	strh	r5, [r2, #52]	; 0x34
    85ee:	84d4      	strh	r4, [r2, #38]	; 0x26
    85f0:	8413      	strh	r3, [r2, #32]
    85f2:	8613      	strh	r3, [r2, #48]	; 0x30
    85f4:	f8a2 e02c 	strh.w	lr, [r2, #44]	; 0x2c
    85f8:	f8a2 304c 	strh.w	r3, [r2, #76]	; 0x4c
    85fc:	f8a2 304a 	strh.w	r3, [r2, #74]	; 0x4a
    8600:	f8a2 c04e 	strh.w	ip, [r2, #78]	; 0x4e
    8604:	f8a2 5054 	strh.w	r5, [r2, #84]	; 0x54
    8608:	f8a2 4046 	strh.w	r4, [r2, #70]	; 0x46
    860c:	f8a2 3040 	strh.w	r3, [r2, #64]	; 0x40
    8610:	f8a2 3050 	strh.w	r3, [r2, #80]	; 0x50
    8614:	f8a2 e04c 	strh.w	lr, [r2, #76]	; 0x4c
    8618:	f8a2 306c 	strh.w	r3, [r2, #108]	; 0x6c
    861c:	f8a2 306a 	strh.w	r3, [r2, #106]	; 0x6a
    8620:	f8a2 c06e 	strh.w	ip, [r2, #110]	; 0x6e
    8624:	f8a2 5074 	strh.w	r5, [r2, #116]	; 0x74
    8628:	f8a2 4066 	strh.w	r4, [r2, #102]	; 0x66
    862c:	f8a2 3060 	strh.w	r3, [r2, #96]	; 0x60
    8630:	f8a2 3070 	strh.w	r3, [r2, #112]	; 0x70
    8634:	f8a2 e06c 	strh.w	lr, [r2, #108]	; 0x6c
    8638:	bd30      	pop	{r4, r5, pc}
    863a:	bf00      	nop
    863c:	401e0000 	.word	0x401e0000

00008640 <rtc_get>:
    8640:	4a07      	ldr	r2, [pc, #28]	; (8660 <rtc_get+0x20>)
    8642:	6a50      	ldr	r0, [r2, #36]	; 0x24
    8644:	6a93      	ldr	r3, [r2, #40]	; 0x28
    8646:	4619      	mov	r1, r3
    8648:	4684      	mov	ip, r0
    864a:	6a50      	ldr	r0, [r2, #36]	; 0x24
    864c:	6a93      	ldr	r3, [r2, #40]	; 0x28
    864e:	4299      	cmp	r1, r3
    8650:	d1f9      	bne.n	8646 <rtc_get+0x6>
    8652:	4584      	cmp	ip, r0
    8654:	d1f7      	bne.n	8646 <rtc_get+0x6>
    8656:	0bdb      	lsrs	r3, r3, #15
    8658:	ea43 4040 	orr.w	r0, r3, r0, lsl #17
    865c:	4770      	bx	lr
    865e:	bf00      	nop
    8660:	400d4000 	.word	0x400d4000

00008664 <sm_set_pool>:
    8664:	b570      	push	{r4, r5, r6, lr}
    8666:	4604      	mov	r4, r0
    8668:	b348      	cbz	r0, 86be <sm_set_pool+0x5a>
    866a:	460d      	mov	r5, r1
    866c:	b119      	cbz	r1, 8676 <sm_set_pool+0x12>
    866e:	fab2 f682 	clz	r6, r2
    8672:	0976      	lsrs	r6, r6, #5
    8674:	b99a      	cbnz	r2, 869e <sm_set_pool+0x3a>
    8676:	6820      	ldr	r0, [r4, #0]
    8678:	b308      	cbz	r0, 86be <sm_set_pool+0x5a>
    867a:	6862      	ldr	r2, [r4, #4]
    867c:	b1fa      	cbz	r2, 86be <sm_set_pool+0x5a>
    867e:	4b1e      	ldr	r3, [pc, #120]	; (86f8 <sm_set_pool+0x94>)
    8680:	491e      	ldr	r1, [pc, #120]	; (86fc <sm_set_pool+0x98>)
    8682:	fb02 f303 	mul.w	r3, r2, r3
    8686:	ebb1 0fb3 	cmp.w	r1, r3, ror #2
    868a:	d318      	bcc.n	86be <sm_set_pool+0x5a>
    868c:	68a3      	ldr	r3, [r4, #8]
    868e:	bb43      	cbnz	r3, 86e2 <sm_set_pool+0x7e>
    8690:	2300      	movs	r3, #0
    8692:	2001      	movs	r0, #1
    8694:	6023      	str	r3, [r4, #0]
    8696:	6063      	str	r3, [r4, #4]
    8698:	60a3      	str	r3, [r4, #8]
    869a:	60e3      	str	r3, [r4, #12]
    869c:	bd70      	pop	{r4, r5, r6, pc}
    869e:	e9c0 1200 	strd	r1, r2, [r0]
    86a2:	9904      	ldr	r1, [sp, #16]
    86a4:	60c1      	str	r1, [r0, #12]
    86a6:	4914      	ldr	r1, [pc, #80]	; (86f8 <sm_set_pool+0x94>)
    86a8:	fba1 0102 	umull	r0, r1, r1, r2
    86ac:	08c9      	lsrs	r1, r1, #3
    86ae:	eb01 0141 	add.w	r1, r1, r1, lsl #1
    86b2:	ebb2 0181 	subs.w	r1, r2, r1, lsl #2
    86b6:	d109      	bne.n	86cc <sm_set_pool+0x68>
    86b8:	b9bb      	cbnz	r3, 86ea <sm_set_pool+0x86>
    86ba:	2001      	movs	r0, #1
    86bc:	bd70      	pop	{r4, r5, r6, pc}
    86be:	f000 ffa1 	bl	9604 <__errno>
    86c2:	2216      	movs	r2, #22
    86c4:	4603      	mov	r3, r0
    86c6:	2000      	movs	r0, #0
    86c8:	601a      	str	r2, [r3, #0]
    86ca:	bd70      	pop	{r4, r5, r6, pc}
    86cc:	1a52      	subs	r2, r2, r1
    86ce:	2af0      	cmp	r2, #240	; 0xf0
    86d0:	6062      	str	r2, [r4, #4]
    86d2:	d8f1      	bhi.n	86b8 <sm_set_pool+0x54>
    86d4:	f000 ff96 	bl	9604 <__errno>
    86d8:	221c      	movs	r2, #28
    86da:	4603      	mov	r3, r0
    86dc:	4630      	mov	r0, r6
    86de:	601a      	str	r2, [r3, #0]
    86e0:	bd70      	pop	{r4, r5, r6, pc}
    86e2:	2100      	movs	r1, #0
    86e4:	f000 fe9e 	bl	9424 <memset>
    86e8:	e7d2      	b.n	8690 <sm_set_pool+0x2c>
    86ea:	2100      	movs	r1, #0
    86ec:	4628      	mov	r0, r5
    86ee:	60a3      	str	r3, [r4, #8]
    86f0:	f000 fe98 	bl	9424 <memset>
    86f4:	2001      	movs	r0, #1
    86f6:	bd70      	pop	{r4, r5, r6, pc}
    86f8:	aaaaaaab 	.word	0xaaaaaaab
    86fc:	15555555 	.word	0x15555555

00008700 <_malloc_r>:
    8700:	e92d 4ff0 	stmdb	sp!, {r4, r5, r6, r7, r8, r9, sl, fp, lr}
    8704:	f101 060b 	add.w	r6, r1, #11
    8708:	2e16      	cmp	r6, #22
    870a:	b083      	sub	sp, #12
    870c:	4604      	mov	r4, r0
    870e:	d824      	bhi.n	875a <_malloc_r+0x5a>
    8710:	2910      	cmp	r1, #16
    8712:	f200 80ba 	bhi.w	888a <_malloc_r+0x18a>
    8716:	f000 faa3 	bl	8c60 <__malloc_lock>
    871a:	2610      	movs	r6, #16
    871c:	2218      	movs	r2, #24
    871e:	2002      	movs	r0, #2
    8720:	4fb5      	ldr	r7, [pc, #724]	; (89f8 <_malloc_r+0x2f8>)
    8722:	443a      	add	r2, r7
    8724:	f1a2 0108 	sub.w	r1, r2, #8
    8728:	6853      	ldr	r3, [r2, #4]
    872a:	428b      	cmp	r3, r1
    872c:	f000 80ba 	beq.w	88a4 <_malloc_r+0x1a4>
    8730:	685a      	ldr	r2, [r3, #4]
    8732:	68d9      	ldr	r1, [r3, #12]
    8734:	f022 0203 	bic.w	r2, r2, #3
    8738:	441a      	add	r2, r3
    873a:	689d      	ldr	r5, [r3, #8]
    873c:	60e9      	str	r1, [r5, #12]
    873e:	608d      	str	r5, [r1, #8]
    8740:	6851      	ldr	r1, [r2, #4]
    8742:	f041 0101 	orr.w	r1, r1, #1
    8746:	4620      	mov	r0, r4
    8748:	6051      	str	r1, [r2, #4]
    874a:	f103 0508 	add.w	r5, r3, #8
    874e:	f000 fa8d 	bl	8c6c <__malloc_unlock>
    8752:	4628      	mov	r0, r5
    8754:	b003      	add	sp, #12
    8756:	e8bd 8ff0 	ldmia.w	sp!, {r4, r5, r6, r7, r8, r9, sl, fp, pc}
    875a:	f036 0607 	bics.w	r6, r6, #7
    875e:	f100 8094 	bmi.w	888a <_malloc_r+0x18a>
    8762:	42b1      	cmp	r1, r6
    8764:	f200 8091 	bhi.w	888a <_malloc_r+0x18a>
    8768:	f000 fa7a 	bl	8c60 <__malloc_lock>
    876c:	f5b6 7ffc 	cmp.w	r6, #504	; 0x1f8
    8770:	f0c0 819a 	bcc.w	8aa8 <_malloc_r+0x3a8>
    8774:	0a73      	lsrs	r3, r6, #9
    8776:	f000 808f 	beq.w	8898 <_malloc_r+0x198>
    877a:	2b04      	cmp	r3, #4
    877c:	f200 816f 	bhi.w	8a5e <_malloc_r+0x35e>
    8780:	09b3      	lsrs	r3, r6, #6
    8782:	f103 0039 	add.w	r0, r3, #57	; 0x39
    8786:	f103 0c38 	add.w	ip, r3, #56	; 0x38
    878a:	00c3      	lsls	r3, r0, #3
    878c:	4f9a      	ldr	r7, [pc, #616]	; (89f8 <_malloc_r+0x2f8>)
    878e:	443b      	add	r3, r7
    8790:	f1a3 0508 	sub.w	r5, r3, #8
    8794:	685b      	ldr	r3, [r3, #4]
    8796:	429d      	cmp	r5, r3
    8798:	d106      	bne.n	87a8 <_malloc_r+0xa8>
    879a:	e00c      	b.n	87b6 <_malloc_r+0xb6>
    879c:	2900      	cmp	r1, #0
    879e:	f280 8127 	bge.w	89f0 <_malloc_r+0x2f0>
    87a2:	68db      	ldr	r3, [r3, #12]
    87a4:	429d      	cmp	r5, r3
    87a6:	d006      	beq.n	87b6 <_malloc_r+0xb6>
    87a8:	685a      	ldr	r2, [r3, #4]
    87aa:	f022 0203 	bic.w	r2, r2, #3
    87ae:	1b91      	subs	r1, r2, r6
    87b0:	290f      	cmp	r1, #15
    87b2:	ddf3      	ble.n	879c <_malloc_r+0x9c>
    87b4:	4660      	mov	r0, ip
    87b6:	693d      	ldr	r5, [r7, #16]
    87b8:	f8df c250 	ldr.w	ip, [pc, #592]	; 8a0c <_malloc_r+0x30c>
    87bc:	4565      	cmp	r5, ip
    87be:	d07c      	beq.n	88ba <_malloc_r+0x1ba>
    87c0:	686a      	ldr	r2, [r5, #4]
    87c2:	f022 0203 	bic.w	r2, r2, #3
    87c6:	1b93      	subs	r3, r2, r6
    87c8:	2b0f      	cmp	r3, #15
    87ca:	f300 817b 	bgt.w	8ac4 <_malloc_r+0x3c4>
    87ce:	2b00      	cmp	r3, #0
    87d0:	e9c7 cc04 	strd	ip, ip, [r7, #16]
    87d4:	f280 816c 	bge.w	8ab0 <_malloc_r+0x3b0>
    87d8:	f5b2 7f00 	cmp.w	r2, #512	; 0x200
    87dc:	f080 811a 	bcs.w	8a14 <_malloc_r+0x314>
    87e0:	08d3      	lsrs	r3, r2, #3
    87e2:	6879      	ldr	r1, [r7, #4]
    87e4:	3301      	adds	r3, #1
    87e6:	ea4f 1e52 	mov.w	lr, r2, lsr #5
    87ea:	2201      	movs	r2, #1
    87ec:	fa02 f20e 	lsl.w	r2, r2, lr
    87f0:	430a      	orrs	r2, r1
    87f2:	f857 e033 	ldr.w	lr, [r7, r3, lsl #3]
    87f6:	f8c5 e008 	str.w	lr, [r5, #8]
    87fa:	eb07 01c3 	add.w	r1, r7, r3, lsl #3
    87fe:	3908      	subs	r1, #8
    8800:	60e9      	str	r1, [r5, #12]
    8802:	607a      	str	r2, [r7, #4]
    8804:	f847 5033 	str.w	r5, [r7, r3, lsl #3]
    8808:	f8ce 500c 	str.w	r5, [lr, #12]
    880c:	1083      	asrs	r3, r0, #2
    880e:	2101      	movs	r1, #1
    8810:	4099      	lsls	r1, r3
    8812:	4291      	cmp	r1, r2
    8814:	d857      	bhi.n	88c6 <_malloc_r+0x1c6>
    8816:	4211      	tst	r1, r2
    8818:	d106      	bne.n	8828 <_malloc_r+0x128>
    881a:	f020 0003 	bic.w	r0, r0, #3
    881e:	0049      	lsls	r1, r1, #1
    8820:	4211      	tst	r1, r2
    8822:	f100 0004 	add.w	r0, r0, #4
    8826:	d0fa      	beq.n	881e <_malloc_r+0x11e>
    8828:	eb07 09c0 	add.w	r9, r7, r0, lsl #3
    882c:	464d      	mov	r5, r9
    882e:	4686      	mov	lr, r0
    8830:	f8d5 800c 	ldr.w	r8, [r5, #12]
    8834:	4545      	cmp	r5, r8
    8836:	d108      	bne.n	884a <_malloc_r+0x14a>
    8838:	e11d      	b.n	8a76 <_malloc_r+0x376>
    883a:	2b00      	cmp	r3, #0
    883c:	f280 8124 	bge.w	8a88 <_malloc_r+0x388>
    8840:	f8d8 800c 	ldr.w	r8, [r8, #12]
    8844:	4545      	cmp	r5, r8
    8846:	f000 8116 	beq.w	8a76 <_malloc_r+0x376>
    884a:	f8d8 2004 	ldr.w	r2, [r8, #4]
    884e:	f022 0203 	bic.w	r2, r2, #3
    8852:	1b93      	subs	r3, r2, r6
    8854:	2b0f      	cmp	r3, #15
    8856:	ddf0      	ble.n	883a <_malloc_r+0x13a>
    8858:	4620      	mov	r0, r4
    885a:	e9d8 5402 	ldrd	r5, r4, [r8, #8]
    885e:	eb08 0106 	add.w	r1, r8, r6
    8862:	f046 0601 	orr.w	r6, r6, #1
    8866:	f8c8 6004 	str.w	r6, [r8, #4]
    886a:	60ec      	str	r4, [r5, #12]
    886c:	60a5      	str	r5, [r4, #8]
    886e:	f043 0401 	orr.w	r4, r3, #1
    8872:	e9c7 1104 	strd	r1, r1, [r7, #16]
    8876:	e9c1 cc02 	strd	ip, ip, [r1, #8]
    887a:	604c      	str	r4, [r1, #4]
    887c:	f848 3002 	str.w	r3, [r8, r2]
    8880:	f000 f9f4 	bl	8c6c <__malloc_unlock>
    8884:	f108 0508 	add.w	r5, r8, #8
    8888:	e002      	b.n	8890 <_malloc_r+0x190>
    888a:	230c      	movs	r3, #12
    888c:	6023      	str	r3, [r4, #0]
    888e:	2500      	movs	r5, #0
    8890:	4628      	mov	r0, r5
    8892:	b003      	add	sp, #12
    8894:	e8bd 8ff0 	ldmia.w	sp!, {r4, r5, r6, r7, r8, r9, sl, fp, pc}
    8898:	f44f 7300 	mov.w	r3, #512	; 0x200
    889c:	2040      	movs	r0, #64	; 0x40
    889e:	f04f 0c3f 	mov.w	ip, #63	; 0x3f
    88a2:	e773      	b.n	878c <_malloc_r+0x8c>
    88a4:	68d3      	ldr	r3, [r2, #12]
    88a6:	429a      	cmp	r2, r3
    88a8:	bf08      	it	eq
    88aa:	3002      	addeq	r0, #2
    88ac:	f47f af40 	bne.w	8730 <_malloc_r+0x30>
    88b0:	693d      	ldr	r5, [r7, #16]
    88b2:	f8df c158 	ldr.w	ip, [pc, #344]	; 8a0c <_malloc_r+0x30c>
    88b6:	4565      	cmp	r5, ip
    88b8:	d182      	bne.n	87c0 <_malloc_r+0xc0>
    88ba:	687a      	ldr	r2, [r7, #4]
    88bc:	1083      	asrs	r3, r0, #2
    88be:	2101      	movs	r1, #1
    88c0:	4099      	lsls	r1, r3
    88c2:	4291      	cmp	r1, r2
    88c4:	d9a7      	bls.n	8816 <_malloc_r+0x116>
    88c6:	68bd      	ldr	r5, [r7, #8]
    88c8:	686b      	ldr	r3, [r5, #4]
    88ca:	f023 0903 	bic.w	r9, r3, #3
    88ce:	454e      	cmp	r6, r9
    88d0:	d803      	bhi.n	88da <_malloc_r+0x1da>
    88d2:	eba9 0306 	sub.w	r3, r9, r6
    88d6:	2b0f      	cmp	r3, #15
    88d8:	dc7a      	bgt.n	89d0 <_malloc_r+0x2d0>
    88da:	f8df b134 	ldr.w	fp, [pc, #308]	; 8a10 <_malloc_r+0x310>
    88de:	4b47      	ldr	r3, [pc, #284]	; (89fc <_malloc_r+0x2fc>)
    88e0:	f8db 2000 	ldr.w	r2, [fp]
    88e4:	681b      	ldr	r3, [r3, #0]
    88e6:	3201      	adds	r2, #1
    88e8:	4433      	add	r3, r6
    88ea:	eb05 0a09 	add.w	sl, r5, r9
    88ee:	f000 8133 	beq.w	8b58 <_malloc_r+0x458>
    88f2:	f503 5380 	add.w	r3, r3, #4096	; 0x1000
    88f6:	330f      	adds	r3, #15
    88f8:	f423 687f 	bic.w	r8, r3, #4080	; 0xff0
    88fc:	f028 080f 	bic.w	r8, r8, #15
    8900:	4641      	mov	r1, r8
    8902:	4620      	mov	r0, r4
    8904:	f000 fe56 	bl	95b4 <_sbrk_r>
    8908:	1c41      	adds	r1, r0, #1
    890a:	4602      	mov	r2, r0
    890c:	f000 80f3 	beq.w	8af6 <_malloc_r+0x3f6>
    8910:	4582      	cmp	sl, r0
    8912:	f200 80ee 	bhi.w	8af2 <_malloc_r+0x3f2>
    8916:	4b3a      	ldr	r3, [pc, #232]	; (8a00 <_malloc_r+0x300>)
    8918:	6819      	ldr	r1, [r3, #0]
    891a:	4441      	add	r1, r8
    891c:	6019      	str	r1, [r3, #0]
    891e:	4608      	mov	r0, r1
    8920:	f000 814e 	beq.w	8bc0 <_malloc_r+0x4c0>
    8924:	f8db 1000 	ldr.w	r1, [fp]
    8928:	9301      	str	r3, [sp, #4]
    892a:	3101      	adds	r1, #1
    892c:	bf1b      	ittet	ne
    892e:	eba2 010a 	subne.w	r1, r2, sl
    8932:	1809      	addne	r1, r1, r0
    8934:	f8cb 2000 	streq.w	r2, [fp]
    8938:	6019      	strne	r1, [r3, #0]
    893a:	f012 0b07 	ands.w	fp, r2, #7
    893e:	f000 8117 	beq.w	8b70 <_malloc_r+0x470>
    8942:	f1cb 0108 	rsb	r1, fp, #8
    8946:	440a      	add	r2, r1
    8948:	f5cb 5180 	rsb	r1, fp, #4096	; 0x1000
    894c:	4490      	add	r8, r2
    894e:	3108      	adds	r1, #8
    8950:	eba1 0108 	sub.w	r1, r1, r8
    8954:	f3c1 0a0b 	ubfx	sl, r1, #0, #12
    8958:	4651      	mov	r1, sl
    895a:	4620      	mov	r0, r4
    895c:	9200      	str	r2, [sp, #0]
    895e:	f000 fe29 	bl	95b4 <_sbrk_r>
    8962:	1c42      	adds	r2, r0, #1
    8964:	e9dd 2300 	ldrd	r2, r3, [sp]
    8968:	f000 814f 	beq.w	8c0a <_malloc_r+0x50a>
    896c:	1a80      	subs	r0, r0, r2
    896e:	eb00 080a 	add.w	r8, r0, sl
    8972:	6819      	ldr	r1, [r3, #0]
    8974:	60ba      	str	r2, [r7, #8]
    8976:	f048 0001 	orr.w	r0, r8, #1
    897a:	4451      	add	r1, sl
    897c:	42bd      	cmp	r5, r7
    897e:	6050      	str	r0, [r2, #4]
    8980:	6019      	str	r1, [r3, #0]
    8982:	f000 8129 	beq.w	8bd8 <_malloc_r+0x4d8>
    8986:	f1b9 0f0f 	cmp.w	r9, #15
    898a:	f240 8127 	bls.w	8bdc <_malloc_r+0x4dc>
    898e:	6868      	ldr	r0, [r5, #4]
    8990:	f1a9 0c0c 	sub.w	ip, r9, #12
    8994:	f02c 0c07 	bic.w	ip, ip, #7
    8998:	f000 0001 	and.w	r0, r0, #1
    899c:	ea40 000c 	orr.w	r0, r0, ip
    89a0:	6068      	str	r0, [r5, #4]
    89a2:	f04f 0e05 	mov.w	lr, #5
    89a6:	eb05 000c 	add.w	r0, r5, ip
    89aa:	f1bc 0f0f 	cmp.w	ip, #15
    89ae:	e9c0 ee01 	strd	lr, lr, [r0, #4]
    89b2:	f200 8132 	bhi.w	8c1a <_malloc_r+0x51a>
    89b6:	6850      	ldr	r0, [r2, #4]
    89b8:	4615      	mov	r5, r2
    89ba:	4b12      	ldr	r3, [pc, #72]	; (8a04 <_malloc_r+0x304>)
    89bc:	681a      	ldr	r2, [r3, #0]
    89be:	428a      	cmp	r2, r1
    89c0:	bf38      	it	cc
    89c2:	6019      	strcc	r1, [r3, #0]
    89c4:	4b10      	ldr	r3, [pc, #64]	; (8a08 <_malloc_r+0x308>)
    89c6:	681a      	ldr	r2, [r3, #0]
    89c8:	428a      	cmp	r2, r1
    89ca:	bf38      	it	cc
    89cc:	6019      	strcc	r1, [r3, #0]
    89ce:	e094      	b.n	8afa <_malloc_r+0x3fa>
    89d0:	19aa      	adds	r2, r5, r6
    89d2:	f043 0301 	orr.w	r3, r3, #1
    89d6:	f046 0601 	orr.w	r6, r6, #1
    89da:	606e      	str	r6, [r5, #4]
    89dc:	4620      	mov	r0, r4
    89de:	60ba      	str	r2, [r7, #8]
    89e0:	6053      	str	r3, [r2, #4]
    89e2:	f000 f943 	bl	8c6c <__malloc_unlock>
    89e6:	3508      	adds	r5, #8
    89e8:	4628      	mov	r0, r5
    89ea:	b003      	add	sp, #12
    89ec:	e8bd 8ff0 	ldmia.w	sp!, {r4, r5, r6, r7, r8, r9, sl, fp, pc}
    89f0:	68d9      	ldr	r1, [r3, #12]
    89f2:	441a      	add	r2, r3
    89f4:	e6a1      	b.n	873a <_malloc_r+0x3a>
    89f6:	bf00      	nop
    89f8:	20000e24 	.word	0x20000e24
    89fc:	20009a04 	.word	0x20009a04
    8a00:	200099d4 	.word	0x200099d4
    8a04:	200099fc 	.word	0x200099fc
    8a08:	20009a00 	.word	0x20009a00
    8a0c:	20000e2c 	.word	0x20000e2c
    8a10:	2000122c 	.word	0x2000122c
    8a14:	f5b2 6f20 	cmp.w	r2, #2560	; 0xa00
    8a18:	ea4f 2352 	mov.w	r3, r2, lsr #9
    8a1c:	d363      	bcc.n	8ae6 <_malloc_r+0x3e6>
    8a1e:	2b14      	cmp	r3, #20
    8a20:	f200 80b7 	bhi.w	8b92 <_malloc_r+0x492>
    8a24:	f103 015c 	add.w	r1, r3, #92	; 0x5c
    8a28:	00c9      	lsls	r1, r1, #3
    8a2a:	335b      	adds	r3, #91	; 0x5b
    8a2c:	eb07 0e01 	add.w	lr, r7, r1
    8a30:	5879      	ldr	r1, [r7, r1]
    8a32:	f1ae 0e08 	sub.w	lr, lr, #8
    8a36:	458e      	cmp	lr, r1
    8a38:	f000 8091 	beq.w	8b5e <_malloc_r+0x45e>
    8a3c:	684b      	ldr	r3, [r1, #4]
    8a3e:	f023 0303 	bic.w	r3, r3, #3
    8a42:	4293      	cmp	r3, r2
    8a44:	d902      	bls.n	8a4c <_malloc_r+0x34c>
    8a46:	6889      	ldr	r1, [r1, #8]
    8a48:	458e      	cmp	lr, r1
    8a4a:	d1f7      	bne.n	8a3c <_malloc_r+0x33c>
    8a4c:	f8d1 e00c 	ldr.w	lr, [r1, #12]
    8a50:	687a      	ldr	r2, [r7, #4]
    8a52:	e9c5 1e02 	strd	r1, lr, [r5, #8]
    8a56:	f8ce 5008 	str.w	r5, [lr, #8]
    8a5a:	60cd      	str	r5, [r1, #12]
    8a5c:	e6d6      	b.n	880c <_malloc_r+0x10c>
    8a5e:	2b14      	cmp	r3, #20
    8a60:	d959      	bls.n	8b16 <_malloc_r+0x416>
    8a62:	2b54      	cmp	r3, #84	; 0x54
    8a64:	f200 809d 	bhi.w	8ba2 <_malloc_r+0x4a2>
    8a68:	0b33      	lsrs	r3, r6, #12
    8a6a:	f103 006f 	add.w	r0, r3, #111	; 0x6f
    8a6e:	f103 0c6e 	add.w	ip, r3, #110	; 0x6e
    8a72:	00c3      	lsls	r3, r0, #3
    8a74:	e68a      	b.n	878c <_malloc_r+0x8c>
    8a76:	f10e 0e01 	add.w	lr, lr, #1
    8a7a:	f01e 0f03 	tst.w	lr, #3
    8a7e:	f105 0508 	add.w	r5, r5, #8
    8a82:	f47f aed5 	bne.w	8830 <_malloc_r+0x130>
    8a86:	e051      	b.n	8b2c <_malloc_r+0x42c>
    8a88:	4442      	add	r2, r8
    8a8a:	4645      	mov	r5, r8
    8a8c:	6853      	ldr	r3, [r2, #4]
    8a8e:	f8d8 100c 	ldr.w	r1, [r8, #12]
    8a92:	f043 0301 	orr.w	r3, r3, #1
    8a96:	6053      	str	r3, [r2, #4]
    8a98:	f855 3f08 	ldr.w	r3, [r5, #8]!
    8a9c:	4620      	mov	r0, r4
    8a9e:	60d9      	str	r1, [r3, #12]
    8aa0:	608b      	str	r3, [r1, #8]
    8aa2:	f000 f8e3 	bl	8c6c <__malloc_unlock>
    8aa6:	e6f3      	b.n	8890 <_malloc_r+0x190>
    8aa8:	08f0      	lsrs	r0, r6, #3
    8aaa:	f106 0208 	add.w	r2, r6, #8
    8aae:	e637      	b.n	8720 <_malloc_r+0x20>
    8ab0:	442a      	add	r2, r5
    8ab2:	4620      	mov	r0, r4
    8ab4:	6853      	ldr	r3, [r2, #4]
    8ab6:	f043 0301 	orr.w	r3, r3, #1
    8aba:	6053      	str	r3, [r2, #4]
    8abc:	3508      	adds	r5, #8
    8abe:	f000 f8d5 	bl	8c6c <__malloc_unlock>
    8ac2:	e6e5      	b.n	8890 <_malloc_r+0x190>
    8ac4:	19a9      	adds	r1, r5, r6
    8ac6:	4620      	mov	r0, r4
    8ac8:	f046 0601 	orr.w	r6, r6, #1
    8acc:	f043 0401 	orr.w	r4, r3, #1
    8ad0:	606e      	str	r6, [r5, #4]
    8ad2:	e9c7 1104 	strd	r1, r1, [r7, #16]
    8ad6:	e9c1 cc02 	strd	ip, ip, [r1, #8]
    8ada:	604c      	str	r4, [r1, #4]
    8adc:	50ab      	str	r3, [r5, r2]
    8ade:	f000 f8c5 	bl	8c6c <__malloc_unlock>
    8ae2:	3508      	adds	r5, #8
    8ae4:	e6d4      	b.n	8890 <_malloc_r+0x190>
    8ae6:	0993      	lsrs	r3, r2, #6
    8ae8:	f103 0139 	add.w	r1, r3, #57	; 0x39
    8aec:	00c9      	lsls	r1, r1, #3
    8aee:	3338      	adds	r3, #56	; 0x38
    8af0:	e79c      	b.n	8a2c <_malloc_r+0x32c>
    8af2:	42bd      	cmp	r5, r7
    8af4:	d05f      	beq.n	8bb6 <_malloc_r+0x4b6>
    8af6:	68bd      	ldr	r5, [r7, #8]
    8af8:	6868      	ldr	r0, [r5, #4]
    8afa:	f020 0803 	bic.w	r8, r0, #3
    8afe:	4546      	cmp	r6, r8
    8b00:	eba8 0306 	sub.w	r3, r8, r6
    8b04:	d802      	bhi.n	8b0c <_malloc_r+0x40c>
    8b06:	2b0f      	cmp	r3, #15
    8b08:	f73f af62 	bgt.w	89d0 <_malloc_r+0x2d0>
    8b0c:	4620      	mov	r0, r4
    8b0e:	f000 f8ad 	bl	8c6c <__malloc_unlock>
    8b12:	2500      	movs	r5, #0
    8b14:	e6bc      	b.n	8890 <_malloc_r+0x190>
    8b16:	f103 005c 	add.w	r0, r3, #92	; 0x5c
    8b1a:	f103 0c5b 	add.w	ip, r3, #91	; 0x5b
    8b1e:	00c3      	lsls	r3, r0, #3
    8b20:	e634      	b.n	878c <_malloc_r+0x8c>
    8b22:	f859 3908 	ldr.w	r3, [r9], #-8
    8b26:	454b      	cmp	r3, r9
    8b28:	f040 8096 	bne.w	8c58 <_malloc_r+0x558>
    8b2c:	f010 0f03 	tst.w	r0, #3
    8b30:	f100 30ff 	add.w	r0, r0, #4294967295
    8b34:	d1f5      	bne.n	8b22 <_malloc_r+0x422>
    8b36:	687b      	ldr	r3, [r7, #4]
    8b38:	ea23 0301 	bic.w	r3, r3, r1
    8b3c:	607b      	str	r3, [r7, #4]
    8b3e:	0049      	lsls	r1, r1, #1
    8b40:	4299      	cmp	r1, r3
    8b42:	f63f aec0 	bhi.w	88c6 <_malloc_r+0x1c6>
    8b46:	b919      	cbnz	r1, 8b50 <_malloc_r+0x450>
    8b48:	e6bd      	b.n	88c6 <_malloc_r+0x1c6>
    8b4a:	0049      	lsls	r1, r1, #1
    8b4c:	f10e 0e04 	add.w	lr, lr, #4
    8b50:	4219      	tst	r1, r3
    8b52:	d0fa      	beq.n	8b4a <_malloc_r+0x44a>
    8b54:	4670      	mov	r0, lr
    8b56:	e667      	b.n	8828 <_malloc_r+0x128>
    8b58:	f103 0810 	add.w	r8, r3, #16
    8b5c:	e6d0      	b.n	8900 <_malloc_r+0x200>
    8b5e:	109a      	asrs	r2, r3, #2
    8b60:	f04f 0801 	mov.w	r8, #1
    8b64:	687b      	ldr	r3, [r7, #4]
    8b66:	fa08 f202 	lsl.w	r2, r8, r2
    8b6a:	431a      	orrs	r2, r3
    8b6c:	607a      	str	r2, [r7, #4]
    8b6e:	e770      	b.n	8a52 <_malloc_r+0x352>
    8b70:	eb02 0108 	add.w	r1, r2, r8
    8b74:	4249      	negs	r1, r1
    8b76:	f3c1 0a0b 	ubfx	sl, r1, #0, #12
    8b7a:	4651      	mov	r1, sl
    8b7c:	4620      	mov	r0, r4
    8b7e:	9200      	str	r2, [sp, #0]
    8b80:	f000 fd18 	bl	95b4 <_sbrk_r>
    8b84:	1c43      	adds	r3, r0, #1
    8b86:	e9dd 2300 	ldrd	r2, r3, [sp]
    8b8a:	f47f aeef 	bne.w	896c <_malloc_r+0x26c>
    8b8e:	46da      	mov	sl, fp
    8b90:	e6ef      	b.n	8972 <_malloc_r+0x272>
    8b92:	2b54      	cmp	r3, #84	; 0x54
    8b94:	d825      	bhi.n	8be2 <_malloc_r+0x4e2>
    8b96:	0b13      	lsrs	r3, r2, #12
    8b98:	f103 016f 	add.w	r1, r3, #111	; 0x6f
    8b9c:	00c9      	lsls	r1, r1, #3
    8b9e:	336e      	adds	r3, #110	; 0x6e
    8ba0:	e744      	b.n	8a2c <_malloc_r+0x32c>
    8ba2:	f5b3 7faa 	cmp.w	r3, #340	; 0x154
    8ba6:	d825      	bhi.n	8bf4 <_malloc_r+0x4f4>
    8ba8:	0bf3      	lsrs	r3, r6, #15
    8baa:	f103 0078 	add.w	r0, r3, #120	; 0x78
    8bae:	f103 0c77 	add.w	ip, r3, #119	; 0x77
    8bb2:	00c3      	lsls	r3, r0, #3
    8bb4:	e5ea      	b.n	878c <_malloc_r+0x8c>
    8bb6:	4b29      	ldr	r3, [pc, #164]	; (8c5c <_malloc_r+0x55c>)
    8bb8:	6818      	ldr	r0, [r3, #0]
    8bba:	4440      	add	r0, r8
    8bbc:	6018      	str	r0, [r3, #0]
    8bbe:	e6b1      	b.n	8924 <_malloc_r+0x224>
    8bc0:	f3ca 0c0b 	ubfx	ip, sl, #0, #12
    8bc4:	f1bc 0f00 	cmp.w	ip, #0
    8bc8:	f47f aeac 	bne.w	8924 <_malloc_r+0x224>
    8bcc:	68bd      	ldr	r5, [r7, #8]
    8bce:	44c8      	add	r8, r9
    8bd0:	f048 0001 	orr.w	r0, r8, #1
    8bd4:	6068      	str	r0, [r5, #4]
    8bd6:	e6f0      	b.n	89ba <_malloc_r+0x2ba>
    8bd8:	4615      	mov	r5, r2
    8bda:	e6ee      	b.n	89ba <_malloc_r+0x2ba>
    8bdc:	2301      	movs	r3, #1
    8bde:	6053      	str	r3, [r2, #4]
    8be0:	e794      	b.n	8b0c <_malloc_r+0x40c>
    8be2:	f5b3 7faa 	cmp.w	r3, #340	; 0x154
    8be6:	d823      	bhi.n	8c30 <_malloc_r+0x530>
    8be8:	0bd3      	lsrs	r3, r2, #15
    8bea:	f103 0178 	add.w	r1, r3, #120	; 0x78
    8bee:	00c9      	lsls	r1, r1, #3
    8bf0:	3377      	adds	r3, #119	; 0x77
    8bf2:	e71b      	b.n	8a2c <_malloc_r+0x32c>
    8bf4:	f240 5254 	movw	r2, #1364	; 0x554
    8bf8:	4293      	cmp	r3, r2
    8bfa:	d823      	bhi.n	8c44 <_malloc_r+0x544>
    8bfc:	0cb3      	lsrs	r3, r6, #18
    8bfe:	f103 007d 	add.w	r0, r3, #125	; 0x7d
    8c02:	f103 0c7c 	add.w	ip, r3, #124	; 0x7c
    8c06:	00c3      	lsls	r3, r0, #3
    8c08:	e5c0      	b.n	878c <_malloc_r+0x8c>
    8c0a:	f1ab 0b08 	sub.w	fp, fp, #8
    8c0e:	44d8      	add	r8, fp
    8c10:	eba8 0802 	sub.w	r8, r8, r2
    8c14:	f04f 0a00 	mov.w	sl, #0
    8c18:	e6ab      	b.n	8972 <_malloc_r+0x272>
    8c1a:	f105 0108 	add.w	r1, r5, #8
    8c1e:	4620      	mov	r0, r4
    8c20:	9300      	str	r3, [sp, #0]
    8c22:	f000 fdeb 	bl	97fc <_free_r>
    8c26:	68bd      	ldr	r5, [r7, #8]
    8c28:	9b00      	ldr	r3, [sp, #0]
    8c2a:	6868      	ldr	r0, [r5, #4]
    8c2c:	6819      	ldr	r1, [r3, #0]
    8c2e:	e6c4      	b.n	89ba <_malloc_r+0x2ba>
    8c30:	f240 5154 	movw	r1, #1364	; 0x554
    8c34:	428b      	cmp	r3, r1
    8c36:	d80b      	bhi.n	8c50 <_malloc_r+0x550>
    8c38:	0c93      	lsrs	r3, r2, #18
    8c3a:	f103 017d 	add.w	r1, r3, #125	; 0x7d
    8c3e:	00c9      	lsls	r1, r1, #3
    8c40:	337c      	adds	r3, #124	; 0x7c
    8c42:	e6f3      	b.n	8a2c <_malloc_r+0x32c>
    8c44:	f44f 737e 	mov.w	r3, #1016	; 0x3f8
    8c48:	207f      	movs	r0, #127	; 0x7f
    8c4a:	f04f 0c7e 	mov.w	ip, #126	; 0x7e
    8c4e:	e59d      	b.n	878c <_malloc_r+0x8c>
    8c50:	f44f 717e 	mov.w	r1, #1016	; 0x3f8
    8c54:	237e      	movs	r3, #126	; 0x7e
    8c56:	e6e9      	b.n	8a2c <_malloc_r+0x32c>
    8c58:	687b      	ldr	r3, [r7, #4]
    8c5a:	e770      	b.n	8b3e <_malloc_r+0x43e>
    8c5c:	200099d4 	.word	0x200099d4

00008c60 <__malloc_lock>:
    8c60:	4801      	ldr	r0, [pc, #4]	; (8c68 <__malloc_lock+0x8>)
    8c62:	f000 bcfd 	b.w	9660 <__retarget_lock_acquire_recursive>
    8c66:	bf00      	nop
    8c68:	200099cc 	.word	0x200099cc

00008c6c <__malloc_unlock>:
    8c6c:	4801      	ldr	r0, [pc, #4]	; (8c74 <__malloc_unlock+0x8>)
    8c6e:	f000 bcf9 	b.w	9664 <__retarget_lock_release_recursive>
    8c72:	bf00      	nop
    8c74:	200099cc 	.word	0x200099cc

00008c78 <_realloc_r>:
    8c78:	e92d 4ff8 	stmdb	sp!, {r3, r4, r5, r6, r7, r8, r9, sl, fp, lr}
    8c7c:	4617      	mov	r7, r2
    8c7e:	2900      	cmp	r1, #0
    8c80:	f000 8098 	beq.w	8db4 <_realloc_r+0x13c>
    8c84:	460c      	mov	r4, r1
    8c86:	f107 050b 	add.w	r5, r7, #11
    8c8a:	4680      	mov	r8, r0
    8c8c:	f7ff ffe8 	bl	8c60 <__malloc_lock>
    8c90:	2d16      	cmp	r5, #22
    8c92:	f854 1c04 	ldr.w	r1, [r4, #-4]
    8c96:	d85b      	bhi.n	8d50 <_realloc_r+0xd8>
    8c98:	2510      	movs	r5, #16
    8c9a:	462a      	mov	r2, r5
    8c9c:	42af      	cmp	r7, r5
    8c9e:	d85c      	bhi.n	8d5a <_realloc_r+0xe2>
    8ca0:	f021 0603 	bic.w	r6, r1, #3
    8ca4:	4296      	cmp	r6, r2
    8ca6:	f1a4 0908 	sub.w	r9, r4, #8
    8caa:	da62      	bge.n	8d72 <_realloc_r+0xfa>
    8cac:	4bbc      	ldr	r3, [pc, #752]	; (8fa0 <_realloc_r+0x328>)
    8cae:	f8d3 c008 	ldr.w	ip, [r3, #8]
    8cb2:	eb09 0006 	add.w	r0, r9, r6
    8cb6:	4584      	cmp	ip, r0
    8cb8:	f000 8097 	beq.w	8dea <_realloc_r+0x172>
    8cbc:	f8d0 c004 	ldr.w	ip, [r0, #4]
    8cc0:	f02c 0301 	bic.w	r3, ip, #1
    8cc4:	4403      	add	r3, r0
    8cc6:	685b      	ldr	r3, [r3, #4]
    8cc8:	07db      	lsls	r3, r3, #31
    8cca:	d468      	bmi.n	8d9e <_realloc_r+0x126>
    8ccc:	f02c 0c03 	bic.w	ip, ip, #3
    8cd0:	eb06 030c 	add.w	r3, r6, ip
    8cd4:	4293      	cmp	r3, r2
    8cd6:	da47      	bge.n	8d68 <_realloc_r+0xf0>
    8cd8:	07cb      	lsls	r3, r1, #31
    8cda:	d410      	bmi.n	8cfe <_realloc_r+0x86>
    8cdc:	f854 3c08 	ldr.w	r3, [r4, #-8]
    8ce0:	eba9 0a03 	sub.w	sl, r9, r3
    8ce4:	f8da 3004 	ldr.w	r3, [sl, #4]
    8ce8:	f023 0103 	bic.w	r1, r3, #3
    8cec:	448c      	add	ip, r1
    8cee:	44b4      	add	ip, r6
    8cf0:	4594      	cmp	ip, r2
    8cf2:	f280 8111 	bge.w	8f18 <_realloc_r+0x2a0>
    8cf6:	1873      	adds	r3, r6, r1
    8cf8:	4293      	cmp	r3, r2
    8cfa:	f280 80e8 	bge.w	8ece <_realloc_r+0x256>
    8cfe:	4639      	mov	r1, r7
    8d00:	4640      	mov	r0, r8
    8d02:	f7ff fcfd 	bl	8700 <_malloc_r>
    8d06:	4607      	mov	r7, r0
    8d08:	b1e0      	cbz	r0, 8d44 <_realloc_r+0xcc>
    8d0a:	f854 3c04 	ldr.w	r3, [r4, #-4]
    8d0e:	f023 0301 	bic.w	r3, r3, #1
    8d12:	444b      	add	r3, r9
    8d14:	f1a0 0208 	sub.w	r2, r0, #8
    8d18:	4293      	cmp	r3, r2
    8d1a:	f000 80d2 	beq.w	8ec2 <_realloc_r+0x24a>
    8d1e:	1f32      	subs	r2, r6, #4
    8d20:	2a24      	cmp	r2, #36	; 0x24
    8d22:	f200 80f5 	bhi.w	8f10 <_realloc_r+0x298>
    8d26:	2a13      	cmp	r2, #19
    8d28:	f200 80ac 	bhi.w	8e84 <_realloc_r+0x20c>
    8d2c:	4603      	mov	r3, r0
    8d2e:	4622      	mov	r2, r4
    8d30:	6811      	ldr	r1, [r2, #0]
    8d32:	6019      	str	r1, [r3, #0]
    8d34:	6851      	ldr	r1, [r2, #4]
    8d36:	6059      	str	r1, [r3, #4]
    8d38:	6892      	ldr	r2, [r2, #8]
    8d3a:	609a      	str	r2, [r3, #8]
    8d3c:	4621      	mov	r1, r4
    8d3e:	4640      	mov	r0, r8
    8d40:	f000 fd5c 	bl	97fc <_free_r>
    8d44:	4640      	mov	r0, r8
    8d46:	f7ff ff91 	bl	8c6c <__malloc_unlock>
    8d4a:	4638      	mov	r0, r7
    8d4c:	e8bd 8ff8 	ldmia.w	sp!, {r3, r4, r5, r6, r7, r8, r9, sl, fp, pc}
    8d50:	f025 0507 	bic.w	r5, r5, #7
    8d54:	2d00      	cmp	r5, #0
    8d56:	462a      	mov	r2, r5
    8d58:	daa0      	bge.n	8c9c <_realloc_r+0x24>
    8d5a:	230c      	movs	r3, #12
    8d5c:	f8c8 3000 	str.w	r3, [r8]
    8d60:	2700      	movs	r7, #0
    8d62:	4638      	mov	r0, r7
    8d64:	e8bd 8ff8 	ldmia.w	sp!, {r3, r4, r5, r6, r7, r8, r9, sl, fp, pc}
    8d68:	461e      	mov	r6, r3
    8d6a:	e9d0 2302 	ldrd	r2, r3, [r0, #8]
    8d6e:	60d3      	str	r3, [r2, #12]
    8d70:	609a      	str	r2, [r3, #8]
    8d72:	1b73      	subs	r3, r6, r5
    8d74:	2b0f      	cmp	r3, #15
    8d76:	d822      	bhi.n	8dbe <_realloc_r+0x146>
    8d78:	f8d9 3004 	ldr.w	r3, [r9, #4]
    8d7c:	f003 0301 	and.w	r3, r3, #1
    8d80:	4333      	orrs	r3, r6
    8d82:	444e      	add	r6, r9
    8d84:	f8c9 3004 	str.w	r3, [r9, #4]
    8d88:	6873      	ldr	r3, [r6, #4]
    8d8a:	f043 0301 	orr.w	r3, r3, #1
    8d8e:	6073      	str	r3, [r6, #4]
    8d90:	4640      	mov	r0, r8
    8d92:	4627      	mov	r7, r4
    8d94:	f7ff ff6a 	bl	8c6c <__malloc_unlock>
    8d98:	4638      	mov	r0, r7
    8d9a:	e8bd 8ff8 	ldmia.w	sp!, {r3, r4, r5, r6, r7, r8, r9, sl, fp, pc}
    8d9e:	07c9      	lsls	r1, r1, #31
    8da0:	d4ad      	bmi.n	8cfe <_realloc_r+0x86>
    8da2:	f854 3c08 	ldr.w	r3, [r4, #-8]
    8da6:	eba9 0a03 	sub.w	sl, r9, r3
    8daa:	f8da 1004 	ldr.w	r1, [sl, #4]
    8dae:	f021 0103 	bic.w	r1, r1, #3
    8db2:	e7a0      	b.n	8cf6 <_realloc_r+0x7e>
    8db4:	e8bd 4ff8 	ldmia.w	sp!, {r3, r4, r5, r6, r7, r8, r9, sl, fp, lr}
    8db8:	4611      	mov	r1, r2
    8dba:	f7ff bca1 	b.w	8700 <_malloc_r>
    8dbe:	f8d9 2004 	ldr.w	r2, [r9, #4]
    8dc2:	eb09 0105 	add.w	r1, r9, r5
    8dc6:	f002 0201 	and.w	r2, r2, #1
    8dca:	444e      	add	r6, r9
    8dcc:	f043 0301 	orr.w	r3, r3, #1
    8dd0:	432a      	orrs	r2, r5
    8dd2:	f8c9 2004 	str.w	r2, [r9, #4]
    8dd6:	604b      	str	r3, [r1, #4]
    8dd8:	6873      	ldr	r3, [r6, #4]
    8dda:	f043 0301 	orr.w	r3, r3, #1
    8dde:	3108      	adds	r1, #8
    8de0:	6073      	str	r3, [r6, #4]
    8de2:	4640      	mov	r0, r8
    8de4:	f000 fd0a 	bl	97fc <_free_r>
    8de8:	e7d2      	b.n	8d90 <_realloc_r+0x118>
    8dea:	f8dc 0004 	ldr.w	r0, [ip, #4]
    8dee:	f020 0b03 	bic.w	fp, r0, #3
    8df2:	eb06 0c0b 	add.w	ip, r6, fp
    8df6:	f105 0010 	add.w	r0, r5, #16
    8dfa:	4584      	cmp	ip, r0
    8dfc:	da4d      	bge.n	8e9a <_realloc_r+0x222>
    8dfe:	07c9      	lsls	r1, r1, #31
    8e00:	f53f af7d 	bmi.w	8cfe <_realloc_r+0x86>
    8e04:	f854 1c08 	ldr.w	r1, [r4, #-8]
    8e08:	eba9 0a01 	sub.w	sl, r9, r1
    8e0c:	f8da 1004 	ldr.w	r1, [sl, #4]
    8e10:	f021 0103 	bic.w	r1, r1, #3
    8e14:	448b      	add	fp, r1
    8e16:	44b3      	add	fp, r6
    8e18:	4558      	cmp	r0, fp
    8e1a:	f73f af6c 	bgt.w	8cf6 <_realloc_r+0x7e>
    8e1e:	4657      	mov	r7, sl
    8e20:	f8da 100c 	ldr.w	r1, [sl, #12]
    8e24:	f857 0f08 	ldr.w	r0, [r7, #8]!
    8e28:	1f32      	subs	r2, r6, #4
    8e2a:	2a24      	cmp	r2, #36	; 0x24
    8e2c:	60c1      	str	r1, [r0, #12]
    8e2e:	6088      	str	r0, [r1, #8]
    8e30:	f200 80db 	bhi.w	8fea <_realloc_r+0x372>
    8e34:	2a13      	cmp	r2, #19
    8e36:	f240 80d6 	bls.w	8fe6 <_realloc_r+0x36e>
    8e3a:	6821      	ldr	r1, [r4, #0]
    8e3c:	f8ca 1008 	str.w	r1, [sl, #8]
    8e40:	6861      	ldr	r1, [r4, #4]
    8e42:	f8ca 100c 	str.w	r1, [sl, #12]
    8e46:	2a1b      	cmp	r2, #27
    8e48:	f200 80df 	bhi.w	900a <_realloc_r+0x392>
    8e4c:	3408      	adds	r4, #8
    8e4e:	f10a 0210 	add.w	r2, sl, #16
    8e52:	6821      	ldr	r1, [r4, #0]
    8e54:	6011      	str	r1, [r2, #0]
    8e56:	6861      	ldr	r1, [r4, #4]
    8e58:	6051      	str	r1, [r2, #4]
    8e5a:	68a1      	ldr	r1, [r4, #8]
    8e5c:	6091      	str	r1, [r2, #8]
    8e5e:	eb0a 0105 	add.w	r1, sl, r5
    8e62:	ebab 0205 	sub.w	r2, fp, r5
    8e66:	f042 0201 	orr.w	r2, r2, #1
    8e6a:	6099      	str	r1, [r3, #8]
    8e6c:	604a      	str	r2, [r1, #4]
    8e6e:	f8da 3004 	ldr.w	r3, [sl, #4]
    8e72:	f003 0301 	and.w	r3, r3, #1
    8e76:	432b      	orrs	r3, r5
    8e78:	4640      	mov	r0, r8
    8e7a:	f8ca 3004 	str.w	r3, [sl, #4]
    8e7e:	f7ff fef5 	bl	8c6c <__malloc_unlock>
    8e82:	e76e      	b.n	8d62 <_realloc_r+0xea>
    8e84:	6823      	ldr	r3, [r4, #0]
    8e86:	6003      	str	r3, [r0, #0]
    8e88:	6863      	ldr	r3, [r4, #4]
    8e8a:	6043      	str	r3, [r0, #4]
    8e8c:	2a1b      	cmp	r2, #27
    8e8e:	d868      	bhi.n	8f62 <_realloc_r+0x2ea>
    8e90:	f104 0208 	add.w	r2, r4, #8
    8e94:	f100 0308 	add.w	r3, r0, #8
    8e98:	e74a      	b.n	8d30 <_realloc_r+0xb8>
    8e9a:	eb09 0205 	add.w	r2, r9, r5
    8e9e:	609a      	str	r2, [r3, #8]
    8ea0:	ebac 0305 	sub.w	r3, ip, r5
    8ea4:	f043 0301 	orr.w	r3, r3, #1
    8ea8:	6053      	str	r3, [r2, #4]
    8eaa:	f854 3c04 	ldr.w	r3, [r4, #-4]
    8eae:	f003 0301 	and.w	r3, r3, #1
    8eb2:	432b      	orrs	r3, r5
    8eb4:	4640      	mov	r0, r8
    8eb6:	f844 3c04 	str.w	r3, [r4, #-4]
    8eba:	f7ff fed7 	bl	8c6c <__malloc_unlock>
    8ebe:	4627      	mov	r7, r4
    8ec0:	e74f      	b.n	8d62 <_realloc_r+0xea>
    8ec2:	f850 3c04 	ldr.w	r3, [r0, #-4]
    8ec6:	f023 0303 	bic.w	r3, r3, #3
    8eca:	441e      	add	r6, r3
    8ecc:	e751      	b.n	8d72 <_realloc_r+0xfa>
    8ece:	4657      	mov	r7, sl
    8ed0:	f8da 100c 	ldr.w	r1, [sl, #12]
    8ed4:	f857 0f08 	ldr.w	r0, [r7, #8]!
    8ed8:	1f32      	subs	r2, r6, #4
    8eda:	2a24      	cmp	r2, #36	; 0x24
    8edc:	60c1      	str	r1, [r0, #12]
    8ede:	6088      	str	r0, [r1, #8]
    8ee0:	d84c      	bhi.n	8f7c <_realloc_r+0x304>
    8ee2:	2a13      	cmp	r2, #19
    8ee4:	d948      	bls.n	8f78 <_realloc_r+0x300>
    8ee6:	6821      	ldr	r1, [r4, #0]
    8ee8:	f8ca 1008 	str.w	r1, [sl, #8]
    8eec:	6861      	ldr	r1, [r4, #4]
    8eee:	f8ca 100c 	str.w	r1, [sl, #12]
    8ef2:	2a1b      	cmp	r2, #27
    8ef4:	d856      	bhi.n	8fa4 <_realloc_r+0x32c>
    8ef6:	3408      	adds	r4, #8
    8ef8:	f10a 0210 	add.w	r2, sl, #16
    8efc:	461e      	mov	r6, r3
    8efe:	6823      	ldr	r3, [r4, #0]
    8f00:	6013      	str	r3, [r2, #0]
    8f02:	6863      	ldr	r3, [r4, #4]
    8f04:	6053      	str	r3, [r2, #4]
    8f06:	68a3      	ldr	r3, [r4, #8]
    8f08:	6093      	str	r3, [r2, #8]
    8f0a:	46d1      	mov	r9, sl
    8f0c:	463c      	mov	r4, r7
    8f0e:	e730      	b.n	8d72 <_realloc_r+0xfa>
    8f10:	4621      	mov	r1, r4
    8f12:	f000 fa0b 	bl	932c <memmove>
    8f16:	e711      	b.n	8d3c <_realloc_r+0xc4>
    8f18:	e9d0 1302 	ldrd	r1, r3, [r0, #8]
    8f1c:	4657      	mov	r7, sl
    8f1e:	60cb      	str	r3, [r1, #12]
    8f20:	6099      	str	r1, [r3, #8]
    8f22:	f857 1f08 	ldr.w	r1, [r7, #8]!
    8f26:	f8da 300c 	ldr.w	r3, [sl, #12]
    8f2a:	60cb      	str	r3, [r1, #12]
    8f2c:	1f32      	subs	r2, r6, #4
    8f2e:	2a24      	cmp	r2, #36	; 0x24
    8f30:	6099      	str	r1, [r3, #8]
    8f32:	d82d      	bhi.n	8f90 <_realloc_r+0x318>
    8f34:	2a13      	cmp	r2, #19
    8f36:	d929      	bls.n	8f8c <_realloc_r+0x314>
    8f38:	6823      	ldr	r3, [r4, #0]
    8f3a:	f8ca 3008 	str.w	r3, [sl, #8]
    8f3e:	6863      	ldr	r3, [r4, #4]
    8f40:	f8ca 300c 	str.w	r3, [sl, #12]
    8f44:	2a1b      	cmp	r2, #27
    8f46:	d842      	bhi.n	8fce <_realloc_r+0x356>
    8f48:	3408      	adds	r4, #8
    8f4a:	f10a 0310 	add.w	r3, sl, #16
    8f4e:	6822      	ldr	r2, [r4, #0]
    8f50:	601a      	str	r2, [r3, #0]
    8f52:	6862      	ldr	r2, [r4, #4]
    8f54:	605a      	str	r2, [r3, #4]
    8f56:	68a2      	ldr	r2, [r4, #8]
    8f58:	609a      	str	r2, [r3, #8]
    8f5a:	4666      	mov	r6, ip
    8f5c:	46d1      	mov	r9, sl
    8f5e:	463c      	mov	r4, r7
    8f60:	e707      	b.n	8d72 <_realloc_r+0xfa>
    8f62:	68a3      	ldr	r3, [r4, #8]
    8f64:	6083      	str	r3, [r0, #8]
    8f66:	68e3      	ldr	r3, [r4, #12]
    8f68:	60c3      	str	r3, [r0, #12]
    8f6a:	2a24      	cmp	r2, #36	; 0x24
    8f6c:	d026      	beq.n	8fbc <_realloc_r+0x344>
    8f6e:	f104 0210 	add.w	r2, r4, #16
    8f72:	f100 0310 	add.w	r3, r0, #16
    8f76:	e6db      	b.n	8d30 <_realloc_r+0xb8>
    8f78:	463a      	mov	r2, r7
    8f7a:	e7bf      	b.n	8efc <_realloc_r+0x284>
    8f7c:	4621      	mov	r1, r4
    8f7e:	4638      	mov	r0, r7
    8f80:	461e      	mov	r6, r3
    8f82:	46d1      	mov	r9, sl
    8f84:	f000 f9d2 	bl	932c <memmove>
    8f88:	463c      	mov	r4, r7
    8f8a:	e6f2      	b.n	8d72 <_realloc_r+0xfa>
    8f8c:	463b      	mov	r3, r7
    8f8e:	e7de      	b.n	8f4e <_realloc_r+0x2d6>
    8f90:	4621      	mov	r1, r4
    8f92:	4638      	mov	r0, r7
    8f94:	4666      	mov	r6, ip
    8f96:	46d1      	mov	r9, sl
    8f98:	f000 f9c8 	bl	932c <memmove>
    8f9c:	463c      	mov	r4, r7
    8f9e:	e6e8      	b.n	8d72 <_realloc_r+0xfa>
    8fa0:	20000e24 	.word	0x20000e24
    8fa4:	68a1      	ldr	r1, [r4, #8]
    8fa6:	f8ca 1010 	str.w	r1, [sl, #16]
    8faa:	68e1      	ldr	r1, [r4, #12]
    8fac:	f8ca 1014 	str.w	r1, [sl, #20]
    8fb0:	2a24      	cmp	r2, #36	; 0x24
    8fb2:	d020      	beq.n	8ff6 <_realloc_r+0x37e>
    8fb4:	3410      	adds	r4, #16
    8fb6:	f10a 0218 	add.w	r2, sl, #24
    8fba:	e79f      	b.n	8efc <_realloc_r+0x284>
    8fbc:	6923      	ldr	r3, [r4, #16]
    8fbe:	6103      	str	r3, [r0, #16]
    8fc0:	6961      	ldr	r1, [r4, #20]
    8fc2:	6141      	str	r1, [r0, #20]
    8fc4:	f104 0218 	add.w	r2, r4, #24
    8fc8:	f100 0318 	add.w	r3, r0, #24
    8fcc:	e6b0      	b.n	8d30 <_realloc_r+0xb8>
    8fce:	68a3      	ldr	r3, [r4, #8]
    8fd0:	f8ca 3010 	str.w	r3, [sl, #16]
    8fd4:	68e3      	ldr	r3, [r4, #12]
    8fd6:	f8ca 3014 	str.w	r3, [sl, #20]
    8fda:	2a24      	cmp	r2, #36	; 0x24
    8fdc:	d021      	beq.n	9022 <_realloc_r+0x3aa>
    8fde:	3410      	adds	r4, #16
    8fe0:	f10a 0318 	add.w	r3, sl, #24
    8fe4:	e7b3      	b.n	8f4e <_realloc_r+0x2d6>
    8fe6:	463a      	mov	r2, r7
    8fe8:	e733      	b.n	8e52 <_realloc_r+0x1da>
    8fea:	4621      	mov	r1, r4
    8fec:	4638      	mov	r0, r7
    8fee:	f000 f99d 	bl	932c <memmove>
    8ff2:	4b16      	ldr	r3, [pc, #88]	; (904c <_realloc_r+0x3d4>)
    8ff4:	e733      	b.n	8e5e <_realloc_r+0x1e6>
    8ff6:	6922      	ldr	r2, [r4, #16]
    8ff8:	f8ca 2018 	str.w	r2, [sl, #24]
    8ffc:	6962      	ldr	r2, [r4, #20]
    8ffe:	f8ca 201c 	str.w	r2, [sl, #28]
    9002:	3418      	adds	r4, #24
    9004:	f10a 0220 	add.w	r2, sl, #32
    9008:	e778      	b.n	8efc <_realloc_r+0x284>
    900a:	68a1      	ldr	r1, [r4, #8]
    900c:	f8ca 1010 	str.w	r1, [sl, #16]
    9010:	68e1      	ldr	r1, [r4, #12]
    9012:	f8ca 1014 	str.w	r1, [sl, #20]
    9016:	2a24      	cmp	r2, #36	; 0x24
    9018:	d00d      	beq.n	9036 <_realloc_r+0x3be>
    901a:	3410      	adds	r4, #16
    901c:	f10a 0218 	add.w	r2, sl, #24
    9020:	e717      	b.n	8e52 <_realloc_r+0x1da>
    9022:	6923      	ldr	r3, [r4, #16]
    9024:	f8ca 3018 	str.w	r3, [sl, #24]
    9028:	6963      	ldr	r3, [r4, #20]
    902a:	f8ca 301c 	str.w	r3, [sl, #28]
    902e:	3418      	adds	r4, #24
    9030:	f10a 0320 	add.w	r3, sl, #32
    9034:	e78b      	b.n	8f4e <_realloc_r+0x2d6>
    9036:	6922      	ldr	r2, [r4, #16]
    9038:	f8ca 2018 	str.w	r2, [sl, #24]
    903c:	6962      	ldr	r2, [r4, #20]
    903e:	f8ca 201c 	str.w	r2, [sl, #28]
    9042:	3418      	adds	r4, #24
    9044:	f10a 0220 	add.w	r2, sl, #32
    9048:	e703      	b.n	8e52 <_realloc_r+0x1da>
    904a:	bf00      	nop
    904c:	20000e24 	.word	0x20000e24

00009050 <stdio_exit_handler>:
    9050:	4a02      	ldr	r2, [pc, #8]	; (905c <stdio_exit_handler+0xc>)
    9052:	4903      	ldr	r1, [pc, #12]	; (9060 <stdio_exit_handler+0x10>)
    9054:	4803      	ldr	r0, [pc, #12]	; (9064 <stdio_exit_handler+0x14>)
    9056:	f000 b8bb 	b.w	91d0 <_fwalk_sglue>
    905a:	bf00      	nop
    905c:	20001234 	.word	0x20001234
    9060:	0000bd0d 	.word	0x0000bd0d
    9064:	20000b78 	.word	0x20000b78

00009068 <cleanup_stdio>:
    9068:	4b0c      	ldr	r3, [pc, #48]	; (909c <cleanup_stdio+0x34>)
    906a:	6841      	ldr	r1, [r0, #4]
    906c:	4299      	cmp	r1, r3
    906e:	b510      	push	{r4, lr}
    9070:	4604      	mov	r4, r0
    9072:	d001      	beq.n	9078 <cleanup_stdio+0x10>
    9074:	f002 fe4a 	bl	bd0c <_fclose_r>
    9078:	68a1      	ldr	r1, [r4, #8]
    907a:	4b09      	ldr	r3, [pc, #36]	; (90a0 <cleanup_stdio+0x38>)
    907c:	4299      	cmp	r1, r3
    907e:	d002      	beq.n	9086 <cleanup_stdio+0x1e>
    9080:	4620      	mov	r0, r4
    9082:	f002 fe43 	bl	bd0c <_fclose_r>
    9086:	68e1      	ldr	r1, [r4, #12]
    9088:	4b06      	ldr	r3, [pc, #24]	; (90a4 <cleanup_stdio+0x3c>)
    908a:	4299      	cmp	r1, r3
    908c:	d004      	beq.n	9098 <cleanup_stdio+0x30>
    908e:	4620      	mov	r0, r4
    9090:	e8bd 4010 	ldmia.w	sp!, {r4, lr}
    9094:	f002 be3a 	b.w	bd0c <_fclose_r>
    9098:	bd10      	pop	{r4, pc}
    909a:	bf00      	nop
    909c:	20009a08 	.word	0x20009a08
    90a0:	20009a70 	.word	0x20009a70
    90a4:	20009ad8 	.word	0x20009ad8

000090a8 <global_stdio_init.part.0>:
    90a8:	e92d 43f8 	stmdb	sp!, {r3, r4, r5, r6, r7, r8, r9, lr}
    90ac:	4c2a      	ldr	r4, [pc, #168]	; (9158 <global_stdio_init.part.0+0xb0>)
    90ae:	4b2b      	ldr	r3, [pc, #172]	; (915c <global_stdio_init.part.0+0xb4>)
    90b0:	482b      	ldr	r0, [pc, #172]	; (9160 <global_stdio_init.part.0+0xb8>)
    90b2:	f8df 90c0 	ldr.w	r9, [pc, #192]	; 9174 <global_stdio_init.part.0+0xcc>
    90b6:	f8df 80c0 	ldr.w	r8, [pc, #192]	; 9178 <global_stdio_init.part.0+0xd0>
    90ba:	4f2a      	ldr	r7, [pc, #168]	; (9164 <global_stdio_init.part.0+0xbc>)
    90bc:	6018      	str	r0, [r3, #0]
    90be:	2500      	movs	r5, #0
    90c0:	2304      	movs	r3, #4
    90c2:	2208      	movs	r2, #8
    90c4:	4629      	mov	r1, r5
    90c6:	f104 005c 	add.w	r0, r4, #92	; 0x5c
    90ca:	4e27      	ldr	r6, [pc, #156]	; (9168 <global_stdio_init.part.0+0xc0>)
    90cc:	6665      	str	r5, [r4, #100]	; 0x64
    90ce:	e9c4 5302 	strd	r5, r3, [r4, #8]
    90d2:	e9c4 5500 	strd	r5, r5, [r4]
    90d6:	e9c4 5504 	strd	r5, r5, [r4, #16]
    90da:	61a5      	str	r5, [r4, #24]
    90dc:	f000 f9a2 	bl	9424 <memset>
    90e0:	4b22      	ldr	r3, [pc, #136]	; (916c <global_stdio_init.part.0+0xc4>)
    90e2:	6763      	str	r3, [r4, #116]	; 0x74
    90e4:	2208      	movs	r2, #8
    90e6:	4629      	mov	r1, r5
    90e8:	f104 00c4 	add.w	r0, r4, #196	; 0xc4
    90ec:	e9c4 4907 	strd	r4, r9, [r4, #28]
    90f0:	e9c4 8709 	strd	r8, r7, [r4, #36]	; 0x24
    90f4:	e9c4 551a 	strd	r5, r5, [r4, #104]	; 0x68
    90f8:	e9c4 551e 	strd	r5, r5, [r4, #120]	; 0x78
    90fc:	f8c4 50cc 	str.w	r5, [r4, #204]	; 0xcc
    9100:	6725      	str	r5, [r4, #112]	; 0x70
    9102:	f8c4 5080 	str.w	r5, [r4, #128]	; 0x80
    9106:	62e6      	str	r6, [r4, #44]	; 0x2c
    9108:	f000 f98c 	bl	9424 <memset>
    910c:	4b18      	ldr	r3, [pc, #96]	; (9170 <global_stdio_init.part.0+0xc8>)
    910e:	f8c4 30dc 	str.w	r3, [r4, #220]	; 0xdc
    9112:	4629      	mov	r1, r5
    9114:	f104 0368 	add.w	r3, r4, #104	; 0x68
    9118:	2208      	movs	r2, #8
    911a:	f504 7096 	add.w	r0, r4, #300	; 0x12c
    911e:	f8c4 3084 	str.w	r3, [r4, #132]	; 0x84
    9122:	e9c4 9822 	strd	r9, r8, [r4, #136]	; 0x88
    9126:	e9c4 7624 	strd	r7, r6, [r4, #144]	; 0x90
    912a:	e9c4 5534 	strd	r5, r5, [r4, #208]	; 0xd0
    912e:	e9c4 5538 	strd	r5, r5, [r4, #224]	; 0xe0
    9132:	f8c4 5134 	str.w	r5, [r4, #308]	; 0x134
    9136:	f8c4 50d8 	str.w	r5, [r4, #216]	; 0xd8
    913a:	f8c4 50e8 	str.w	r5, [r4, #232]	; 0xe8
    913e:	f000 f971 	bl	9424 <memset>
    9142:	f104 03d0 	add.w	r3, r4, #208	; 0xd0
    9146:	e9c4 983c 	strd	r9, r8, [r4, #240]	; 0xf0
    914a:	e9c4 763e 	strd	r7, r6, [r4, #248]	; 0xf8
    914e:	f8c4 30ec 	str.w	r3, [r4, #236]	; 0xec
    9152:	e8bd 83f8 	ldmia.w	sp!, {r3, r4, r5, r6, r7, r8, r9, pc}
    9156:	bf00      	nop
    9158:	20009a08 	.word	0x20009a08
    915c:	20009b40 	.word	0x20009b40
    9160:	00009051 	.word	0x00009051
    9164:	00009305 	.word	0x00009305
    9168:	00009325 	.word	0x00009325
    916c:	00010009 	.word	0x00010009
    9170:	00020012 	.word	0x00020012
    9174:	000092a1 	.word	0x000092a1
    9178:	000092c5 	.word	0x000092c5

0000917c <__sinit>:
    917c:	b510      	push	{r4, lr}
    917e:	4604      	mov	r4, r0
    9180:	480a      	ldr	r0, [pc, #40]	; (91ac <__sinit+0x30>)
    9182:	f000 fa6d 	bl	9660 <__retarget_lock_acquire_recursive>
    9186:	6b63      	ldr	r3, [r4, #52]	; 0x34
    9188:	b923      	cbnz	r3, 9194 <__sinit+0x18>
    918a:	4b09      	ldr	r3, [pc, #36]	; (91b0 <__sinit+0x34>)
    918c:	4a09      	ldr	r2, [pc, #36]	; (91b4 <__sinit+0x38>)
    918e:	681b      	ldr	r3, [r3, #0]
    9190:	6362      	str	r2, [r4, #52]	; 0x34
    9192:	b123      	cbz	r3, 919e <__sinit+0x22>
    9194:	e8bd 4010 	ldmia.w	sp!, {r4, lr}
    9198:	4804      	ldr	r0, [pc, #16]	; (91ac <__sinit+0x30>)
    919a:	f000 ba63 	b.w	9664 <__retarget_lock_release_recursive>
    919e:	f7ff ff83 	bl	90a8 <global_stdio_init.part.0>
    91a2:	e8bd 4010 	ldmia.w	sp!, {r4, lr}
    91a6:	4801      	ldr	r0, [pc, #4]	; (91ac <__sinit+0x30>)
    91a8:	f000 ba5c 	b.w	9664 <__retarget_lock_release_recursive>
    91ac:	200099d0 	.word	0x200099d0
    91b0:	20009b40 	.word	0x20009b40
    91b4:	00009069 	.word	0x00009069

000091b8 <__sfp_lock_acquire>:
    91b8:	4801      	ldr	r0, [pc, #4]	; (91c0 <__sfp_lock_acquire+0x8>)
    91ba:	f000 ba51 	b.w	9660 <__retarget_lock_acquire_recursive>
    91be:	bf00      	nop
    91c0:	200099d0 	.word	0x200099d0

000091c4 <__sfp_lock_release>:
    91c4:	4801      	ldr	r0, [pc, #4]	; (91cc <__sfp_lock_release+0x8>)
    91c6:	f000 ba4d 	b.w	9664 <__retarget_lock_release_recursive>
    91ca:	bf00      	nop
    91cc:	200099d0 	.word	0x200099d0

000091d0 <_fwalk_sglue>:
    91d0:	e92d 43f8 	stmdb	sp!, {r3, r4, r5, r6, r7, r8, r9, lr}
    91d4:	4680      	mov	r8, r0
    91d6:	460f      	mov	r7, r1
    91d8:	4616      	mov	r6, r2
    91da:	f04f 0900 	mov.w	r9, #0
    91de:	e9d6 5401 	ldrd	r5, r4, [r6, #4]
    91e2:	3d01      	subs	r5, #1
    91e4:	d411      	bmi.n	920a <_fwalk_sglue+0x3a>
    91e6:	89a3      	ldrh	r3, [r4, #12]
    91e8:	2b01      	cmp	r3, #1
    91ea:	f105 35ff 	add.w	r5, r5, #4294967295
    91ee:	d908      	bls.n	9202 <_fwalk_sglue+0x32>
    91f0:	f9b4 300e 	ldrsh.w	r3, [r4, #14]
    91f4:	3301      	adds	r3, #1
    91f6:	4621      	mov	r1, r4
    91f8:	d003      	beq.n	9202 <_fwalk_sglue+0x32>
    91fa:	4640      	mov	r0, r8
    91fc:	47b8      	blx	r7
    91fe:	ea49 0900 	orr.w	r9, r9, r0
    9202:	1c6b      	adds	r3, r5, #1
    9204:	f104 0468 	add.w	r4, r4, #104	; 0x68
    9208:	d1ed      	bne.n	91e6 <_fwalk_sglue+0x16>
    920a:	6836      	ldr	r6, [r6, #0]
    920c:	2e00      	cmp	r6, #0
    920e:	d1e6      	bne.n	91de <_fwalk_sglue+0xe>
    9210:	4648      	mov	r0, r9
    9212:	e8bd 83f8 	ldmia.w	sp!, {r3, r4, r5, r6, r7, r8, r9, pc}
    9216:	bf00      	nop

00009218 <snprintf>:
    9218:	b40c      	push	{r2, r3}
    921a:	b510      	push	{r4, lr}
    921c:	4b1f      	ldr	r3, [pc, #124]	; (929c <snprintf+0x84>)
    921e:	2900      	cmp	r1, #0
    9220:	681c      	ldr	r4, [r3, #0]
    9222:	b09c      	sub	sp, #112	; 0x70
    9224:	db35      	blt.n	9292 <snprintf+0x7a>
    9226:	f44f 7302 	mov.w	r3, #520	; 0x208
    922a:	f8ad 3014 	strh.w	r3, [sp, #20]
    922e:	9002      	str	r0, [sp, #8]
    9230:	9006      	str	r0, [sp, #24]
    9232:	ab1f      	add	r3, sp, #124	; 0x7c
    9234:	d018      	beq.n	9268 <snprintf+0x50>
    9236:	3901      	subs	r1, #1
    9238:	f64f 72ff 	movw	r2, #65535	; 0xffff
    923c:	9104      	str	r1, [sp, #16]
    923e:	9107      	str	r1, [sp, #28]
    9240:	f8ad 2016 	strh.w	r2, [sp, #22]
    9244:	a902      	add	r1, sp, #8
    9246:	9a1e      	ldr	r2, [sp, #120]	; 0x78
    9248:	9301      	str	r3, [sp, #4]
    924a:	4620      	mov	r0, r4
    924c:	f000 ffbc 	bl	a1c8 <_svfprintf_r>
    9250:	1c42      	adds	r2, r0, #1
    9252:	da01      	bge.n	9258 <snprintf+0x40>
    9254:	238b      	movs	r3, #139	; 0x8b
    9256:	6023      	str	r3, [r4, #0]
    9258:	9b02      	ldr	r3, [sp, #8]
    925a:	2200      	movs	r2, #0
    925c:	701a      	strb	r2, [r3, #0]
    925e:	b01c      	add	sp, #112	; 0x70
    9260:	e8bd 4010 	ldmia.w	sp!, {r4, lr}
    9264:	b002      	add	sp, #8
    9266:	4770      	bx	lr
    9268:	f64f 72ff 	movw	r2, #65535	; 0xffff
    926c:	9104      	str	r1, [sp, #16]
    926e:	9107      	str	r1, [sp, #28]
    9270:	f8ad 2016 	strh.w	r2, [sp, #22]
    9274:	a902      	add	r1, sp, #8
    9276:	9a1e      	ldr	r2, [sp, #120]	; 0x78
    9278:	9301      	str	r3, [sp, #4]
    927a:	4620      	mov	r0, r4
    927c:	f000 ffa4 	bl	a1c8 <_svfprintf_r>
    9280:	1c43      	adds	r3, r0, #1
    9282:	da01      	bge.n	9288 <snprintf+0x70>
    9284:	238b      	movs	r3, #139	; 0x8b
    9286:	6023      	str	r3, [r4, #0]
    9288:	b01c      	add	sp, #112	; 0x70
    928a:	e8bd 4010 	ldmia.w	sp!, {r4, lr}
    928e:	b002      	add	sp, #8
    9290:	4770      	bx	lr
    9292:	238b      	movs	r3, #139	; 0x8b
    9294:	6023      	str	r3, [r4, #0]
    9296:	f04f 30ff 	mov.w	r0, #4294967295
    929a:	e7f5      	b.n	9288 <snprintf+0x70>
    929c:	20001240 	.word	0x20001240

000092a0 <__sread>:
    92a0:	b510      	push	{r4, lr}
    92a2:	460c      	mov	r4, r1
    92a4:	f9b1 100e 	ldrsh.w	r1, [r1, #14]
    92a8:	f000 f96e 	bl	9588 <_read_r>
    92ac:	2800      	cmp	r0, #0
    92ae:	db03      	blt.n	92b8 <__sread+0x18>
    92b0:	6d23      	ldr	r3, [r4, #80]	; 0x50
    92b2:	4403      	add	r3, r0
    92b4:	6523      	str	r3, [r4, #80]	; 0x50
    92b6:	bd10      	pop	{r4, pc}
    92b8:	89a3      	ldrh	r3, [r4, #12]
    92ba:	f423 5380 	bic.w	r3, r3, #4096	; 0x1000
    92be:	81a3      	strh	r3, [r4, #12]
    92c0:	bd10      	pop	{r4, pc}
    92c2:	bf00      	nop

000092c4 <__swrite>:
    92c4:	e92d 41f0 	stmdb	sp!, {r4, r5, r6, r7, r8, lr}
    92c8:	460c      	mov	r4, r1
    92ca:	f9b1 100c 	ldrsh.w	r1, [r1, #12]
    92ce:	461f      	mov	r7, r3
    92d0:	05cb      	lsls	r3, r1, #23
    92d2:	4605      	mov	r5, r0
    92d4:	4616      	mov	r6, r2
    92d6:	d40b      	bmi.n	92f0 <__swrite+0x2c>
    92d8:	f421 5180 	bic.w	r1, r1, #4096	; 0x1000
    92dc:	81a1      	strh	r1, [r4, #12]
    92de:	463b      	mov	r3, r7
    92e0:	f9b4 100e 	ldrsh.w	r1, [r4, #14]
    92e4:	4632      	mov	r2, r6
    92e6:	4628      	mov	r0, r5
    92e8:	e8bd 41f0 	ldmia.w	sp!, {r4, r5, r6, r7, r8, lr}
    92ec:	f000 b974 	b.w	95d8 <_write_r>
    92f0:	f9b4 100e 	ldrsh.w	r1, [r4, #14]
    92f4:	2302      	movs	r3, #2
    92f6:	2200      	movs	r2, #0
    92f8:	f000 f930 	bl	955c <_lseek_r>
    92fc:	f9b4 100c 	ldrsh.w	r1, [r4, #12]
    9300:	e7ea      	b.n	92d8 <__swrite+0x14>
    9302:	bf00      	nop

00009304 <__sseek>:
    9304:	b510      	push	{r4, lr}
    9306:	460c      	mov	r4, r1
    9308:	f9b1 100e 	ldrsh.w	r1, [r1, #14]
    930c:	f000 f926 	bl	955c <_lseek_r>
    9310:	89a3      	ldrh	r3, [r4, #12]
    9312:	1c42      	adds	r2, r0, #1
    9314:	bf0e      	itee	eq
    9316:	f423 5380 	biceq.w	r3, r3, #4096	; 0x1000
    931a:	f443 5380 	orrne.w	r3, r3, #4096	; 0x1000
    931e:	6520      	strne	r0, [r4, #80]	; 0x50
    9320:	81a3      	strh	r3, [r4, #12]
    9322:	bd10      	pop	{r4, pc}

00009324 <__sclose>:
    9324:	f9b1 100e 	ldrsh.w	r1, [r1, #14]
    9328:	f000 b906 	b.w	9538 <_close_r>

0000932c <memmove>:
    932c:	4288      	cmp	r0, r1
    932e:	d90d      	bls.n	934c <memmove+0x20>
    9330:	188b      	adds	r3, r1, r2
    9332:	4283      	cmp	r3, r0
    9334:	d90a      	bls.n	934c <memmove+0x20>
    9336:	eb00 0c02 	add.w	ip, r0, r2
    933a:	b1ba      	cbz	r2, 936c <memmove+0x40>
    933c:	4662      	mov	r2, ip
    933e:	f813 cd01 	ldrb.w	ip, [r3, #-1]!
    9342:	f802 cd01 	strb.w	ip, [r2, #-1]!
    9346:	4299      	cmp	r1, r3
    9348:	d1f9      	bne.n	933e <memmove+0x12>
    934a:	4770      	bx	lr
    934c:	2a0f      	cmp	r2, #15
    934e:	d80e      	bhi.n	936e <memmove+0x42>
    9350:	4603      	mov	r3, r0
    9352:	f102 3cff 	add.w	ip, r2, #4294967295
    9356:	b14a      	cbz	r2, 936c <memmove+0x40>
    9358:	f10c 0c01 	add.w	ip, ip, #1
    935c:	3b01      	subs	r3, #1
    935e:	448c      	add	ip, r1
    9360:	f811 2b01 	ldrb.w	r2, [r1], #1
    9364:	f803 2f01 	strb.w	r2, [r3, #1]!
    9368:	4561      	cmp	r1, ip
    936a:	d1f9      	bne.n	9360 <memmove+0x34>
    936c:	4770      	bx	lr
    936e:	ea40 0301 	orr.w	r3, r0, r1
    9372:	079b      	lsls	r3, r3, #30
    9374:	d150      	bne.n	9418 <memmove+0xec>
    9376:	f1a2 0310 	sub.w	r3, r2, #16
    937a:	b570      	push	{r4, r5, r6, lr}
    937c:	f101 0c20 	add.w	ip, r1, #32
    9380:	f023 050f 	bic.w	r5, r3, #15
    9384:	f101 0e10 	add.w	lr, r1, #16
    9388:	f100 0410 	add.w	r4, r0, #16
    938c:	44ac      	add	ip, r5
    938e:	091b      	lsrs	r3, r3, #4
    9390:	f85e 5c10 	ldr.w	r5, [lr, #-16]
    9394:	f844 5c10 	str.w	r5, [r4, #-16]
    9398:	f85e 5c0c 	ldr.w	r5, [lr, #-12]
    939c:	f844 5c0c 	str.w	r5, [r4, #-12]
    93a0:	f85e 5c08 	ldr.w	r5, [lr, #-8]
    93a4:	f844 5c08 	str.w	r5, [r4, #-8]
    93a8:	f85e 5c04 	ldr.w	r5, [lr, #-4]
    93ac:	f844 5c04 	str.w	r5, [r4, #-4]
    93b0:	f10e 0e10 	add.w	lr, lr, #16
    93b4:	45e6      	cmp	lr, ip
    93b6:	f104 0410 	add.w	r4, r4, #16
    93ba:	d1e9      	bne.n	9390 <memmove+0x64>
    93bc:	3301      	adds	r3, #1
    93be:	f012 0f0c 	tst.w	r2, #12
    93c2:	eb01 1103 	add.w	r1, r1, r3, lsl #4
    93c6:	f002 040f 	and.w	r4, r2, #15
    93ca:	eb00 1303 	add.w	r3, r0, r3, lsl #4
    93ce:	d027      	beq.n	9420 <memmove+0xf4>
    93d0:	3c04      	subs	r4, #4
    93d2:	f024 0603 	bic.w	r6, r4, #3
    93d6:	ea4f 0c94 	mov.w	ip, r4, lsr #2
    93da:	441e      	add	r6, r3
    93dc:	1f1c      	subs	r4, r3, #4
    93de:	468e      	mov	lr, r1
    93e0:	f85e 5b04 	ldr.w	r5, [lr], #4
    93e4:	f844 5f04 	str.w	r5, [r4, #4]!
    93e8:	42b4      	cmp	r4, r6
    93ea:	d1f9      	bne.n	93e0 <memmove+0xb4>
    93ec:	f10c 0401 	add.w	r4, ip, #1
    93f0:	f002 0203 	and.w	r2, r2, #3
    93f4:	eb03 0384 	add.w	r3, r3, r4, lsl #2
    93f8:	eb01 0184 	add.w	r1, r1, r4, lsl #2
    93fc:	f102 3cff 	add.w	ip, r2, #4294967295
    9400:	b14a      	cbz	r2, 9416 <memmove+0xea>
    9402:	f10c 0c01 	add.w	ip, ip, #1
    9406:	3b01      	subs	r3, #1
    9408:	448c      	add	ip, r1
    940a:	f811 2b01 	ldrb.w	r2, [r1], #1
    940e:	f803 2f01 	strb.w	r2, [r3, #1]!
    9412:	4561      	cmp	r1, ip
    9414:	d1f9      	bne.n	940a <memmove+0xde>
    9416:	bd70      	pop	{r4, r5, r6, pc}
    9418:	f102 3cff 	add.w	ip, r2, #4294967295
    941c:	4603      	mov	r3, r0
    941e:	e79b      	b.n	9358 <memmove+0x2c>
    9420:	4622      	mov	r2, r4
    9422:	e7eb      	b.n	93fc <memmove+0xd0>

00009424 <memset>:
    9424:	0783      	lsls	r3, r0, #30
    9426:	b530      	push	{r4, r5, lr}
    9428:	d048      	beq.n	94bc <memset+0x98>
    942a:	1e54      	subs	r4, r2, #1
    942c:	2a00      	cmp	r2, #0
    942e:	d03f      	beq.n	94b0 <memset+0x8c>
    9430:	b2ca      	uxtb	r2, r1
    9432:	4603      	mov	r3, r0
    9434:	e001      	b.n	943a <memset+0x16>
    9436:	3c01      	subs	r4, #1
    9438:	d33a      	bcc.n	94b0 <memset+0x8c>
    943a:	f803 2b01 	strb.w	r2, [r3], #1
    943e:	079d      	lsls	r5, r3, #30
    9440:	d1f9      	bne.n	9436 <memset+0x12>
    9442:	2c03      	cmp	r4, #3
    9444:	d92d      	bls.n	94a2 <memset+0x7e>
    9446:	b2cd      	uxtb	r5, r1
    9448:	ea45 2505 	orr.w	r5, r5, r5, lsl #8
    944c:	2c0f      	cmp	r4, #15
    944e:	ea45 4505 	orr.w	r5, r5, r5, lsl #16
    9452:	d936      	bls.n	94c2 <memset+0x9e>
    9454:	f1a4 0210 	sub.w	r2, r4, #16
    9458:	f022 0c0f 	bic.w	ip, r2, #15
    945c:	f103 0e20 	add.w	lr, r3, #32
    9460:	44e6      	add	lr, ip
    9462:	ea4f 1c12 	mov.w	ip, r2, lsr #4
    9466:	f103 0210 	add.w	r2, r3, #16
    946a:	e942 5504 	strd	r5, r5, [r2, #-16]
    946e:	e942 5502 	strd	r5, r5, [r2, #-8]
    9472:	3210      	adds	r2, #16
    9474:	4572      	cmp	r2, lr
    9476:	d1f8      	bne.n	946a <memset+0x46>
    9478:	f10c 0201 	add.w	r2, ip, #1
    947c:	f014 0f0c 	tst.w	r4, #12
    9480:	eb03 1202 	add.w	r2, r3, r2, lsl #4
    9484:	f004 0c0f 	and.w	ip, r4, #15
    9488:	d013      	beq.n	94b2 <memset+0x8e>
    948a:	f1ac 0304 	sub.w	r3, ip, #4
    948e:	f023 0303 	bic.w	r3, r3, #3
    9492:	3304      	adds	r3, #4
    9494:	4413      	add	r3, r2
    9496:	f842 5b04 	str.w	r5, [r2], #4
    949a:	4293      	cmp	r3, r2
    949c:	d1fb      	bne.n	9496 <memset+0x72>
    949e:	f00c 0403 	and.w	r4, ip, #3
    94a2:	b12c      	cbz	r4, 94b0 <memset+0x8c>
    94a4:	b2c9      	uxtb	r1, r1
    94a6:	441c      	add	r4, r3
    94a8:	f803 1b01 	strb.w	r1, [r3], #1
    94ac:	429c      	cmp	r4, r3
    94ae:	d1fb      	bne.n	94a8 <memset+0x84>
    94b0:	bd30      	pop	{r4, r5, pc}
    94b2:	4664      	mov	r4, ip
    94b4:	4613      	mov	r3, r2
    94b6:	2c00      	cmp	r4, #0
    94b8:	d1f4      	bne.n	94a4 <memset+0x80>
    94ba:	e7f9      	b.n	94b0 <memset+0x8c>
    94bc:	4603      	mov	r3, r0
    94be:	4614      	mov	r4, r2
    94c0:	e7bf      	b.n	9442 <memset+0x1e>
    94c2:	461a      	mov	r2, r3
    94c4:	46a4      	mov	ip, r4
    94c6:	e7e0      	b.n	948a <memset+0x66>

000094c8 <strncpy>:
    94c8:	ea40 0301 	orr.w	r3, r0, r1
    94cc:	079b      	lsls	r3, r3, #30
    94ce:	b530      	push	{r4, r5, lr}
    94d0:	d101      	bne.n	94d6 <strncpy+0xe>
    94d2:	2a03      	cmp	r2, #3
    94d4:	d80f      	bhi.n	94f6 <strncpy+0x2e>
    94d6:	4684      	mov	ip, r0
    94d8:	f101 3eff 	add.w	lr, r1, #4294967295
    94dc:	e007      	b.n	94ee <strncpy+0x26>
    94de:	f81e 1f01 	ldrb.w	r1, [lr, #1]!
    94e2:	f803 1b01 	strb.w	r1, [r3], #1
    94e6:	1e54      	subs	r4, r2, #1
    94e8:	b1c1      	cbz	r1, 951c <strncpy+0x54>
    94ea:	469c      	mov	ip, r3
    94ec:	4622      	mov	r2, r4
    94ee:	4663      	mov	r3, ip
    94f0:	2a00      	cmp	r2, #0
    94f2:	d1f4      	bne.n	94de <strncpy+0x16>
    94f4:	bd30      	pop	{r4, r5, pc}
    94f6:	460b      	mov	r3, r1
    94f8:	4684      	mov	ip, r0
    94fa:	4619      	mov	r1, r3
    94fc:	f853 5b04 	ldr.w	r5, [r3], #4
    9500:	f1a5 3401 	sub.w	r4, r5, #16843009	; 0x1010101
    9504:	ea24 0405 	bic.w	r4, r4, r5
    9508:	f014 3f80 	tst.w	r4, #2155905152	; 0x80808080
    950c:	d1e4      	bne.n	94d8 <strncpy+0x10>
    950e:	3a04      	subs	r2, #4
    9510:	2a03      	cmp	r2, #3
    9512:	f84c 5b04 	str.w	r5, [ip], #4
    9516:	4619      	mov	r1, r3
    9518:	d8ef      	bhi.n	94fa <strncpy+0x32>
    951a:	e7dd      	b.n	94d8 <strncpy+0x10>
    951c:	4494      	add	ip, r2
    951e:	2c00      	cmp	r4, #0
    9520:	d0e8      	beq.n	94f4 <strncpy+0x2c>
    9522:	f803 1b01 	strb.w	r1, [r3], #1
    9526:	4563      	cmp	r3, ip
    9528:	d1fb      	bne.n	9522 <strncpy+0x5a>
    952a:	bd30      	pop	{r4, r5, pc}

0000952c <__locale_mb_cur_max>:
    952c:	4b01      	ldr	r3, [pc, #4]	; (9534 <__locale_mb_cur_max+0x8>)
    952e:	f893 0128 	ldrb.w	r0, [r3, #296]	; 0x128
    9532:	4770      	bx	lr
    9534:	20000cb8 	.word	0x20000cb8

00009538 <_close_r>:
    9538:	b538      	push	{r3, r4, r5, lr}
    953a:	4d07      	ldr	r5, [pc, #28]	; (9558 <_close_r+0x20>)
    953c:	2200      	movs	r2, #0
    953e:	4604      	mov	r4, r0
    9540:	4608      	mov	r0, r1
    9542:	602a      	str	r2, [r5, #0]
    9544:	f7fd f95c 	bl	6800 <_close>
    9548:	1c43      	adds	r3, r0, #1
    954a:	d000      	beq.n	954e <_close_r+0x16>
    954c:	bd38      	pop	{r3, r4, r5, pc}
    954e:	682b      	ldr	r3, [r5, #0]
    9550:	2b00      	cmp	r3, #0
    9552:	d0fb      	beq.n	954c <_close_r+0x14>
    9554:	6023      	str	r3, [r4, #0]
    9556:	bd38      	pop	{r3, r4, r5, pc}
    9558:	20009b54 	.word	0x20009b54

0000955c <_lseek_r>:
    955c:	b538      	push	{r3, r4, r5, lr}
    955e:	460c      	mov	r4, r1
    9560:	4d08      	ldr	r5, [pc, #32]	; (9584 <_lseek_r+0x28>)
    9562:	4684      	mov	ip, r0
    9564:	4611      	mov	r1, r2
    9566:	4620      	mov	r0, r4
    9568:	461a      	mov	r2, r3
    956a:	2300      	movs	r3, #0
    956c:	602b      	str	r3, [r5, #0]
    956e:	4664      	mov	r4, ip
    9570:	f7fd f952 	bl	6818 <_lseek>
    9574:	1c43      	adds	r3, r0, #1
    9576:	d000      	beq.n	957a <_lseek_r+0x1e>
    9578:	bd38      	pop	{r3, r4, r5, pc}
    957a:	682b      	ldr	r3, [r5, #0]
    957c:	2b00      	cmp	r3, #0
    957e:	d0fb      	beq.n	9578 <_lseek_r+0x1c>
    9580:	6023      	str	r3, [r4, #0]
    9582:	bd38      	pop	{r3, r4, r5, pc}
    9584:	20009b54 	.word	0x20009b54

00009588 <_read_r>:
    9588:	b538      	push	{r3, r4, r5, lr}
    958a:	460c      	mov	r4, r1
    958c:	4d08      	ldr	r5, [pc, #32]	; (95b0 <_read_r+0x28>)
    958e:	4684      	mov	ip, r0
    9590:	4611      	mov	r1, r2
    9592:	4620      	mov	r0, r4
    9594:	461a      	mov	r2, r3
    9596:	2300      	movs	r3, #0
    9598:	602b      	str	r3, [r5, #0]
    959a:	4664      	mov	r4, ip
    959c:	f7fd f92e 	bl	67fc <_read>
    95a0:	1c43      	adds	r3, r0, #1
    95a2:	d000      	beq.n	95a6 <_read_r+0x1e>
    95a4:	bd38      	pop	{r3, r4, r5, pc}
    95a6:	682b      	ldr	r3, [r5, #0]
    95a8:	2b00      	cmp	r3, #0
    95aa:	d0fb      	beq.n	95a4 <_read_r+0x1c>
    95ac:	6023      	str	r3, [r4, #0]
    95ae:	bd38      	pop	{r3, r4, r5, pc}
    95b0:	20009b54 	.word	0x20009b54

000095b4 <_sbrk_r>:
    95b4:	b538      	push	{r3, r4, r5, lr}
    95b6:	4d07      	ldr	r5, [pc, #28]	; (95d4 <_sbrk_r+0x20>)
    95b8:	2200      	movs	r2, #0
    95ba:	4604      	mov	r4, r0
    95bc:	4608      	mov	r0, r1
    95be:	602a      	str	r2, [r5, #0]
    95c0:	f7fd f902 	bl	67c8 <_sbrk>
    95c4:	1c43      	adds	r3, r0, #1
    95c6:	d000      	beq.n	95ca <_sbrk_r+0x16>
    95c8:	bd38      	pop	{r3, r4, r5, pc}
    95ca:	682b      	ldr	r3, [r5, #0]
    95cc:	2b00      	cmp	r3, #0
    95ce:	d0fb      	beq.n	95c8 <_sbrk_r+0x14>
    95d0:	6023      	str	r3, [r4, #0]
    95d2:	bd38      	pop	{r3, r4, r5, pc}
    95d4:	20009b54 	.word	0x20009b54

000095d8 <_write_r>:
    95d8:	b538      	push	{r3, r4, r5, lr}
    95da:	460c      	mov	r4, r1
    95dc:	4d08      	ldr	r5, [pc, #32]	; (9600 <_write_r+0x28>)
    95de:	4684      	mov	ip, r0
    95e0:	4611      	mov	r1, r2
    95e2:	4620      	mov	r0, r4
    95e4:	461a      	mov	r2, r3
    95e6:	2300      	movs	r3, #0
    95e8:	602b      	str	r3, [r5, #0]
    95ea:	4664      	mov	r4, ip
    95ec:	f7fc fe76 	bl	62dc <_write>
    95f0:	1c43      	adds	r3, r0, #1
    95f2:	d000      	beq.n	95f6 <_write_r+0x1e>
    95f4:	bd38      	pop	{r3, r4, r5, pc}
    95f6:	682b      	ldr	r3, [r5, #0]
    95f8:	2b00      	cmp	r3, #0
    95fa:	d0fb      	beq.n	95f4 <_write_r+0x1c>
    95fc:	6023      	str	r3, [r4, #0]
    95fe:	bd38      	pop	{r3, r4, r5, pc}
    9600:	20009b54 	.word	0x20009b54

00009604 <__errno>:
    9604:	4b01      	ldr	r3, [pc, #4]	; (960c <__errno+0x8>)
    9606:	6818      	ldr	r0, [r3, #0]
    9608:	4770      	bx	lr
    960a:	bf00      	nop
    960c:	20001240 	.word	0x20001240

00009610 <__libc_init_array>:
    9610:	b570      	push	{r4, r5, r6, lr}
    9612:	4e0d      	ldr	r6, [pc, #52]	; (9648 <__libc_init_array+0x38>)
    9614:	4d0d      	ldr	r5, [pc, #52]	; (964c <__libc_init_array+0x3c>)
    9616:	1b76      	subs	r6, r6, r5
    9618:	10b6      	asrs	r6, r6, #2
    961a:	d006      	beq.n	962a <__libc_init_array+0x1a>
    961c:	2400      	movs	r4, #0
    961e:	f855 3b04 	ldr.w	r3, [r5], #4
    9622:	3401      	adds	r4, #1
    9624:	4798      	blx	r3
    9626:	42a6      	cmp	r6, r4
    9628:	d1f9      	bne.n	961e <__libc_init_array+0xe>
    962a:	4e09      	ldr	r6, [pc, #36]	; (9650 <__libc_init_array+0x40>)
    962c:	4d09      	ldr	r5, [pc, #36]	; (9654 <__libc_init_array+0x44>)
    962e:	1b76      	subs	r6, r6, r5
    9630:	f005 f982 	bl	e938 <___init_veneer>
    9634:	10b6      	asrs	r6, r6, #2
    9636:	d006      	beq.n	9646 <__libc_init_array+0x36>
    9638:	2400      	movs	r4, #0
    963a:	f855 3b04 	ldr.w	r3, [r5], #4
    963e:	3401      	adds	r4, #1
    9640:	4798      	blx	r3
    9642:	42a6      	cmp	r6, r4
    9644:	d1f9      	bne.n	963a <__libc_init_array+0x2a>
    9646:	bd70      	pop	{r4, r5, r6, pc}
    9648:	60001dd0 	.word	0x60001dd0
    964c:	60001dd0 	.word	0x60001dd0
    9650:	60001dd4 	.word	0x60001dd4
    9654:	60001dd0 	.word	0x60001dd0

00009658 <__retarget_lock_init_recursive>:
    9658:	4770      	bx	lr
    965a:	bf00      	nop

0000965c <__retarget_lock_close_recursive>:
    965c:	4770      	bx	lr
    965e:	bf00      	nop

00009660 <__retarget_lock_acquire_recursive>:
    9660:	4770      	bx	lr
    9662:	bf00      	nop

00009664 <__retarget_lock_release_recursive>:
    9664:	4770      	bx	lr
    9666:	bf00      	nop
	...

00009680 <strlen>:
    9680:	f890 f000 	pld	[r0]
    9684:	e96d 4502 	strd	r4, r5, [sp, #-8]!
    9688:	f020 0107 	bic.w	r1, r0, #7
    968c:	f06f 0c00 	mvn.w	ip, #0
    9690:	f010 0407 	ands.w	r4, r0, #7
    9694:	f891 f020 	pld	[r1, #32]
    9698:	f040 8049 	bne.w	972e <strlen+0xae>
    969c:	f04f 0400 	mov.w	r4, #0
    96a0:	f06f 0007 	mvn.w	r0, #7
    96a4:	e9d1 2300 	ldrd	r2, r3, [r1]
    96a8:	f891 f040 	pld	[r1, #64]	; 0x40
    96ac:	f100 0008 	add.w	r0, r0, #8
    96b0:	fa82 f24c 	uadd8	r2, r2, ip
    96b4:	faa4 f28c 	sel	r2, r4, ip
    96b8:	fa83 f34c 	uadd8	r3, r3, ip
    96bc:	faa2 f38c 	sel	r3, r2, ip
    96c0:	bb4b      	cbnz	r3, 9716 <strlen+0x96>
    96c2:	e9d1 2302 	ldrd	r2, r3, [r1, #8]
    96c6:	fa82 f24c 	uadd8	r2, r2, ip
    96ca:	f100 0008 	add.w	r0, r0, #8
    96ce:	faa4 f28c 	sel	r2, r4, ip
    96d2:	fa83 f34c 	uadd8	r3, r3, ip
    96d6:	faa2 f38c 	sel	r3, r2, ip
    96da:	b9e3      	cbnz	r3, 9716 <strlen+0x96>
    96dc:	e9d1 2304 	ldrd	r2, r3, [r1, #16]
    96e0:	fa82 f24c 	uadd8	r2, r2, ip
    96e4:	f100 0008 	add.w	r0, r0, #8
    96e8:	faa4 f28c 	sel	r2, r4, ip
    96ec:	fa83 f34c 	uadd8	r3, r3, ip
    96f0:	faa2 f38c 	sel	r3, r2, ip
    96f4:	b97b      	cbnz	r3, 9716 <strlen+0x96>
    96f6:	e9d1 2306 	ldrd	r2, r3, [r1, #24]
    96fa:	f101 0120 	add.w	r1, r1, #32
    96fe:	fa82 f24c 	uadd8	r2, r2, ip
    9702:	f100 0008 	add.w	r0, r0, #8
    9706:	faa4 f28c 	sel	r2, r4, ip
    970a:	fa83 f34c 	uadd8	r3, r3, ip
    970e:	faa2 f38c 	sel	r3, r2, ip
    9712:	2b00      	cmp	r3, #0
    9714:	d0c6      	beq.n	96a4 <strlen+0x24>
    9716:	2a00      	cmp	r2, #0
    9718:	bf04      	itt	eq
    971a:	3004      	addeq	r0, #4
    971c:	461a      	moveq	r2, r3
    971e:	ba12      	rev	r2, r2
    9720:	fab2 f282 	clz	r2, r2
    9724:	e8fd 4502 	ldrd	r4, r5, [sp], #8
    9728:	eb00 00d2 	add.w	r0, r0, r2, lsr #3
    972c:	4770      	bx	lr
    972e:	e9d1 2300 	ldrd	r2, r3, [r1]
    9732:	f004 0503 	and.w	r5, r4, #3
    9736:	f1c4 0000 	rsb	r0, r4, #0
    973a:	ea4f 05c5 	mov.w	r5, r5, lsl #3
    973e:	f014 0f04 	tst.w	r4, #4
    9742:	f891 f040 	pld	[r1, #64]	; 0x40
    9746:	fa0c f505 	lsl.w	r5, ip, r5
    974a:	ea62 0205 	orn	r2, r2, r5
    974e:	bf1c      	itt	ne
    9750:	ea63 0305 	ornne	r3, r3, r5
    9754:	4662      	movne	r2, ip
    9756:	f04f 0400 	mov.w	r4, #0
    975a:	e7a9      	b.n	96b0 <strlen+0x30>

0000975c <_malloc_trim_r>:
    975c:	b5f8      	push	{r3, r4, r5, r6, r7, lr}
    975e:	4f24      	ldr	r7, [pc, #144]	; (97f0 <_malloc_trim_r+0x94>)
    9760:	460c      	mov	r4, r1
    9762:	4606      	mov	r6, r0
    9764:	f7ff fa7c 	bl	8c60 <__malloc_lock>
    9768:	68bb      	ldr	r3, [r7, #8]
    976a:	685d      	ldr	r5, [r3, #4]
    976c:	f5c4 617e 	rsb	r1, r4, #4064	; 0xfe0
    9770:	310f      	adds	r1, #15
    9772:	f025 0503 	bic.w	r5, r5, #3
    9776:	194b      	adds	r3, r1, r5
    9778:	f423 637f 	bic.w	r3, r3, #4080	; 0xff0
    977c:	f023 030f 	bic.w	r3, r3, #15
    9780:	f5a3 5480 	sub.w	r4, r3, #4096	; 0x1000
    9784:	f5b4 5f80 	cmp.w	r4, #4096	; 0x1000
    9788:	db07      	blt.n	979a <_malloc_trim_r+0x3e>
    978a:	2100      	movs	r1, #0
    978c:	4630      	mov	r0, r6
    978e:	f7ff ff11 	bl	95b4 <_sbrk_r>
    9792:	68bb      	ldr	r3, [r7, #8]
    9794:	442b      	add	r3, r5
    9796:	4298      	cmp	r0, r3
    9798:	d004      	beq.n	97a4 <_malloc_trim_r+0x48>
    979a:	4630      	mov	r0, r6
    979c:	f7ff fa66 	bl	8c6c <__malloc_unlock>
    97a0:	2000      	movs	r0, #0
    97a2:	bdf8      	pop	{r3, r4, r5, r6, r7, pc}
    97a4:	4261      	negs	r1, r4
    97a6:	4630      	mov	r0, r6
    97a8:	f7ff ff04 	bl	95b4 <_sbrk_r>
    97ac:	3001      	adds	r0, #1
    97ae:	d00d      	beq.n	97cc <_malloc_trim_r+0x70>
    97b0:	4a10      	ldr	r2, [pc, #64]	; (97f4 <_malloc_trim_r+0x98>)
    97b2:	68bb      	ldr	r3, [r7, #8]
    97b4:	1b2d      	subs	r5, r5, r4
    97b6:	f045 0501 	orr.w	r5, r5, #1
    97ba:	605d      	str	r5, [r3, #4]
    97bc:	6813      	ldr	r3, [r2, #0]
    97be:	4630      	mov	r0, r6
    97c0:	1b1b      	subs	r3, r3, r4
    97c2:	6013      	str	r3, [r2, #0]
    97c4:	f7ff fa52 	bl	8c6c <__malloc_unlock>
    97c8:	2001      	movs	r0, #1
    97ca:	bdf8      	pop	{r3, r4, r5, r6, r7, pc}
    97cc:	2100      	movs	r1, #0
    97ce:	4630      	mov	r0, r6
    97d0:	f7ff fef0 	bl	95b4 <_sbrk_r>
    97d4:	68ba      	ldr	r2, [r7, #8]
    97d6:	1a83      	subs	r3, r0, r2
    97d8:	2b0f      	cmp	r3, #15
    97da:	ddde      	ble.n	979a <_malloc_trim_r+0x3e>
    97dc:	f043 0301 	orr.w	r3, r3, #1
    97e0:	6053      	str	r3, [r2, #4]
    97e2:	4b05      	ldr	r3, [pc, #20]	; (97f8 <_malloc_trim_r+0x9c>)
    97e4:	4903      	ldr	r1, [pc, #12]	; (97f4 <_malloc_trim_r+0x98>)
    97e6:	681b      	ldr	r3, [r3, #0]
    97e8:	1ac0      	subs	r0, r0, r3
    97ea:	6008      	str	r0, [r1, #0]
    97ec:	e7d5      	b.n	979a <_malloc_trim_r+0x3e>
    97ee:	bf00      	nop
    97f0:	20000e24 	.word	0x20000e24
    97f4:	200099d4 	.word	0x200099d4
    97f8:	2000122c 	.word	0x2000122c

000097fc <_free_r>:
    97fc:	2900      	cmp	r1, #0
    97fe:	d061      	beq.n	98c4 <_free_r+0xc8>
    9800:	b5f8      	push	{r3, r4, r5, r6, r7, lr}
    9802:	460c      	mov	r4, r1
    9804:	4606      	mov	r6, r0
    9806:	f7ff fa2b 	bl	8c60 <__malloc_lock>
    980a:	f854 2c04 	ldr.w	r2, [r4, #-4]
    980e:	4f7b      	ldr	r7, [pc, #492]	; (99fc <_free_r+0x200>)
    9810:	f1a4 0508 	sub.w	r5, r4, #8
    9814:	f022 0101 	bic.w	r1, r2, #1
    9818:	eb05 0c01 	add.w	ip, r5, r1
    981c:	68b8      	ldr	r0, [r7, #8]
    981e:	f8dc 3004 	ldr.w	r3, [ip, #4]
    9822:	4560      	cmp	r0, ip
    9824:	f023 0303 	bic.w	r3, r3, #3
    9828:	f000 808b 	beq.w	9942 <_free_r+0x146>
    982c:	07d2      	lsls	r2, r2, #31
    982e:	f8cc 3004 	str.w	r3, [ip, #4]
    9832:	d432      	bmi.n	989a <_free_r+0x9e>
    9834:	f854 2c08 	ldr.w	r2, [r4, #-8]
    9838:	1aad      	subs	r5, r5, r2
    983a:	4411      	add	r1, r2
    983c:	68aa      	ldr	r2, [r5, #8]
    983e:	f107 0008 	add.w	r0, r7, #8
    9842:	4282      	cmp	r2, r0
    9844:	d06a      	beq.n	991c <_free_r+0x120>
    9846:	eb0c 0403 	add.w	r4, ip, r3
    984a:	f8d4 e004 	ldr.w	lr, [r4, #4]
    984e:	68ec      	ldr	r4, [r5, #12]
    9850:	60d4      	str	r4, [r2, #12]
    9852:	f01e 0f01 	tst.w	lr, #1
    9856:	60a2      	str	r2, [r4, #8]
    9858:	f000 8097 	beq.w	998a <_free_r+0x18e>
    985c:	f041 0301 	orr.w	r3, r1, #1
    9860:	606b      	str	r3, [r5, #4]
    9862:	f8cc 1000 	str.w	r1, [ip]
    9866:	f5b1 7f00 	cmp.w	r1, #512	; 0x200
    986a:	d235      	bcs.n	98d8 <_free_r+0xdc>
    986c:	6878      	ldr	r0, [r7, #4]
    986e:	08cb      	lsrs	r3, r1, #3
    9870:	2201      	movs	r2, #1
    9872:	0949      	lsrs	r1, r1, #5
    9874:	3301      	adds	r3, #1
    9876:	408a      	lsls	r2, r1
    9878:	4302      	orrs	r2, r0
    987a:	f857 1033 	ldr.w	r1, [r7, r3, lsl #3]
    987e:	607a      	str	r2, [r7, #4]
    9880:	eb07 02c3 	add.w	r2, r7, r3, lsl #3
    9884:	3a08      	subs	r2, #8
    9886:	e9c5 1202 	strd	r1, r2, [r5, #8]
    988a:	f847 5033 	str.w	r5, [r7, r3, lsl #3]
    988e:	60cd      	str	r5, [r1, #12]
    9890:	4630      	mov	r0, r6
    9892:	e8bd 40f8 	ldmia.w	sp!, {r3, r4, r5, r6, r7, lr}
    9896:	f7ff b9e9 	b.w	8c6c <__malloc_unlock>
    989a:	eb0c 0203 	add.w	r2, ip, r3
    989e:	6852      	ldr	r2, [r2, #4]
    98a0:	07d0      	lsls	r0, r2, #31
    98a2:	d410      	bmi.n	98c6 <_free_r+0xca>
    98a4:	4419      	add	r1, r3
    98a6:	f107 0008 	add.w	r0, r7, #8
    98aa:	f8dc 3008 	ldr.w	r3, [ip, #8]
    98ae:	4283      	cmp	r3, r0
    98b0:	d073      	beq.n	999a <_free_r+0x19e>
    98b2:	f8dc 200c 	ldr.w	r2, [ip, #12]
    98b6:	60da      	str	r2, [r3, #12]
    98b8:	6093      	str	r3, [r2, #8]
    98ba:	f041 0301 	orr.w	r3, r1, #1
    98be:	606b      	str	r3, [r5, #4]
    98c0:	5069      	str	r1, [r5, r1]
    98c2:	e7d0      	b.n	9866 <_free_r+0x6a>
    98c4:	4770      	bx	lr
    98c6:	f041 0301 	orr.w	r3, r1, #1
    98ca:	f5b1 7f00 	cmp.w	r1, #512	; 0x200
    98ce:	f844 3c04 	str.w	r3, [r4, #-4]
    98d2:	f8cc 1000 	str.w	r1, [ip]
    98d6:	d3c9      	bcc.n	986c <_free_r+0x70>
    98d8:	f5b1 6f20 	cmp.w	r1, #2560	; 0xa00
    98dc:	ea4f 2351 	mov.w	r3, r1, lsr #9
    98e0:	d248      	bcs.n	9974 <_free_r+0x178>
    98e2:	098b      	lsrs	r3, r1, #6
    98e4:	f103 0039 	add.w	r0, r3, #57	; 0x39
    98e8:	f103 0238 	add.w	r2, r3, #56	; 0x38
    98ec:	00c3      	lsls	r3, r0, #3
    98ee:	18f8      	adds	r0, r7, r3
    98f0:	58fb      	ldr	r3, [r7, r3]
    98f2:	3808      	subs	r0, #8
    98f4:	4298      	cmp	r0, r3
    98f6:	d059      	beq.n	99ac <_free_r+0x1b0>
    98f8:	685a      	ldr	r2, [r3, #4]
    98fa:	f022 0203 	bic.w	r2, r2, #3
    98fe:	428a      	cmp	r2, r1
    9900:	d902      	bls.n	9908 <_free_r+0x10c>
    9902:	689b      	ldr	r3, [r3, #8]
    9904:	4298      	cmp	r0, r3
    9906:	d1f7      	bne.n	98f8 <_free_r+0xfc>
    9908:	68d8      	ldr	r0, [r3, #12]
    990a:	e9c5 3002 	strd	r3, r0, [r5, #8]
    990e:	6085      	str	r5, [r0, #8]
    9910:	60dd      	str	r5, [r3, #12]
    9912:	4630      	mov	r0, r6
    9914:	e8bd 40f8 	ldmia.w	sp!, {r3, r4, r5, r6, r7, lr}
    9918:	f7ff b9a8 	b.w	8c6c <__malloc_unlock>
    991c:	eb0c 0203 	add.w	r2, ip, r3
    9920:	6852      	ldr	r2, [r2, #4]
    9922:	07d2      	lsls	r2, r2, #31
    9924:	d463      	bmi.n	99ee <_free_r+0x1f2>
    9926:	440b      	add	r3, r1
    9928:	e9dc 1202 	ldrd	r1, r2, [ip, #8]
    992c:	60ca      	str	r2, [r1, #12]
    992e:	6091      	str	r1, [r2, #8]
    9930:	f043 0201 	orr.w	r2, r3, #1
    9934:	606a      	str	r2, [r5, #4]
    9936:	4630      	mov	r0, r6
    9938:	50eb      	str	r3, [r5, r3]
    993a:	e8bd 40f8 	ldmia.w	sp!, {r3, r4, r5, r6, r7, lr}
    993e:	f7ff b995 	b.w	8c6c <__malloc_unlock>
    9942:	440b      	add	r3, r1
    9944:	07d1      	lsls	r1, r2, #31
    9946:	d407      	bmi.n	9958 <_free_r+0x15c>
    9948:	f854 2c08 	ldr.w	r2, [r4, #-8]
    994c:	1aad      	subs	r5, r5, r2
    994e:	4413      	add	r3, r2
    9950:	e9d5 1202 	ldrd	r1, r2, [r5, #8]
    9954:	60ca      	str	r2, [r1, #12]
    9956:	6091      	str	r1, [r2, #8]
    9958:	f043 0201 	orr.w	r2, r3, #1
    995c:	606a      	str	r2, [r5, #4]
    995e:	4a28      	ldr	r2, [pc, #160]	; (9a00 <_free_r+0x204>)
    9960:	60bd      	str	r5, [r7, #8]
    9962:	6812      	ldr	r2, [r2, #0]
    9964:	429a      	cmp	r2, r3
    9966:	d893      	bhi.n	9890 <_free_r+0x94>
    9968:	4b26      	ldr	r3, [pc, #152]	; (9a04 <_free_r+0x208>)
    996a:	4630      	mov	r0, r6
    996c:	6819      	ldr	r1, [r3, #0]
    996e:	f7ff fef5 	bl	975c <_malloc_trim_r>
    9972:	e78d      	b.n	9890 <_free_r+0x94>
    9974:	2b14      	cmp	r3, #20
    9976:	d90a      	bls.n	998e <_free_r+0x192>
    9978:	2b54      	cmp	r3, #84	; 0x54
    997a:	d81f      	bhi.n	99bc <_free_r+0x1c0>
    997c:	0b0b      	lsrs	r3, r1, #12
    997e:	f103 006f 	add.w	r0, r3, #111	; 0x6f
    9982:	f103 026e 	add.w	r2, r3, #110	; 0x6e
    9986:	00c3      	lsls	r3, r0, #3
    9988:	e7b1      	b.n	98ee <_free_r+0xf2>
    998a:	4419      	add	r1, r3
    998c:	e78d      	b.n	98aa <_free_r+0xae>
    998e:	f103 005c 	add.w	r0, r3, #92	; 0x5c
    9992:	f103 025b 	add.w	r2, r3, #91	; 0x5b
    9996:	00c3      	lsls	r3, r0, #3
    9998:	e7a9      	b.n	98ee <_free_r+0xf2>
    999a:	f041 0301 	orr.w	r3, r1, #1
    999e:	e9c7 5504 	strd	r5, r5, [r7, #16]
    99a2:	e9c5 0002 	strd	r0, r0, [r5, #8]
    99a6:	606b      	str	r3, [r5, #4]
    99a8:	5069      	str	r1, [r5, r1]
    99aa:	e771      	b.n	9890 <_free_r+0x94>
    99ac:	6879      	ldr	r1, [r7, #4]
    99ae:	1092      	asrs	r2, r2, #2
    99b0:	2401      	movs	r4, #1
    99b2:	fa04 f202 	lsl.w	r2, r4, r2
    99b6:	430a      	orrs	r2, r1
    99b8:	607a      	str	r2, [r7, #4]
    99ba:	e7a6      	b.n	990a <_free_r+0x10e>
    99bc:	f5b3 7faa 	cmp.w	r3, #340	; 0x154
    99c0:	d806      	bhi.n	99d0 <_free_r+0x1d4>
    99c2:	0bcb      	lsrs	r3, r1, #15
    99c4:	f103 0078 	add.w	r0, r3, #120	; 0x78
    99c8:	f103 0277 	add.w	r2, r3, #119	; 0x77
    99cc:	00c3      	lsls	r3, r0, #3
    99ce:	e78e      	b.n	98ee <_free_r+0xf2>
    99d0:	f240 5254 	movw	r2, #1364	; 0x554
    99d4:	4293      	cmp	r3, r2
    99d6:	d806      	bhi.n	99e6 <_free_r+0x1ea>
    99d8:	0c8b      	lsrs	r3, r1, #18
    99da:	f103 007d 	add.w	r0, r3, #125	; 0x7d
    99de:	f103 027c 	add.w	r2, r3, #124	; 0x7c
    99e2:	00c3      	lsls	r3, r0, #3
    99e4:	e783      	b.n	98ee <_free_r+0xf2>
    99e6:	f44f 737e 	mov.w	r3, #1016	; 0x3f8
    99ea:	227e      	movs	r2, #126	; 0x7e
    99ec:	e77f      	b.n	98ee <_free_r+0xf2>
    99ee:	f041 0301 	orr.w	r3, r1, #1
    99f2:	606b      	str	r3, [r5, #4]
    99f4:	f8cc 1000 	str.w	r1, [ip]
    99f8:	e74a      	b.n	9890 <_free_r+0x94>
    99fa:	bf00      	nop
    99fc:	20000e24 	.word	0x20000e24
    9a00:	20001230 	.word	0x20001230
    9a04:	20009a04 	.word	0x20009a04

00009a08 <__ascii_mbtowc>:
    9a08:	b082      	sub	sp, #8
    9a0a:	b149      	cbz	r1, 9a20 <__ascii_mbtowc+0x18>
    9a0c:	b15a      	cbz	r2, 9a26 <__ascii_mbtowc+0x1e>
    9a0e:	b16b      	cbz	r3, 9a2c <__ascii_mbtowc+0x24>
    9a10:	7813      	ldrb	r3, [r2, #0]
    9a12:	600b      	str	r3, [r1, #0]
    9a14:	7812      	ldrb	r2, [r2, #0]
    9a16:	1e10      	subs	r0, r2, #0
    9a18:	bf18      	it	ne
    9a1a:	2001      	movne	r0, #1
    9a1c:	b002      	add	sp, #8
    9a1e:	4770      	bx	lr
    9a20:	a901      	add	r1, sp, #4
    9a22:	2a00      	cmp	r2, #0
    9a24:	d1f3      	bne.n	9a0e <__ascii_mbtowc+0x6>
    9a26:	4610      	mov	r0, r2
    9a28:	b002      	add	sp, #8
    9a2a:	4770      	bx	lr
    9a2c:	f06f 0001 	mvn.w	r0, #1
    9a30:	e7f4      	b.n	9a1c <__ascii_mbtowc+0x14>
    9a32:	bf00      	nop

00009a34 <_Balloc>:
    9a34:	6c43      	ldr	r3, [r0, #68]	; 0x44
    9a36:	b570      	push	{r4, r5, r6, lr}
    9a38:	4605      	mov	r5, r0
    9a3a:	460c      	mov	r4, r1
    9a3c:	b14b      	cbz	r3, 9a52 <_Balloc+0x1e>
    9a3e:	f853 0024 	ldr.w	r0, [r3, r4, lsl #2]
    9a42:	b180      	cbz	r0, 9a66 <_Balloc+0x32>
    9a44:	6802      	ldr	r2, [r0, #0]
    9a46:	f843 2024 	str.w	r2, [r3, r4, lsl #2]
    9a4a:	2300      	movs	r3, #0
    9a4c:	e9c0 3303 	strd	r3, r3, [r0, #12]
    9a50:	bd70      	pop	{r4, r5, r6, pc}
    9a52:	2221      	movs	r2, #33	; 0x21
    9a54:	2104      	movs	r1, #4
    9a56:	f002 fb2f 	bl	c0b8 <_calloc_r>
    9a5a:	4603      	mov	r3, r0
    9a5c:	6468      	str	r0, [r5, #68]	; 0x44
    9a5e:	2800      	cmp	r0, #0
    9a60:	d1ed      	bne.n	9a3e <_Balloc+0xa>
    9a62:	2000      	movs	r0, #0
    9a64:	bd70      	pop	{r4, r5, r6, pc}
    9a66:	2101      	movs	r1, #1
    9a68:	fa01 f604 	lsl.w	r6, r1, r4
    9a6c:	1d72      	adds	r2, r6, #5
    9a6e:	0092      	lsls	r2, r2, #2
    9a70:	4628      	mov	r0, r5
    9a72:	f002 fb21 	bl	c0b8 <_calloc_r>
    9a76:	2800      	cmp	r0, #0
    9a78:	d0f3      	beq.n	9a62 <_Balloc+0x2e>
    9a7a:	e9c0 4601 	strd	r4, r6, [r0, #4]
    9a7e:	e7e4      	b.n	9a4a <_Balloc+0x16>

00009a80 <_Bfree>:
    9a80:	b131      	cbz	r1, 9a90 <_Bfree+0x10>
    9a82:	6c43      	ldr	r3, [r0, #68]	; 0x44
    9a84:	684a      	ldr	r2, [r1, #4]
    9a86:	f853 0022 	ldr.w	r0, [r3, r2, lsl #2]
    9a8a:	6008      	str	r0, [r1, #0]
    9a8c:	f843 1022 	str.w	r1, [r3, r2, lsl #2]
    9a90:	4770      	bx	lr
    9a92:	bf00      	nop

00009a94 <__multadd>:
    9a94:	e92d 41f0 	stmdb	sp!, {r4, r5, r6, r7, r8, lr}
    9a98:	690e      	ldr	r6, [r1, #16]
    9a9a:	4680      	mov	r8, r0
    9a9c:	460f      	mov	r7, r1
    9a9e:	461d      	mov	r5, r3
    9aa0:	f101 0e14 	add.w	lr, r1, #20
    9aa4:	2000      	movs	r0, #0
    9aa6:	f8de 1000 	ldr.w	r1, [lr]
    9aaa:	b28c      	uxth	r4, r1
    9aac:	fb02 5304 	mla	r3, r2, r4, r5
    9ab0:	0c09      	lsrs	r1, r1, #16
    9ab2:	ea4f 4c13 	mov.w	ip, r3, lsr #16
    9ab6:	fb02 cc01 	mla	ip, r2, r1, ip
    9aba:	3001      	adds	r0, #1
    9abc:	b29c      	uxth	r4, r3
    9abe:	eb04 440c 	add.w	r4, r4, ip, lsl #16
    9ac2:	4286      	cmp	r6, r0
    9ac4:	f84e 4b04 	str.w	r4, [lr], #4
    9ac8:	ea4f 451c 	mov.w	r5, ip, lsr #16
    9acc:	dceb      	bgt.n	9aa6 <__multadd+0x12>
    9ace:	b13d      	cbz	r5, 9ae0 <__multadd+0x4c>
    9ad0:	68bb      	ldr	r3, [r7, #8]
    9ad2:	42b3      	cmp	r3, r6
    9ad4:	dd07      	ble.n	9ae6 <__multadd+0x52>
    9ad6:	eb07 0386 	add.w	r3, r7, r6, lsl #2
    9ada:	3601      	adds	r6, #1
    9adc:	615d      	str	r5, [r3, #20]
    9ade:	613e      	str	r6, [r7, #16]
    9ae0:	4638      	mov	r0, r7
    9ae2:	e8bd 81f0 	ldmia.w	sp!, {r4, r5, r6, r7, r8, pc}
    9ae6:	6879      	ldr	r1, [r7, #4]
    9ae8:	4640      	mov	r0, r8
    9aea:	3101      	adds	r1, #1
    9aec:	f7ff ffa2 	bl	9a34 <_Balloc>
    9af0:	4604      	mov	r4, r0
    9af2:	b1b0      	cbz	r0, 9b22 <__multadd+0x8e>
    9af4:	693a      	ldr	r2, [r7, #16]
    9af6:	3202      	adds	r2, #2
    9af8:	f107 010c 	add.w	r1, r7, #12
    9afc:	0092      	lsls	r2, r2, #2
    9afe:	300c      	adds	r0, #12
    9b00:	f7fc fcd4 	bl	64ac <memcpy>
    9b04:	f8d8 3044 	ldr.w	r3, [r8, #68]	; 0x44
    9b08:	687a      	ldr	r2, [r7, #4]
    9b0a:	f853 1022 	ldr.w	r1, [r3, r2, lsl #2]
    9b0e:	6039      	str	r1, [r7, #0]
    9b10:	f843 7022 	str.w	r7, [r3, r2, lsl #2]
    9b14:	4627      	mov	r7, r4
    9b16:	eb07 0386 	add.w	r3, r7, r6, lsl #2
    9b1a:	3601      	adds	r6, #1
    9b1c:	615d      	str	r5, [r3, #20]
    9b1e:	613e      	str	r6, [r7, #16]
    9b20:	e7de      	b.n	9ae0 <__multadd+0x4c>
    9b22:	4b03      	ldr	r3, [pc, #12]	; (9b30 <__multadd+0x9c>)
    9b24:	4803      	ldr	r0, [pc, #12]	; (9b34 <__multadd+0xa0>)
    9b26:	4622      	mov	r2, r4
    9b28:	21ba      	movs	r1, #186	; 0xba
    9b2a:	f002 faa5 	bl	c078 <__assert_func>
    9b2e:	bf00      	nop
    9b30:	20000788 	.word	0x20000788
    9b34:	2000079c 	.word	0x2000079c

00009b38 <__hi0bits>:
    9b38:	0c03      	lsrs	r3, r0, #16
    9b3a:	041b      	lsls	r3, r3, #16
    9b3c:	b9d3      	cbnz	r3, 9b74 <__hi0bits+0x3c>
    9b3e:	0400      	lsls	r0, r0, #16
    9b40:	2310      	movs	r3, #16
    9b42:	f010 4f7f 	tst.w	r0, #4278190080	; 0xff000000
    9b46:	bf04      	itt	eq
    9b48:	0200      	lsleq	r0, r0, #8
    9b4a:	3308      	addeq	r3, #8
    9b4c:	f010 4f70 	tst.w	r0, #4026531840	; 0xf0000000
    9b50:	bf04      	itt	eq
    9b52:	0100      	lsleq	r0, r0, #4
    9b54:	3304      	addeq	r3, #4
    9b56:	f010 4f40 	tst.w	r0, #3221225472	; 0xc0000000
    9b5a:	bf04      	itt	eq
    9b5c:	0080      	lsleq	r0, r0, #2
    9b5e:	3302      	addeq	r3, #2
    9b60:	2800      	cmp	r0, #0
    9b62:	db05      	blt.n	9b70 <__hi0bits+0x38>
    9b64:	f010 4f80 	tst.w	r0, #1073741824	; 0x40000000
    9b68:	f103 0301 	add.w	r3, r3, #1
    9b6c:	bf08      	it	eq
    9b6e:	2320      	moveq	r3, #32
    9b70:	4618      	mov	r0, r3
    9b72:	4770      	bx	lr
    9b74:	2300      	movs	r3, #0
    9b76:	e7e4      	b.n	9b42 <__hi0bits+0xa>

00009b78 <__lo0bits>:
    9b78:	6803      	ldr	r3, [r0, #0]
    9b7a:	f013 0207 	ands.w	r2, r3, #7
    9b7e:	d008      	beq.n	9b92 <__lo0bits+0x1a>
    9b80:	07d9      	lsls	r1, r3, #31
    9b82:	d41f      	bmi.n	9bc4 <__lo0bits+0x4c>
    9b84:	079a      	lsls	r2, r3, #30
    9b86:	d522      	bpl.n	9bce <__lo0bits+0x56>
    9b88:	085b      	lsrs	r3, r3, #1
    9b8a:	6003      	str	r3, [r0, #0]
    9b8c:	2201      	movs	r2, #1
    9b8e:	4610      	mov	r0, r2
    9b90:	4770      	bx	lr
    9b92:	b299      	uxth	r1, r3
    9b94:	b909      	cbnz	r1, 9b9a <__lo0bits+0x22>
    9b96:	0c1b      	lsrs	r3, r3, #16
    9b98:	2210      	movs	r2, #16
    9b9a:	b2d9      	uxtb	r1, r3
    9b9c:	b909      	cbnz	r1, 9ba2 <__lo0bits+0x2a>
    9b9e:	3208      	adds	r2, #8
    9ba0:	0a1b      	lsrs	r3, r3, #8
    9ba2:	0719      	lsls	r1, r3, #28
    9ba4:	bf04      	itt	eq
    9ba6:	091b      	lsreq	r3, r3, #4
    9ba8:	3204      	addeq	r2, #4
    9baa:	0799      	lsls	r1, r3, #30
    9bac:	bf04      	itt	eq
    9bae:	089b      	lsreq	r3, r3, #2
    9bb0:	3202      	addeq	r2, #2
    9bb2:	07d9      	lsls	r1, r3, #31
    9bb4:	d403      	bmi.n	9bbe <__lo0bits+0x46>
    9bb6:	085b      	lsrs	r3, r3, #1
    9bb8:	f102 0201 	add.w	r2, r2, #1
    9bbc:	d005      	beq.n	9bca <__lo0bits+0x52>
    9bbe:	6003      	str	r3, [r0, #0]
    9bc0:	4610      	mov	r0, r2
    9bc2:	4770      	bx	lr
    9bc4:	2200      	movs	r2, #0
    9bc6:	4610      	mov	r0, r2
    9bc8:	4770      	bx	lr
    9bca:	2220      	movs	r2, #32
    9bcc:	e7df      	b.n	9b8e <__lo0bits+0x16>
    9bce:	089b      	lsrs	r3, r3, #2
    9bd0:	2202      	movs	r2, #2
    9bd2:	6003      	str	r3, [r0, #0]
    9bd4:	4610      	mov	r0, r2
    9bd6:	4770      	bx	lr

00009bd8 <__i2b>:
    9bd8:	b538      	push	{r3, r4, r5, lr}
    9bda:	6c43      	ldr	r3, [r0, #68]	; 0x44
    9bdc:	4604      	mov	r4, r0
    9bde:	460d      	mov	r5, r1
    9be0:	b14b      	cbz	r3, 9bf6 <__i2b+0x1e>
    9be2:	6858      	ldr	r0, [r3, #4]
    9be4:	b1b0      	cbz	r0, 9c14 <__i2b+0x3c>
    9be6:	6802      	ldr	r2, [r0, #0]
    9be8:	605a      	str	r2, [r3, #4]
    9bea:	2200      	movs	r2, #0
    9bec:	2301      	movs	r3, #1
    9bee:	e9c0 3504 	strd	r3, r5, [r0, #16]
    9bf2:	60c2      	str	r2, [r0, #12]
    9bf4:	bd38      	pop	{r3, r4, r5, pc}
    9bf6:	2221      	movs	r2, #33	; 0x21
    9bf8:	2104      	movs	r1, #4
    9bfa:	f002 fa5d 	bl	c0b8 <_calloc_r>
    9bfe:	4603      	mov	r3, r0
    9c00:	6460      	str	r0, [r4, #68]	; 0x44
    9c02:	2800      	cmp	r0, #0
    9c04:	d1ed      	bne.n	9be2 <__i2b+0xa>
    9c06:	4b09      	ldr	r3, [pc, #36]	; (9c2c <__i2b+0x54>)
    9c08:	4809      	ldr	r0, [pc, #36]	; (9c30 <__i2b+0x58>)
    9c0a:	2200      	movs	r2, #0
    9c0c:	f240 1145 	movw	r1, #325	; 0x145
    9c10:	f002 fa32 	bl	c078 <__assert_func>
    9c14:	221c      	movs	r2, #28
    9c16:	2101      	movs	r1, #1
    9c18:	4620      	mov	r0, r4
    9c1a:	f002 fa4d 	bl	c0b8 <_calloc_r>
    9c1e:	2800      	cmp	r0, #0
    9c20:	d0f1      	beq.n	9c06 <__i2b+0x2e>
    9c22:	2201      	movs	r2, #1
    9c24:	2302      	movs	r3, #2
    9c26:	e9c0 2301 	strd	r2, r3, [r0, #4]
    9c2a:	e7de      	b.n	9bea <__i2b+0x12>
    9c2c:	20000788 	.word	0x20000788
    9c30:	2000079c 	.word	0x2000079c

00009c34 <__multiply>:
    9c34:	e92d 4ff0 	stmdb	sp!, {r4, r5, r6, r7, r8, r9, sl, fp, lr}
    9c38:	690e      	ldr	r6, [r1, #16]
    9c3a:	6915      	ldr	r5, [r2, #16]
    9c3c:	42ae      	cmp	r6, r5
    9c3e:	b085      	sub	sp, #20
    9c40:	4688      	mov	r8, r1
    9c42:	4614      	mov	r4, r2
    9c44:	db05      	blt.n	9c52 <__multiply+0x1e>
    9c46:	462a      	mov	r2, r5
    9c48:	4623      	mov	r3, r4
    9c4a:	4635      	mov	r5, r6
    9c4c:	460c      	mov	r4, r1
    9c4e:	4616      	mov	r6, r2
    9c50:	4698      	mov	r8, r3
    9c52:	68a3      	ldr	r3, [r4, #8]
    9c54:	6861      	ldr	r1, [r4, #4]
    9c56:	19af      	adds	r7, r5, r6
    9c58:	42bb      	cmp	r3, r7
    9c5a:	bfb8      	it	lt
    9c5c:	3101      	addlt	r1, #1
    9c5e:	f7ff fee9 	bl	9a34 <_Balloc>
    9c62:	9001      	str	r0, [sp, #4]
    9c64:	2800      	cmp	r0, #0
    9c66:	f000 8087 	beq.w	9d78 <__multiply+0x144>
    9c6a:	9b01      	ldr	r3, [sp, #4]
    9c6c:	f103 0914 	add.w	r9, r3, #20
    9c70:	eb09 0a87 	add.w	sl, r9, r7, lsl #2
    9c74:	45d1      	cmp	r9, sl
    9c76:	d205      	bcs.n	9c84 <__multiply+0x50>
    9c78:	464b      	mov	r3, r9
    9c7a:	2200      	movs	r2, #0
    9c7c:	f843 2b04 	str.w	r2, [r3], #4
    9c80:	459a      	cmp	sl, r3
    9c82:	d8fb      	bhi.n	9c7c <__multiply+0x48>
    9c84:	f108 0814 	add.w	r8, r8, #20
    9c88:	eb08 0b86 	add.w	fp, r8, r6, lsl #2
    9c8c:	f104 0314 	add.w	r3, r4, #20
    9c90:	45d8      	cmp	r8, fp
    9c92:	461a      	mov	r2, r3
    9c94:	eb03 0585 	add.w	r5, r3, r5, lsl #2
    9c98:	d25f      	bcs.n	9d5a <__multiply+0x126>
    9c9a:	1b2b      	subs	r3, r5, r4
    9c9c:	3b15      	subs	r3, #21
    9c9e:	f023 0303 	bic.w	r3, r3, #3
    9ca2:	3304      	adds	r3, #4
    9ca4:	3415      	adds	r4, #21
    9ca6:	42a5      	cmp	r5, r4
    9ca8:	bf38      	it	cc
    9caa:	2304      	movcc	r3, #4
    9cac:	e9cd a702 	strd	sl, r7, [sp, #8]
    9cb0:	46ac      	mov	ip, r5
    9cb2:	461f      	mov	r7, r3
    9cb4:	4692      	mov	sl, r2
    9cb6:	e005      	b.n	9cc4 <__multiply+0x90>
    9cb8:	0c09      	lsrs	r1, r1, #16
    9cba:	d129      	bne.n	9d10 <__multiply+0xdc>
    9cbc:	45c3      	cmp	fp, r8
    9cbe:	f109 0904 	add.w	r9, r9, #4
    9cc2:	d948      	bls.n	9d56 <__multiply+0x122>
    9cc4:	f858 1b04 	ldr.w	r1, [r8], #4
    9cc8:	b28d      	uxth	r5, r1
    9cca:	2d00      	cmp	r5, #0
    9ccc:	d0f4      	beq.n	9cb8 <__multiply+0x84>
    9cce:	4656      	mov	r6, sl
    9cd0:	464c      	mov	r4, r9
    9cd2:	2300      	movs	r3, #0
    9cd4:	f856 1b04 	ldr.w	r1, [r6], #4
    9cd8:	6822      	ldr	r2, [r4, #0]
    9cda:	fa1f fe81 	uxth.w	lr, r1
    9cde:	b290      	uxth	r0, r2
    9ce0:	0c09      	lsrs	r1, r1, #16
    9ce2:	fb05 000e 	mla	r0, r5, lr, r0
    9ce6:	0c12      	lsrs	r2, r2, #16
    9ce8:	4403      	add	r3, r0
    9cea:	fb05 2201 	mla	r2, r5, r1, r2
    9cee:	eb02 4213 	add.w	r2, r2, r3, lsr #16
    9cf2:	b29b      	uxth	r3, r3
    9cf4:	ea43 4302 	orr.w	r3, r3, r2, lsl #16
    9cf8:	45b4      	cmp	ip, r6
    9cfa:	f844 3b04 	str.w	r3, [r4], #4
    9cfe:	ea4f 4312 	mov.w	r3, r2, lsr #16
    9d02:	d8e7      	bhi.n	9cd4 <__multiply+0xa0>
    9d04:	f849 3007 	str.w	r3, [r9, r7]
    9d08:	f858 1c04 	ldr.w	r1, [r8, #-4]
    9d0c:	0c09      	lsrs	r1, r1, #16
    9d0e:	d0d5      	beq.n	9cbc <__multiply+0x88>
    9d10:	f8d9 3000 	ldr.w	r3, [r9]
    9d14:	4650      	mov	r0, sl
    9d16:	461a      	mov	r2, r3
    9d18:	464c      	mov	r4, r9
    9d1a:	2600      	movs	r6, #0
    9d1c:	8805      	ldrh	r5, [r0, #0]
    9d1e:	0c12      	lsrs	r2, r2, #16
    9d20:	fb01 2205 	mla	r2, r1, r5, r2
    9d24:	4416      	add	r6, r2
    9d26:	b29b      	uxth	r3, r3
    9d28:	ea43 4306 	orr.w	r3, r3, r6, lsl #16
    9d2c:	f844 3b04 	str.w	r3, [r4], #4
    9d30:	f850 5b04 	ldr.w	r5, [r0], #4
    9d34:	6822      	ldr	r2, [r4, #0]
    9d36:	0c2d      	lsrs	r5, r5, #16
    9d38:	b293      	uxth	r3, r2
    9d3a:	fb01 3305 	mla	r3, r1, r5, r3
    9d3e:	eb03 4316 	add.w	r3, r3, r6, lsr #16
    9d42:	4584      	cmp	ip, r0
    9d44:	ea4f 4613 	mov.w	r6, r3, lsr #16
    9d48:	d8e8      	bhi.n	9d1c <__multiply+0xe8>
    9d4a:	45c3      	cmp	fp, r8
    9d4c:	f849 3007 	str.w	r3, [r9, r7]
    9d50:	f109 0904 	add.w	r9, r9, #4
    9d54:	d8b6      	bhi.n	9cc4 <__multiply+0x90>
    9d56:	e9dd a702 	ldrd	sl, r7, [sp, #8]
    9d5a:	2f00      	cmp	r7, #0
    9d5c:	dc02      	bgt.n	9d64 <__multiply+0x130>
    9d5e:	e005      	b.n	9d6c <__multiply+0x138>
    9d60:	3f01      	subs	r7, #1
    9d62:	d003      	beq.n	9d6c <__multiply+0x138>
    9d64:	f85a 3d04 	ldr.w	r3, [sl, #-4]!
    9d68:	2b00      	cmp	r3, #0
    9d6a:	d0f9      	beq.n	9d60 <__multiply+0x12c>
    9d6c:	9b01      	ldr	r3, [sp, #4]
    9d6e:	4618      	mov	r0, r3
    9d70:	611f      	str	r7, [r3, #16]
    9d72:	b005      	add	sp, #20
    9d74:	e8bd 8ff0 	ldmia.w	sp!, {r4, r5, r6, r7, r8, r9, sl, fp, pc}
    9d78:	4b03      	ldr	r3, [pc, #12]	; (9d88 <__multiply+0x154>)
    9d7a:	4804      	ldr	r0, [pc, #16]	; (9d8c <__multiply+0x158>)
    9d7c:	9a01      	ldr	r2, [sp, #4]
    9d7e:	f44f 71b1 	mov.w	r1, #354	; 0x162
    9d82:	f002 f979 	bl	c078 <__assert_func>
    9d86:	bf00      	nop
    9d88:	20000788 	.word	0x20000788
    9d8c:	2000079c 	.word	0x2000079c

00009d90 <__pow5mult>:
    9d90:	f012 0303 	ands.w	r3, r2, #3
    9d94:	e92d 41f0 	stmdb	sp!, {r4, r5, r6, r7, r8, lr}
    9d98:	4614      	mov	r4, r2
    9d9a:	4606      	mov	r6, r0
    9d9c:	d132      	bne.n	9e04 <__pow5mult+0x74>
    9d9e:	460d      	mov	r5, r1
    9da0:	10a4      	asrs	r4, r4, #2
    9da2:	d020      	beq.n	9de6 <__pow5mult+0x56>
    9da4:	f8d6 8040 	ldr.w	r8, [r6, #64]	; 0x40
    9da8:	f1b8 0f00 	cmp.w	r8, #0
    9dac:	d033      	beq.n	9e16 <__pow5mult+0x86>
    9dae:	07e3      	lsls	r3, r4, #31
    9db0:	f04f 0700 	mov.w	r7, #0
    9db4:	d407      	bmi.n	9dc6 <__pow5mult+0x36>
    9db6:	1064      	asrs	r4, r4, #1
    9db8:	d015      	beq.n	9de6 <__pow5mult+0x56>
    9dba:	f8d8 0000 	ldr.w	r0, [r8]
    9dbe:	b1a8      	cbz	r0, 9dec <__pow5mult+0x5c>
    9dc0:	4680      	mov	r8, r0
    9dc2:	07e3      	lsls	r3, r4, #31
    9dc4:	d5f7      	bpl.n	9db6 <__pow5mult+0x26>
    9dc6:	4642      	mov	r2, r8
    9dc8:	4629      	mov	r1, r5
    9dca:	4630      	mov	r0, r6
    9dcc:	f7ff ff32 	bl	9c34 <__multiply>
    9dd0:	b1b5      	cbz	r5, 9e00 <__pow5mult+0x70>
    9dd2:	6869      	ldr	r1, [r5, #4]
    9dd4:	6c73      	ldr	r3, [r6, #68]	; 0x44
    9dd6:	1064      	asrs	r4, r4, #1
    9dd8:	f853 2021 	ldr.w	r2, [r3, r1, lsl #2]
    9ddc:	602a      	str	r2, [r5, #0]
    9dde:	f843 5021 	str.w	r5, [r3, r1, lsl #2]
    9de2:	4605      	mov	r5, r0
    9de4:	d1e9      	bne.n	9dba <__pow5mult+0x2a>
    9de6:	4628      	mov	r0, r5
    9de8:	e8bd 81f0 	ldmia.w	sp!, {r4, r5, r6, r7, r8, pc}
    9dec:	4642      	mov	r2, r8
    9dee:	4641      	mov	r1, r8
    9df0:	4630      	mov	r0, r6
    9df2:	f7ff ff1f 	bl	9c34 <__multiply>
    9df6:	f8c8 0000 	str.w	r0, [r8]
    9dfa:	6007      	str	r7, [r0, #0]
    9dfc:	4680      	mov	r8, r0
    9dfe:	e7e0      	b.n	9dc2 <__pow5mult+0x32>
    9e00:	4605      	mov	r5, r0
    9e02:	e7d8      	b.n	9db6 <__pow5mult+0x26>
    9e04:	3b01      	subs	r3, #1
    9e06:	4a0f      	ldr	r2, [pc, #60]	; (9e44 <__pow5mult+0xb4>)
    9e08:	f852 2023 	ldr.w	r2, [r2, r3, lsl #2]
    9e0c:	2300      	movs	r3, #0
    9e0e:	f7ff fe41 	bl	9a94 <__multadd>
    9e12:	4605      	mov	r5, r0
    9e14:	e7c4      	b.n	9da0 <__pow5mult+0x10>
    9e16:	2101      	movs	r1, #1
    9e18:	4630      	mov	r0, r6
    9e1a:	f7ff fe0b 	bl	9a34 <_Balloc>
    9e1e:	4680      	mov	r8, r0
    9e20:	b140      	cbz	r0, 9e34 <__pow5mult+0xa4>
    9e22:	2301      	movs	r3, #1
    9e24:	f240 2271 	movw	r2, #625	; 0x271
    9e28:	e9c0 3204 	strd	r3, r2, [r0, #16]
    9e2c:	2300      	movs	r3, #0
    9e2e:	6430      	str	r0, [r6, #64]	; 0x40
    9e30:	6003      	str	r3, [r0, #0]
    9e32:	e7bc      	b.n	9dae <__pow5mult+0x1e>
    9e34:	4b04      	ldr	r3, [pc, #16]	; (9e48 <__pow5mult+0xb8>)
    9e36:	4805      	ldr	r0, [pc, #20]	; (9e4c <__pow5mult+0xbc>)
    9e38:	4642      	mov	r2, r8
    9e3a:	f240 1145 	movw	r1, #325	; 0x145
    9e3e:	f002 f91b 	bl	c078 <__assert_func>
    9e42:	bf00      	nop
    9e44:	200009cc 	.word	0x200009cc
    9e48:	20000788 	.word	0x20000788
    9e4c:	2000079c 	.word	0x2000079c

00009e50 <__lshift>:
    9e50:	e92d 47f0 	stmdb	sp!, {r4, r5, r6, r7, r8, r9, sl, lr}
    9e54:	460d      	mov	r5, r1
    9e56:	4614      	mov	r4, r2
    9e58:	692f      	ldr	r7, [r5, #16]
    9e5a:	68ab      	ldr	r3, [r5, #8]
    9e5c:	6849      	ldr	r1, [r1, #4]
    9e5e:	eb07 1762 	add.w	r7, r7, r2, asr #5
    9e62:	1c7e      	adds	r6, r7, #1
    9e64:	429e      	cmp	r6, r3
    9e66:	4680      	mov	r8, r0
    9e68:	ea4f 1962 	mov.w	r9, r2, asr #5
    9e6c:	dd04      	ble.n	9e78 <__lshift+0x28>
    9e6e:	005b      	lsls	r3, r3, #1
    9e70:	429e      	cmp	r6, r3
    9e72:	f101 0101 	add.w	r1, r1, #1
    9e76:	dcfa      	bgt.n	9e6e <__lshift+0x1e>
    9e78:	4640      	mov	r0, r8
    9e7a:	f7ff fddb 	bl	9a34 <_Balloc>
    9e7e:	4684      	mov	ip, r0
    9e80:	2800      	cmp	r0, #0
    9e82:	d052      	beq.n	9f2a <__lshift+0xda>
    9e84:	f1b9 0f00 	cmp.w	r9, #0
    9e88:	f100 0214 	add.w	r2, r0, #20
    9e8c:	dd0e      	ble.n	9eac <__lshift+0x5c>
    9e8e:	f109 0105 	add.w	r1, r9, #5
    9e92:	ea4f 0e81 	mov.w	lr, r1, lsl #2
    9e96:	4613      	mov	r3, r2
    9e98:	eb00 0181 	add.w	r1, r0, r1, lsl #2
    9e9c:	2000      	movs	r0, #0
    9e9e:	f843 0b04 	str.w	r0, [r3], #4
    9ea2:	428b      	cmp	r3, r1
    9ea4:	d1fb      	bne.n	9e9e <__lshift+0x4e>
    9ea6:	f1ae 0314 	sub.w	r3, lr, #20
    9eaa:	441a      	add	r2, r3
    9eac:	6929      	ldr	r1, [r5, #16]
    9eae:	f105 0314 	add.w	r3, r5, #20
    9eb2:	f014 0e1f 	ands.w	lr, r4, #31
    9eb6:	eb03 0181 	add.w	r1, r3, r1, lsl #2
    9eba:	d02e      	beq.n	9f1a <__lshift+0xca>
    9ebc:	f1ce 0920 	rsb	r9, lr, #32
    9ec0:	4610      	mov	r0, r2
    9ec2:	f04f 0a00 	mov.w	sl, #0
    9ec6:	681c      	ldr	r4, [r3, #0]
    9ec8:	fa04 f40e 	lsl.w	r4, r4, lr
    9ecc:	ea44 040a 	orr.w	r4, r4, sl
    9ed0:	f840 4b04 	str.w	r4, [r0], #4
    9ed4:	f853 4b04 	ldr.w	r4, [r3], #4
    9ed8:	4299      	cmp	r1, r3
    9eda:	fa24 fa09 	lsr.w	sl, r4, r9
    9ede:	d8f2      	bhi.n	9ec6 <__lshift+0x76>
    9ee0:	1b4b      	subs	r3, r1, r5
    9ee2:	3b15      	subs	r3, #21
    9ee4:	f023 0303 	bic.w	r3, r3, #3
    9ee8:	3304      	adds	r3, #4
    9eea:	f105 0015 	add.w	r0, r5, #21
    9eee:	4281      	cmp	r1, r0
    9ef0:	bf38      	it	cc
    9ef2:	2304      	movcc	r3, #4
    9ef4:	f1ba 0f00 	cmp.w	sl, #0
    9ef8:	bf18      	it	ne
    9efa:	4637      	movne	r7, r6
    9efc:	f842 a003 	str.w	sl, [r2, r3]
    9f00:	f8d8 3044 	ldr.w	r3, [r8, #68]	; 0x44
    9f04:	686a      	ldr	r2, [r5, #4]
    9f06:	f8cc 7010 	str.w	r7, [ip, #16]
    9f0a:	f853 1022 	ldr.w	r1, [r3, r2, lsl #2]
    9f0e:	6029      	str	r1, [r5, #0]
    9f10:	4660      	mov	r0, ip
    9f12:	f843 5022 	str.w	r5, [r3, r2, lsl #2]
    9f16:	e8bd 87f0 	ldmia.w	sp!, {r4, r5, r6, r7, r8, r9, sl, pc}
    9f1a:	3a04      	subs	r2, #4
    9f1c:	f853 0b04 	ldr.w	r0, [r3], #4
    9f20:	f842 0f04 	str.w	r0, [r2, #4]!
    9f24:	4299      	cmp	r1, r3
    9f26:	d8f9      	bhi.n	9f1c <__lshift+0xcc>
    9f28:	e7ea      	b.n	9f00 <__lshift+0xb0>
    9f2a:	4b03      	ldr	r3, [pc, #12]	; (9f38 <__lshift+0xe8>)
    9f2c:	4803      	ldr	r0, [pc, #12]	; (9f3c <__lshift+0xec>)
    9f2e:	4662      	mov	r2, ip
    9f30:	f44f 71ef 	mov.w	r1, #478	; 0x1de
    9f34:	f002 f8a0 	bl	c078 <__assert_func>
    9f38:	20000788 	.word	0x20000788
    9f3c:	2000079c 	.word	0x2000079c

00009f40 <__mcmp>:
    9f40:	690b      	ldr	r3, [r1, #16]
    9f42:	4684      	mov	ip, r0
    9f44:	6900      	ldr	r0, [r0, #16]
    9f46:	1ac0      	subs	r0, r0, r3
    9f48:	d116      	bne.n	9f78 <__mcmp+0x38>
    9f4a:	f10c 0c14 	add.w	ip, ip, #20
    9f4e:	3114      	adds	r1, #20
    9f50:	eb0c 0283 	add.w	r2, ip, r3, lsl #2
    9f54:	b410      	push	{r4}
    9f56:	eb01 0383 	add.w	r3, r1, r3, lsl #2
    9f5a:	e001      	b.n	9f60 <__mcmp+0x20>
    9f5c:	4594      	cmp	ip, r2
    9f5e:	d208      	bcs.n	9f72 <__mcmp+0x32>
    9f60:	f852 4d04 	ldr.w	r4, [r2, #-4]!
    9f64:	f853 1d04 	ldr.w	r1, [r3, #-4]!
    9f68:	428c      	cmp	r4, r1
    9f6a:	d0f7      	beq.n	9f5c <__mcmp+0x1c>
    9f6c:	d205      	bcs.n	9f7a <__mcmp+0x3a>
    9f6e:	f04f 30ff 	mov.w	r0, #4294967295
    9f72:	f85d 4b04 	ldr.w	r4, [sp], #4
    9f76:	4770      	bx	lr
    9f78:	4770      	bx	lr
    9f7a:	2001      	movs	r0, #1
    9f7c:	f85d 4b04 	ldr.w	r4, [sp], #4
    9f80:	4770      	bx	lr
    9f82:	bf00      	nop

00009f84 <__mdiff>:
    9f84:	e92d 4ff8 	stmdb	sp!, {r3, r4, r5, r6, r7, r8, r9, sl, fp, lr}
    9f88:	690f      	ldr	r7, [r1, #16]
    9f8a:	6913      	ldr	r3, [r2, #16]
    9f8c:	1aff      	subs	r7, r7, r3
    9f8e:	2f00      	cmp	r7, #0
    9f90:	460e      	mov	r6, r1
    9f92:	4690      	mov	r8, r2
    9f94:	d17f      	bne.n	a096 <__mdiff+0x112>
    9f96:	f101 0514 	add.w	r5, r1, #20
    9f9a:	3214      	adds	r2, #20
    9f9c:	eb02 0283 	add.w	r2, r2, r3, lsl #2
    9fa0:	eb05 0383 	add.w	r3, r5, r3, lsl #2
    9fa4:	e001      	b.n	9faa <__mdiff+0x26>
    9fa6:	429d      	cmp	r5, r3
    9fa8:	d278      	bcs.n	a09c <__mdiff+0x118>
    9faa:	f853 1d04 	ldr.w	r1, [r3, #-4]!
    9fae:	f852 4d04 	ldr.w	r4, [r2, #-4]!
    9fb2:	42a1      	cmp	r1, r4
    9fb4:	d0f7      	beq.n	9fa6 <__mdiff+0x22>
    9fb6:	d369      	bcc.n	a08c <__mdiff+0x108>
    9fb8:	6871      	ldr	r1, [r6, #4]
    9fba:	f7ff fd3b 	bl	9a34 <_Balloc>
    9fbe:	4681      	mov	r9, r0
    9fc0:	2800      	cmp	r0, #0
    9fc2:	d077      	beq.n	a0b4 <__mdiff+0x130>
    9fc4:	6935      	ldr	r5, [r6, #16]
    9fc6:	f8d8 2010 	ldr.w	r2, [r8, #16]
    9fca:	60c7      	str	r7, [r0, #12]
    9fcc:	f108 0e14 	add.w	lr, r8, #20
    9fd0:	f106 0014 	add.w	r0, r6, #20
    9fd4:	f109 0a14 	add.w	sl, r9, #20
    9fd8:	f106 0110 	add.w	r1, r6, #16
    9fdc:	eb0e 0282 	add.w	r2, lr, r2, lsl #2
    9fe0:	eb00 0785 	add.w	r7, r0, r5, lsl #2
    9fe4:	4656      	mov	r6, sl
    9fe6:	f04f 0c00 	mov.w	ip, #0
    9fea:	f85e 4b04 	ldr.w	r4, [lr], #4
    9fee:	f851 bf04 	ldr.w	fp, [r1, #4]!
    9ff2:	b2a3      	uxth	r3, r4
    9ff4:	fa1c fc8b 	uxtah	ip, ip, fp
    9ff8:	ebac 0303 	sub.w	r3, ip, r3
    9ffc:	ea4f 4c14 	mov.w	ip, r4, lsr #16
    a000:	ebcc 4c1b 	rsb	ip, ip, fp, lsr #16
    a004:	eb0c 4c23 	add.w	ip, ip, r3, asr #16
    a008:	b29b      	uxth	r3, r3
    a00a:	ea43 430c 	orr.w	r3, r3, ip, lsl #16
    a00e:	4572      	cmp	r2, lr
    a010:	f846 3b04 	str.w	r3, [r6], #4
    a014:	ea4f 4c2c 	mov.w	ip, ip, asr #16
    a018:	d8e7      	bhi.n	9fea <__mdiff+0x66>
    a01a:	eba2 0108 	sub.w	r1, r2, r8
    a01e:	3915      	subs	r1, #21
    a020:	f108 0815 	add.w	r8, r8, #21
    a024:	4542      	cmp	r2, r8
    a026:	f021 0403 	bic.w	r4, r1, #3
    a02a:	f104 0404 	add.w	r4, r4, #4
    a02e:	bf38      	it	cc
    a030:	2404      	movcc	r4, #4
    a032:	4420      	add	r0, r4
    a034:	f021 0203 	bic.w	r2, r1, #3
    a038:	bf38      	it	cc
    a03a:	2200      	movcc	r2, #0
    a03c:	4287      	cmp	r7, r0
    a03e:	4452      	add	r2, sl
    a040:	4454      	add	r4, sl
    a042:	d918      	bls.n	a076 <__mdiff+0xf2>
    a044:	4626      	mov	r6, r4
    a046:	4601      	mov	r1, r0
    a048:	f851 3b04 	ldr.w	r3, [r1], #4
    a04c:	fa1c fc83 	uxtah	ip, ip, r3
    a050:	ea4f 422c 	mov.w	r2, ip, asr #16
    a054:	eb02 4213 	add.w	r2, r2, r3, lsr #16
    a058:	fa1f fc8c 	uxth.w	ip, ip
    a05c:	ea4c 4302 	orr.w	r3, ip, r2, lsl #16
    a060:	428f      	cmp	r7, r1
    a062:	f846 3b04 	str.w	r3, [r6], #4
    a066:	ea4f 4c22 	mov.w	ip, r2, asr #16
    a06a:	d8ed      	bhi.n	a048 <__mdiff+0xc4>
    a06c:	3f01      	subs	r7, #1
    a06e:	1a3f      	subs	r7, r7, r0
    a070:	f027 0703 	bic.w	r7, r7, #3
    a074:	19e2      	adds	r2, r4, r7
    a076:	b923      	cbnz	r3, a082 <__mdiff+0xfe>
    a078:	f852 3d04 	ldr.w	r3, [r2, #-4]!
    a07c:	3d01      	subs	r5, #1
    a07e:	2b00      	cmp	r3, #0
    a080:	d0fa      	beq.n	a078 <__mdiff+0xf4>
    a082:	f8c9 5010 	str.w	r5, [r9, #16]
    a086:	4648      	mov	r0, r9
    a088:	e8bd 8ff8 	ldmia.w	sp!, {r3, r4, r5, r6, r7, r8, r9, sl, fp, pc}
    a08c:	4633      	mov	r3, r6
    a08e:	2701      	movs	r7, #1
    a090:	4646      	mov	r6, r8
    a092:	4698      	mov	r8, r3
    a094:	e790      	b.n	9fb8 <__mdiff+0x34>
    a096:	dbf9      	blt.n	a08c <__mdiff+0x108>
    a098:	2700      	movs	r7, #0
    a09a:	e78d      	b.n	9fb8 <__mdiff+0x34>
    a09c:	2100      	movs	r1, #0
    a09e:	f7ff fcc9 	bl	9a34 <_Balloc>
    a0a2:	4681      	mov	r9, r0
    a0a4:	b168      	cbz	r0, a0c2 <__mdiff+0x13e>
    a0a6:	2201      	movs	r2, #1
    a0a8:	2300      	movs	r3, #0
    a0aa:	e9c9 2304 	strd	r2, r3, [r9, #16]
    a0ae:	4648      	mov	r0, r9
    a0b0:	e8bd 8ff8 	ldmia.w	sp!, {r3, r4, r5, r6, r7, r8, r9, sl, fp, pc}
    a0b4:	4b06      	ldr	r3, [pc, #24]	; (a0d0 <__mdiff+0x14c>)
    a0b6:	4807      	ldr	r0, [pc, #28]	; (a0d4 <__mdiff+0x150>)
    a0b8:	464a      	mov	r2, r9
    a0ba:	f240 2145 	movw	r1, #581	; 0x245
    a0be:	f001 ffdb 	bl	c078 <__assert_func>
    a0c2:	4b03      	ldr	r3, [pc, #12]	; (a0d0 <__mdiff+0x14c>)
    a0c4:	4803      	ldr	r0, [pc, #12]	; (a0d4 <__mdiff+0x150>)
    a0c6:	464a      	mov	r2, r9
    a0c8:	f240 2137 	movw	r1, #567	; 0x237
    a0cc:	f001 ffd4 	bl	c078 <__assert_func>
    a0d0:	20000788 	.word	0x20000788
    a0d4:	2000079c 	.word	0x2000079c

0000a0d8 <__d2b>:
    a0d8:	e92d 43f0 	stmdb	sp!, {r4, r5, r6, r7, r8, r9, lr}
    a0dc:	4688      	mov	r8, r1
    a0de:	b083      	sub	sp, #12
    a0e0:	2101      	movs	r1, #1
    a0e2:	ec57 6b10 	vmov	r6, r7, d0
    a0e6:	4615      	mov	r5, r2
    a0e8:	f7ff fca4 	bl	9a34 <_Balloc>
    a0ec:	4604      	mov	r4, r0
    a0ee:	2800      	cmp	r0, #0
    a0f0:	d051      	beq.n	a196 <__d2b+0xbe>
    a0f2:	f3c7 590a 	ubfx	r9, r7, #20, #11
    a0f6:	f3c7 0313 	ubfx	r3, r7, #0, #20
    a0fa:	f1b9 0f00 	cmp.w	r9, #0
    a0fe:	d001      	beq.n	a104 <__d2b+0x2c>
    a100:	f443 1380 	orr.w	r3, r3, #1048576	; 0x100000
    a104:	2e00      	cmp	r6, #0
    a106:	9301      	str	r3, [sp, #4]
    a108:	d118      	bne.n	a13c <__d2b+0x64>
    a10a:	a801      	add	r0, sp, #4
    a10c:	f7ff fd34 	bl	9b78 <__lo0bits>
    a110:	9a01      	ldr	r2, [sp, #4]
    a112:	6162      	str	r2, [r4, #20]
    a114:	2201      	movs	r2, #1
    a116:	f100 0320 	add.w	r3, r0, #32
    a11a:	6122      	str	r2, [r4, #16]
    a11c:	f1b9 0f00 	cmp.w	r9, #0
    a120:	d025      	beq.n	a16e <__d2b+0x96>
    a122:	f2a9 4933 	subw	r9, r9, #1075	; 0x433
    a126:	eb09 0203 	add.w	r2, r9, r3
    a12a:	4620      	mov	r0, r4
    a12c:	f1c3 0335 	rsb	r3, r3, #53	; 0x35
    a130:	f8c8 2000 	str.w	r2, [r8]
    a134:	602b      	str	r3, [r5, #0]
    a136:	b003      	add	sp, #12
    a138:	e8bd 83f0 	ldmia.w	sp!, {r4, r5, r6, r7, r8, r9, pc}
    a13c:	4668      	mov	r0, sp
    a13e:	9600      	str	r6, [sp, #0]
    a140:	f7ff fd1a 	bl	9b78 <__lo0bits>
    a144:	4603      	mov	r3, r0
    a146:	b310      	cbz	r0, a18e <__d2b+0xb6>
    a148:	e9dd 0200 	ldrd	r0, r2, [sp]
    a14c:	f1c3 0120 	rsb	r1, r3, #32
    a150:	fa02 f101 	lsl.w	r1, r2, r1
    a154:	4301      	orrs	r1, r0
    a156:	40da      	lsrs	r2, r3
    a158:	6161      	str	r1, [r4, #20]
    a15a:	9201      	str	r2, [sp, #4]
    a15c:	2a00      	cmp	r2, #0
    a15e:	61a2      	str	r2, [r4, #24]
    a160:	bf14      	ite	ne
    a162:	2202      	movne	r2, #2
    a164:	2201      	moveq	r2, #1
    a166:	6122      	str	r2, [r4, #16]
    a168:	f1b9 0f00 	cmp.w	r9, #0
    a16c:	d1d9      	bne.n	a122 <__d2b+0x4a>
    a16e:	f2a3 4332 	subw	r3, r3, #1074	; 0x432
    a172:	f8c8 3000 	str.w	r3, [r8]
    a176:	eb04 0382 	add.w	r3, r4, r2, lsl #2
    a17a:	6918      	ldr	r0, [r3, #16]
    a17c:	f7ff fcdc 	bl	9b38 <__hi0bits>
    a180:	ebc0 1342 	rsb	r3, r0, r2, lsl #5
    a184:	4620      	mov	r0, r4
    a186:	602b      	str	r3, [r5, #0]
    a188:	b003      	add	sp, #12
    a18a:	e8bd 83f0 	ldmia.w	sp!, {r4, r5, r6, r7, r8, r9, pc}
    a18e:	9a00      	ldr	r2, [sp, #0]
    a190:	6162      	str	r2, [r4, #20]
    a192:	9a01      	ldr	r2, [sp, #4]
    a194:	e7e2      	b.n	a15c <__d2b+0x84>
    a196:	4b03      	ldr	r3, [pc, #12]	; (a1a4 <__d2b+0xcc>)
    a198:	4803      	ldr	r0, [pc, #12]	; (a1a8 <__d2b+0xd0>)
    a19a:	4622      	mov	r2, r4
    a19c:	f240 310f 	movw	r1, #783	; 0x30f
    a1a0:	f001 ff6a 	bl	c078 <__assert_func>
    a1a4:	20000788 	.word	0x20000788
    a1a8:	2000079c 	.word	0x2000079c

0000a1ac <__ascii_wctomb>:
    a1ac:	b149      	cbz	r1, a1c2 <__ascii_wctomb+0x16>
    a1ae:	2aff      	cmp	r2, #255	; 0xff
    a1b0:	d802      	bhi.n	a1b8 <__ascii_wctomb+0xc>
    a1b2:	700a      	strb	r2, [r1, #0]
    a1b4:	2001      	movs	r0, #1
    a1b6:	4770      	bx	lr
    a1b8:	238a      	movs	r3, #138	; 0x8a
    a1ba:	6003      	str	r3, [r0, #0]
    a1bc:	f04f 30ff 	mov.w	r0, #4294967295
    a1c0:	4770      	bx	lr
    a1c2:	4608      	mov	r0, r1
    a1c4:	4770      	bx	lr
    a1c6:	bf00      	nop

0000a1c8 <_svfprintf_r>:
    a1c8:	e92d 4ff0 	stmdb	sp!, {r4, r5, r6, r7, r8, r9, sl, fp, lr}
    a1cc:	ed2d 8b08 	vpush	{d8-d11}
    a1d0:	b0d1      	sub	sp, #324	; 0x144
    a1d2:	460c      	mov	r4, r1
    a1d4:	ee0b 1a10 	vmov	s22, r1
    a1d8:	4690      	mov	r8, r2
    a1da:	9308      	str	r3, [sp, #32]
    a1dc:	4683      	mov	fp, r0
    a1de:	f001 febb 	bl	bf58 <_localeconv_r>
    a1e2:	6803      	ldr	r3, [r0, #0]
    a1e4:	9312      	str	r3, [sp, #72]	; 0x48
    a1e6:	4618      	mov	r0, r3
    a1e8:	f7ff fa4a 	bl	9680 <strlen>
    a1ec:	af20      	add	r7, sp, #128	; 0x80
    a1ee:	9010      	str	r0, [sp, #64]	; 0x40
    a1f0:	2208      	movs	r2, #8
    a1f2:	2100      	movs	r1, #0
    a1f4:	4638      	mov	r0, r7
    a1f6:	f7ff f915 	bl	9424 <memset>
    a1fa:	89a3      	ldrh	r3, [r4, #12]
    a1fc:	061b      	lsls	r3, r3, #24
    a1fe:	d503      	bpl.n	a208 <_svfprintf_r+0x40>
    a200:	6923      	ldr	r3, [r4, #16]
    a202:	2b00      	cmp	r3, #0
    a204:	f000 8755 	beq.w	b0b2 <_svfprintf_r+0xeea>
    a208:	2300      	movs	r3, #0
    a20a:	ed9f 8b83 	vldr	d8, [pc, #524]	; a418 <_svfprintf_r+0x250>
    a20e:	ed9f 9b84 	vldr	d9, [pc, #528]	; a420 <_svfprintf_r+0x258>
    a212:	e9cd 3325 	strd	r3, r3, [sp, #148]	; 0x94
    a216:	e9cd 3313 	strd	r3, r3, [sp, #76]	; 0x4c
    a21a:	e9cd 3315 	strd	r3, r3, [sp, #84]	; 0x54
    a21e:	aa27      	add	r2, sp, #156	; 0x9c
    a220:	930e      	str	r3, [sp, #56]	; 0x38
    a222:	9224      	str	r2, [sp, #144]	; 0x90
    a224:	4692      	mov	sl, r2
    a226:	9311      	str	r3, [sp, #68]	; 0x44
    a228:	9304      	str	r3, [sp, #16]
    a22a:	4644      	mov	r4, r8
    a22c:	46a1      	mov	r9, r4
    a22e:	4b7e      	ldr	r3, [pc, #504]	; (a428 <_svfprintf_r+0x260>)
    a230:	f8d3 50e4 	ldr.w	r5, [r3, #228]	; 0xe4
    a234:	f7ff f97a 	bl	952c <__locale_mb_cur_max>
    a238:	464a      	mov	r2, r9
    a23a:	4603      	mov	r3, r0
    a23c:	a91c      	add	r1, sp, #112	; 0x70
    a23e:	9700      	str	r7, [sp, #0]
    a240:	4658      	mov	r0, fp
    a242:	47a8      	blx	r5
    a244:	2800      	cmp	r0, #0
    a246:	f000 80b0 	beq.w	a3aa <_svfprintf_r+0x1e2>
    a24a:	f2c0 80a6 	blt.w	a39a <_svfprintf_r+0x1d2>
    a24e:	9a1c      	ldr	r2, [sp, #112]	; 0x70
    a250:	2a25      	cmp	r2, #37	; 0x25
    a252:	4603      	mov	r3, r0
    a254:	d001      	beq.n	a25a <_svfprintf_r+0x92>
    a256:	4499      	add	r9, r3
    a258:	e7e9      	b.n	a22e <_svfprintf_r+0x66>
    a25a:	ebb9 0504 	subs.w	r5, r9, r4
    a25e:	4606      	mov	r6, r0
    a260:	f040 80a7 	bne.w	a3b2 <_svfprintf_r+0x1ea>
    a264:	2300      	movs	r3, #0
    a266:	f04f 32ff 	mov.w	r2, #4294967295
    a26a:	f88d 3067 	strb.w	r3, [sp, #103]	; 0x67
    a26e:	4698      	mov	r8, r3
    a270:	9306      	str	r3, [sp, #24]
    a272:	f109 0901 	add.w	r9, r9, #1
    a276:	f899 3000 	ldrb.w	r3, [r9]
    a27a:	9203      	str	r2, [sp, #12]
    a27c:	252b      	movs	r5, #43	; 0x2b
    a27e:	2620      	movs	r6, #32
    a280:	f109 0901 	add.w	r9, r9, #1
    a284:	f1a3 0220 	sub.w	r2, r3, #32
    a288:	2a5a      	cmp	r2, #90	; 0x5a
    a28a:	f200 80cf 	bhi.w	a42c <_svfprintf_r+0x264>
    a28e:	e8df f012 	tbh	[pc, r2, lsl #1]
    a292:	02e8      	.short	0x02e8
    a294:	00cd00cd 	.word	0x00cd00cd
    a298:	00cd02e3 	.word	0x00cd02e3
    a29c:	00cd00cd 	.word	0x00cd00cd
    a2a0:	00cd006a 	.word	0x00cd006a
    a2a4:	020500cd 	.word	0x020500cd
    a2a8:	00cd0284 	.word	0x00cd0284
    a2ac:	02c90210 	.word	0x02c90210
    a2b0:	02bd00cd 	.word	0x02bd00cd
    a2b4:	005b005b 	.word	0x005b005b
    a2b8:	005b005b 	.word	0x005b005b
    a2bc:	005b005b 	.word	0x005b005b
    a2c0:	005b005b 	.word	0x005b005b
    a2c4:	00cd005b 	.word	0x00cd005b
    a2c8:	00cd00cd 	.word	0x00cd00cd
    a2cc:	00cd00cd 	.word	0x00cd00cd
    a2d0:	00cd00cd 	.word	0x00cd00cd
    a2d4:	00cd0153 	.word	0x00cd0153
    a2d8:	021a0183 	.word	0x021a0183
    a2dc:	01530153 	.word	0x01530153
    a2e0:	00cd0153 	.word	0x00cd0153
    a2e4:	00cd00cd 	.word	0x00cd00cd
    a2e8:	021500cd 	.word	0x021500cd
    a2ec:	00cd00cd 	.word	0x00cd00cd
    a2f0:	00cd0296 	.word	0x00cd0296
    a2f4:	00cd00cd 	.word	0x00cd00cd
    a2f8:	00cd01ab 	.word	0x00cd01ab
    a2fc:	00cd02aa 	.word	0x00cd02aa
    a300:	06e300cd 	.word	0x06e300cd
    a304:	00cd00cd 	.word	0x00cd00cd
    a308:	00cd00cd 	.word	0x00cd00cd
    a30c:	00cd00cd 	.word	0x00cd00cd
    a310:	00cd00cd 	.word	0x00cd00cd
    a314:	00cd0153 	.word	0x00cd0153
    a318:	01de0183 	.word	0x01de0183
    a31c:	01530153 	.word	0x01530153
    a320:	02770153 	.word	0x02770153
    a324:	007f01de 	.word	0x007f01de
    a328:	028900cd 	.word	0x028900cd
    a32c:	025f00cd 	.word	0x025f00cd
    a330:	022f06e0 	.word	0x022f06e0
    a334:	00cd007f 	.word	0x00cd007f
    a338:	007c01ab 	.word	0x007c01ab
    a33c:	00cd06b8 	.word	0x00cd06b8
    a340:	06bd00cd 	.word	0x06bd00cd
    a344:	007c00cd 	.word	0x007c00cd
    a348:	f1a3 0230 	sub.w	r2, r3, #48	; 0x30
    a34c:	2100      	movs	r1, #0
    a34e:	f819 3b01 	ldrb.w	r3, [r9], #1
    a352:	eb01 0181 	add.w	r1, r1, r1, lsl #2
    a356:	eb02 0141 	add.w	r1, r2, r1, lsl #1
    a35a:	f1a3 0230 	sub.w	r2, r3, #48	; 0x30
    a35e:	2a09      	cmp	r2, #9
    a360:	d9f5      	bls.n	a34e <_svfprintf_r+0x186>
    a362:	9106      	str	r1, [sp, #24]
    a364:	e78e      	b.n	a284 <_svfprintf_r+0xbc>
    a366:	4658      	mov	r0, fp
    a368:	f001 fdf6 	bl	bf58 <_localeconv_r>
    a36c:	6843      	ldr	r3, [r0, #4]
    a36e:	9315      	str	r3, [sp, #84]	; 0x54
    a370:	4618      	mov	r0, r3
    a372:	f7ff f985 	bl	9680 <strlen>
    a376:	9016      	str	r0, [sp, #88]	; 0x58
    a378:	4658      	mov	r0, fp
    a37a:	f001 fded 	bl	bf58 <_localeconv_r>
    a37e:	6883      	ldr	r3, [r0, #8]
    a380:	9313      	str	r3, [sp, #76]	; 0x4c
    a382:	9b16      	ldr	r3, [sp, #88]	; 0x58
    a384:	2b00      	cmp	r3, #0
    a386:	f040 862d 	bne.w	afe4 <_svfprintf_r+0xe1c>
    a38a:	f899 3000 	ldrb.w	r3, [r9]
    a38e:	e777      	b.n	a280 <_svfprintf_r+0xb8>
    a390:	f899 3000 	ldrb.w	r3, [r9]
    a394:	f048 0820 	orr.w	r8, r8, #32
    a398:	e772      	b.n	a280 <_svfprintf_r+0xb8>
    a39a:	2208      	movs	r2, #8
    a39c:	2100      	movs	r1, #0
    a39e:	4638      	mov	r0, r7
    a3a0:	f7ff f840 	bl	9424 <memset>
    a3a4:	2301      	movs	r3, #1
    a3a6:	4499      	add	r9, r3
    a3a8:	e741      	b.n	a22e <_svfprintf_r+0x66>
    a3aa:	ebb9 0504 	subs.w	r5, r9, r4
    a3ae:	4606      	mov	r6, r0
    a3b0:	d011      	beq.n	a3d6 <_svfprintf_r+0x20e>
    a3b2:	9b26      	ldr	r3, [sp, #152]	; 0x98
    a3b4:	442b      	add	r3, r5
    a3b6:	9326      	str	r3, [sp, #152]	; 0x98
    a3b8:	9b25      	ldr	r3, [sp, #148]	; 0x94
    a3ba:	3301      	adds	r3, #1
    a3bc:	2b07      	cmp	r3, #7
    a3be:	e9ca 4500 	strd	r4, r5, [sl]
    a3c2:	9325      	str	r3, [sp, #148]	; 0x94
    a3c4:	dc1c      	bgt.n	a400 <_svfprintf_r+0x238>
    a3c6:	f10a 0a08 	add.w	sl, sl, #8
    a3ca:	9b04      	ldr	r3, [sp, #16]
    a3cc:	442b      	add	r3, r5
    a3ce:	9304      	str	r3, [sp, #16]
    a3d0:	2e00      	cmp	r6, #0
    a3d2:	f47f af47 	bne.w	a264 <_svfprintf_r+0x9c>
    a3d6:	9b26      	ldr	r3, [sp, #152]	; 0x98
    a3d8:	2b00      	cmp	r3, #0
    a3da:	f041 820b 	bne.w	b7f4 <_svfprintf_r+0x162c>
    a3de:	ee1b 3a10 	vmov	r3, s22
    a3e2:	f9b3 300c 	ldrsh.w	r3, [r3, #12]
    a3e6:	f013 0f40 	tst.w	r3, #64	; 0x40
    a3ea:	9b04      	ldr	r3, [sp, #16]
    a3ec:	bf18      	it	ne
    a3ee:	f04f 33ff 	movne.w	r3, #4294967295
    a3f2:	9304      	str	r3, [sp, #16]
    a3f4:	9804      	ldr	r0, [sp, #16]
    a3f6:	b051      	add	sp, #324	; 0x144
    a3f8:	ecbd 8b08 	vpop	{d8-d11}
    a3fc:	e8bd 8ff0 	ldmia.w	sp!, {r4, r5, r6, r7, r8, r9, sl, fp, pc}
    a400:	ee1b 1a10 	vmov	r1, s22
    a404:	aa24      	add	r2, sp, #144	; 0x90
    a406:	4658      	mov	r0, fp
    a408:	f002 fde2 	bl	cfd0 <__ssprint_r>
    a40c:	2800      	cmp	r0, #0
    a40e:	d1e6      	bne.n	a3de <_svfprintf_r+0x216>
    a410:	f10d 0a9c 	add.w	sl, sp, #156	; 0x9c
    a414:	e7d9      	b.n	a3ca <_svfprintf_r+0x202>
    a416:	bf00      	nop
	...
    a420:	ffffffff 	.word	0xffffffff
    a424:	7fefffff 	.word	0x7fefffff
    a428:	20000cb8 	.word	0x20000cb8
    a42c:	930b      	str	r3, [sp, #44]	; 0x2c
    a42e:	2b00      	cmp	r3, #0
    a430:	d0d1      	beq.n	a3d6 <_svfprintf_r+0x20e>
    a432:	2100      	movs	r1, #0
    a434:	e9cd 110c 	strd	r1, r1, [sp, #48]	; 0x30
    a438:	f88d 30dc 	strb.w	r3, [sp, #220]	; 0xdc
    a43c:	2301      	movs	r3, #1
    a43e:	f88d 1067 	strb.w	r1, [sp, #103]	; 0x67
    a442:	9302      	str	r3, [sp, #8]
    a444:	9107      	str	r1, [sp, #28]
    a446:	9305      	str	r3, [sp, #20]
    a448:	9103      	str	r1, [sp, #12]
    a44a:	910f      	str	r1, [sp, #60]	; 0x3c
    a44c:	ac37      	add	r4, sp, #220	; 0xdc
    a44e:	f018 0302 	ands.w	r3, r8, #2
    a452:	9309      	str	r3, [sp, #36]	; 0x24
    a454:	d002      	beq.n	a45c <_svfprintf_r+0x294>
    a456:	9b02      	ldr	r3, [sp, #8]
    a458:	3302      	adds	r3, #2
    a45a:	9302      	str	r3, [sp, #8]
    a45c:	f018 0384 	ands.w	r3, r8, #132	; 0x84
    a460:	930a      	str	r3, [sp, #40]	; 0x28
    a462:	d105      	bne.n	a470 <_svfprintf_r+0x2a8>
    a464:	9b06      	ldr	r3, [sp, #24]
    a466:	9a02      	ldr	r2, [sp, #8]
    a468:	1a9d      	subs	r5, r3, r2
    a46a:	2d00      	cmp	r5, #0
    a46c:	f300 8369 	bgt.w	ab42 <_svfprintf_r+0x97a>
    a470:	9a26      	ldr	r2, [sp, #152]	; 0x98
    a472:	b189      	cbz	r1, a498 <_svfprintf_r+0x2d0>
    a474:	9925      	ldr	r1, [sp, #148]	; 0x94
    a476:	f10d 0067 	add.w	r0, sp, #103	; 0x67
    a47a:	3101      	adds	r1, #1
    a47c:	3201      	adds	r2, #1
    a47e:	f8ca 0000 	str.w	r0, [sl]
    a482:	2907      	cmp	r1, #7
    a484:	f04f 0001 	mov.w	r0, #1
    a488:	9226      	str	r2, [sp, #152]	; 0x98
    a48a:	9125      	str	r1, [sp, #148]	; 0x94
    a48c:	f8ca 0004 	str.w	r0, [sl, #4]
    a490:	f300 83a2 	bgt.w	abd8 <_svfprintf_r+0xa10>
    a494:	f10a 0a08 	add.w	sl, sl, #8
    a498:	9b09      	ldr	r3, [sp, #36]	; 0x24
    a49a:	b183      	cbz	r3, a4be <_svfprintf_r+0x2f6>
    a49c:	9b25      	ldr	r3, [sp, #148]	; 0x94
    a49e:	a91a      	add	r1, sp, #104	; 0x68
    a4a0:	3301      	adds	r3, #1
    a4a2:	3202      	adds	r2, #2
    a4a4:	f8ca 1000 	str.w	r1, [sl]
    a4a8:	2b07      	cmp	r3, #7
    a4aa:	f04f 0102 	mov.w	r1, #2
    a4ae:	9226      	str	r2, [sp, #152]	; 0x98
    a4b0:	9325      	str	r3, [sp, #148]	; 0x94
    a4b2:	f8ca 1004 	str.w	r1, [sl, #4]
    a4b6:	f300 83a3 	bgt.w	ac00 <_svfprintf_r+0xa38>
    a4ba:	f10a 0a08 	add.w	sl, sl, #8
    a4be:	9b0a      	ldr	r3, [sp, #40]	; 0x28
    a4c0:	2b80      	cmp	r3, #128	; 0x80
    a4c2:	f000 826c 	beq.w	a99e <_svfprintf_r+0x7d6>
    a4c6:	9b03      	ldr	r3, [sp, #12]
    a4c8:	9905      	ldr	r1, [sp, #20]
    a4ca:	1a5d      	subs	r5, r3, r1
    a4cc:	2d00      	cmp	r5, #0
    a4ce:	f300 82a5 	bgt.w	aa1c <_svfprintf_r+0x854>
    a4d2:	f418 7f80 	tst.w	r8, #256	; 0x100
    a4d6:	f040 820d 	bne.w	a8f4 <_svfprintf_r+0x72c>
    a4da:	9b05      	ldr	r3, [sp, #20]
    a4dc:	f8ca 3004 	str.w	r3, [sl, #4]
    a4e0:	441a      	add	r2, r3
    a4e2:	9b25      	ldr	r3, [sp, #148]	; 0x94
    a4e4:	f8ca 4000 	str.w	r4, [sl]
    a4e8:	3301      	adds	r3, #1
    a4ea:	2b07      	cmp	r3, #7
    a4ec:	9226      	str	r2, [sp, #152]	; 0x98
    a4ee:	9325      	str	r3, [sp, #148]	; 0x94
    a4f0:	f300 831b 	bgt.w	ab2a <_svfprintf_r+0x962>
    a4f4:	f10a 0a08 	add.w	sl, sl, #8
    a4f8:	f018 0f04 	tst.w	r8, #4
    a4fc:	d005      	beq.n	a50a <_svfprintf_r+0x342>
    a4fe:	9b06      	ldr	r3, [sp, #24]
    a500:	9902      	ldr	r1, [sp, #8]
    a502:	1a5c      	subs	r4, r3, r1
    a504:	2c00      	cmp	r4, #0
    a506:	f300 8388 	bgt.w	ac1a <_svfprintf_r+0xa52>
    a50a:	9b04      	ldr	r3, [sp, #16]
    a50c:	9906      	ldr	r1, [sp, #24]
    a50e:	9802      	ldr	r0, [sp, #8]
    a510:	4281      	cmp	r1, r0
    a512:	bfac      	ite	ge
    a514:	185b      	addge	r3, r3, r1
    a516:	181b      	addlt	r3, r3, r0
    a518:	9304      	str	r3, [sp, #16]
    a51a:	2a00      	cmp	r2, #0
    a51c:	f040 82b0 	bne.w	aa80 <_svfprintf_r+0x8b8>
    a520:	2300      	movs	r3, #0
    a522:	9325      	str	r3, [sp, #148]	; 0x94
    a524:	9b07      	ldr	r3, [sp, #28]
    a526:	b11b      	cbz	r3, a530 <_svfprintf_r+0x368>
    a528:	9907      	ldr	r1, [sp, #28]
    a52a:	4658      	mov	r0, fp
    a52c:	f7ff f966 	bl	97fc <_free_r>
    a530:	f10d 0a9c 	add.w	sl, sp, #156	; 0x9c
    a534:	464c      	mov	r4, r9
    a536:	e679      	b.n	a22c <_svfprintf_r+0x64>
    a538:	930b      	str	r3, [sp, #44]	; 0x2c
    a53a:	9b08      	ldr	r3, [sp, #32]
    a53c:	3307      	adds	r3, #7
    a53e:	f023 0307 	bic.w	r3, r3, #7
    a542:	ecb3 8b02 	vldmia	r3!, {d8}
    a546:	eeb0 7bc8 	vabs.f64	d7, d8
    a54a:	eeb4 7b49 	vcmp.f64	d7, d9
    a54e:	eef1 fa10 	vmrs	APSR_nzcv, fpscr
    a552:	9308      	str	r3, [sp, #32]
    a554:	f340 84e9 	ble.w	af2a <_svfprintf_r+0xd62>
    a558:	eeb5 8bc0 	vcmpe.f64	d8, #0.0
    a55c:	eef1 fa10 	vmrs	APSR_nzcv, fpscr
    a560:	f101 8059 	bmi.w	b616 <_svfprintf_r+0x144e>
    a564:	f89d 1067 	ldrb.w	r1, [sp, #103]	; 0x67
    a568:	4cab      	ldr	r4, [pc, #684]	; (a818 <_svfprintf_r+0x650>)
    a56a:	4bac      	ldr	r3, [pc, #688]	; (a81c <_svfprintf_r+0x654>)
    a56c:	f028 0880 	bic.w	r8, r8, #128	; 0x80
    a570:	9a0b      	ldr	r2, [sp, #44]	; 0x2c
    a572:	2a47      	cmp	r2, #71	; 0x47
    a574:	bfc8      	it	gt
    a576:	461c      	movgt	r4, r3
    a578:	2300      	movs	r3, #0
    a57a:	e9cd 330c 	strd	r3, r3, [sp, #48]	; 0x30
    a57e:	2203      	movs	r2, #3
    a580:	9307      	str	r3, [sp, #28]
    a582:	9202      	str	r2, [sp, #8]
    a584:	9205      	str	r2, [sp, #20]
    a586:	9303      	str	r3, [sp, #12]
    a588:	930f      	str	r3, [sp, #60]	; 0x3c
    a58a:	2900      	cmp	r1, #0
    a58c:	f43f af5f 	beq.w	a44e <_svfprintf_r+0x286>
    a590:	9b02      	ldr	r3, [sp, #8]
    a592:	3301      	adds	r3, #1
    a594:	9302      	str	r3, [sp, #8]
    a596:	e75a      	b.n	a44e <_svfprintf_r+0x286>
    a598:	2b43      	cmp	r3, #67	; 0x43
    a59a:	930b      	str	r3, [sp, #44]	; 0x2c
    a59c:	d003      	beq.n	a5a6 <_svfprintf_r+0x3de>
    a59e:	f018 0f10 	tst.w	r8, #16
    a5a2:	f000 855d 	beq.w	b060 <_svfprintf_r+0xe98>
    a5a6:	9d08      	ldr	r5, [sp, #32]
    a5a8:	2208      	movs	r2, #8
    a5aa:	2100      	movs	r1, #0
    a5ac:	a822      	add	r0, sp, #136	; 0x88
    a5ae:	ac37      	add	r4, sp, #220	; 0xdc
    a5b0:	f7fe ff38 	bl	9424 <memset>
    a5b4:	ab22      	add	r3, sp, #136	; 0x88
    a5b6:	f855 2b04 	ldr.w	r2, [r5], #4
    a5ba:	4621      	mov	r1, r4
    a5bc:	4658      	mov	r0, fp
    a5be:	f002 fcc1 	bl	cf44 <_wcrtomb_r>
    a5c2:	4603      	mov	r3, r0
    a5c4:	3301      	adds	r3, #1
    a5c6:	9005      	str	r0, [sp, #20]
    a5c8:	f001 82ee 	beq.w	bba8 <_svfprintf_r+0x19e0>
    a5cc:	9b05      	ldr	r3, [sp, #20]
    a5ce:	9508      	str	r5, [sp, #32]
    a5d0:	ea23 73e3 	bic.w	r3, r3, r3, asr #31
    a5d4:	9302      	str	r3, [sp, #8]
    a5d6:	2100      	movs	r1, #0
    a5d8:	e9cd 110c 	strd	r1, r1, [sp, #48]	; 0x30
    a5dc:	f88d 1067 	strb.w	r1, [sp, #103]	; 0x67
    a5e0:	9107      	str	r1, [sp, #28]
    a5e2:	9103      	str	r1, [sp, #12]
    a5e4:	910f      	str	r1, [sp, #60]	; 0x3c
    a5e6:	e732      	b.n	a44e <_svfprintf_r+0x286>
    a5e8:	930b      	str	r3, [sp, #44]	; 0x2c
    a5ea:	9b08      	ldr	r3, [sp, #32]
    a5ec:	461a      	mov	r2, r3
    a5ee:	2300      	movs	r3, #0
    a5f0:	f88d 3067 	strb.w	r3, [sp, #103]	; 0x67
    a5f4:	4613      	mov	r3, r2
    a5f6:	f853 4b04 	ldr.w	r4, [r3], #4
    a5fa:	9308      	str	r3, [sp, #32]
    a5fc:	2c00      	cmp	r4, #0
    a5fe:	f000 8548 	beq.w	b092 <_svfprintf_r+0xeca>
    a602:	9b0b      	ldr	r3, [sp, #44]	; 0x2c
    a604:	2b53      	cmp	r3, #83	; 0x53
    a606:	f000 86ec 	beq.w	b3e2 <_svfprintf_r+0x121a>
    a60a:	f018 0310 	ands.w	r3, r8, #16
    a60e:	930c      	str	r3, [sp, #48]	; 0x30
    a610:	f040 86e7 	bne.w	b3e2 <_svfprintf_r+0x121a>
    a614:	9b03      	ldr	r3, [sp, #12]
    a616:	1c5d      	adds	r5, r3, #1
    a618:	f001 80e5 	beq.w	b7e6 <_svfprintf_r+0x161e>
    a61c:	990c      	ldr	r1, [sp, #48]	; 0x30
    a61e:	461a      	mov	r2, r3
    a620:	4620      	mov	r0, r4
    a622:	f001 fc9d 	bl	bf60 <memchr>
    a626:	9007      	str	r0, [sp, #28]
    a628:	2800      	cmp	r0, #0
    a62a:	f001 8328 	beq.w	bc7e <_svfprintf_r+0x1ab6>
    a62e:	9b07      	ldr	r3, [sp, #28]
    a630:	1b1a      	subs	r2, r3, r4
    a632:	9205      	str	r2, [sp, #20]
    a634:	9b0c      	ldr	r3, [sp, #48]	; 0x30
    a636:	9303      	str	r3, [sp, #12]
    a638:	ea22 72e2 	bic.w	r2, r2, r2, asr #31
    a63c:	930f      	str	r3, [sp, #60]	; 0x3c
    a63e:	930d      	str	r3, [sp, #52]	; 0x34
    a640:	9307      	str	r3, [sp, #28]
    a642:	2373      	movs	r3, #115	; 0x73
    a644:	f89d 1067 	ldrb.w	r1, [sp, #103]	; 0x67
    a648:	9202      	str	r2, [sp, #8]
    a64a:	930b      	str	r3, [sp, #44]	; 0x2c
    a64c:	e79d      	b.n	a58a <_svfprintf_r+0x3c2>
    a64e:	f018 0f20 	tst.w	r8, #32
    a652:	930b      	str	r3, [sp, #44]	; 0x2c
    a654:	9b08      	ldr	r3, [sp, #32]
    a656:	d03d      	beq.n	a6d4 <_svfprintf_r+0x50c>
    a658:	3307      	adds	r3, #7
    a65a:	f023 0307 	bic.w	r3, r3, #7
    a65e:	461a      	mov	r2, r3
    a660:	4611      	mov	r1, r2
    a662:	685b      	ldr	r3, [r3, #4]
    a664:	f851 2b08 	ldr.w	r2, [r1], #8
    a668:	9108      	str	r1, [sp, #32]
    a66a:	4619      	mov	r1, r3
    a66c:	2b00      	cmp	r3, #0
    a66e:	f2c0 840c 	blt.w	ae8a <_svfprintf_r+0xcc2>
    a672:	9b03      	ldr	r3, [sp, #12]
    a674:	3301      	adds	r3, #1
    a676:	f000 829e 	beq.w	abb6 <_svfprintf_r+0x9ee>
    a67a:	f028 0080 	bic.w	r0, r8, #128	; 0x80
    a67e:	ea52 0301 	orrs.w	r3, r2, r1
    a682:	9002      	str	r0, [sp, #8]
    a684:	f040 8299 	bne.w	abba <_svfprintf_r+0x9f2>
    a688:	9b03      	ldr	r3, [sp, #12]
    a68a:	2b00      	cmp	r3, #0
    a68c:	f040 829a 	bne.w	abc4 <_svfprintf_r+0x9fc>
    a690:	4680      	mov	r8, r0
    a692:	2300      	movs	r3, #0
    a694:	9303      	str	r3, [sp, #12]
    a696:	9305      	str	r3, [sp, #20]
    a698:	ac50      	add	r4, sp, #320	; 0x140
    a69a:	e106      	b.n	a8aa <_svfprintf_r+0x6e2>
    a69c:	9b08      	ldr	r3, [sp, #32]
    a69e:	f853 2b04 	ldr.w	r2, [r3], #4
    a6a2:	9206      	str	r2, [sp, #24]
    a6a4:	2a00      	cmp	r2, #0
    a6a6:	f280 8419 	bge.w	aedc <_svfprintf_r+0xd14>
    a6aa:	9a06      	ldr	r2, [sp, #24]
    a6ac:	9308      	str	r3, [sp, #32]
    a6ae:	4252      	negs	r2, r2
    a6b0:	9206      	str	r2, [sp, #24]
    a6b2:	f899 3000 	ldrb.w	r3, [r9]
    a6b6:	f048 0804 	orr.w	r8, r8, #4
    a6ba:	e5e1      	b.n	a280 <_svfprintf_r+0xb8>
    a6bc:	f899 3000 	ldrb.w	r3, [r9]
    a6c0:	f048 0808 	orr.w	r8, r8, #8
    a6c4:	e5dc      	b.n	a280 <_svfprintf_r+0xb8>
    a6c6:	f048 0810 	orr.w	r8, r8, #16
    a6ca:	f018 0f20 	tst.w	r8, #32
    a6ce:	930b      	str	r3, [sp, #44]	; 0x2c
    a6d0:	9b08      	ldr	r3, [sp, #32]
    a6d2:	d1c1      	bne.n	a658 <_svfprintf_r+0x490>
    a6d4:	f018 0f10 	tst.w	r8, #16
    a6d8:	f040 840b 	bne.w	aef2 <_svfprintf_r+0xd2a>
    a6dc:	f018 0f40 	tst.w	r8, #64	; 0x40
    a6e0:	f000 8403 	beq.w	aeea <_svfprintf_r+0xd22>
    a6e4:	f933 2b04 	ldrsh.w	r2, [r3], #4
    a6e8:	9308      	str	r3, [sp, #32]
    a6ea:	17d1      	asrs	r1, r2, #31
    a6ec:	460b      	mov	r3, r1
    a6ee:	e7bd      	b.n	a66c <_svfprintf_r+0x4a4>
    a6f0:	9b08      	ldr	r3, [sp, #32]
    a6f2:	f048 0202 	orr.w	r2, r8, #2
    a6f6:	9202      	str	r2, [sp, #8]
    a6f8:	f853 2b04 	ldr.w	r2, [r3], #4
    a6fc:	9308      	str	r3, [sp, #32]
    a6fe:	f647 0330 	movw	r3, #30768	; 0x7830
    a702:	f8ad 3068 	strh.w	r3, [sp, #104]	; 0x68
    a706:	2078      	movs	r0, #120	; 0x78
    a708:	4b45      	ldr	r3, [pc, #276]	; (a820 <_svfprintf_r+0x658>)
    a70a:	9311      	str	r3, [sp, #68]	; 0x44
    a70c:	2100      	movs	r1, #0
    a70e:	2302      	movs	r3, #2
    a710:	900b      	str	r0, [sp, #44]	; 0x2c
    a712:	2000      	movs	r0, #0
    a714:	9c03      	ldr	r4, [sp, #12]
    a716:	f88d 0067 	strb.w	r0, [sp, #103]	; 0x67
    a71a:	1c60      	adds	r0, r4, #1
    a71c:	f000 80ad 	beq.w	a87a <_svfprintf_r+0x6b2>
    a720:	9802      	ldr	r0, [sp, #8]
    a722:	f020 0880 	bic.w	r8, r0, #128	; 0x80
    a726:	ea52 0001 	orrs.w	r0, r2, r1
    a72a:	f040 80a4 	bne.w	a876 <_svfprintf_r+0x6ae>
    a72e:	2c00      	cmp	r4, #0
    a730:	f040 86ae 	bne.w	b490 <_svfprintf_r+0x12c8>
    a734:	2b00      	cmp	r3, #0
    a736:	d1ac      	bne.n	a692 <_svfprintf_r+0x4ca>
    a738:	9b02      	ldr	r3, [sp, #8]
    a73a:	f013 0301 	ands.w	r3, r3, #1
    a73e:	9305      	str	r3, [sp, #20]
    a740:	f000 83d1 	beq.w	aee6 <_svfprintf_r+0xd1e>
    a744:	2330      	movs	r3, #48	; 0x30
    a746:	f88d 313f 	strb.w	r3, [sp, #319]	; 0x13f
    a74a:	f20d 143f 	addw	r4, sp, #319	; 0x13f
    a74e:	e0ac      	b.n	a8aa <_svfprintf_r+0x6e2>
    a750:	f018 0f20 	tst.w	r8, #32
    a754:	f040 83d4 	bne.w	af00 <_svfprintf_r+0xd38>
    a758:	f018 0f10 	tst.w	r8, #16
    a75c:	f040 869f 	bne.w	b49e <_svfprintf_r+0x12d6>
    a760:	f018 0f40 	tst.w	r8, #64	; 0x40
    a764:	f040 8797 	bne.w	b696 <_svfprintf_r+0x14ce>
    a768:	f418 7f00 	tst.w	r8, #512	; 0x200
    a76c:	f000 8697 	beq.w	b49e <_svfprintf_r+0x12d6>
    a770:	9b08      	ldr	r3, [sp, #32]
    a772:	9904      	ldr	r1, [sp, #16]
    a774:	f853 2b04 	ldr.w	r2, [r3], #4
    a778:	9308      	str	r3, [sp, #32]
    a77a:	7011      	strb	r1, [r2, #0]
    a77c:	464c      	mov	r4, r9
    a77e:	e555      	b.n	a22c <_svfprintf_r+0x64>
    a780:	f899 3000 	ldrb.w	r3, [r9]
    a784:	2b68      	cmp	r3, #104	; 0x68
    a786:	bf03      	ittte	eq
    a788:	f899 3001 	ldrbeq.w	r3, [r9, #1]
    a78c:	f448 7800 	orreq.w	r8, r8, #512	; 0x200
    a790:	f109 0901 	addeq.w	r9, r9, #1
    a794:	f048 0840 	orrne.w	r8, r8, #64	; 0x40
    a798:	e572      	b.n	a280 <_svfprintf_r+0xb8>
    a79a:	f899 3000 	ldrb.w	r3, [r9]
    a79e:	f88d 5067 	strb.w	r5, [sp, #103]	; 0x67
    a7a2:	e56d      	b.n	a280 <_svfprintf_r+0xb8>
    a7a4:	f899 3000 	ldrb.w	r3, [r9]
    a7a8:	2b6c      	cmp	r3, #108	; 0x6c
    a7aa:	bf03      	ittte	eq
    a7ac:	f899 3001 	ldrbeq.w	r3, [r9, #1]
    a7b0:	f048 0820 	orreq.w	r8, r8, #32
    a7b4:	f109 0901 	addeq.w	r9, r9, #1
    a7b8:	f048 0810 	orrne.w	r8, r8, #16
    a7bc:	e560      	b.n	a280 <_svfprintf_r+0xb8>
    a7be:	930b      	str	r3, [sp, #44]	; 0x2c
    a7c0:	f048 0810 	orr.w	r8, r8, #16
    a7c4:	f018 0120 	ands.w	r1, r8, #32
    a7c8:	f000 8351 	beq.w	ae6e <_svfprintf_r+0xca6>
    a7cc:	9b08      	ldr	r3, [sp, #32]
    a7ce:	3307      	adds	r3, #7
    a7d0:	f023 0307 	bic.w	r3, r3, #7
    a7d4:	6859      	ldr	r1, [r3, #4]
    a7d6:	f853 2b08 	ldr.w	r2, [r3], #8
    a7da:	9308      	str	r3, [sp, #32]
    a7dc:	f428 6380 	bic.w	r3, r8, #1024	; 0x400
    a7e0:	9302      	str	r3, [sp, #8]
    a7e2:	2300      	movs	r3, #0
    a7e4:	e795      	b.n	a712 <_svfprintf_r+0x54a>
    a7e6:	930b      	str	r3, [sp, #44]	; 0x2c
    a7e8:	f048 0310 	orr.w	r3, r8, #16
    a7ec:	9302      	str	r3, [sp, #8]
    a7ee:	9b02      	ldr	r3, [sp, #8]
    a7f0:	f013 0120 	ands.w	r1, r3, #32
    a7f4:	f000 8329 	beq.w	ae4a <_svfprintf_r+0xc82>
    a7f8:	9b08      	ldr	r3, [sp, #32]
    a7fa:	3307      	adds	r3, #7
    a7fc:	f023 0307 	bic.w	r3, r3, #7
    a800:	6859      	ldr	r1, [r3, #4]
    a802:	f853 2b08 	ldr.w	r2, [r3], #8
    a806:	9308      	str	r3, [sp, #32]
    a808:	2301      	movs	r3, #1
    a80a:	e782      	b.n	a712 <_svfprintf_r+0x54a>
    a80c:	f899 3000 	ldrb.w	r3, [r9]
    a810:	f048 0880 	orr.w	r8, r8, #128	; 0x80
    a814:	e534      	b.n	a280 <_svfprintf_r+0xb8>
    a816:	bf00      	nop
    a818:	20000968 	.word	0x20000968
    a81c:	2000096c 	.word	0x2000096c
    a820:	20000978 	.word	0x20000978
    a824:	4649      	mov	r1, r9
    a826:	f811 3b01 	ldrb.w	r3, [r1], #1
    a82a:	2b2a      	cmp	r3, #42	; 0x2a
    a82c:	f001 8249 	beq.w	bcc2 <_svfprintf_r+0x1afa>
    a830:	f1a3 0230 	sub.w	r2, r3, #48	; 0x30
    a834:	2a09      	cmp	r2, #9
    a836:	4689      	mov	r9, r1
    a838:	bf98      	it	ls
    a83a:	2100      	movls	r1, #0
    a83c:	f201 8144 	bhi.w	bac8 <_svfprintf_r+0x1900>
    a840:	f819 3b01 	ldrb.w	r3, [r9], #1
    a844:	eb01 0181 	add.w	r1, r1, r1, lsl #2
    a848:	eb02 0141 	add.w	r1, r2, r1, lsl #1
    a84c:	f1a3 0230 	sub.w	r2, r3, #48	; 0x30
    a850:	2a09      	cmp	r2, #9
    a852:	d9f5      	bls.n	a840 <_svfprintf_r+0x678>
    a854:	9103      	str	r1, [sp, #12]
    a856:	e515      	b.n	a284 <_svfprintf_r+0xbc>
    a858:	f899 3000 	ldrb.w	r3, [r9]
    a85c:	f048 0801 	orr.w	r8, r8, #1
    a860:	e50e      	b.n	a280 <_svfprintf_r+0xb8>
    a862:	f89d 3067 	ldrb.w	r3, [sp, #103]	; 0x67
    a866:	2b00      	cmp	r3, #0
    a868:	f47f ad8f 	bne.w	a38a <_svfprintf_r+0x1c2>
    a86c:	f899 3000 	ldrb.w	r3, [r9]
    a870:	f88d 6067 	strb.w	r6, [sp, #103]	; 0x67
    a874:	e504      	b.n	a280 <_svfprintf_r+0xb8>
    a876:	f8cd 8008 	str.w	r8, [sp, #8]
    a87a:	2b01      	cmp	r3, #1
    a87c:	f000 819d 	beq.w	abba <_svfprintf_r+0x9f2>
    a880:	2b02      	cmp	r3, #2
    a882:	ac50      	add	r4, sp, #320	; 0x140
    a884:	d120      	bne.n	a8c8 <_svfprintf_r+0x700>
    a886:	9811      	ldr	r0, [sp, #68]	; 0x44
    a888:	f002 030f 	and.w	r3, r2, #15
    a88c:	0912      	lsrs	r2, r2, #4
    a88e:	5cc3      	ldrb	r3, [r0, r3]
    a890:	f804 3d01 	strb.w	r3, [r4, #-1]!
    a894:	ea42 7201 	orr.w	r2, r2, r1, lsl #28
    a898:	0909      	lsrs	r1, r1, #4
    a89a:	ea52 0301 	orrs.w	r3, r2, r1
    a89e:	d1f3      	bne.n	a888 <_svfprintf_r+0x6c0>
    a8a0:	ab50      	add	r3, sp, #320	; 0x140
    a8a2:	1b1b      	subs	r3, r3, r4
    a8a4:	f8dd 8008 	ldr.w	r8, [sp, #8]
    a8a8:	9305      	str	r3, [sp, #20]
    a8aa:	9a05      	ldr	r2, [sp, #20]
    a8ac:	9803      	ldr	r0, [sp, #12]
    a8ae:	f89d 1067 	ldrb.w	r1, [sp, #103]	; 0x67
    a8b2:	4282      	cmp	r2, r0
    a8b4:	f04f 0300 	mov.w	r3, #0
    a8b8:	bfb8      	it	lt
    a8ba:	4602      	movlt	r2, r0
    a8bc:	e9cd 330c 	strd	r3, r3, [sp, #48]	; 0x30
    a8c0:	9307      	str	r3, [sp, #28]
    a8c2:	9202      	str	r2, [sp, #8]
    a8c4:	930f      	str	r3, [sp, #60]	; 0x3c
    a8c6:	e660      	b.n	a58a <_svfprintf_r+0x3c2>
    a8c8:	f002 0307 	and.w	r3, r2, #7
    a8cc:	08d2      	lsrs	r2, r2, #3
    a8ce:	ea42 7241 	orr.w	r2, r2, r1, lsl #29
    a8d2:	08c9      	lsrs	r1, r1, #3
    a8d4:	3330      	adds	r3, #48	; 0x30
    a8d6:	ea52 0501 	orrs.w	r5, r2, r1
    a8da:	4620      	mov	r0, r4
    a8dc:	f804 3d01 	strb.w	r3, [r4, #-1]!
    a8e0:	d1f2      	bne.n	a8c8 <_svfprintf_r+0x700>
    a8e2:	9a02      	ldr	r2, [sp, #8]
    a8e4:	07d1      	lsls	r1, r2, #31
    a8e6:	f100 824d 	bmi.w	ad84 <_svfprintf_r+0xbbc>
    a8ea:	ab50      	add	r3, sp, #320	; 0x140
    a8ec:	1b1b      	subs	r3, r3, r4
    a8ee:	4690      	mov	r8, r2
    a8f0:	9305      	str	r3, [sp, #20]
    a8f2:	e7da      	b.n	a8aa <_svfprintf_r+0x6e2>
    a8f4:	9b0b      	ldr	r3, [sp, #44]	; 0x2c
    a8f6:	2b65      	cmp	r3, #101	; 0x65
    a8f8:	f340 80d4 	ble.w	aaa4 <_svfprintf_r+0x8dc>
    a8fc:	eeb5 8b40 	vcmp.f64	d8, #0.0
    a900:	eef1 fa10 	vmrs	APSR_nzcv, fpscr
    a904:	f040 81c1 	bne.w	ac8a <_svfprintf_r+0xac2>
    a908:	9b25      	ldr	r3, [sp, #148]	; 0x94
    a90a:	49ba      	ldr	r1, [pc, #744]	; (abf4 <_svfprintf_r+0xa2c>)
    a90c:	f8ca 1000 	str.w	r1, [sl]
    a910:	3301      	adds	r3, #1
    a912:	3201      	adds	r2, #1
    a914:	2101      	movs	r1, #1
    a916:	2b07      	cmp	r3, #7
    a918:	9226      	str	r2, [sp, #152]	; 0x98
    a91a:	9325      	str	r3, [sp, #148]	; 0x94
    a91c:	f8ca 1004 	str.w	r1, [sl, #4]
    a920:	f300 8551 	bgt.w	b3c6 <_svfprintf_r+0x11fe>
    a924:	f10a 0a08 	add.w	sl, sl, #8
    a928:	9b1b      	ldr	r3, [sp, #108]	; 0x6c
    a92a:	990e      	ldr	r1, [sp, #56]	; 0x38
    a92c:	428b      	cmp	r3, r1
    a92e:	f280 82d0 	bge.w	aed2 <_svfprintf_r+0xd0a>
    a932:	9b10      	ldr	r3, [sp, #64]	; 0x40
    a934:	9912      	ldr	r1, [sp, #72]	; 0x48
    a936:	441a      	add	r2, r3
    a938:	e9ca 1300 	strd	r1, r3, [sl]
    a93c:	9b25      	ldr	r3, [sp, #148]	; 0x94
    a93e:	9226      	str	r2, [sp, #152]	; 0x98
    a940:	3301      	adds	r3, #1
    a942:	2b07      	cmp	r3, #7
    a944:	9325      	str	r3, [sp, #148]	; 0x94
    a946:	f300 8397 	bgt.w	b078 <_svfprintf_r+0xeb0>
    a94a:	f10a 0a08 	add.w	sl, sl, #8
    a94e:	9b0e      	ldr	r3, [sp, #56]	; 0x38
    a950:	1e5c      	subs	r4, r3, #1
    a952:	2c00      	cmp	r4, #0
    a954:	f77f add0 	ble.w	a4f8 <_svfprintf_r+0x330>
    a958:	2c10      	cmp	r4, #16
    a95a:	9b25      	ldr	r3, [sp, #148]	; 0x94
    a95c:	f340 856e 	ble.w	b43c <_svfprintf_r+0x1274>
    a960:	ee1b 6a10 	vmov	r6, s22
    a964:	2510      	movs	r5, #16
    a966:	e005      	b.n	a974 <_svfprintf_r+0x7ac>
    a968:	f10a 0a08 	add.w	sl, sl, #8
    a96c:	3c10      	subs	r4, #16
    a96e:	2c10      	cmp	r4, #16
    a970:	f340 8564 	ble.w	b43c <_svfprintf_r+0x1274>
    a974:	3301      	adds	r3, #1
    a976:	49a0      	ldr	r1, [pc, #640]	; (abf8 <_svfprintf_r+0xa30>)
    a978:	3210      	adds	r2, #16
    a97a:	2b07      	cmp	r3, #7
    a97c:	e9ca 1500 	strd	r1, r5, [sl]
    a980:	e9cd 3225 	strd	r3, r2, [sp, #148]	; 0x94
    a984:	ddf0      	ble.n	a968 <_svfprintf_r+0x7a0>
    a986:	aa24      	add	r2, sp, #144	; 0x90
    a988:	4631      	mov	r1, r6
    a98a:	4658      	mov	r0, fp
    a98c:	f002 fb20 	bl	cfd0 <__ssprint_r>
    a990:	2800      	cmp	r0, #0
    a992:	d17e      	bne.n	aa92 <_svfprintf_r+0x8ca>
    a994:	e9dd 3225 	ldrd	r3, r2, [sp, #148]	; 0x94
    a998:	f10d 0a9c 	add.w	sl, sp, #156	; 0x9c
    a99c:	e7e6      	b.n	a96c <_svfprintf_r+0x7a4>
    a99e:	9b06      	ldr	r3, [sp, #24]
    a9a0:	9902      	ldr	r1, [sp, #8]
    a9a2:	1a5d      	subs	r5, r3, r1
    a9a4:	2d00      	cmp	r5, #0
    a9a6:	f77f ad8e 	ble.w	a4c6 <_svfprintf_r+0x2fe>
    a9aa:	2d10      	cmp	r5, #16
    a9ac:	9b25      	ldr	r3, [sp, #148]	; 0x94
    a9ae:	dd21      	ble.n	a9f4 <_svfprintf_r+0x82c>
    a9b0:	9409      	str	r4, [sp, #36]	; 0x24
    a9b2:	2610      	movs	r6, #16
    a9b4:	ee1b 4a10 	vmov	r4, s22
    a9b8:	e004      	b.n	a9c4 <_svfprintf_r+0x7fc>
    a9ba:	3d10      	subs	r5, #16
    a9bc:	2d10      	cmp	r5, #16
    a9be:	f10a 0a08 	add.w	sl, sl, #8
    a9c2:	dd16      	ble.n	a9f2 <_svfprintf_r+0x82a>
    a9c4:	3301      	adds	r3, #1
    a9c6:	498c      	ldr	r1, [pc, #560]	; (abf8 <_svfprintf_r+0xa30>)
    a9c8:	3210      	adds	r2, #16
    a9ca:	2b07      	cmp	r3, #7
    a9cc:	e9ca 1600 	strd	r1, r6, [sl]
    a9d0:	e9cd 3225 	strd	r3, r2, [sp, #148]	; 0x94
    a9d4:	ddf1      	ble.n	a9ba <_svfprintf_r+0x7f2>
    a9d6:	aa24      	add	r2, sp, #144	; 0x90
    a9d8:	4621      	mov	r1, r4
    a9da:	4658      	mov	r0, fp
    a9dc:	f10d 0a9c 	add.w	sl, sp, #156	; 0x9c
    a9e0:	f002 faf6 	bl	cfd0 <__ssprint_r>
    a9e4:	2800      	cmp	r0, #0
    a9e6:	d154      	bne.n	aa92 <_svfprintf_r+0x8ca>
    a9e8:	3d10      	subs	r5, #16
    a9ea:	2d10      	cmp	r5, #16
    a9ec:	e9dd 3225 	ldrd	r3, r2, [sp, #148]	; 0x94
    a9f0:	dce8      	bgt.n	a9c4 <_svfprintf_r+0x7fc>
    a9f2:	9c09      	ldr	r4, [sp, #36]	; 0x24
    a9f4:	4980      	ldr	r1, [pc, #512]	; (abf8 <_svfprintf_r+0xa30>)
    a9f6:	f8ca 5004 	str.w	r5, [sl, #4]
    a9fa:	3301      	adds	r3, #1
    a9fc:	442a      	add	r2, r5
    a9fe:	2b07      	cmp	r3, #7
    aa00:	e9cd 3225 	strd	r3, r2, [sp, #148]	; 0x94
    aa04:	f8ca 1000 	str.w	r1, [sl]
    aa08:	f300 8526 	bgt.w	b458 <_svfprintf_r+0x1290>
    aa0c:	9b03      	ldr	r3, [sp, #12]
    aa0e:	9905      	ldr	r1, [sp, #20]
    aa10:	1a5d      	subs	r5, r3, r1
    aa12:	2d00      	cmp	r5, #0
    aa14:	f10a 0a08 	add.w	sl, sl, #8
    aa18:	f77f ad5b 	ble.w	a4d2 <_svfprintf_r+0x30a>
    aa1c:	2d10      	cmp	r5, #16
    aa1e:	9b25      	ldr	r3, [sp, #148]	; 0x94
    aa20:	dd1f      	ble.n	aa62 <_svfprintf_r+0x89a>
    aa22:	4651      	mov	r1, sl
    aa24:	2610      	movs	r6, #16
    aa26:	ee1b aa10 	vmov	sl, s22
    aa2a:	e004      	b.n	aa36 <_svfprintf_r+0x86e>
    aa2c:	3d10      	subs	r5, #16
    aa2e:	2d10      	cmp	r5, #16
    aa30:	f101 0108 	add.w	r1, r1, #8
    aa34:	dd14      	ble.n	aa60 <_svfprintf_r+0x898>
    aa36:	3301      	adds	r3, #1
    aa38:	486f      	ldr	r0, [pc, #444]	; (abf8 <_svfprintf_r+0xa30>)
    aa3a:	3210      	adds	r2, #16
    aa3c:	2b07      	cmp	r3, #7
    aa3e:	e9c1 0600 	strd	r0, r6, [r1]
    aa42:	e9cd 3225 	strd	r3, r2, [sp, #148]	; 0x94
    aa46:	ddf1      	ble.n	aa2c <_svfprintf_r+0x864>
    aa48:	aa24      	add	r2, sp, #144	; 0x90
    aa4a:	4651      	mov	r1, sl
    aa4c:	4658      	mov	r0, fp
    aa4e:	f002 fabf 	bl	cfd0 <__ssprint_r>
    aa52:	b9f0      	cbnz	r0, aa92 <_svfprintf_r+0x8ca>
    aa54:	3d10      	subs	r5, #16
    aa56:	2d10      	cmp	r5, #16
    aa58:	e9dd 3225 	ldrd	r3, r2, [sp, #148]	; 0x94
    aa5c:	a927      	add	r1, sp, #156	; 0x9c
    aa5e:	dcea      	bgt.n	aa36 <_svfprintf_r+0x86e>
    aa60:	468a      	mov	sl, r1
    aa62:	3301      	adds	r3, #1
    aa64:	4964      	ldr	r1, [pc, #400]	; (abf8 <_svfprintf_r+0xa30>)
    aa66:	f8ca 5004 	str.w	r5, [sl, #4]
    aa6a:	442a      	add	r2, r5
    aa6c:	2b07      	cmp	r3, #7
    aa6e:	e9cd 3225 	strd	r3, r2, [sp, #148]	; 0x94
    aa72:	f8ca 1000 	str.w	r1, [sl]
    aa76:	f300 81da 	bgt.w	ae2e <_svfprintf_r+0xc66>
    aa7a:	f10a 0a08 	add.w	sl, sl, #8
    aa7e:	e528      	b.n	a4d2 <_svfprintf_r+0x30a>
    aa80:	ee1b 1a10 	vmov	r1, s22
    aa84:	aa24      	add	r2, sp, #144	; 0x90
    aa86:	4658      	mov	r0, fp
    aa88:	f002 faa2 	bl	cfd0 <__ssprint_r>
    aa8c:	2800      	cmp	r0, #0
    aa8e:	f43f ad47 	beq.w	a520 <_svfprintf_r+0x358>
    aa92:	9b07      	ldr	r3, [sp, #28]
    aa94:	2b00      	cmp	r3, #0
    aa96:	f43f aca2 	beq.w	a3de <_svfprintf_r+0x216>
    aa9a:	9907      	ldr	r1, [sp, #28]
    aa9c:	4658      	mov	r0, fp
    aa9e:	f7fe fead 	bl	97fc <_free_r>
    aaa2:	e49c      	b.n	a3de <_svfprintf_r+0x216>
    aaa4:	9b0e      	ldr	r3, [sp, #56]	; 0x38
    aaa6:	2b01      	cmp	r3, #1
    aaa8:	f340 817a 	ble.w	ada0 <_svfprintf_r+0xbd8>
    aaac:	9b25      	ldr	r3, [sp, #148]	; 0x94
    aaae:	f8ca 4000 	str.w	r4, [sl]
    aab2:	3301      	adds	r3, #1
    aab4:	3201      	adds	r2, #1
    aab6:	2101      	movs	r1, #1
    aab8:	2b07      	cmp	r3, #7
    aaba:	9226      	str	r2, [sp, #152]	; 0x98
    aabc:	9325      	str	r3, [sp, #148]	; 0x94
    aabe:	f8ca 1004 	str.w	r1, [sl, #4]
    aac2:	f300 81f8 	bgt.w	aeb6 <_svfprintf_r+0xcee>
    aac6:	f10a 0a08 	add.w	sl, sl, #8
    aaca:	9910      	ldr	r1, [sp, #64]	; 0x40
    aacc:	9812      	ldr	r0, [sp, #72]	; 0x48
    aace:	3301      	adds	r3, #1
    aad0:	440a      	add	r2, r1
    aad2:	2b07      	cmp	r3, #7
    aad4:	e9ca 0100 	strd	r0, r1, [sl]
    aad8:	e9cd 3225 	strd	r3, r2, [sp, #148]	; 0x94
    aadc:	f300 81dd 	bgt.w	ae9a <_svfprintf_r+0xcd2>
    aae0:	f10a 0a08 	add.w	sl, sl, #8
    aae4:	eeb5 8b40 	vcmp.f64	d8, #0.0
    aae8:	eef1 fa10 	vmrs	APSR_nzcv, fpscr
    aaec:	f000 8177 	beq.w	adde <_svfprintf_r+0xc16>
    aaf0:	990e      	ldr	r1, [sp, #56]	; 0x38
    aaf2:	3301      	adds	r3, #1
    aaf4:	3901      	subs	r1, #1
    aaf6:	3401      	adds	r4, #1
    aaf8:	440a      	add	r2, r1
    aafa:	2b07      	cmp	r3, #7
    aafc:	f8ca 4000 	str.w	r4, [sl]
    ab00:	9325      	str	r3, [sp, #148]	; 0x94
    ab02:	f8ca 1004 	str.w	r1, [sl, #4]
    ab06:	9226      	str	r2, [sp, #152]	; 0x98
    ab08:	f300 815b 	bgt.w	adc2 <_svfprintf_r+0xbfa>
    ab0c:	f10a 0a08 	add.w	sl, sl, #8
    ab10:	9914      	ldr	r1, [sp, #80]	; 0x50
    ab12:	f8ca 1004 	str.w	r1, [sl, #4]
    ab16:	3301      	adds	r3, #1
    ab18:	440a      	add	r2, r1
    ab1a:	2b07      	cmp	r3, #7
    ab1c:	a91e      	add	r1, sp, #120	; 0x78
    ab1e:	e9cd 3225 	strd	r3, r2, [sp, #148]	; 0x94
    ab22:	f8ca 1000 	str.w	r1, [sl]
    ab26:	f77f ace5 	ble.w	a4f4 <_svfprintf_r+0x32c>
    ab2a:	ee1b 1a10 	vmov	r1, s22
    ab2e:	aa24      	add	r2, sp, #144	; 0x90
    ab30:	4658      	mov	r0, fp
    ab32:	f002 fa4d 	bl	cfd0 <__ssprint_r>
    ab36:	2800      	cmp	r0, #0
    ab38:	d1ab      	bne.n	aa92 <_svfprintf_r+0x8ca>
    ab3a:	9a26      	ldr	r2, [sp, #152]	; 0x98
    ab3c:	f10d 0a9c 	add.w	sl, sp, #156	; 0x9c
    ab40:	e4da      	b.n	a4f8 <_svfprintf_r+0x330>
    ab42:	2d10      	cmp	r5, #16
    ab44:	e9dd 1225 	ldrd	r1, r2, [sp, #148]	; 0x94
    ab48:	4e2c      	ldr	r6, [pc, #176]	; (abfc <_svfprintf_r+0xa34>)
    ab4a:	dd24      	ble.n	ab96 <_svfprintf_r+0x9ce>
    ab4c:	9417      	str	r4, [sp, #92]	; 0x5c
    ab4e:	2310      	movs	r3, #16
    ab50:	ee1b 4a10 	vmov	r4, s22
    ab54:	4608      	mov	r0, r1
    ab56:	e004      	b.n	ab62 <_svfprintf_r+0x99a>
    ab58:	3d10      	subs	r5, #16
    ab5a:	2d10      	cmp	r5, #16
    ab5c:	f10a 0a08 	add.w	sl, sl, #8
    ab60:	dd17      	ble.n	ab92 <_svfprintf_r+0x9ca>
    ab62:	3001      	adds	r0, #1
    ab64:	3210      	adds	r2, #16
    ab66:	2807      	cmp	r0, #7
    ab68:	e9ca 6300 	strd	r6, r3, [sl]
    ab6c:	e9cd 0225 	strd	r0, r2, [sp, #148]	; 0x94
    ab70:	ddf2      	ble.n	ab58 <_svfprintf_r+0x990>
    ab72:	aa24      	add	r2, sp, #144	; 0x90
    ab74:	4621      	mov	r1, r4
    ab76:	4658      	mov	r0, fp
    ab78:	f10d 0a9c 	add.w	sl, sp, #156	; 0x9c
    ab7c:	f002 fa28 	bl	cfd0 <__ssprint_r>
    ab80:	2800      	cmp	r0, #0
    ab82:	d186      	bne.n	aa92 <_svfprintf_r+0x8ca>
    ab84:	3d10      	subs	r5, #16
    ab86:	2d10      	cmp	r5, #16
    ab88:	e9dd 0225 	ldrd	r0, r2, [sp, #148]	; 0x94
    ab8c:	f04f 0310 	mov.w	r3, #16
    ab90:	dce7      	bgt.n	ab62 <_svfprintf_r+0x99a>
    ab92:	9c17      	ldr	r4, [sp, #92]	; 0x5c
    ab94:	4601      	mov	r1, r0
    ab96:	3101      	adds	r1, #1
    ab98:	442a      	add	r2, r5
    ab9a:	2907      	cmp	r1, #7
    ab9c:	e9cd 1225 	strd	r1, r2, [sp, #148]	; 0x94
    aba0:	f8ca 6000 	str.w	r6, [sl]
    aba4:	f8ca 5004 	str.w	r5, [sl, #4]
    aba8:	f300 83bd 	bgt.w	b326 <_svfprintf_r+0x115e>
    abac:	f89d 1067 	ldrb.w	r1, [sp, #103]	; 0x67
    abb0:	f10a 0a08 	add.w	sl, sl, #8
    abb4:	e45d      	b.n	a472 <_svfprintf_r+0x2aa>
    abb6:	f8cd 8008 	str.w	r8, [sp, #8]
    abba:	2a0a      	cmp	r2, #10
    abbc:	f171 0300 	sbcs.w	r3, r1, #0
    abc0:	f080 8345 	bcs.w	b24e <_svfprintf_r+0x1086>
    abc4:	3230      	adds	r2, #48	; 0x30
    abc6:	2301      	movs	r3, #1
    abc8:	f8dd 8008 	ldr.w	r8, [sp, #8]
    abcc:	f88d 213f 	strb.w	r2, [sp, #319]	; 0x13f
    abd0:	9305      	str	r3, [sp, #20]
    abd2:	f20d 143f 	addw	r4, sp, #319	; 0x13f
    abd6:	e668      	b.n	a8aa <_svfprintf_r+0x6e2>
    abd8:	ee1b 1a10 	vmov	r1, s22
    abdc:	aa24      	add	r2, sp, #144	; 0x90
    abde:	4658      	mov	r0, fp
    abe0:	f002 f9f6 	bl	cfd0 <__ssprint_r>
    abe4:	2800      	cmp	r0, #0
    abe6:	f47f af54 	bne.w	aa92 <_svfprintf_r+0x8ca>
    abea:	9a26      	ldr	r2, [sp, #152]	; 0x98
    abec:	f10d 0a9c 	add.w	sl, sp, #156	; 0x9c
    abf0:	e452      	b.n	a498 <_svfprintf_r+0x2d0>
    abf2:	bf00      	nop
    abf4:	200009a8 	.word	0x200009a8
    abf8:	20000b58 	.word	0x20000b58
    abfc:	200009ac 	.word	0x200009ac
    ac00:	ee1b 1a10 	vmov	r1, s22
    ac04:	aa24      	add	r2, sp, #144	; 0x90
    ac06:	4658      	mov	r0, fp
    ac08:	f002 f9e2 	bl	cfd0 <__ssprint_r>
    ac0c:	2800      	cmp	r0, #0
    ac0e:	f47f af40 	bne.w	aa92 <_svfprintf_r+0x8ca>
    ac12:	9a26      	ldr	r2, [sp, #152]	; 0x98
    ac14:	f10d 0a9c 	add.w	sl, sp, #156	; 0x9c
    ac18:	e451      	b.n	a4be <_svfprintf_r+0x2f6>
    ac1a:	2c10      	cmp	r4, #16
    ac1c:	9b25      	ldr	r3, [sp, #148]	; 0x94
    ac1e:	4ebe      	ldr	r6, [pc, #760]	; (af18 <_svfprintf_r+0xd50>)
    ac20:	dd1f      	ble.n	ac62 <_svfprintf_r+0xa9a>
    ac22:	ee1b 8a10 	vmov	r8, s22
    ac26:	2510      	movs	r5, #16
    ac28:	e004      	b.n	ac34 <_svfprintf_r+0xa6c>
    ac2a:	3c10      	subs	r4, #16
    ac2c:	2c10      	cmp	r4, #16
    ac2e:	f10a 0a08 	add.w	sl, sl, #8
    ac32:	dd16      	ble.n	ac62 <_svfprintf_r+0xa9a>
    ac34:	3301      	adds	r3, #1
    ac36:	3210      	adds	r2, #16
    ac38:	2b07      	cmp	r3, #7
    ac3a:	e9ca 6500 	strd	r6, r5, [sl]
    ac3e:	e9cd 3225 	strd	r3, r2, [sp, #148]	; 0x94
    ac42:	ddf2      	ble.n	ac2a <_svfprintf_r+0xa62>
    ac44:	aa24      	add	r2, sp, #144	; 0x90
    ac46:	4641      	mov	r1, r8
    ac48:	4658      	mov	r0, fp
    ac4a:	f10d 0a9c 	add.w	sl, sp, #156	; 0x9c
    ac4e:	f002 f9bf 	bl	cfd0 <__ssprint_r>
    ac52:	2800      	cmp	r0, #0
    ac54:	f47f af1d 	bne.w	aa92 <_svfprintf_r+0x8ca>
    ac58:	3c10      	subs	r4, #16
    ac5a:	2c10      	cmp	r4, #16
    ac5c:	e9dd 3225 	ldrd	r3, r2, [sp, #148]	; 0x94
    ac60:	dce8      	bgt.n	ac34 <_svfprintf_r+0xa6c>
    ac62:	3301      	adds	r3, #1
    ac64:	4422      	add	r2, r4
    ac66:	2b07      	cmp	r3, #7
    ac68:	e9ca 6400 	strd	r6, r4, [sl]
    ac6c:	e9cd 3225 	strd	r3, r2, [sp, #148]	; 0x94
    ac70:	f77f ac4b 	ble.w	a50a <_svfprintf_r+0x342>
    ac74:	ee1b 1a10 	vmov	r1, s22
    ac78:	aa24      	add	r2, sp, #144	; 0x90
    ac7a:	4658      	mov	r0, fp
    ac7c:	f002 f9a8 	bl	cfd0 <__ssprint_r>
    ac80:	2800      	cmp	r0, #0
    ac82:	f47f af06 	bne.w	aa92 <_svfprintf_r+0x8ca>
    ac86:	9a26      	ldr	r2, [sp, #152]	; 0x98
    ac88:	e43f      	b.n	a50a <_svfprintf_r+0x342>
    ac8a:	991b      	ldr	r1, [sp, #108]	; 0x6c
    ac8c:	2900      	cmp	r1, #0
    ac8e:	f340 835a 	ble.w	b346 <_svfprintf_r+0x117e>
    ac92:	9e0c      	ldr	r6, [sp, #48]	; 0x30
    ac94:	9b0e      	ldr	r3, [sp, #56]	; 0x38
    ac96:	429e      	cmp	r6, r3
    ac98:	bfa8      	it	ge
    ac9a:	461e      	movge	r6, r3
    ac9c:	2e00      	cmp	r6, #0
    ac9e:	dd0b      	ble.n	acb8 <_svfprintf_r+0xaf0>
    aca0:	9b25      	ldr	r3, [sp, #148]	; 0x94
    aca2:	3301      	adds	r3, #1
    aca4:	4432      	add	r2, r6
    aca6:	2b07      	cmp	r3, #7
    aca8:	e9ca 4600 	strd	r4, r6, [sl]
    acac:	9226      	str	r2, [sp, #152]	; 0x98
    acae:	9325      	str	r3, [sp, #148]	; 0x94
    acb0:	f300 8689 	bgt.w	b9c6 <_svfprintf_r+0x17fe>
    acb4:	f10a 0a08 	add.w	sl, sl, #8
    acb8:	9d0c      	ldr	r5, [sp, #48]	; 0x30
    acba:	2e00      	cmp	r6, #0
    acbc:	bfa8      	it	ge
    acbe:	1bad      	subge	r5, r5, r6
    acc0:	2d00      	cmp	r5, #0
    acc2:	f300 8203 	bgt.w	b0cc <_svfprintf_r+0xf04>
    acc6:	9b0c      	ldr	r3, [sp, #48]	; 0x30
    acc8:	f418 6f80 	tst.w	r8, #1024	; 0x400
    accc:	4423      	add	r3, r4
    acce:	9305      	str	r3, [sp, #20]
    acd0:	f040 821f 	bne.w	b112 <_svfprintf_r+0xf4a>
    acd4:	9b1b      	ldr	r3, [sp, #108]	; 0x6c
    acd6:	990e      	ldr	r1, [sp, #56]	; 0x38
    acd8:	428b      	cmp	r3, r1
    acda:	db03      	blt.n	ace4 <_svfprintf_r+0xb1c>
    acdc:	f018 0f01 	tst.w	r8, #1
    ace0:	f000 84cf 	beq.w	b682 <_svfprintf_r+0x14ba>
    ace4:	9910      	ldr	r1, [sp, #64]	; 0x40
    ace6:	9812      	ldr	r0, [sp, #72]	; 0x48
    ace8:	440a      	add	r2, r1
    acea:	e9ca 0100 	strd	r0, r1, [sl]
    acee:	9925      	ldr	r1, [sp, #148]	; 0x94
    acf0:	9226      	str	r2, [sp, #152]	; 0x98
    acf2:	3101      	adds	r1, #1
    acf4:	2907      	cmp	r1, #7
    acf6:	9125      	str	r1, [sp, #148]	; 0x94
    acf8:	f300 86a5 	bgt.w	ba46 <_svfprintf_r+0x187e>
    acfc:	f10a 0a08 	add.w	sl, sl, #8
    ad00:	990e      	ldr	r1, [sp, #56]	; 0x38
    ad02:	1865      	adds	r5, r4, r1
    ad04:	1acc      	subs	r4, r1, r3
    ad06:	9b05      	ldr	r3, [sp, #20]
    ad08:	1aed      	subs	r5, r5, r3
    ad0a:	42a5      	cmp	r5, r4
    ad0c:	bfa8      	it	ge
    ad0e:	4625      	movge	r5, r4
    ad10:	2d00      	cmp	r5, #0
    ad12:	dd0d      	ble.n	ad30 <_svfprintf_r+0xb68>
    ad14:	f8ca 3000 	str.w	r3, [sl]
    ad18:	9b25      	ldr	r3, [sp, #148]	; 0x94
    ad1a:	f8ca 5004 	str.w	r5, [sl, #4]
    ad1e:	3301      	adds	r3, #1
    ad20:	442a      	add	r2, r5
    ad22:	2b07      	cmp	r3, #7
    ad24:	9226      	str	r2, [sp, #152]	; 0x98
    ad26:	9325      	str	r3, [sp, #148]	; 0x94
    ad28:	f300 86bb 	bgt.w	baa2 <_svfprintf_r+0x18da>
    ad2c:	f10a 0a08 	add.w	sl, sl, #8
    ad30:	2d00      	cmp	r5, #0
    ad32:	bfa8      	it	ge
    ad34:	1b64      	subge	r4, r4, r5
    ad36:	2c00      	cmp	r4, #0
    ad38:	f77f abde 	ble.w	a4f8 <_svfprintf_r+0x330>
    ad3c:	2c10      	cmp	r4, #16
    ad3e:	9b25      	ldr	r3, [sp, #148]	; 0x94
    ad40:	f340 837c 	ble.w	b43c <_svfprintf_r+0x1274>
    ad44:	ee1b 6a10 	vmov	r6, s22
    ad48:	2510      	movs	r5, #16
    ad4a:	e005      	b.n	ad58 <_svfprintf_r+0xb90>
    ad4c:	f10a 0a08 	add.w	sl, sl, #8
    ad50:	3c10      	subs	r4, #16
    ad52:	2c10      	cmp	r4, #16
    ad54:	f340 8372 	ble.w	b43c <_svfprintf_r+0x1274>
    ad58:	3301      	adds	r3, #1
    ad5a:	4970      	ldr	r1, [pc, #448]	; (af1c <_svfprintf_r+0xd54>)
    ad5c:	3210      	adds	r2, #16
    ad5e:	2b07      	cmp	r3, #7
    ad60:	e9ca 1500 	strd	r1, r5, [sl]
    ad64:	e9cd 3225 	strd	r3, r2, [sp, #148]	; 0x94
    ad68:	ddf0      	ble.n	ad4c <_svfprintf_r+0xb84>
    ad6a:	aa24      	add	r2, sp, #144	; 0x90
    ad6c:	4631      	mov	r1, r6
    ad6e:	4658      	mov	r0, fp
    ad70:	f002 f92e 	bl	cfd0 <__ssprint_r>
    ad74:	2800      	cmp	r0, #0
    ad76:	f47f ae8c 	bne.w	aa92 <_svfprintf_r+0x8ca>
    ad7a:	e9dd 3225 	ldrd	r3, r2, [sp, #148]	; 0x94
    ad7e:	f10d 0a9c 	add.w	sl, sp, #156	; 0x9c
    ad82:	e7e5      	b.n	ad50 <_svfprintf_r+0xb88>
    ad84:	2b30      	cmp	r3, #48	; 0x30
    ad86:	f43f ad8b 	beq.w	a8a0 <_svfprintf_r+0x6d8>
    ad8a:	2330      	movs	r3, #48	; 0x30
    ad8c:	3802      	subs	r0, #2
    ad8e:	f804 3c01 	strb.w	r3, [r4, #-1]
    ad92:	ab50      	add	r3, sp, #320	; 0x140
    ad94:	1a1b      	subs	r3, r3, r0
    ad96:	f8dd 8008 	ldr.w	r8, [sp, #8]
    ad9a:	9305      	str	r3, [sp, #20]
    ad9c:	4604      	mov	r4, r0
    ad9e:	e584      	b.n	a8aa <_svfprintf_r+0x6e2>
    ada0:	f018 0f01 	tst.w	r8, #1
    ada4:	f47f ae82 	bne.w	aaac <_svfprintf_r+0x8e4>
    ada8:	9b25      	ldr	r3, [sp, #148]	; 0x94
    adaa:	f8ca 4000 	str.w	r4, [sl]
    adae:	3301      	adds	r3, #1
    adb0:	3201      	adds	r2, #1
    adb2:	2101      	movs	r1, #1
    adb4:	2b07      	cmp	r3, #7
    adb6:	9226      	str	r2, [sp, #152]	; 0x98
    adb8:	9325      	str	r3, [sp, #148]	; 0x94
    adba:	f8ca 1004 	str.w	r1, [sl, #4]
    adbe:	f77f aea5 	ble.w	ab0c <_svfprintf_r+0x944>
    adc2:	ee1b 1a10 	vmov	r1, s22
    adc6:	aa24      	add	r2, sp, #144	; 0x90
    adc8:	4658      	mov	r0, fp
    adca:	f002 f901 	bl	cfd0 <__ssprint_r>
    adce:	2800      	cmp	r0, #0
    add0:	f47f ae5f 	bne.w	aa92 <_svfprintf_r+0x8ca>
    add4:	e9dd 3225 	ldrd	r3, r2, [sp, #148]	; 0x94
    add8:	f10d 0a9c 	add.w	sl, sp, #156	; 0x9c
    addc:	e698      	b.n	ab10 <_svfprintf_r+0x948>
    adde:	990e      	ldr	r1, [sp, #56]	; 0x38
    ade0:	1e4c      	subs	r4, r1, #1
    ade2:	2c00      	cmp	r4, #0
    ade4:	f77f ae94 	ble.w	ab10 <_svfprintf_r+0x948>
    ade8:	2c10      	cmp	r4, #16
    adea:	f340 8361 	ble.w	b4b0 <_svfprintf_r+0x12e8>
    adee:	ee1b 6a10 	vmov	r6, s22
    adf2:	2510      	movs	r5, #16
    adf4:	e005      	b.n	ae02 <_svfprintf_r+0xc3a>
    adf6:	f10a 0a08 	add.w	sl, sl, #8
    adfa:	3c10      	subs	r4, #16
    adfc:	2c10      	cmp	r4, #16
    adfe:	f340 8357 	ble.w	b4b0 <_svfprintf_r+0x12e8>
    ae02:	3301      	adds	r3, #1
    ae04:	4945      	ldr	r1, [pc, #276]	; (af1c <_svfprintf_r+0xd54>)
    ae06:	3210      	adds	r2, #16
    ae08:	2b07      	cmp	r3, #7
    ae0a:	e9ca 1500 	strd	r1, r5, [sl]
    ae0e:	e9cd 3225 	strd	r3, r2, [sp, #148]	; 0x94
    ae12:	ddf0      	ble.n	adf6 <_svfprintf_r+0xc2e>
    ae14:	aa24      	add	r2, sp, #144	; 0x90
    ae16:	4631      	mov	r1, r6
    ae18:	4658      	mov	r0, fp
    ae1a:	f002 f8d9 	bl	cfd0 <__ssprint_r>
    ae1e:	2800      	cmp	r0, #0
    ae20:	f47f ae37 	bne.w	aa92 <_svfprintf_r+0x8ca>
    ae24:	e9dd 3225 	ldrd	r3, r2, [sp, #148]	; 0x94
    ae28:	f10d 0a9c 	add.w	sl, sp, #156	; 0x9c
    ae2c:	e7e5      	b.n	adfa <_svfprintf_r+0xc32>
    ae2e:	ee1b 1a10 	vmov	r1, s22
    ae32:	aa24      	add	r2, sp, #144	; 0x90
    ae34:	4658      	mov	r0, fp
    ae36:	f002 f8cb 	bl	cfd0 <__ssprint_r>
    ae3a:	2800      	cmp	r0, #0
    ae3c:	f47f ae29 	bne.w	aa92 <_svfprintf_r+0x8ca>
    ae40:	9a26      	ldr	r2, [sp, #152]	; 0x98
    ae42:	f10d 0a9c 	add.w	sl, sp, #156	; 0x9c
    ae46:	f7ff bb44 	b.w	a4d2 <_svfprintf_r+0x30a>
    ae4a:	9b02      	ldr	r3, [sp, #8]
    ae4c:	f013 0310 	ands.w	r3, r3, #16
    ae50:	f040 80c1 	bne.w	afd6 <_svfprintf_r+0xe0e>
    ae54:	9a02      	ldr	r2, [sp, #8]
    ae56:	f012 0240 	ands.w	r2, r2, #64	; 0x40
    ae5a:	f000 837a 	beq.w	b552 <_svfprintf_r+0x138a>
    ae5e:	9808      	ldr	r0, [sp, #32]
    ae60:	f850 2b04 	ldr.w	r2, [r0], #4
    ae64:	9008      	str	r0, [sp, #32]
    ae66:	4619      	mov	r1, r3
    ae68:	b292      	uxth	r2, r2
    ae6a:	2301      	movs	r3, #1
    ae6c:	e451      	b.n	a712 <_svfprintf_r+0x54a>
    ae6e:	f018 0310 	ands.w	r3, r8, #16
    ae72:	d155      	bne.n	af20 <_svfprintf_r+0xd58>
    ae74:	f018 0240 	ands.w	r2, r8, #64	; 0x40
    ae78:	f000 835d 	beq.w	b536 <_svfprintf_r+0x136e>
    ae7c:	9808      	ldr	r0, [sp, #32]
    ae7e:	f850 2b04 	ldr.w	r2, [r0], #4
    ae82:	9008      	str	r0, [sp, #32]
    ae84:	4619      	mov	r1, r3
    ae86:	b292      	uxth	r2, r2
    ae88:	e4a8      	b.n	a7dc <_svfprintf_r+0x614>
    ae8a:	4252      	negs	r2, r2
    ae8c:	eb61 0141 	sbc.w	r1, r1, r1, lsl #1
    ae90:	f8cd 8008 	str.w	r8, [sp, #8]
    ae94:	202d      	movs	r0, #45	; 0x2d
    ae96:	2301      	movs	r3, #1
    ae98:	e43c      	b.n	a714 <_svfprintf_r+0x54c>
    ae9a:	ee1b 1a10 	vmov	r1, s22
    ae9e:	aa24      	add	r2, sp, #144	; 0x90
    aea0:	4658      	mov	r0, fp
    aea2:	f002 f895 	bl	cfd0 <__ssprint_r>
    aea6:	2800      	cmp	r0, #0
    aea8:	f47f adf3 	bne.w	aa92 <_svfprintf_r+0x8ca>
    aeac:	e9dd 3225 	ldrd	r3, r2, [sp, #148]	; 0x94
    aeb0:	f10d 0a9c 	add.w	sl, sp, #156	; 0x9c
    aeb4:	e616      	b.n	aae4 <_svfprintf_r+0x91c>
    aeb6:	ee1b 1a10 	vmov	r1, s22
    aeba:	aa24      	add	r2, sp, #144	; 0x90
    aebc:	4658      	mov	r0, fp
    aebe:	f002 f887 	bl	cfd0 <__ssprint_r>
    aec2:	2800      	cmp	r0, #0
    aec4:	f47f ade5 	bne.w	aa92 <_svfprintf_r+0x8ca>
    aec8:	e9dd 3225 	ldrd	r3, r2, [sp, #148]	; 0x94
    aecc:	f10d 0a9c 	add.w	sl, sp, #156	; 0x9c
    aed0:	e5fb      	b.n	aaca <_svfprintf_r+0x902>
    aed2:	f018 0f01 	tst.w	r8, #1
    aed6:	f43f ab0f 	beq.w	a4f8 <_svfprintf_r+0x330>
    aeda:	e52a      	b.n	a932 <_svfprintf_r+0x76a>
    aedc:	9308      	str	r3, [sp, #32]
    aede:	f899 3000 	ldrb.w	r3, [r9]
    aee2:	f7ff b9cd 	b.w	a280 <_svfprintf_r+0xb8>
    aee6:	ac50      	add	r4, sp, #320	; 0x140
    aee8:	e4df      	b.n	a8aa <_svfprintf_r+0x6e2>
    aeea:	f418 7f00 	tst.w	r8, #512	; 0x200
    aeee:	f040 83db 	bne.w	b6a8 <_svfprintf_r+0x14e0>
    aef2:	f853 2b04 	ldr.w	r2, [r3], #4
    aef6:	9308      	str	r3, [sp, #32]
    aef8:	17d1      	asrs	r1, r2, #31
    aefa:	460b      	mov	r3, r1
    aefc:	f7ff bbb6 	b.w	a66c <_svfprintf_r+0x4a4>
    af00:	9b08      	ldr	r3, [sp, #32]
    af02:	9804      	ldr	r0, [sp, #16]
    af04:	f853 1b04 	ldr.w	r1, [r3], #4
    af08:	9308      	str	r3, [sp, #32]
    af0a:	17c2      	asrs	r2, r0, #31
    af0c:	e9c1 0200 	strd	r0, r2, [r1]
    af10:	464c      	mov	r4, r9
    af12:	f7ff b98b 	b.w	a22c <_svfprintf_r+0x64>
    af16:	bf00      	nop
    af18:	200009ac 	.word	0x200009ac
    af1c:	20000b58 	.word	0x20000b58
    af20:	9b08      	ldr	r3, [sp, #32]
    af22:	f853 2b04 	ldr.w	r2, [r3], #4
    af26:	9308      	str	r3, [sp, #32]
    af28:	e458      	b.n	a7dc <_svfprintf_r+0x614>
    af2a:	eeb4 8b48 	vcmp.f64	d8, d8
    af2e:	eef1 fa10 	vmrs	APSR_nzcv, fpscr
    af32:	f180 8694 	bvs.w	bc5e <_svfprintf_r+0x1a96>
    af36:	9b0b      	ldr	r3, [sp, #44]	; 0x2c
    af38:	2b61      	cmp	r3, #97	; 0x61
    af3a:	f000 8552 	beq.w	b9e2 <_svfprintf_r+0x181a>
    af3e:	2b41      	cmp	r3, #65	; 0x41
    af40:	f000 85c0 	beq.w	bac4 <_svfprintf_r+0x18fc>
    af44:	9b03      	ldr	r3, [sp, #12]
    af46:	3301      	adds	r3, #1
    af48:	9b0b      	ldr	r3, [sp, #44]	; 0x2c
    af4a:	f023 0520 	bic.w	r5, r3, #32
    af4e:	f000 8480 	beq.w	b852 <_svfprintf_r+0x168a>
    af52:	2d47      	cmp	r5, #71	; 0x47
    af54:	d104      	bne.n	af60 <_svfprintf_r+0xd98>
    af56:	9b03      	ldr	r3, [sp, #12]
    af58:	2b00      	cmp	r3, #0
    af5a:	bf08      	it	eq
    af5c:	2301      	moveq	r3, #1
    af5e:	9303      	str	r3, [sp, #12]
    af60:	ee18 3a90 	vmov	r3, s17
    af64:	2b00      	cmp	r3, #0
    af66:	f448 7280 	orr.w	r2, r8, #256	; 0x100
    af6a:	4646      	mov	r6, r8
    af6c:	f2c0 8618 	blt.w	bba0 <_svfprintf_r+0x19d8>
    af70:	eeb0 ab48 	vmov.f64	d10, d8
    af74:	2300      	movs	r3, #0
    af76:	4690      	mov	r8, r2
    af78:	9309      	str	r3, [sp, #36]	; 0x24
    af7a:	9307      	str	r3, [sp, #28]
    af7c:	9b0b      	ldr	r3, [sp, #44]	; 0x2c
    af7e:	3b41      	subs	r3, #65	; 0x41
    af80:	2b25      	cmp	r3, #37	; 0x25
    af82:	f200 8398 	bhi.w	b6b6 <_svfprintf_r+0x14ee>
    af86:	e8df f013 	tbh	[pc, r3, lsl #1]
    af8a:	046f      	.short	0x046f
    af8c:	03960396 	.word	0x03960396
    af90:	04680396 	.word	0x04680396
    af94:	0396046c 	.word	0x0396046c
    af98:	03960396 	.word	0x03960396
    af9c:	03960396 	.word	0x03960396
    afa0:	03960396 	.word	0x03960396
    afa4:	03960396 	.word	0x03960396
    afa8:	03960396 	.word	0x03960396
    afac:	03960396 	.word	0x03960396
    afb0:	03960396 	.word	0x03960396
    afb4:	03960396 	.word	0x03960396
    afb8:	03960396 	.word	0x03960396
    afbc:	03960396 	.word	0x03960396
    afc0:	03960396 	.word	0x03960396
    afc4:	03960396 	.word	0x03960396
    afc8:	03960396 	.word	0x03960396
    afcc:	03960396 	.word	0x03960396
    afd0:	04680396 	.word	0x04680396
    afd4:	046c      	.short	0x046c
    afd6:	9b08      	ldr	r3, [sp, #32]
    afd8:	f853 2b04 	ldr.w	r2, [r3], #4
    afdc:	9308      	str	r3, [sp, #32]
    afde:	2301      	movs	r3, #1
    afe0:	f7ff bb97 	b.w	a712 <_svfprintf_r+0x54a>
    afe4:	9b13      	ldr	r3, [sp, #76]	; 0x4c
    afe6:	2b00      	cmp	r3, #0
    afe8:	f43f a9cf 	beq.w	a38a <_svfprintf_r+0x1c2>
    afec:	9b13      	ldr	r3, [sp, #76]	; 0x4c
    afee:	781b      	ldrb	r3, [r3, #0]
    aff0:	2b00      	cmp	r3, #0
    aff2:	f43f a9ca 	beq.w	a38a <_svfprintf_r+0x1c2>
    aff6:	f899 3000 	ldrb.w	r3, [r9]
    affa:	f448 6880 	orr.w	r8, r8, #1024	; 0x400
    affe:	f7ff b93f 	b.w	a280 <_svfprintf_r+0xb8>
    b002:	930b      	str	r3, [sp, #44]	; 0x2c
    b004:	f8cd 8008 	str.w	r8, [sp, #8]
    b008:	f7ff bbf1 	b.w	a7ee <_svfprintf_r+0x626>
    b00c:	930b      	str	r3, [sp, #44]	; 0x2c
    b00e:	4b9a      	ldr	r3, [pc, #616]	; (b278 <_svfprintf_r+0x10b0>)
    b010:	9311      	str	r3, [sp, #68]	; 0x44
    b012:	f018 0120 	ands.w	r1, r8, #32
    b016:	f000 8105 	beq.w	b224 <_svfprintf_r+0x105c>
    b01a:	9b08      	ldr	r3, [sp, #32]
    b01c:	3307      	adds	r3, #7
    b01e:	f023 0307 	bic.w	r3, r3, #7
    b022:	6859      	ldr	r1, [r3, #4]
    b024:	f853 2b08 	ldr.w	r2, [r3], #8
    b028:	9308      	str	r3, [sp, #32]
    b02a:	f018 0f01 	tst.w	r8, #1
    b02e:	d00a      	beq.n	b046 <_svfprintf_r+0xe7e>
    b030:	ea52 0301 	orrs.w	r3, r2, r1
    b034:	d007      	beq.n	b046 <_svfprintf_r+0xe7e>
    b036:	9b0b      	ldr	r3, [sp, #44]	; 0x2c
    b038:	f88d 3069 	strb.w	r3, [sp, #105]	; 0x69
    b03c:	2330      	movs	r3, #48	; 0x30
    b03e:	f048 0802 	orr.w	r8, r8, #2
    b042:	f88d 3068 	strb.w	r3, [sp, #104]	; 0x68
    b046:	f428 6380 	bic.w	r3, r8, #1024	; 0x400
    b04a:	9302      	str	r3, [sp, #8]
    b04c:	2302      	movs	r3, #2
    b04e:	f7ff bb60 	b.w	a712 <_svfprintf_r+0x54a>
    b052:	930b      	str	r3, [sp, #44]	; 0x2c
    b054:	f7ff bbb6 	b.w	a7c4 <_svfprintf_r+0x5fc>
    b058:	930b      	str	r3, [sp, #44]	; 0x2c
    b05a:	4b88      	ldr	r3, [pc, #544]	; (b27c <_svfprintf_r+0x10b4>)
    b05c:	9311      	str	r3, [sp, #68]	; 0x44
    b05e:	e7d8      	b.n	b012 <_svfprintf_r+0xe4a>
    b060:	9b08      	ldr	r3, [sp, #32]
    b062:	2101      	movs	r1, #1
    b064:	f853 2b04 	ldr.w	r2, [r3], #4
    b068:	9102      	str	r1, [sp, #8]
    b06a:	f88d 20dc 	strb.w	r2, [sp, #220]	; 0xdc
    b06e:	9308      	str	r3, [sp, #32]
    b070:	9105      	str	r1, [sp, #20]
    b072:	ac37      	add	r4, sp, #220	; 0xdc
    b074:	f7ff baaf 	b.w	a5d6 <_svfprintf_r+0x40e>
    b078:	ee1b 1a10 	vmov	r1, s22
    b07c:	aa24      	add	r2, sp, #144	; 0x90
    b07e:	4658      	mov	r0, fp
    b080:	f001 ffa6 	bl	cfd0 <__ssprint_r>
    b084:	2800      	cmp	r0, #0
    b086:	f47f ad04 	bne.w	aa92 <_svfprintf_r+0x8ca>
    b08a:	9a26      	ldr	r2, [sp, #152]	; 0x98
    b08c:	f10d 0a9c 	add.w	sl, sp, #156	; 0x9c
    b090:	e45d      	b.n	a94e <_svfprintf_r+0x786>
    b092:	9b03      	ldr	r3, [sp, #12]
    b094:	9407      	str	r4, [sp, #28]
    b096:	2b06      	cmp	r3, #6
    b098:	4622      	mov	r2, r4
    b09a:	bf28      	it	cs
    b09c:	2306      	movcs	r3, #6
    b09e:	9403      	str	r4, [sp, #12]
    b0a0:	4621      	mov	r1, r4
    b0a2:	e9cd 220c 	strd	r2, r2, [sp, #48]	; 0x30
    b0a6:	4c76      	ldr	r4, [pc, #472]	; (b280 <_svfprintf_r+0x10b8>)
    b0a8:	9302      	str	r3, [sp, #8]
    b0aa:	9305      	str	r3, [sp, #20]
    b0ac:	920f      	str	r2, [sp, #60]	; 0x3c
    b0ae:	f7ff ba6c 	b.w	a58a <_svfprintf_r+0x3c2>
    b0b2:	2140      	movs	r1, #64	; 0x40
    b0b4:	4658      	mov	r0, fp
    b0b6:	f7fd fb23 	bl	8700 <_malloc_r>
    b0ba:	6020      	str	r0, [r4, #0]
    b0bc:	6120      	str	r0, [r4, #16]
    b0be:	2800      	cmp	r0, #0
    b0c0:	f000 860f 	beq.w	bce2 <_svfprintf_r+0x1b1a>
    b0c4:	2340      	movs	r3, #64	; 0x40
    b0c6:	6163      	str	r3, [r4, #20]
    b0c8:	f7ff b89e 	b.w	a208 <_svfprintf_r+0x40>
    b0cc:	2d10      	cmp	r5, #16
    b0ce:	9b25      	ldr	r3, [sp, #148]	; 0x94
    b0d0:	f340 825d 	ble.w	b58e <_svfprintf_r+0x13c6>
    b0d4:	4651      	mov	r1, sl
    b0d6:	2610      	movs	r6, #16
    b0d8:	ee1b aa10 	vmov	sl, s22
    b0dc:	e004      	b.n	b0e8 <_svfprintf_r+0xf20>
    b0de:	3108      	adds	r1, #8
    b0e0:	3d10      	subs	r5, #16
    b0e2:	2d10      	cmp	r5, #16
    b0e4:	f340 8252 	ble.w	b58c <_svfprintf_r+0x13c4>
    b0e8:	3301      	adds	r3, #1
    b0ea:	4866      	ldr	r0, [pc, #408]	; (b284 <_svfprintf_r+0x10bc>)
    b0ec:	3210      	adds	r2, #16
    b0ee:	2b07      	cmp	r3, #7
    b0f0:	e9c1 0600 	strd	r0, r6, [r1]
    b0f4:	e9cd 3225 	strd	r3, r2, [sp, #148]	; 0x94
    b0f8:	ddf1      	ble.n	b0de <_svfprintf_r+0xf16>
    b0fa:	aa24      	add	r2, sp, #144	; 0x90
    b0fc:	4651      	mov	r1, sl
    b0fe:	4658      	mov	r0, fp
    b100:	f001 ff66 	bl	cfd0 <__ssprint_r>
    b104:	2800      	cmp	r0, #0
    b106:	f47f acc4 	bne.w	aa92 <_svfprintf_r+0x8ca>
    b10a:	e9dd 3225 	ldrd	r3, r2, [sp, #148]	; 0x94
    b10e:	a927      	add	r1, sp, #156	; 0x9c
    b110:	e7e6      	b.n	b0e0 <_svfprintf_r+0xf18>
    b112:	9b0e      	ldr	r3, [sp, #56]	; 0x38
    b114:	f8cd 9024 	str.w	r9, [sp, #36]	; 0x24
    b118:	18e3      	adds	r3, r4, r3
    b11a:	9303      	str	r3, [sp, #12]
    b11c:	9b0d      	ldr	r3, [sp, #52]	; 0x34
    b11e:	f8cd 8028 	str.w	r8, [sp, #40]	; 0x28
    b122:	9e13      	ldr	r6, [sp, #76]	; 0x4c
    b124:	9d05      	ldr	r5, [sp, #20]
    b126:	f8dd 9058 	ldr.w	r9, [sp, #88]	; 0x58
    b12a:	f8dd 803c 	ldr.w	r8, [sp, #60]	; 0x3c
    b12e:	940b      	str	r4, [sp, #44]	; 0x2c
    b130:	ee1b 1a10 	vmov	r1, s22
    b134:	4650      	mov	r0, sl
    b136:	2b00      	cmp	r3, #0
    b138:	d034      	beq.n	b1a4 <_svfprintf_r+0xfdc>
    b13a:	f1b8 0f00 	cmp.w	r8, #0
    b13e:	d135      	bne.n	b1ac <_svfprintf_r+0xfe4>
    b140:	9b0d      	ldr	r3, [sp, #52]	; 0x34
    b142:	3b01      	subs	r3, #1
    b144:	3e01      	subs	r6, #1
    b146:	930d      	str	r3, [sp, #52]	; 0x34
    b148:	9b15      	ldr	r3, [sp, #84]	; 0x54
    b14a:	e9c0 3900 	strd	r3, r9, [r0]
    b14e:	9b25      	ldr	r3, [sp, #148]	; 0x94
    b150:	3301      	adds	r3, #1
    b152:	444a      	add	r2, r9
    b154:	2b07      	cmp	r3, #7
    b156:	9226      	str	r2, [sp, #152]	; 0x98
    b158:	9325      	str	r3, [sp, #148]	; 0x94
    b15a:	dc6c      	bgt.n	b236 <_svfprintf_r+0x106e>
    b15c:	3008      	adds	r0, #8
    b15e:	9b03      	ldr	r3, [sp, #12]
    b160:	f896 c000 	ldrb.w	ip, [r6]
    b164:	1b5b      	subs	r3, r3, r5
    b166:	4563      	cmp	r3, ip
    b168:	bfa8      	it	ge
    b16a:	4663      	movge	r3, ip
    b16c:	2b00      	cmp	r3, #0
    b16e:	469a      	mov	sl, r3
    b170:	dd0c      	ble.n	b18c <_svfprintf_r+0xfc4>
    b172:	9c25      	ldr	r4, [sp, #148]	; 0x94
    b174:	3401      	adds	r4, #1
    b176:	441a      	add	r2, r3
    b178:	2c07      	cmp	r4, #7
    b17a:	e9c0 5300 	strd	r5, r3, [r0]
    b17e:	9226      	str	r2, [sp, #152]	; 0x98
    b180:	9425      	str	r4, [sp, #148]	; 0x94
    b182:	f300 8177 	bgt.w	b474 <_svfprintf_r+0x12ac>
    b186:	f896 c000 	ldrb.w	ip, [r6]
    b18a:	3008      	adds	r0, #8
    b18c:	f1ba 0f00 	cmp.w	sl, #0
    b190:	bfac      	ite	ge
    b192:	ebac 040a 	subge.w	r4, ip, sl
    b196:	4664      	movlt	r4, ip
    b198:	2c00      	cmp	r4, #0
    b19a:	dc0a      	bgt.n	b1b2 <_svfprintf_r+0xfea>
    b19c:	4465      	add	r5, ip
    b19e:	9b0d      	ldr	r3, [sp, #52]	; 0x34
    b1a0:	2b00      	cmp	r3, #0
    b1a2:	d1ca      	bne.n	b13a <_svfprintf_r+0xf72>
    b1a4:	f1b8 0f00 	cmp.w	r8, #0
    b1a8:	f000 83ac 	beq.w	b904 <_svfprintf_r+0x173c>
    b1ac:	f108 38ff 	add.w	r8, r8, #4294967295
    b1b0:	e7ca      	b.n	b148 <_svfprintf_r+0xf80>
    b1b2:	2c10      	cmp	r4, #16
    b1b4:	f8dd c094 	ldr.w	ip, [sp, #148]	; 0x94
    b1b8:	dd24      	ble.n	b204 <_svfprintf_r+0x103c>
    b1ba:	9505      	str	r5, [sp, #20]
    b1bc:	f04f 0a10 	mov.w	sl, #16
    b1c0:	4663      	mov	r3, ip
    b1c2:	460d      	mov	r5, r1
    b1c4:	e004      	b.n	b1d0 <_svfprintf_r+0x1008>
    b1c6:	3c10      	subs	r4, #16
    b1c8:	2c10      	cmp	r4, #16
    b1ca:	f100 0008 	add.w	r0, r0, #8
    b1ce:	dd16      	ble.n	b1fe <_svfprintf_r+0x1036>
    b1d0:	3301      	adds	r3, #1
    b1d2:	492c      	ldr	r1, [pc, #176]	; (b284 <_svfprintf_r+0x10bc>)
    b1d4:	3210      	adds	r2, #16
    b1d6:	2b07      	cmp	r3, #7
    b1d8:	e9c0 1a00 	strd	r1, sl, [r0]
    b1dc:	e9cd 3225 	strd	r3, r2, [sp, #148]	; 0x94
    b1e0:	ddf1      	ble.n	b1c6 <_svfprintf_r+0xffe>
    b1e2:	aa24      	add	r2, sp, #144	; 0x90
    b1e4:	4629      	mov	r1, r5
    b1e6:	4658      	mov	r0, fp
    b1e8:	f001 fef2 	bl	cfd0 <__ssprint_r>
    b1ec:	2800      	cmp	r0, #0
    b1ee:	f47f ac50 	bne.w	aa92 <_svfprintf_r+0x8ca>
    b1f2:	3c10      	subs	r4, #16
    b1f4:	2c10      	cmp	r4, #16
    b1f6:	e9dd 3225 	ldrd	r3, r2, [sp, #148]	; 0x94
    b1fa:	a827      	add	r0, sp, #156	; 0x9c
    b1fc:	dce8      	bgt.n	b1d0 <_svfprintf_r+0x1008>
    b1fe:	4629      	mov	r1, r5
    b200:	9d05      	ldr	r5, [sp, #20]
    b202:	469c      	mov	ip, r3
    b204:	f10c 0301 	add.w	r3, ip, #1
    b208:	4422      	add	r2, r4
    b20a:	6044      	str	r4, [r0, #4]
    b20c:	2b07      	cmp	r3, #7
    b20e:	4c1d      	ldr	r4, [pc, #116]	; (b284 <_svfprintf_r+0x10bc>)
    b210:	6004      	str	r4, [r0, #0]
    b212:	e9cd 3225 	strd	r3, r2, [sp, #148]	; 0x94
    b216:	f300 83c6 	bgt.w	b9a6 <_svfprintf_r+0x17de>
    b21a:	f896 c000 	ldrb.w	ip, [r6]
    b21e:	3008      	adds	r0, #8
    b220:	4465      	add	r5, ip
    b222:	e7bc      	b.n	b19e <_svfprintf_r+0xfd6>
    b224:	f018 0310 	ands.w	r3, r8, #16
    b228:	f000 80c2 	beq.w	b3b0 <_svfprintf_r+0x11e8>
    b22c:	9b08      	ldr	r3, [sp, #32]
    b22e:	f853 2b04 	ldr.w	r2, [r3], #4
    b232:	9308      	str	r3, [sp, #32]
    b234:	e6f9      	b.n	b02a <_svfprintf_r+0xe62>
    b236:	aa24      	add	r2, sp, #144	; 0x90
    b238:	4658      	mov	r0, fp
    b23a:	9105      	str	r1, [sp, #20]
    b23c:	f001 fec8 	bl	cfd0 <__ssprint_r>
    b240:	2800      	cmp	r0, #0
    b242:	f47f ac26 	bne.w	aa92 <_svfprintf_r+0x8ca>
    b246:	9a26      	ldr	r2, [sp, #152]	; 0x98
    b248:	9905      	ldr	r1, [sp, #20]
    b24a:	a827      	add	r0, sp, #156	; 0x9c
    b24c:	e787      	b.n	b15e <_svfprintf_r+0xf96>
    b24e:	9802      	ldr	r0, [sp, #8]
    b250:	f8cd a01c 	str.w	sl, [sp, #28]
    b254:	ac50      	add	r4, sp, #320	; 0x140
    b256:	f400 6080 	and.w	r0, r0, #1024	; 0x400
    b25a:	2500      	movs	r5, #0
    b25c:	ee0a ba10 	vmov	s20, fp
    b260:	4b09      	ldr	r3, [pc, #36]	; (b288 <_svfprintf_r+0x10c0>)
    b262:	f8dd a04c 	ldr.w	sl, [sp, #76]	; 0x4c
    b266:	f8cd 9014 	str.w	r9, [sp, #20]
    b26a:	46a3      	mov	fp, r4
    b26c:	f04f 0805 	mov.w	r8, #5
    b270:	46ac      	mov	ip, r5
    b272:	4604      	mov	r4, r0
    b274:	e010      	b.n	b298 <_svfprintf_r+0x10d0>
    b276:	bf00      	nop
    b278:	20000978 	.word	0x20000978
    b27c:	2000098c 	.word	0x2000098c
    b280:	200009a0 	.word	0x200009a0
    b284:	20000b58 	.word	0x20000b58
    b288:	cccccccd 	.word	0xcccccccd
    b28c:	2a0a      	cmp	r2, #10
    b28e:	f171 0100 	sbcs.w	r1, r1, #0
    b292:	d336      	bcc.n	b302 <_svfprintf_r+0x113a>
    b294:	464a      	mov	r2, r9
    b296:	4631      	mov	r1, r6
    b298:	1850      	adds	r0, r2, r1
    b29a:	f140 0000 	adc.w	r0, r0, #0
    b29e:	fba3 5600 	umull	r5, r6, r3, r0
    b2a2:	f026 0503 	bic.w	r5, r6, #3
    b2a6:	eb05 0596 	add.w	r5, r5, r6, lsr #2
    b2aa:	1b40      	subs	r0, r0, r5
    b2ac:	1a15      	subs	r5, r2, r0
    b2ae:	f04f 36cc 	mov.w	r6, #3435973836	; 0xcccccccc
    b2b2:	f161 0e00 	sbc.w	lr, r1, #0
    b2b6:	fb06 f605 	mul.w	r6, r6, r5
    b2ba:	fba5 9503 	umull	r9, r5, r5, r3
    b2be:	fb03 660e 	mla	r6, r3, lr, r6
    b2c2:	f009 0e01 	and.w	lr, r9, #1
    b2c6:	442e      	add	r6, r5
    b2c8:	fbae 5e08 	umull	r5, lr, lr, r8
    b2cc:	182d      	adds	r5, r5, r0
    b2ce:	ea4f 0959 	mov.w	r9, r9, lsr #1
    b2d2:	3530      	adds	r5, #48	; 0x30
    b2d4:	f80b 5c01 	strb.w	r5, [fp, #-1]
    b2d8:	ea49 79c6 	orr.w	r9, r9, r6, lsl #31
    b2dc:	f10c 0c01 	add.w	ip, ip, #1
    b2e0:	f10b 3bff 	add.w	fp, fp, #4294967295
    b2e4:	0876      	lsrs	r6, r6, #1
    b2e6:	2c00      	cmp	r4, #0
    b2e8:	d0d0      	beq.n	b28c <_svfprintf_r+0x10c4>
    b2ea:	f89a 0000 	ldrb.w	r0, [sl]
    b2ee:	4584      	cmp	ip, r0
    b2f0:	d1cc      	bne.n	b28c <_svfprintf_r+0x10c4>
    b2f2:	f1bc 0fff 	cmp.w	ip, #255	; 0xff
    b2f6:	d0c9      	beq.n	b28c <_svfprintf_r+0x10c4>
    b2f8:	2a0a      	cmp	r2, #10
    b2fa:	f171 0100 	sbcs.w	r1, r1, #0
    b2fe:	f080 818f 	bcs.w	b620 <_svfprintf_r+0x1458>
    b302:	465c      	mov	r4, fp
    b304:	ab50      	add	r3, sp, #320	; 0x140
    b306:	1b1b      	subs	r3, r3, r4
    b308:	f8dd 9014 	ldr.w	r9, [sp, #20]
    b30c:	f8cd a04c 	str.w	sl, [sp, #76]	; 0x4c
    b310:	ee1a ba10 	vmov	fp, s20
    b314:	f8dd a01c 	ldr.w	sl, [sp, #28]
    b318:	f8dd 8008 	ldr.w	r8, [sp, #8]
    b31c:	f8cd c038 	str.w	ip, [sp, #56]	; 0x38
    b320:	9305      	str	r3, [sp, #20]
    b322:	f7ff bac2 	b.w	a8aa <_svfprintf_r+0x6e2>
    b326:	ee1b 1a10 	vmov	r1, s22
    b32a:	aa24      	add	r2, sp, #144	; 0x90
    b32c:	4658      	mov	r0, fp
    b32e:	f001 fe4f 	bl	cfd0 <__ssprint_r>
    b332:	2800      	cmp	r0, #0
    b334:	f47f abad 	bne.w	aa92 <_svfprintf_r+0x8ca>
    b338:	f89d 1067 	ldrb.w	r1, [sp, #103]	; 0x67
    b33c:	9a26      	ldr	r2, [sp, #152]	; 0x98
    b33e:	f10d 0a9c 	add.w	sl, sp, #156	; 0x9c
    b342:	f7ff b896 	b.w	a472 <_svfprintf_r+0x2aa>
    b346:	9b25      	ldr	r3, [sp, #148]	; 0x94
    b348:	48be      	ldr	r0, [pc, #760]	; (b644 <_svfprintf_r+0x147c>)
    b34a:	f8ca 0000 	str.w	r0, [sl]
    b34e:	3301      	adds	r3, #1
    b350:	3201      	adds	r2, #1
    b352:	2001      	movs	r0, #1
    b354:	2b07      	cmp	r3, #7
    b356:	9226      	str	r2, [sp, #152]	; 0x98
    b358:	9325      	str	r3, [sp, #148]	; 0x94
    b35a:	f8ca 0004 	str.w	r0, [sl, #4]
    b35e:	f300 8177 	bgt.w	b650 <_svfprintf_r+0x1488>
    b362:	f10a 0a08 	add.w	sl, sl, #8
    b366:	2900      	cmp	r1, #0
    b368:	f040 80af 	bne.w	b4ca <_svfprintf_r+0x1302>
    b36c:	990e      	ldr	r1, [sp, #56]	; 0x38
    b36e:	f008 0301 	and.w	r3, r8, #1
    b372:	430b      	orrs	r3, r1
    b374:	f43f a8c0 	beq.w	a4f8 <_svfprintf_r+0x330>
    b378:	9b10      	ldr	r3, [sp, #64]	; 0x40
    b37a:	9912      	ldr	r1, [sp, #72]	; 0x48
    b37c:	441a      	add	r2, r3
    b37e:	e9ca 1300 	strd	r1, r3, [sl]
    b382:	9b25      	ldr	r3, [sp, #148]	; 0x94
    b384:	9226      	str	r2, [sp, #152]	; 0x98
    b386:	3301      	adds	r3, #1
    b388:	2b07      	cmp	r3, #7
    b38a:	9325      	str	r3, [sp, #148]	; 0x94
    b38c:	f300 8252 	bgt.w	b834 <_svfprintf_r+0x166c>
    b390:	f10a 0a08 	add.w	sl, sl, #8
    b394:	990e      	ldr	r1, [sp, #56]	; 0x38
    b396:	f8ca 4000 	str.w	r4, [sl]
    b39a:	3301      	adds	r3, #1
    b39c:	440a      	add	r2, r1
    b39e:	2b07      	cmp	r3, #7
    b3a0:	e9cd 3225 	strd	r3, r2, [sp, #148]	; 0x94
    b3a4:	f8ca 1004 	str.w	r1, [sl, #4]
    b3a8:	f77f a8a4 	ble.w	a4f4 <_svfprintf_r+0x32c>
    b3ac:	f7ff bbbd 	b.w	ab2a <_svfprintf_r+0x962>
    b3b0:	f018 0240 	ands.w	r2, r8, #64	; 0x40
    b3b4:	f000 80dd 	beq.w	b572 <_svfprintf_r+0x13aa>
    b3b8:	9808      	ldr	r0, [sp, #32]
    b3ba:	f850 2b04 	ldr.w	r2, [r0], #4
    b3be:	9008      	str	r0, [sp, #32]
    b3c0:	4619      	mov	r1, r3
    b3c2:	b292      	uxth	r2, r2
    b3c4:	e631      	b.n	b02a <_svfprintf_r+0xe62>
    b3c6:	ee1b 1a10 	vmov	r1, s22
    b3ca:	aa24      	add	r2, sp, #144	; 0x90
    b3cc:	4658      	mov	r0, fp
    b3ce:	f001 fdff 	bl	cfd0 <__ssprint_r>
    b3d2:	2800      	cmp	r0, #0
    b3d4:	f47f ab5d 	bne.w	aa92 <_svfprintf_r+0x8ca>
    b3d8:	9a26      	ldr	r2, [sp, #152]	; 0x98
    b3da:	f10d 0a9c 	add.w	sl, sp, #156	; 0x9c
    b3de:	f7ff baa3 	b.w	a928 <_svfprintf_r+0x760>
    b3e2:	ae22      	add	r6, sp, #136	; 0x88
    b3e4:	2208      	movs	r2, #8
    b3e6:	2100      	movs	r1, #0
    b3e8:	4630      	mov	r0, r6
    b3ea:	941d      	str	r4, [sp, #116]	; 0x74
    b3ec:	f7fe f81a 	bl	9424 <memset>
    b3f0:	9b03      	ldr	r3, [sp, #12]
    b3f2:	1c5a      	adds	r2, r3, #1
    b3f4:	f000 80db 	beq.w	b5ae <_svfprintf_r+0x13e6>
    b3f8:	2500      	movs	r5, #0
    b3fa:	f8cd 9008 	str.w	r9, [sp, #8]
    b3fe:	f8cd 801c 	str.w	r8, [sp, #28]
    b402:	4699      	mov	r9, r3
    b404:	46a8      	mov	r8, r5
    b406:	e00c      	b.n	b422 <_svfprintf_r+0x125a>
    b408:	a937      	add	r1, sp, #220	; 0xdc
    b40a:	4658      	mov	r0, fp
    b40c:	f001 fd9a 	bl	cf44 <_wcrtomb_r>
    b410:	1c43      	adds	r3, r0, #1
    b412:	4440      	add	r0, r8
    b414:	f000 83c8 	beq.w	bba8 <_svfprintf_r+0x19e0>
    b418:	4548      	cmp	r0, r9
    b41a:	dc08      	bgt.n	b42e <_svfprintf_r+0x1266>
    b41c:	f000 8418 	beq.w	bc50 <_svfprintf_r+0x1a88>
    b420:	4680      	mov	r8, r0
    b422:	9a1d      	ldr	r2, [sp, #116]	; 0x74
    b424:	5952      	ldr	r2, [r2, r5]
    b426:	4633      	mov	r3, r6
    b428:	3504      	adds	r5, #4
    b42a:	2a00      	cmp	r2, #0
    b42c:	d1ec      	bne.n	b408 <_svfprintf_r+0x1240>
    b42e:	f8cd 8014 	str.w	r8, [sp, #20]
    b432:	f8dd 9008 	ldr.w	r9, [sp, #8]
    b436:	f8dd 801c 	ldr.w	r8, [sp, #28]
    b43a:	e0c5      	b.n	b5c8 <_svfprintf_r+0x1400>
    b43c:	3301      	adds	r3, #1
    b43e:	4982      	ldr	r1, [pc, #520]	; (b648 <_svfprintf_r+0x1480>)
    b440:	f8ca 4004 	str.w	r4, [sl, #4]
    b444:	4422      	add	r2, r4
    b446:	2b07      	cmp	r3, #7
    b448:	f8ca 1000 	str.w	r1, [sl]
    b44c:	e9cd 3225 	strd	r3, r2, [sp, #148]	; 0x94
    b450:	f77f a850 	ble.w	a4f4 <_svfprintf_r+0x32c>
    b454:	f7ff bb69 	b.w	ab2a <_svfprintf_r+0x962>
    b458:	ee1b 1a10 	vmov	r1, s22
    b45c:	aa24      	add	r2, sp, #144	; 0x90
    b45e:	4658      	mov	r0, fp
    b460:	f001 fdb6 	bl	cfd0 <__ssprint_r>
    b464:	2800      	cmp	r0, #0
    b466:	f47f ab14 	bne.w	aa92 <_svfprintf_r+0x8ca>
    b46a:	9a26      	ldr	r2, [sp, #152]	; 0x98
    b46c:	f10d 0a9c 	add.w	sl, sp, #156	; 0x9c
    b470:	f7ff b829 	b.w	a4c6 <_svfprintf_r+0x2fe>
    b474:	aa24      	add	r2, sp, #144	; 0x90
    b476:	4658      	mov	r0, fp
    b478:	9105      	str	r1, [sp, #20]
    b47a:	f001 fda9 	bl	cfd0 <__ssprint_r>
    b47e:	2800      	cmp	r0, #0
    b480:	f47f ab07 	bne.w	aa92 <_svfprintf_r+0x8ca>
    b484:	f896 c000 	ldrb.w	ip, [r6]
    b488:	9a26      	ldr	r2, [sp, #152]	; 0x98
    b48a:	9905      	ldr	r1, [sp, #20]
    b48c:	a827      	add	r0, sp, #156	; 0x9c
    b48e:	e67d      	b.n	b18c <_svfprintf_r+0xfc4>
    b490:	2b01      	cmp	r3, #1
    b492:	f8cd 8008 	str.w	r8, [sp, #8]
    b496:	f47f a9f3 	bne.w	a880 <_svfprintf_r+0x6b8>
    b49a:	f7ff bb93 	b.w	abc4 <_svfprintf_r+0x9fc>
    b49e:	9b08      	ldr	r3, [sp, #32]
    b4a0:	9904      	ldr	r1, [sp, #16]
    b4a2:	f853 2b04 	ldr.w	r2, [r3], #4
    b4a6:	464c      	mov	r4, r9
    b4a8:	6011      	str	r1, [r2, #0]
    b4aa:	9308      	str	r3, [sp, #32]
    b4ac:	f7fe bebe 	b.w	a22c <_svfprintf_r+0x64>
    b4b0:	3301      	adds	r3, #1
    b4b2:	4965      	ldr	r1, [pc, #404]	; (b648 <_svfprintf_r+0x1480>)
    b4b4:	f8ca 4004 	str.w	r4, [sl, #4]
    b4b8:	4422      	add	r2, r4
    b4ba:	2b07      	cmp	r3, #7
    b4bc:	e9cd 3225 	strd	r3, r2, [sp, #148]	; 0x94
    b4c0:	f8ca 1000 	str.w	r1, [sl]
    b4c4:	f77f ab22 	ble.w	ab0c <_svfprintf_r+0x944>
    b4c8:	e47b      	b.n	adc2 <_svfprintf_r+0xbfa>
    b4ca:	9b10      	ldr	r3, [sp, #64]	; 0x40
    b4cc:	9812      	ldr	r0, [sp, #72]	; 0x48
    b4ce:	441a      	add	r2, r3
    b4d0:	e9ca 0300 	strd	r0, r3, [sl]
    b4d4:	9b25      	ldr	r3, [sp, #148]	; 0x94
    b4d6:	9226      	str	r2, [sp, #152]	; 0x98
    b4d8:	3301      	adds	r3, #1
    b4da:	2b07      	cmp	r3, #7
    b4dc:	9325      	str	r3, [sp, #148]	; 0x94
    b4de:	f300 81a9 	bgt.w	b834 <_svfprintf_r+0x166c>
    b4e2:	f10a 0a08 	add.w	sl, sl, #8
    b4e6:	2900      	cmp	r1, #0
    b4e8:	f6bf af54 	bge.w	b394 <_svfprintf_r+0x11cc>
    b4ec:	424d      	negs	r5, r1
    b4ee:	3110      	adds	r1, #16
    b4f0:	f280 830f 	bge.w	bb12 <_svfprintf_r+0x194a>
    b4f4:	ee1b 1a10 	vmov	r1, s22
    b4f8:	2610      	movs	r6, #16
    b4fa:	e005      	b.n	b508 <_svfprintf_r+0x1340>
    b4fc:	f10a 0a08 	add.w	sl, sl, #8
    b500:	3d10      	subs	r5, #16
    b502:	2d10      	cmp	r5, #16
    b504:	f340 8305 	ble.w	bb12 <_svfprintf_r+0x194a>
    b508:	3301      	adds	r3, #1
    b50a:	484f      	ldr	r0, [pc, #316]	; (b648 <_svfprintf_r+0x1480>)
    b50c:	3210      	adds	r2, #16
    b50e:	2b07      	cmp	r3, #7
    b510:	e9ca 0600 	strd	r0, r6, [sl]
    b514:	e9cd 3225 	strd	r3, r2, [sp, #148]	; 0x94
    b518:	ddf0      	ble.n	b4fc <_svfprintf_r+0x1334>
    b51a:	aa24      	add	r2, sp, #144	; 0x90
    b51c:	4658      	mov	r0, fp
    b51e:	9103      	str	r1, [sp, #12]
    b520:	f001 fd56 	bl	cfd0 <__ssprint_r>
    b524:	2800      	cmp	r0, #0
    b526:	f47f aab4 	bne.w	aa92 <_svfprintf_r+0x8ca>
    b52a:	e9dd 3225 	ldrd	r3, r2, [sp, #148]	; 0x94
    b52e:	9903      	ldr	r1, [sp, #12]
    b530:	f10d 0a9c 	add.w	sl, sp, #156	; 0x9c
    b534:	e7e4      	b.n	b500 <_svfprintf_r+0x1338>
    b536:	9b08      	ldr	r3, [sp, #32]
    b538:	f418 7100 	ands.w	r1, r8, #512	; 0x200
    b53c:	bf1a      	itte	ne
    b53e:	4611      	movne	r1, r2
    b540:	f853 2b04 	ldrne.w	r2, [r3], #4
    b544:	f853 2b04 	ldreq.w	r2, [r3], #4
    b548:	9308      	str	r3, [sp, #32]
    b54a:	bf18      	it	ne
    b54c:	b2d2      	uxtbne	r2, r2
    b54e:	f7ff b945 	b.w	a7dc <_svfprintf_r+0x614>
    b552:	9b02      	ldr	r3, [sp, #8]
    b554:	f413 7100 	ands.w	r1, r3, #512	; 0x200
    b558:	9b08      	ldr	r3, [sp, #32]
    b55a:	bf1a      	itte	ne
    b55c:	4611      	movne	r1, r2
    b55e:	f853 2b04 	ldrne.w	r2, [r3], #4
    b562:	f853 2b04 	ldreq.w	r2, [r3], #4
    b566:	9308      	str	r3, [sp, #32]
    b568:	bf18      	it	ne
    b56a:	b2d2      	uxtbne	r2, r2
    b56c:	2301      	movs	r3, #1
    b56e:	f7ff b8d0 	b.w	a712 <_svfprintf_r+0x54a>
    b572:	9b08      	ldr	r3, [sp, #32]
    b574:	f418 7100 	ands.w	r1, r8, #512	; 0x200
    b578:	bf1a      	itte	ne
    b57a:	4611      	movne	r1, r2
    b57c:	f853 2b04 	ldrne.w	r2, [r3], #4
    b580:	f853 2b04 	ldreq.w	r2, [r3], #4
    b584:	9308      	str	r3, [sp, #32]
    b586:	bf18      	it	ne
    b588:	b2d2      	uxtbne	r2, r2
    b58a:	e54e      	b.n	b02a <_svfprintf_r+0xe62>
    b58c:	468a      	mov	sl, r1
    b58e:	3301      	adds	r3, #1
    b590:	492d      	ldr	r1, [pc, #180]	; (b648 <_svfprintf_r+0x1480>)
    b592:	f8ca 5004 	str.w	r5, [sl, #4]
    b596:	442a      	add	r2, r5
    b598:	2b07      	cmp	r3, #7
    b59a:	e9cd 3225 	strd	r3, r2, [sp, #148]	; 0x94
    b59e:	f8ca 1000 	str.w	r1, [sl]
    b5a2:	f300 8139 	bgt.w	b818 <_svfprintf_r+0x1650>
    b5a6:	f10a 0a08 	add.w	sl, sl, #8
    b5aa:	f7ff bb8c 	b.w	acc6 <_svfprintf_r+0xafe>
    b5ae:	2300      	movs	r3, #0
    b5b0:	4619      	mov	r1, r3
    b5b2:	9600      	str	r6, [sp, #0]
    b5b4:	aa1d      	add	r2, sp, #116	; 0x74
    b5b6:	4658      	mov	r0, fp
    b5b8:	f001 fcea 	bl	cf90 <_wcsrtombs_r>
    b5bc:	4603      	mov	r3, r0
    b5be:	3301      	adds	r3, #1
    b5c0:	9005      	str	r0, [sp, #20]
    b5c2:	f000 82f1 	beq.w	bba8 <_svfprintf_r+0x19e0>
    b5c6:	941d      	str	r4, [sp, #116]	; 0x74
    b5c8:	9b05      	ldr	r3, [sp, #20]
    b5ca:	2b00      	cmp	r3, #0
    b5cc:	d04e      	beq.n	b66c <_svfprintf_r+0x14a4>
    b5ce:	2b63      	cmp	r3, #99	; 0x63
    b5d0:	f300 8118 	bgt.w	b804 <_svfprintf_r+0x163c>
    b5d4:	2300      	movs	r3, #0
    b5d6:	9307      	str	r3, [sp, #28]
    b5d8:	ac37      	add	r4, sp, #220	; 0xdc
    b5da:	2208      	movs	r2, #8
    b5dc:	2100      	movs	r1, #0
    b5de:	4630      	mov	r0, r6
    b5e0:	f7fd ff20 	bl	9424 <memset>
    b5e4:	9d05      	ldr	r5, [sp, #20]
    b5e6:	9600      	str	r6, [sp, #0]
    b5e8:	462b      	mov	r3, r5
    b5ea:	aa1d      	add	r2, sp, #116	; 0x74
    b5ec:	4621      	mov	r1, r4
    b5ee:	4658      	mov	r0, fp
    b5f0:	f001 fcce 	bl	cf90 <_wcsrtombs_r>
    b5f4:	4285      	cmp	r5, r0
    b5f6:	f040 837c 	bne.w	bcf2 <_svfprintf_r+0x1b2a>
    b5fa:	9a05      	ldr	r2, [sp, #20]
    b5fc:	2300      	movs	r3, #0
    b5fe:	54a3      	strb	r3, [r4, r2]
    b600:	ea22 72e2 	bic.w	r2, r2, r2, asr #31
    b604:	e9cd 330c 	strd	r3, r3, [sp, #48]	; 0x30
    b608:	f89d 1067 	ldrb.w	r1, [sp, #103]	; 0x67
    b60c:	9303      	str	r3, [sp, #12]
    b60e:	9202      	str	r2, [sp, #8]
    b610:	930f      	str	r3, [sp, #60]	; 0x3c
    b612:	f7fe bfba 	b.w	a58a <_svfprintf_r+0x3c2>
    b616:	212d      	movs	r1, #45	; 0x2d
    b618:	f88d 1067 	strb.w	r1, [sp, #103]	; 0x67
    b61c:	f7fe bfa4 	b.w	a568 <_svfprintf_r+0x3a0>
    b620:	9b16      	ldr	r3, [sp, #88]	; 0x58
    b622:	9915      	ldr	r1, [sp, #84]	; 0x54
    b624:	ebab 0b03 	sub.w	fp, fp, r3
    b628:	461a      	mov	r2, r3
    b62a:	4658      	mov	r0, fp
    b62c:	f7fd ff4c 	bl	94c8 <strncpy>
    b630:	f89a 2001 	ldrb.w	r2, [sl, #1]
    b634:	4b05      	ldr	r3, [pc, #20]	; (b64c <_svfprintf_r+0x1484>)
    b636:	b10a      	cbz	r2, b63c <_svfprintf_r+0x1474>
    b638:	f10a 0a01 	add.w	sl, sl, #1
    b63c:	f04f 0c00 	mov.w	ip, #0
    b640:	e628      	b.n	b294 <_svfprintf_r+0x10cc>
    b642:	bf00      	nop
    b644:	200009a8 	.word	0x200009a8
    b648:	20000b58 	.word	0x20000b58
    b64c:	cccccccd 	.word	0xcccccccd
    b650:	ee1b 1a10 	vmov	r1, s22
    b654:	aa24      	add	r2, sp, #144	; 0x90
    b656:	4658      	mov	r0, fp
    b658:	f001 fcba 	bl	cfd0 <__ssprint_r>
    b65c:	2800      	cmp	r0, #0
    b65e:	f47f aa18 	bne.w	aa92 <_svfprintf_r+0x8ca>
    b662:	991b      	ldr	r1, [sp, #108]	; 0x6c
    b664:	9a26      	ldr	r2, [sp, #152]	; 0x98
    b666:	f10d 0a9c 	add.w	sl, sp, #156	; 0x9c
    b66a:	e67c      	b.n	b366 <_svfprintf_r+0x119e>
    b66c:	9b05      	ldr	r3, [sp, #20]
    b66e:	f89d 1067 	ldrb.w	r1, [sp, #103]	; 0x67
    b672:	930f      	str	r3, [sp, #60]	; 0x3c
    b674:	e9cd 3302 	strd	r3, r3, [sp, #8]
    b678:	e9cd 330c 	strd	r3, r3, [sp, #48]	; 0x30
    b67c:	9307      	str	r3, [sp, #28]
    b67e:	f7fe bf84 	b.w	a58a <_svfprintf_r+0x3c2>
    b682:	990e      	ldr	r1, [sp, #56]	; 0x38
    b684:	9805      	ldr	r0, [sp, #20]
    b686:	1865      	adds	r5, r4, r1
    b688:	1a2d      	subs	r5, r5, r0
    b68a:	1acc      	subs	r4, r1, r3
    b68c:	42a5      	cmp	r5, r4
    b68e:	bfa8      	it	ge
    b690:	4625      	movge	r5, r4
    b692:	f7ff bb4d 	b.w	ad30 <_svfprintf_r+0xb68>
    b696:	9b08      	ldr	r3, [sp, #32]
    b698:	9904      	ldr	r1, [sp, #16]
    b69a:	f853 2b04 	ldr.w	r2, [r3], #4
    b69e:	9308      	str	r3, [sp, #32]
    b6a0:	8011      	strh	r1, [r2, #0]
    b6a2:	464c      	mov	r4, r9
    b6a4:	f7fe bdc2 	b.w	a22c <_svfprintf_r+0x64>
    b6a8:	f913 2b04 	ldrsb.w	r2, [r3], #4
    b6ac:	9308      	str	r3, [sp, #32]
    b6ae:	17d1      	asrs	r1, r2, #31
    b6b0:	460b      	mov	r3, r1
    b6b2:	f7fe bfdb 	b.w	a66c <_svfprintf_r+0x4a4>
    b6b6:	9a03      	ldr	r2, [sp, #12]
    b6b8:	2102      	movs	r1, #2
    b6ba:	ab22      	add	r3, sp, #136	; 0x88
    b6bc:	9301      	str	r3, [sp, #4]
    b6be:	ab1d      	add	r3, sp, #116	; 0x74
    b6c0:	9300      	str	r3, [sp, #0]
    b6c2:	4658      	mov	r0, fp
    b6c4:	ab1b      	add	r3, sp, #108	; 0x6c
    b6c6:	eeb0 0b4a 	vmov.f64	d0, d10
    b6ca:	9202      	str	r2, [sp, #8]
    b6cc:	f000 fdc4 	bl	c258 <_dtoa_r>
    b6d0:	2d47      	cmp	r5, #71	; 0x47
    b6d2:	9a02      	ldr	r2, [sp, #8]
    b6d4:	4604      	mov	r4, r0
    b6d6:	f000 8161 	beq.w	b99c <_svfprintf_r+0x17d4>
    b6da:	2d46      	cmp	r5, #70	; 0x46
    b6dc:	4410      	add	r0, r2
    b6de:	d105      	bne.n	b6ec <_svfprintf_r+0x1524>
    b6e0:	7823      	ldrb	r3, [r4, #0]
    b6e2:	2b30      	cmp	r3, #48	; 0x30
    b6e4:	f000 826f 	beq.w	bbc6 <_svfprintf_r+0x19fe>
    b6e8:	9a1b      	ldr	r2, [sp, #108]	; 0x6c
    b6ea:	4410      	add	r0, r2
    b6ec:	eeb5 ab40 	vcmp.f64	d10, #0.0
    b6f0:	eef1 fa10 	vmrs	APSR_nzcv, fpscr
    b6f4:	f040 8146 	bne.w	b984 <_svfprintf_r+0x17bc>
    b6f8:	4603      	mov	r3, r0
    b6fa:	1b1b      	subs	r3, r3, r4
    b6fc:	930e      	str	r3, [sp, #56]	; 0x38
    b6fe:	2d47      	cmp	r5, #71	; 0x47
    b700:	f000 8110 	beq.w	b924 <_svfprintf_r+0x175c>
    b704:	2d46      	cmp	r5, #70	; 0x46
    b706:	f000 81b5 	beq.w	ba74 <_svfprintf_r+0x18ac>
    b70a:	9b1b      	ldr	r3, [sp, #108]	; 0x6c
    b70c:	930c      	str	r3, [sp, #48]	; 0x30
    b70e:	9b0c      	ldr	r3, [sp, #48]	; 0x30
    b710:	2d41      	cmp	r5, #65	; 0x41
    b712:	f103 33ff 	add.w	r3, r3, #4294967295
    b716:	931b      	str	r3, [sp, #108]	; 0x6c
    b718:	f000 81e5 	beq.w	bae6 <_svfprintf_r+0x191e>
    b71c:	f89d 202c 	ldrb.w	r2, [sp, #44]	; 0x2c
    b720:	2100      	movs	r1, #0
    b722:	2b00      	cmp	r3, #0
    b724:	bfb8      	it	lt
    b726:	9b0c      	ldrlt	r3, [sp, #48]	; 0x30
    b728:	f88d 2078 	strb.w	r2, [sp, #120]	; 0x78
    b72c:	bfba      	itte	lt
    b72e:	f1c3 0301 	rsblt	r3, r3, #1
    b732:	222d      	movlt	r2, #45	; 0x2d
    b734:	222b      	movge	r2, #43	; 0x2b
    b736:	2b09      	cmp	r3, #9
    b738:	f88d 2079 	strb.w	r2, [sp, #121]	; 0x79
    b73c:	f340 81da 	ble.w	baf4 <_svfprintf_r+0x192c>
    b740:	f10d 058f 	add.w	r5, sp, #143	; 0x8f
    b744:	f8df c41c 	ldr.w	ip, [pc, #1052]	; bb64 <_svfprintf_r+0x199c>
    b748:	462a      	mov	r2, r5
    b74a:	4610      	mov	r0, r2
    b74c:	fb8c 2103 	smull	r2, r1, ip, r3
    b750:	17da      	asrs	r2, r3, #31
    b752:	ebc2 02a1 	rsb	r2, r2, r1, asr #2
    b756:	eb02 0182 	add.w	r1, r2, r2, lsl #2
    b75a:	eba3 0141 	sub.w	r1, r3, r1, lsl #1
    b75e:	3130      	adds	r1, #48	; 0x30
    b760:	f800 1c01 	strb.w	r1, [r0, #-1]
    b764:	4619      	mov	r1, r3
    b766:	2963      	cmp	r1, #99	; 0x63
    b768:	4613      	mov	r3, r2
    b76a:	f100 32ff 	add.w	r2, r0, #4294967295
    b76e:	dcec      	bgt.n	b74a <_svfprintf_r+0x1582>
    b770:	3330      	adds	r3, #48	; 0x30
    b772:	b2d9      	uxtb	r1, r3
    b774:	1e83      	subs	r3, r0, #2
    b776:	429d      	cmp	r5, r3
    b778:	f802 1c01 	strb.w	r1, [r2, #-1]
    b77c:	f240 828b 	bls.w	bc96 <_svfprintf_r+0x1ace>
    b780:	4613      	mov	r3, r2
    b782:	f10d 027a 	add.w	r2, sp, #122	; 0x7a
    b786:	e001      	b.n	b78c <_svfprintf_r+0x15c4>
    b788:	f813 1b01 	ldrb.w	r1, [r3], #1
    b78c:	f802 1b01 	strb.w	r1, [r2], #1
    b790:	429d      	cmp	r5, r3
    b792:	d1f9      	bne.n	b788 <_svfprintf_r+0x15c0>
    b794:	f10d 0391 	add.w	r3, sp, #145	; 0x91
    b798:	f10d 027a 	add.w	r2, sp, #122	; 0x7a
    b79c:	1a1b      	subs	r3, r3, r0
    b79e:	4413      	add	r3, r2
    b7a0:	aa1e      	add	r2, sp, #120	; 0x78
    b7a2:	1a9b      	subs	r3, r3, r2
    b7a4:	9314      	str	r3, [sp, #80]	; 0x50
    b7a6:	9b0e      	ldr	r3, [sp, #56]	; 0x38
    b7a8:	9a14      	ldr	r2, [sp, #80]	; 0x50
    b7aa:	2b01      	cmp	r3, #1
    b7ac:	441a      	add	r2, r3
    b7ae:	9205      	str	r2, [sp, #20]
    b7b0:	f340 8203 	ble.w	bbba <_svfprintf_r+0x19f2>
    b7b4:	9b05      	ldr	r3, [sp, #20]
    b7b6:	9a10      	ldr	r2, [sp, #64]	; 0x40
    b7b8:	4413      	add	r3, r2
    b7ba:	9305      	str	r3, [sp, #20]
    b7bc:	f426 6380 	bic.w	r3, r6, #1024	; 0x400
    b7c0:	9a05      	ldr	r2, [sp, #20]
    b7c2:	f443 7880 	orr.w	r8, r3, #256	; 0x100
    b7c6:	2300      	movs	r3, #0
    b7c8:	e9cd 330c 	strd	r3, r3, [sp, #48]	; 0x30
    b7cc:	ea22 72e2 	bic.w	r2, r2, r2, asr #31
    b7d0:	930f      	str	r3, [sp, #60]	; 0x3c
    b7d2:	9202      	str	r2, [sp, #8]
    b7d4:	9b09      	ldr	r3, [sp, #36]	; 0x24
    b7d6:	2b00      	cmp	r3, #0
    b7d8:	f040 80b1 	bne.w	b93e <_svfprintf_r+0x1776>
    b7dc:	f89d 1067 	ldrb.w	r1, [sp, #103]	; 0x67
    b7e0:	9303      	str	r3, [sp, #12]
    b7e2:	f7fe bed2 	b.w	a58a <_svfprintf_r+0x3c2>
    b7e6:	4620      	mov	r0, r4
    b7e8:	f7fd ff4a 	bl	9680 <strlen>
    b7ec:	4602      	mov	r2, r0
    b7ee:	9005      	str	r0, [sp, #20]
    b7f0:	f7fe bf20 	b.w	a634 <_svfprintf_r+0x46c>
    b7f4:	ee1b 1a10 	vmov	r1, s22
    b7f8:	aa24      	add	r2, sp, #144	; 0x90
    b7fa:	4658      	mov	r0, fp
    b7fc:	f001 fbe8 	bl	cfd0 <__ssprint_r>
    b800:	f7fe bded 	b.w	a3de <_svfprintf_r+0x216>
    b804:	1c59      	adds	r1, r3, #1
    b806:	4658      	mov	r0, fp
    b808:	f7fc ff7a 	bl	8700 <_malloc_r>
    b80c:	4604      	mov	r4, r0
    b80e:	2800      	cmp	r0, #0
    b810:	f000 81ca 	beq.w	bba8 <_svfprintf_r+0x19e0>
    b814:	9007      	str	r0, [sp, #28]
    b816:	e6e0      	b.n	b5da <_svfprintf_r+0x1412>
    b818:	ee1b 1a10 	vmov	r1, s22
    b81c:	aa24      	add	r2, sp, #144	; 0x90
    b81e:	4658      	mov	r0, fp
    b820:	f001 fbd6 	bl	cfd0 <__ssprint_r>
    b824:	2800      	cmp	r0, #0
    b826:	f47f a934 	bne.w	aa92 <_svfprintf_r+0x8ca>
    b82a:	9a26      	ldr	r2, [sp, #152]	; 0x98
    b82c:	f10d 0a9c 	add.w	sl, sp, #156	; 0x9c
    b830:	f7ff ba49 	b.w	acc6 <_svfprintf_r+0xafe>
    b834:	ee1b 1a10 	vmov	r1, s22
    b838:	aa24      	add	r2, sp, #144	; 0x90
    b83a:	4658      	mov	r0, fp
    b83c:	f001 fbc8 	bl	cfd0 <__ssprint_r>
    b840:	2800      	cmp	r0, #0
    b842:	f47f a926 	bne.w	aa92 <_svfprintf_r+0x8ca>
    b846:	e9dd 3225 	ldrd	r3, r2, [sp, #148]	; 0x94
    b84a:	991b      	ldr	r1, [sp, #108]	; 0x6c
    b84c:	f10d 0a9c 	add.w	sl, sp, #156	; 0x9c
    b850:	e649      	b.n	b4e6 <_svfprintf_r+0x131e>
    b852:	2306      	movs	r3, #6
    b854:	9303      	str	r3, [sp, #12]
    b856:	f7ff bb83 	b.w	af60 <_svfprintf_r+0xd98>
    b85a:	9b03      	ldr	r3, [sp, #12]
    b85c:	2102      	movs	r1, #2
    b85e:	1c5a      	adds	r2, r3, #1
    b860:	e72b      	b.n	b6ba <_svfprintf_r+0x14f2>
    b862:	9a03      	ldr	r2, [sp, #12]
    b864:	2103      	movs	r1, #3
    b866:	e728      	b.n	b6ba <_svfprintf_r+0x14f2>
    b868:	a81b      	add	r0, sp, #108	; 0x6c
    b86a:	eeb0 0b4a 	vmov.f64	d0, d10
    b86e:	f000 fbc7 	bl	c000 <frexp>
    b872:	eeb4 7b00 	vmov.f64	d7, #64	; 0x3e000000  0.125
    b876:	ee20 0b07 	vmul.f64	d0, d0, d7
    b87a:	eeb5 0b40 	vcmp.f64	d0, #0.0
    b87e:	eef1 fa10 	vmrs	APSR_nzcv, fpscr
    b882:	d101      	bne.n	b888 <_svfprintf_r+0x16c0>
    b884:	2301      	movs	r3, #1
    b886:	931b      	str	r3, [sp, #108]	; 0x6c
    b888:	48b3      	ldr	r0, [pc, #716]	; (bb58 <_svfprintf_r+0x1990>)
    b88a:	9b03      	ldr	r3, [sp, #12]
    b88c:	eeb3 5b00 	vmov.f64	d5, #48	; 0x41800000  16.0
    b890:	3b01      	subs	r3, #1
    b892:	4622      	mov	r2, r4
    b894:	e004      	b.n	b8a0 <_svfprintf_r+0x16d8>
    b896:	eeb5 0b40 	vcmp.f64	d0, #0.0
    b89a:	eef1 fa10 	vmrs	APSR_nzcv, fpscr
    b89e:	d013      	beq.n	b8c8 <_svfprintf_r+0x1700>
    b8a0:	ee20 0b05 	vmul.f64	d0, d0, d5
    b8a4:	eefd 7bc0 	vcvt.s32.f64	s15, d0
    b8a8:	f1b3 3fff 	cmp.w	r3, #4294967295
    b8ac:	ee17 1a90 	vmov	r1, s15
    b8b0:	5c41      	ldrb	r1, [r0, r1]
    b8b2:	eeb8 6be7 	vcvt.f64.s32	d6, s15
    b8b6:	4694      	mov	ip, r2
    b8b8:	ee30 0b46 	vsub.f64	d0, d0, d6
    b8bc:	f802 1b01 	strb.w	r1, [r2], #1
    b8c0:	4619      	mov	r1, r3
    b8c2:	f103 33ff 	add.w	r3, r3, #4294967295
    b8c6:	d1e6      	bne.n	b896 <_svfprintf_r+0x16ce>
    b8c8:	eeb6 6b00 	vmov.f64	d6, #96	; 0x3f000000  0.5
    b8cc:	eeb4 0bc6 	vcmpe.f64	d0, d6
    b8d0:	eef1 fa10 	vmrs	APSR_nzcv, fpscr
    b8d4:	f300 8148 	bgt.w	bb68 <_svfprintf_r+0x19a0>
    b8d8:	eeb4 0b46 	vcmp.f64	d0, d6
    b8dc:	eef1 fa10 	vmrs	APSR_nzcv, fpscr
    b8e0:	d104      	bne.n	b8ec <_svfprintf_r+0x1724>
    b8e2:	ee17 3a90 	vmov	r3, s15
    b8e6:	07db      	lsls	r3, r3, #31
    b8e8:	f100 813e 	bmi.w	bb68 <_svfprintf_r+0x19a0>
    b8ec:	2900      	cmp	r1, #0
    b8ee:	db06      	blt.n	b8fe <_svfprintf_r+0x1736>
    b8f0:	1c4b      	adds	r3, r1, #1
    b8f2:	4413      	add	r3, r2
    b8f4:	2130      	movs	r1, #48	; 0x30
    b8f6:	f802 1b01 	strb.w	r1, [r2], #1
    b8fa:	4293      	cmp	r3, r2
    b8fc:	d1fb      	bne.n	b8f6 <_svfprintf_r+0x172e>
    b8fe:	1b13      	subs	r3, r2, r4
    b900:	930e      	str	r3, [sp, #56]	; 0x38
    b902:	e6fc      	b.n	b6fe <_svfprintf_r+0x1536>
    b904:	9c0b      	ldr	r4, [sp, #44]	; 0x2c
    b906:	9b0e      	ldr	r3, [sp, #56]	; 0x38
    b908:	f8dd 9024 	ldr.w	r9, [sp, #36]	; 0x24
    b90c:	f8dd 8028 	ldr.w	r8, [sp, #40]	; 0x28
    b910:	9613      	str	r6, [sp, #76]	; 0x4c
    b912:	18e3      	adds	r3, r4, r3
    b914:	429d      	cmp	r5, r3
    b916:	4629      	mov	r1, r5
    b918:	bf28      	it	cs
    b91a:	4619      	movcs	r1, r3
    b91c:	4682      	mov	sl, r0
    b91e:	9105      	str	r1, [sp, #20]
    b920:	f7ff b9d8 	b.w	acd4 <_svfprintf_r+0xb0c>
    b924:	9b1b      	ldr	r3, [sp, #108]	; 0x6c
    b926:	930c      	str	r3, [sp, #48]	; 0x30
    b928:	1cda      	adds	r2, r3, #3
    b92a:	db02      	blt.n	b932 <_svfprintf_r+0x176a>
    b92c:	9a03      	ldr	r2, [sp, #12]
    b92e:	4293      	cmp	r3, r2
    b930:	dd0c      	ble.n	b94c <_svfprintf_r+0x1784>
    b932:	9b0b      	ldr	r3, [sp, #44]	; 0x2c
    b934:	3b02      	subs	r3, #2
    b936:	930b      	str	r3, [sp, #44]	; 0x2c
    b938:	f023 0520 	bic.w	r5, r3, #32
    b93c:	e6e7      	b.n	b70e <_svfprintf_r+0x1546>
    b93e:	212d      	movs	r1, #45	; 0x2d
    b940:	2300      	movs	r3, #0
    b942:	f88d 1067 	strb.w	r1, [sp, #103]	; 0x67
    b946:	9303      	str	r3, [sp, #12]
    b948:	f7fe be22 	b.w	a590 <_svfprintf_r+0x3c8>
    b94c:	9b0c      	ldr	r3, [sp, #48]	; 0x30
    b94e:	9a0e      	ldr	r2, [sp, #56]	; 0x38
    b950:	4293      	cmp	r3, r2
    b952:	f2c0 80bd 	blt.w	bad0 <_svfprintf_r+0x1908>
    b956:	07f0      	lsls	r0, r6, #31
    b958:	9b0c      	ldr	r3, [sp, #48]	; 0x30
    b95a:	f140 8132 	bpl.w	bbc2 <_svfprintf_r+0x19fa>
    b95e:	9a10      	ldr	r2, [sp, #64]	; 0x40
    b960:	4413      	add	r3, r2
    b962:	9305      	str	r3, [sp, #20]
    b964:	0571      	lsls	r1, r6, #21
    b966:	d503      	bpl.n	b970 <_svfprintf_r+0x17a8>
    b968:	9b0c      	ldr	r3, [sp, #48]	; 0x30
    b96a:	2b00      	cmp	r3, #0
    b96c:	f300 8135 	bgt.w	bbda <_svfprintf_r+0x1a12>
    b970:	9b05      	ldr	r3, [sp, #20]
    b972:	ea23 73e3 	bic.w	r3, r3, r3, asr #31
    b976:	9302      	str	r3, [sp, #8]
    b978:	2367      	movs	r3, #103	; 0x67
    b97a:	930b      	str	r3, [sp, #44]	; 0x2c
    b97c:	2300      	movs	r3, #0
    b97e:	930f      	str	r3, [sp, #60]	; 0x3c
    b980:	930d      	str	r3, [sp, #52]	; 0x34
    b982:	e727      	b.n	b7d4 <_svfprintf_r+0x160c>
    b984:	9b22      	ldr	r3, [sp, #136]	; 0x88
    b986:	4283      	cmp	r3, r0
    b988:	f4bf aeb7 	bcs.w	b6fa <_svfprintf_r+0x1532>
    b98c:	2130      	movs	r1, #48	; 0x30
    b98e:	1c5a      	adds	r2, r3, #1
    b990:	9222      	str	r2, [sp, #136]	; 0x88
    b992:	7019      	strb	r1, [r3, #0]
    b994:	9b22      	ldr	r3, [sp, #136]	; 0x88
    b996:	4298      	cmp	r0, r3
    b998:	d8f9      	bhi.n	b98e <_svfprintf_r+0x17c6>
    b99a:	e6ae      	b.n	b6fa <_svfprintf_r+0x1532>
    b99c:	07f3      	lsls	r3, r6, #31
    b99e:	f100 80a7 	bmi.w	baf0 <_svfprintf_r+0x1928>
    b9a2:	9b22      	ldr	r3, [sp, #136]	; 0x88
    b9a4:	e6a9      	b.n	b6fa <_svfprintf_r+0x1532>
    b9a6:	aa24      	add	r2, sp, #144	; 0x90
    b9a8:	4658      	mov	r0, fp
    b9aa:	9105      	str	r1, [sp, #20]
    b9ac:	f001 fb10 	bl	cfd0 <__ssprint_r>
    b9b0:	2800      	cmp	r0, #0
    b9b2:	f47f a86e 	bne.w	aa92 <_svfprintf_r+0x8ca>
    b9b6:	f896 c000 	ldrb.w	ip, [r6]
    b9ba:	9a26      	ldr	r2, [sp, #152]	; 0x98
    b9bc:	9905      	ldr	r1, [sp, #20]
    b9be:	a827      	add	r0, sp, #156	; 0x9c
    b9c0:	4465      	add	r5, ip
    b9c2:	f7ff bbec 	b.w	b19e <_svfprintf_r+0xfd6>
    b9c6:	ee1b 1a10 	vmov	r1, s22
    b9ca:	aa24      	add	r2, sp, #144	; 0x90
    b9cc:	4658      	mov	r0, fp
    b9ce:	f001 faff 	bl	cfd0 <__ssprint_r>
    b9d2:	2800      	cmp	r0, #0
    b9d4:	f47f a85d 	bne.w	aa92 <_svfprintf_r+0x8ca>
    b9d8:	9a26      	ldr	r2, [sp, #152]	; 0x98
    b9da:	f10d 0a9c 	add.w	sl, sp, #156	; 0x9c
    b9de:	f7ff b96b 	b.w	acb8 <_svfprintf_r+0xaf0>
    b9e2:	2378      	movs	r3, #120	; 0x78
    b9e4:	f88d 3069 	strb.w	r3, [sp, #105]	; 0x69
    b9e8:	2330      	movs	r3, #48	; 0x30
    b9ea:	f88d 3068 	strb.w	r3, [sp, #104]	; 0x68
    b9ee:	9b03      	ldr	r3, [sp, #12]
    b9f0:	2b63      	cmp	r3, #99	; 0x63
    b9f2:	f048 0602 	orr.w	r6, r8, #2
    b9f6:	f300 80a6 	bgt.w	bb46 <_svfprintf_r+0x197e>
    b9fa:	2300      	movs	r3, #0
    b9fc:	9307      	str	r3, [sp, #28]
    b9fe:	ac37      	add	r4, sp, #220	; 0xdc
    ba00:	ee18 3a90 	vmov	r3, s17
    ba04:	2b00      	cmp	r3, #0
    ba06:	f448 7881 	orr.w	r8, r8, #258	; 0x102
    ba0a:	db2b      	blt.n	ba64 <_svfprintf_r+0x189c>
    ba0c:	eeb0 ab48 	vmov.f64	d10, d8
    ba10:	9b0b      	ldr	r3, [sp, #44]	; 0x2c
    ba12:	f023 0520 	bic.w	r5, r3, #32
    ba16:	2300      	movs	r3, #0
    ba18:	9309      	str	r3, [sp, #36]	; 0x24
    ba1a:	9b0b      	ldr	r3, [sp, #44]	; 0x2c
    ba1c:	2b61      	cmp	r3, #97	; 0x61
    ba1e:	f47f aaad 	bne.w	af7c <_svfprintf_r+0xdb4>
    ba22:	eeb0 0b4a 	vmov.f64	d0, d10
    ba26:	a81b      	add	r0, sp, #108	; 0x6c
    ba28:	f000 faea 	bl	c000 <frexp>
    ba2c:	eeb4 7b00 	vmov.f64	d7, #64	; 0x3e000000  0.125
    ba30:	ee20 0b07 	vmul.f64	d0, d0, d7
    ba34:	eeb5 0b40 	vcmp.f64	d0, #0.0
    ba38:	eef1 fa10 	vmrs	APSR_nzcv, fpscr
    ba3c:	d101      	bne.n	ba42 <_svfprintf_r+0x187a>
    ba3e:	2301      	movs	r3, #1
    ba40:	931b      	str	r3, [sp, #108]	; 0x6c
    ba42:	4846      	ldr	r0, [pc, #280]	; (bb5c <_svfprintf_r+0x1994>)
    ba44:	e721      	b.n	b88a <_svfprintf_r+0x16c2>
    ba46:	ee1b 1a10 	vmov	r1, s22
    ba4a:	aa24      	add	r2, sp, #144	; 0x90
    ba4c:	4658      	mov	r0, fp
    ba4e:	f001 fabf 	bl	cfd0 <__ssprint_r>
    ba52:	2800      	cmp	r0, #0
    ba54:	f47f a81d 	bne.w	aa92 <_svfprintf_r+0x8ca>
    ba58:	9b1b      	ldr	r3, [sp, #108]	; 0x6c
    ba5a:	9a26      	ldr	r2, [sp, #152]	; 0x98
    ba5c:	f10d 0a9c 	add.w	sl, sp, #156	; 0x9c
    ba60:	f7ff b94e 	b.w	ad00 <_svfprintf_r+0xb38>
    ba64:	9b0b      	ldr	r3, [sp, #44]	; 0x2c
    ba66:	f023 0520 	bic.w	r5, r3, #32
    ba6a:	232d      	movs	r3, #45	; 0x2d
    ba6c:	9309      	str	r3, [sp, #36]	; 0x24
    ba6e:	eeb1 ab48 	vneg.f64	d10, d8
    ba72:	e7d2      	b.n	ba1a <_svfprintf_r+0x1852>
    ba74:	9a1b      	ldr	r2, [sp, #108]	; 0x6c
    ba76:	920c      	str	r2, [sp, #48]	; 0x30
    ba78:	2a00      	cmp	r2, #0
    ba7a:	f006 0301 	and.w	r3, r6, #1
    ba7e:	f340 810d 	ble.w	bc9c <_svfprintf_r+0x1ad4>
    ba82:	9903      	ldr	r1, [sp, #12]
    ba84:	430b      	orrs	r3, r1
    ba86:	f040 80cf 	bne.w	bc28 <_svfprintf_r+0x1a60>
    ba8a:	9b0c      	ldr	r3, [sp, #48]	; 0x30
    ba8c:	9305      	str	r3, [sp, #20]
    ba8e:	2366      	movs	r3, #102	; 0x66
    ba90:	930b      	str	r3, [sp, #44]	; 0x2c
    ba92:	0572      	lsls	r2, r6, #21
    ba94:	f100 80a3 	bmi.w	bbde <_svfprintf_r+0x1a16>
    ba98:	9b05      	ldr	r3, [sp, #20]
    ba9a:	ea23 73e3 	bic.w	r3, r3, r3, asr #31
    ba9e:	9302      	str	r3, [sp, #8]
    baa0:	e76c      	b.n	b97c <_svfprintf_r+0x17b4>
    baa2:	ee1b 1a10 	vmov	r1, s22
    baa6:	aa24      	add	r2, sp, #144	; 0x90
    baa8:	4658      	mov	r0, fp
    baaa:	f001 fa91 	bl	cfd0 <__ssprint_r>
    baae:	2800      	cmp	r0, #0
    bab0:	f47e afef 	bne.w	aa92 <_svfprintf_r+0x8ca>
    bab4:	9c1b      	ldr	r4, [sp, #108]	; 0x6c
    bab6:	9b0e      	ldr	r3, [sp, #56]	; 0x38
    bab8:	9a26      	ldr	r2, [sp, #152]	; 0x98
    baba:	1b1c      	subs	r4, r3, r4
    babc:	f10d 0a9c 	add.w	sl, sp, #156	; 0x9c
    bac0:	f7ff b936 	b.w	ad30 <_svfprintf_r+0xb68>
    bac4:	2358      	movs	r3, #88	; 0x58
    bac6:	e78d      	b.n	b9e4 <_svfprintf_r+0x181c>
    bac8:	2200      	movs	r2, #0
    baca:	9203      	str	r2, [sp, #12]
    bacc:	f7fe bbda 	b.w	a284 <_svfprintf_r+0xbc>
    bad0:	9b0e      	ldr	r3, [sp, #56]	; 0x38
    bad2:	9a10      	ldr	r2, [sp, #64]	; 0x40
    bad4:	189a      	adds	r2, r3, r2
    bad6:	9b0c      	ldr	r3, [sp, #48]	; 0x30
    bad8:	9205      	str	r2, [sp, #20]
    bada:	2b00      	cmp	r3, #0
    badc:	f340 80ab 	ble.w	bc36 <_svfprintf_r+0x1a6e>
    bae0:	2367      	movs	r3, #103	; 0x67
    bae2:	930b      	str	r3, [sp, #44]	; 0x2c
    bae4:	e7d5      	b.n	ba92 <_svfprintf_r+0x18ca>
    bae6:	9a0b      	ldr	r2, [sp, #44]	; 0x2c
    bae8:	320f      	adds	r2, #15
    baea:	b2d2      	uxtb	r2, r2
    baec:	2101      	movs	r1, #1
    baee:	e618      	b.n	b722 <_svfprintf_r+0x155a>
    baf0:	18a0      	adds	r0, r4, r2
    baf2:	e5fb      	b.n	b6ec <_svfprintf_r+0x1524>
    baf4:	2900      	cmp	r1, #0
    baf6:	f040 80a8 	bne.w	bc4a <_svfprintf_r+0x1a82>
    bafa:	2230      	movs	r2, #48	; 0x30
    bafc:	f88d 207a 	strb.w	r2, [sp, #122]	; 0x7a
    bb00:	f10d 027b 	add.w	r2, sp, #123	; 0x7b
    bb04:	3330      	adds	r3, #48	; 0x30
    bb06:	f802 3b01 	strb.w	r3, [r2], #1
    bb0a:	ab1e      	add	r3, sp, #120	; 0x78
    bb0c:	1ad3      	subs	r3, r2, r3
    bb0e:	9314      	str	r3, [sp, #80]	; 0x50
    bb10:	e649      	b.n	b7a6 <_svfprintf_r+0x15de>
    bb12:	3301      	adds	r3, #1
    bb14:	4912      	ldr	r1, [pc, #72]	; (bb60 <_svfprintf_r+0x1998>)
    bb16:	f8ca 5004 	str.w	r5, [sl, #4]
    bb1a:	442a      	add	r2, r5
    bb1c:	2b07      	cmp	r3, #7
    bb1e:	e9cd 3225 	strd	r3, r2, [sp, #148]	; 0x94
    bb22:	f8ca 1000 	str.w	r1, [sl]
    bb26:	f77f ac33 	ble.w	b390 <_svfprintf_r+0x11c8>
    bb2a:	ee1b 1a10 	vmov	r1, s22
    bb2e:	aa24      	add	r2, sp, #144	; 0x90
    bb30:	4658      	mov	r0, fp
    bb32:	f001 fa4d 	bl	cfd0 <__ssprint_r>
    bb36:	2800      	cmp	r0, #0
    bb38:	f47e afab 	bne.w	aa92 <_svfprintf_r+0x8ca>
    bb3c:	e9dd 3225 	ldrd	r3, r2, [sp, #148]	; 0x94
    bb40:	f10d 0a9c 	add.w	sl, sp, #156	; 0x9c
    bb44:	e426      	b.n	b394 <_svfprintf_r+0x11cc>
    bb46:	1c59      	adds	r1, r3, #1
    bb48:	4658      	mov	r0, fp
    bb4a:	f7fc fdd9 	bl	8700 <_malloc_r>
    bb4e:	4604      	mov	r4, r0
    bb50:	b350      	cbz	r0, bba8 <_svfprintf_r+0x19e0>
    bb52:	9007      	str	r0, [sp, #28]
    bb54:	e754      	b.n	ba00 <_svfprintf_r+0x1838>
    bb56:	bf00      	nop
    bb58:	2000098c 	.word	0x2000098c
    bb5c:	20000978 	.word	0x20000978
    bb60:	20000b58 	.word	0x20000b58
    bb64:	66666667 	.word	0x66666667
    bb68:	f8cd c088 	str.w	ip, [sp, #136]	; 0x88
    bb6c:	f812 1c01 	ldrb.w	r1, [r2, #-1]
    bb70:	f890 c00f 	ldrb.w	ip, [r0, #15]
    bb74:	4561      	cmp	r1, ip
    bb76:	4613      	mov	r3, r2
    bb78:	d10a      	bne.n	bb90 <_svfprintf_r+0x19c8>
    bb7a:	f04f 0e30 	mov.w	lr, #48	; 0x30
    bb7e:	f803 ec01 	strb.w	lr, [r3, #-1]
    bb82:	9b22      	ldr	r3, [sp, #136]	; 0x88
    bb84:	1e59      	subs	r1, r3, #1
    bb86:	9122      	str	r1, [sp, #136]	; 0x88
    bb88:	f813 1c01 	ldrb.w	r1, [r3, #-1]
    bb8c:	458c      	cmp	ip, r1
    bb8e:	d0f6      	beq.n	bb7e <_svfprintf_r+0x19b6>
    bb90:	2939      	cmp	r1, #57	; 0x39
    bb92:	bf16      	itet	ne
    bb94:	3101      	addne	r1, #1
    bb96:	7a81      	ldrbeq	r1, [r0, #10]
    bb98:	b2c9      	uxtbne	r1, r1
    bb9a:	f803 1c01 	strb.w	r1, [r3, #-1]
    bb9e:	e6ae      	b.n	b8fe <_svfprintf_r+0x1736>
    bba0:	2300      	movs	r3, #0
    bba2:	4690      	mov	r8, r2
    bba4:	9307      	str	r3, [sp, #28]
    bba6:	e760      	b.n	ba6a <_svfprintf_r+0x18a2>
    bba8:	ee1b 2a10 	vmov	r2, s22
    bbac:	f9b2 300c 	ldrsh.w	r3, [r2, #12]
    bbb0:	f043 0340 	orr.w	r3, r3, #64	; 0x40
    bbb4:	8193      	strh	r3, [r2, #12]
    bbb6:	f7fe bc16 	b.w	a3e6 <_svfprintf_r+0x21e>
    bbba:	07f5      	lsls	r5, r6, #31
    bbbc:	f57f adfe 	bpl.w	b7bc <_svfprintf_r+0x15f4>
    bbc0:	e5f8      	b.n	b7b4 <_svfprintf_r+0x15ec>
    bbc2:	9305      	str	r3, [sp, #20]
    bbc4:	e6ce      	b.n	b964 <_svfprintf_r+0x179c>
    bbc6:	eeb5 ab40 	vcmp.f64	d10, #0.0
    bbca:	eef1 fa10 	vmrs	APSR_nzcv, fpscr
    bbce:	f43f ad8b 	beq.w	b6e8 <_svfprintf_r+0x1520>
    bbd2:	f1c2 0201 	rsb	r2, r2, #1
    bbd6:	921b      	str	r2, [sp, #108]	; 0x6c
    bbd8:	e587      	b.n	b6ea <_svfprintf_r+0x1522>
    bbda:	2367      	movs	r3, #103	; 0x67
    bbdc:	930b      	str	r3, [sp, #44]	; 0x2c
    bbde:	9913      	ldr	r1, [sp, #76]	; 0x4c
    bbe0:	780b      	ldrb	r3, [r1, #0]
    bbe2:	2bff      	cmp	r3, #255	; 0xff
    bbe4:	d079      	beq.n	bcda <_svfprintf_r+0x1b12>
    bbe6:	2500      	movs	r5, #0
    bbe8:	9a0c      	ldr	r2, [sp, #48]	; 0x30
    bbea:	4628      	mov	r0, r5
    bbec:	e003      	b.n	bbf6 <_svfprintf_r+0x1a2e>
    bbee:	3001      	adds	r0, #1
    bbf0:	3101      	adds	r1, #1
    bbf2:	2bff      	cmp	r3, #255	; 0xff
    bbf4:	d008      	beq.n	bc08 <_svfprintf_r+0x1a40>
    bbf6:	4293      	cmp	r3, r2
    bbf8:	da06      	bge.n	bc08 <_svfprintf_r+0x1a40>
    bbfa:	1ad2      	subs	r2, r2, r3
    bbfc:	784b      	ldrb	r3, [r1, #1]
    bbfe:	2b00      	cmp	r3, #0
    bc00:	d1f5      	bne.n	bbee <_svfprintf_r+0x1a26>
    bc02:	780b      	ldrb	r3, [r1, #0]
    bc04:	3501      	adds	r5, #1
    bc06:	e7f4      	b.n	bbf2 <_svfprintf_r+0x1a2a>
    bc08:	920c      	str	r2, [sp, #48]	; 0x30
    bc0a:	9113      	str	r1, [sp, #76]	; 0x4c
    bc0c:	900d      	str	r0, [sp, #52]	; 0x34
    bc0e:	950f      	str	r5, [sp, #60]	; 0x3c
    bc10:	9a0f      	ldr	r2, [sp, #60]	; 0x3c
    bc12:	9b0d      	ldr	r3, [sp, #52]	; 0x34
    bc14:	9916      	ldr	r1, [sp, #88]	; 0x58
    bc16:	4413      	add	r3, r2
    bc18:	9a05      	ldr	r2, [sp, #20]
    bc1a:	fb01 2303 	mla	r3, r1, r3, r2
    bc1e:	9305      	str	r3, [sp, #20]
    bc20:	ea23 73e3 	bic.w	r3, r3, r3, asr #31
    bc24:	9302      	str	r3, [sp, #8]
    bc26:	e5d5      	b.n	b7d4 <_svfprintf_r+0x160c>
    bc28:	9b10      	ldr	r3, [sp, #64]	; 0x40
    bc2a:	18d3      	adds	r3, r2, r3
    bc2c:	4419      	add	r1, r3
    bc2e:	2366      	movs	r3, #102	; 0x66
    bc30:	9105      	str	r1, [sp, #20]
    bc32:	930b      	str	r3, [sp, #44]	; 0x2c
    bc34:	e72d      	b.n	ba92 <_svfprintf_r+0x18ca>
    bc36:	f1c3 0301 	rsb	r3, r3, #1
    bc3a:	441a      	add	r2, r3
    bc3c:	ea22 73e2 	bic.w	r3, r2, r2, asr #31
    bc40:	9302      	str	r3, [sp, #8]
    bc42:	2367      	movs	r3, #103	; 0x67
    bc44:	9205      	str	r2, [sp, #20]
    bc46:	930b      	str	r3, [sp, #44]	; 0x2c
    bc48:	e698      	b.n	b97c <_svfprintf_r+0x17b4>
    bc4a:	f10d 027a 	add.w	r2, sp, #122	; 0x7a
    bc4e:	e759      	b.n	bb04 <_svfprintf_r+0x193c>
    bc50:	9b03      	ldr	r3, [sp, #12]
    bc52:	f8dd 9008 	ldr.w	r9, [sp, #8]
    bc56:	f8dd 801c 	ldr.w	r8, [sp, #28]
    bc5a:	9305      	str	r3, [sp, #20]
    bc5c:	e4b4      	b.n	b5c8 <_svfprintf_r+0x1400>
    bc5e:	ee18 3a90 	vmov	r3, s17
    bc62:	2b00      	cmp	r3, #0
    bc64:	bfb4      	ite	lt
    bc66:	212d      	movlt	r1, #45	; 0x2d
    bc68:	f89d 1067 	ldrbge.w	r1, [sp, #103]	; 0x67
    bc6c:	4c25      	ldr	r4, [pc, #148]	; (bd04 <_svfprintf_r+0x1b3c>)
    bc6e:	4b26      	ldr	r3, [pc, #152]	; (bd08 <_svfprintf_r+0x1b40>)
    bc70:	bfb8      	it	lt
    bc72:	f88d 1067 	strblt.w	r1, [sp, #103]	; 0x67
    bc76:	f028 0880 	bic.w	r8, r8, #128	; 0x80
    bc7a:	f7fe bc79 	b.w	a570 <_svfprintf_r+0x3a8>
    bc7e:	9b03      	ldr	r3, [sp, #12]
    bc80:	9302      	str	r3, [sp, #8]
    bc82:	9305      	str	r3, [sp, #20]
    bc84:	2373      	movs	r3, #115	; 0x73
    bc86:	f89d 1067 	ldrb.w	r1, [sp, #103]	; 0x67
    bc8a:	9003      	str	r0, [sp, #12]
    bc8c:	900f      	str	r0, [sp, #60]	; 0x3c
    bc8e:	900d      	str	r0, [sp, #52]	; 0x34
    bc90:	930b      	str	r3, [sp, #44]	; 0x2c
    bc92:	f7fe bc7a 	b.w	a58a <_svfprintf_r+0x3c2>
    bc96:	2302      	movs	r3, #2
    bc98:	9314      	str	r3, [sp, #80]	; 0x50
    bc9a:	e584      	b.n	b7a6 <_svfprintf_r+0x15de>
    bc9c:	9a03      	ldr	r2, [sp, #12]
    bc9e:	4313      	orrs	r3, r2
    bca0:	d105      	bne.n	bcae <_svfprintf_r+0x1ae6>
    bca2:	2301      	movs	r3, #1
    bca4:	2266      	movs	r2, #102	; 0x66
    bca6:	9302      	str	r3, [sp, #8]
    bca8:	920b      	str	r2, [sp, #44]	; 0x2c
    bcaa:	9305      	str	r3, [sp, #20]
    bcac:	e666      	b.n	b97c <_svfprintf_r+0x17b4>
    bcae:	9b10      	ldr	r3, [sp, #64]	; 0x40
    bcb0:	3301      	adds	r3, #1
    bcb2:	441a      	add	r2, r3
    bcb4:	ea22 73e2 	bic.w	r3, r2, r2, asr #31
    bcb8:	9302      	str	r3, [sp, #8]
    bcba:	2366      	movs	r3, #102	; 0x66
    bcbc:	9205      	str	r2, [sp, #20]
    bcbe:	930b      	str	r3, [sp, #44]	; 0x2c
    bcc0:	e65c      	b.n	b97c <_svfprintf_r+0x17b4>
    bcc2:	9a08      	ldr	r2, [sp, #32]
    bcc4:	f899 3001 	ldrb.w	r3, [r9, #1]
    bcc8:	4689      	mov	r9, r1
    bcca:	f852 1b04 	ldr.w	r1, [r2], #4
    bcce:	9208      	str	r2, [sp, #32]
    bcd0:	ea41 71e1 	orr.w	r1, r1, r1, asr #31
    bcd4:	9103      	str	r1, [sp, #12]
    bcd6:	f7fe bad3 	b.w	a280 <_svfprintf_r+0xb8>
    bcda:	2300      	movs	r3, #0
    bcdc:	930f      	str	r3, [sp, #60]	; 0x3c
    bcde:	930d      	str	r3, [sp, #52]	; 0x34
    bce0:	e796      	b.n	bc10 <_svfprintf_r+0x1a48>
    bce2:	230c      	movs	r3, #12
    bce4:	f8cb 3000 	str.w	r3, [fp]
    bce8:	f04f 33ff 	mov.w	r3, #4294967295
    bcec:	9304      	str	r3, [sp, #16]
    bcee:	f7fe bb81 	b.w	a3f4 <_svfprintf_r+0x22c>
    bcf2:	ee1b 2a10 	vmov	r2, s22
    bcf6:	8993      	ldrh	r3, [r2, #12]
    bcf8:	f043 0340 	orr.w	r3, r3, #64	; 0x40
    bcfc:	8193      	strh	r3, [r2, #12]
    bcfe:	f7fe bec8 	b.w	aa92 <_svfprintf_r+0x8ca>
    bd02:	bf00      	nop
    bd04:	20000970 	.word	0x20000970
    bd08:	20000974 	.word	0x20000974

0000bd0c <_fclose_r>:
    bd0c:	b570      	push	{r4, r5, r6, lr}
    bd0e:	2900      	cmp	r1, #0
    bd10:	d04b      	beq.n	bdaa <_fclose_r+0x9e>
    bd12:	4606      	mov	r6, r0
    bd14:	460c      	mov	r4, r1
    bd16:	b110      	cbz	r0, bd1e <_fclose_r+0x12>
    bd18:	6b43      	ldr	r3, [r0, #52]	; 0x34
    bd1a:	2b00      	cmp	r3, #0
    bd1c:	d048      	beq.n	bdb0 <_fclose_r+0xa4>
    bd1e:	6e63      	ldr	r3, [r4, #100]	; 0x64
    bd20:	07d8      	lsls	r0, r3, #31
    bd22:	d534      	bpl.n	bd8e <_fclose_r+0x82>
    bd24:	f9b4 300c 	ldrsh.w	r3, [r4, #12]
    bd28:	2b00      	cmp	r3, #0
    bd2a:	d03e      	beq.n	bdaa <_fclose_r+0x9e>
    bd2c:	4621      	mov	r1, r4
    bd2e:	4630      	mov	r0, r6
    bd30:	f000 f850 	bl	bdd4 <__sflush_r>
    bd34:	6ae3      	ldr	r3, [r4, #44]	; 0x2c
    bd36:	4605      	mov	r5, r0
    bd38:	b133      	cbz	r3, bd48 <_fclose_r+0x3c>
    bd3a:	69e1      	ldr	r1, [r4, #28]
    bd3c:	4630      	mov	r0, r6
    bd3e:	4798      	blx	r3
    bd40:	2800      	cmp	r0, #0
    bd42:	bfb8      	it	lt
    bd44:	f04f 35ff 	movlt.w	r5, #4294967295
    bd48:	89a3      	ldrh	r3, [r4, #12]
    bd4a:	061a      	lsls	r2, r3, #24
    bd4c:	d43c      	bmi.n	bdc8 <_fclose_r+0xbc>
    bd4e:	6b21      	ldr	r1, [r4, #48]	; 0x30
    bd50:	b141      	cbz	r1, bd64 <_fclose_r+0x58>
    bd52:	f104 0340 	add.w	r3, r4, #64	; 0x40
    bd56:	4299      	cmp	r1, r3
    bd58:	d002      	beq.n	bd60 <_fclose_r+0x54>
    bd5a:	4630      	mov	r0, r6
    bd5c:	f7fd fd4e 	bl	97fc <_free_r>
    bd60:	2300      	movs	r3, #0
    bd62:	6323      	str	r3, [r4, #48]	; 0x30
    bd64:	6c61      	ldr	r1, [r4, #68]	; 0x44
    bd66:	b121      	cbz	r1, bd72 <_fclose_r+0x66>
    bd68:	4630      	mov	r0, r6
    bd6a:	f7fd fd47 	bl	97fc <_free_r>
    bd6e:	2300      	movs	r3, #0
    bd70:	6463      	str	r3, [r4, #68]	; 0x44
    bd72:	f7fd fa21 	bl	91b8 <__sfp_lock_acquire>
    bd76:	6e63      	ldr	r3, [r4, #100]	; 0x64
    bd78:	2200      	movs	r2, #0
    bd7a:	07db      	lsls	r3, r3, #31
    bd7c:	81a2      	strh	r2, [r4, #12]
    bd7e:	d51f      	bpl.n	bdc0 <_fclose_r+0xb4>
    bd80:	6da0      	ldr	r0, [r4, #88]	; 0x58
    bd82:	f7fd fc6b 	bl	965c <__retarget_lock_close_recursive>
    bd86:	f7fd fa1d 	bl	91c4 <__sfp_lock_release>
    bd8a:	4628      	mov	r0, r5
    bd8c:	bd70      	pop	{r4, r5, r6, pc}
    bd8e:	89a3      	ldrh	r3, [r4, #12]
    bd90:	0599      	lsls	r1, r3, #22
    bd92:	d4cb      	bmi.n	bd2c <_fclose_r+0x20>
    bd94:	6da0      	ldr	r0, [r4, #88]	; 0x58
    bd96:	f7fd fc63 	bl	9660 <__retarget_lock_acquire_recursive>
    bd9a:	f9b4 300c 	ldrsh.w	r3, [r4, #12]
    bd9e:	2b00      	cmp	r3, #0
    bda0:	d1c4      	bne.n	bd2c <_fclose_r+0x20>
    bda2:	6e65      	ldr	r5, [r4, #100]	; 0x64
    bda4:	f015 0501 	ands.w	r5, r5, #1
    bda8:	d005      	beq.n	bdb6 <_fclose_r+0xaa>
    bdaa:	2500      	movs	r5, #0
    bdac:	4628      	mov	r0, r5
    bdae:	bd70      	pop	{r4, r5, r6, pc}
    bdb0:	f7fd f9e4 	bl	917c <__sinit>
    bdb4:	e7b3      	b.n	bd1e <_fclose_r+0x12>
    bdb6:	6da0      	ldr	r0, [r4, #88]	; 0x58
    bdb8:	f7fd fc54 	bl	9664 <__retarget_lock_release_recursive>
    bdbc:	4628      	mov	r0, r5
    bdbe:	bd70      	pop	{r4, r5, r6, pc}
    bdc0:	6da0      	ldr	r0, [r4, #88]	; 0x58
    bdc2:	f7fd fc4f 	bl	9664 <__retarget_lock_release_recursive>
    bdc6:	e7db      	b.n	bd80 <_fclose_r+0x74>
    bdc8:	6921      	ldr	r1, [r4, #16]
    bdca:	4630      	mov	r0, r6
    bdcc:	f7fd fd16 	bl	97fc <_free_r>
    bdd0:	e7bd      	b.n	bd4e <_fclose_r+0x42>
    bdd2:	bf00      	nop

0000bdd4 <__sflush_r>:
    bdd4:	f9b1 200c 	ldrsh.w	r2, [r1, #12]
    bdd8:	e92d 41f0 	stmdb	sp!, {r4, r5, r6, r7, r8, lr}
    bddc:	460c      	mov	r4, r1
    bdde:	0711      	lsls	r1, r2, #28
    bde0:	4680      	mov	r8, r0
    bde2:	d447      	bmi.n	be74 <__sflush_r+0xa0>
    bde4:	6863      	ldr	r3, [r4, #4]
    bde6:	f442 6200 	orr.w	r2, r2, #2048	; 0x800
    bdea:	2b00      	cmp	r3, #0
    bdec:	81a2      	strh	r2, [r4, #12]
    bdee:	dd5e      	ble.n	beae <__sflush_r+0xda>
    bdf0:	6aa5      	ldr	r5, [r4, #40]	; 0x28
    bdf2:	2d00      	cmp	r5, #0
    bdf4:	d058      	beq.n	bea8 <__sflush_r+0xd4>
    bdf6:	2300      	movs	r3, #0
    bdf8:	f8d8 6000 	ldr.w	r6, [r8]
    bdfc:	f8c8 3000 	str.w	r3, [r8]
    be00:	b293      	uxth	r3, r2
    be02:	f412 5280 	ands.w	r2, r2, #4096	; 0x1000
    be06:	d156      	bne.n	beb6 <__sflush_r+0xe2>
    be08:	2301      	movs	r3, #1
    be0a:	69e1      	ldr	r1, [r4, #28]
    be0c:	4640      	mov	r0, r8
    be0e:	47a8      	blx	r5
    be10:	1c43      	adds	r3, r0, #1
    be12:	d067      	beq.n	bee4 <__sflush_r+0x110>
    be14:	89a3      	ldrh	r3, [r4, #12]
    be16:	6aa5      	ldr	r5, [r4, #40]	; 0x28
    be18:	075f      	lsls	r7, r3, #29
    be1a:	d505      	bpl.n	be28 <__sflush_r+0x54>
    be1c:	6863      	ldr	r3, [r4, #4]
    be1e:	1ac0      	subs	r0, r0, r3
    be20:	6b23      	ldr	r3, [r4, #48]	; 0x30
    be22:	b10b      	cbz	r3, be28 <__sflush_r+0x54>
    be24:	6be3      	ldr	r3, [r4, #60]	; 0x3c
    be26:	1ac0      	subs	r0, r0, r3
    be28:	69e1      	ldr	r1, [r4, #28]
    be2a:	4602      	mov	r2, r0
    be2c:	2300      	movs	r3, #0
    be2e:	4640      	mov	r0, r8
    be30:	47a8      	blx	r5
    be32:	1c41      	adds	r1, r0, #1
    be34:	d141      	bne.n	beba <__sflush_r+0xe6>
    be36:	f8d8 3000 	ldr.w	r3, [r8]
    be3a:	2b00      	cmp	r3, #0
    be3c:	d03d      	beq.n	beba <__sflush_r+0xe6>
    be3e:	2b1d      	cmp	r3, #29
    be40:	d001      	beq.n	be46 <__sflush_r+0x72>
    be42:	2b16      	cmp	r3, #22
    be44:	d156      	bne.n	bef4 <__sflush_r+0x120>
    be46:	89a3      	ldrh	r3, [r4, #12]
    be48:	6922      	ldr	r2, [r4, #16]
    be4a:	6022      	str	r2, [r4, #0]
    be4c:	f423 6300 	bic.w	r3, r3, #2048	; 0x800
    be50:	2100      	movs	r1, #0
    be52:	6061      	str	r1, [r4, #4]
    be54:	81a3      	strh	r3, [r4, #12]
    be56:	6b21      	ldr	r1, [r4, #48]	; 0x30
    be58:	f8c8 6000 	str.w	r6, [r8]
    be5c:	b321      	cbz	r1, bea8 <__sflush_r+0xd4>
    be5e:	f104 0340 	add.w	r3, r4, #64	; 0x40
    be62:	4299      	cmp	r1, r3
    be64:	d002      	beq.n	be6c <__sflush_r+0x98>
    be66:	4640      	mov	r0, r8
    be68:	f7fd fcc8 	bl	97fc <_free_r>
    be6c:	2000      	movs	r0, #0
    be6e:	6320      	str	r0, [r4, #48]	; 0x30
    be70:	e8bd 81f0 	ldmia.w	sp!, {r4, r5, r6, r7, r8, pc}
    be74:	6926      	ldr	r6, [r4, #16]
    be76:	b1be      	cbz	r6, bea8 <__sflush_r+0xd4>
    be78:	b293      	uxth	r3, r2
    be7a:	6825      	ldr	r5, [r4, #0]
    be7c:	6026      	str	r6, [r4, #0]
    be7e:	079a      	lsls	r2, r3, #30
    be80:	bf0c      	ite	eq
    be82:	6963      	ldreq	r3, [r4, #20]
    be84:	2300      	movne	r3, #0
    be86:	1bad      	subs	r5, r5, r6
    be88:	60a3      	str	r3, [r4, #8]
    be8a:	e00b      	b.n	bea4 <__sflush_r+0xd0>
    be8c:	462b      	mov	r3, r5
    be8e:	4632      	mov	r2, r6
    be90:	69e1      	ldr	r1, [r4, #28]
    be92:	6a67      	ldr	r7, [r4, #36]	; 0x24
    be94:	4640      	mov	r0, r8
    be96:	47b8      	blx	r7
    be98:	f1b0 0c00 	subs.w	ip, r0, #0
    be9c:	eba5 050c 	sub.w	r5, r5, ip
    bea0:	4466      	add	r6, ip
    bea2:	dd17      	ble.n	bed4 <__sflush_r+0x100>
    bea4:	2d00      	cmp	r5, #0
    bea6:	dcf1      	bgt.n	be8c <__sflush_r+0xb8>
    bea8:	2000      	movs	r0, #0
    beaa:	e8bd 81f0 	ldmia.w	sp!, {r4, r5, r6, r7, r8, pc}
    beae:	6be3      	ldr	r3, [r4, #60]	; 0x3c
    beb0:	2b00      	cmp	r3, #0
    beb2:	dc9d      	bgt.n	bdf0 <__sflush_r+0x1c>
    beb4:	e7f8      	b.n	bea8 <__sflush_r+0xd4>
    beb6:	6d20      	ldr	r0, [r4, #80]	; 0x50
    beb8:	e7ae      	b.n	be18 <__sflush_r+0x44>
    beba:	f9b4 300c 	ldrsh.w	r3, [r4, #12]
    bebe:	6922      	ldr	r2, [r4, #16]
    bec0:	6022      	str	r2, [r4, #0]
    bec2:	f423 6300 	bic.w	r3, r3, #2048	; 0x800
    bec6:	81a3      	strh	r3, [r4, #12]
    bec8:	2200      	movs	r2, #0
    beca:	04db      	lsls	r3, r3, #19
    becc:	6062      	str	r2, [r4, #4]
    bece:	d5c2      	bpl.n	be56 <__sflush_r+0x82>
    bed0:	6520      	str	r0, [r4, #80]	; 0x50
    bed2:	e7c0      	b.n	be56 <__sflush_r+0x82>
    bed4:	89a3      	ldrh	r3, [r4, #12]
    bed6:	f043 0340 	orr.w	r3, r3, #64	; 0x40
    beda:	f04f 30ff 	mov.w	r0, #4294967295
    bede:	81a3      	strh	r3, [r4, #12]
    bee0:	e8bd 81f0 	ldmia.w	sp!, {r4, r5, r6, r7, r8, pc}
    bee4:	f8d8 3000 	ldr.w	r3, [r8]
    bee8:	2b00      	cmp	r3, #0
    beea:	d093      	beq.n	be14 <__sflush_r+0x40>
    beec:	2b1d      	cmp	r3, #29
    beee:	d006      	beq.n	befe <__sflush_r+0x12a>
    bef0:	2b16      	cmp	r3, #22
    bef2:	d004      	beq.n	befe <__sflush_r+0x12a>
    bef4:	89a3      	ldrh	r3, [r4, #12]
    bef6:	f043 0340 	orr.w	r3, r3, #64	; 0x40
    befa:	81a3      	strh	r3, [r4, #12]
    befc:	e7d5      	b.n	beaa <__sflush_r+0xd6>
    befe:	f8c8 6000 	str.w	r6, [r8]
    bf02:	e7d1      	b.n	bea8 <__sflush_r+0xd4>

0000bf04 <_fflush_r>:
    bf04:	b538      	push	{r3, r4, r5, lr}
    bf06:	460c      	mov	r4, r1
    bf08:	4605      	mov	r5, r0
    bf0a:	b108      	cbz	r0, bf10 <_fflush_r+0xc>
    bf0c:	6b43      	ldr	r3, [r0, #52]	; 0x34
    bf0e:	b303      	cbz	r3, bf52 <_fflush_r+0x4e>
    bf10:	f9b4 000c 	ldrsh.w	r0, [r4, #12]
    bf14:	b188      	cbz	r0, bf3a <_fflush_r+0x36>
    bf16:	6e63      	ldr	r3, [r4, #100]	; 0x64
    bf18:	07db      	lsls	r3, r3, #31
    bf1a:	d401      	bmi.n	bf20 <_fflush_r+0x1c>
    bf1c:	0581      	lsls	r1, r0, #22
    bf1e:	d50f      	bpl.n	bf40 <_fflush_r+0x3c>
    bf20:	4628      	mov	r0, r5
    bf22:	4621      	mov	r1, r4
    bf24:	f7ff ff56 	bl	bdd4 <__sflush_r>
    bf28:	6e63      	ldr	r3, [r4, #100]	; 0x64
    bf2a:	07da      	lsls	r2, r3, #31
    bf2c:	4605      	mov	r5, r0
    bf2e:	d402      	bmi.n	bf36 <_fflush_r+0x32>
    bf30:	89a3      	ldrh	r3, [r4, #12]
    bf32:	059b      	lsls	r3, r3, #22
    bf34:	d508      	bpl.n	bf48 <_fflush_r+0x44>
    bf36:	4628      	mov	r0, r5
    bf38:	bd38      	pop	{r3, r4, r5, pc}
    bf3a:	4605      	mov	r5, r0
    bf3c:	4628      	mov	r0, r5
    bf3e:	bd38      	pop	{r3, r4, r5, pc}
    bf40:	6da0      	ldr	r0, [r4, #88]	; 0x58
    bf42:	f7fd fb8d 	bl	9660 <__retarget_lock_acquire_recursive>
    bf46:	e7eb      	b.n	bf20 <_fflush_r+0x1c>
    bf48:	6da0      	ldr	r0, [r4, #88]	; 0x58
    bf4a:	f7fd fb8b 	bl	9664 <__retarget_lock_release_recursive>
    bf4e:	4628      	mov	r0, r5
    bf50:	bd38      	pop	{r3, r4, r5, pc}
    bf52:	f7fd f913 	bl	917c <__sinit>
    bf56:	e7db      	b.n	bf10 <_fflush_r+0xc>

0000bf58 <_localeconv_r>:
    bf58:	4800      	ldr	r0, [pc, #0]	; (bf5c <_localeconv_r+0x4>)
    bf5a:	4770      	bx	lr
    bf5c:	20000da8 	.word	0x20000da8

0000bf60 <memchr>:
    bf60:	f001 01ff 	and.w	r1, r1, #255	; 0xff
    bf64:	2a10      	cmp	r2, #16
    bf66:	db2b      	blt.n	bfc0 <memchr+0x60>
    bf68:	f010 0f07 	tst.w	r0, #7
    bf6c:	d008      	beq.n	bf80 <memchr+0x20>
    bf6e:	f810 3b01 	ldrb.w	r3, [r0], #1
    bf72:	3a01      	subs	r2, #1
    bf74:	428b      	cmp	r3, r1
    bf76:	d02d      	beq.n	bfd4 <memchr+0x74>
    bf78:	f010 0f07 	tst.w	r0, #7
    bf7c:	b342      	cbz	r2, bfd0 <memchr+0x70>
    bf7e:	d1f6      	bne.n	bf6e <memchr+0xe>
    bf80:	b4f0      	push	{r4, r5, r6, r7}
    bf82:	ea41 2101 	orr.w	r1, r1, r1, lsl #8
    bf86:	ea41 4101 	orr.w	r1, r1, r1, lsl #16
    bf8a:	f022 0407 	bic.w	r4, r2, #7
    bf8e:	f07f 0700 	mvns.w	r7, #0
    bf92:	2300      	movs	r3, #0
    bf94:	e8f0 5602 	ldrd	r5, r6, [r0], #8
    bf98:	3c08      	subs	r4, #8
    bf9a:	ea85 0501 	eor.w	r5, r5, r1
    bf9e:	ea86 0601 	eor.w	r6, r6, r1
    bfa2:	fa85 f547 	uadd8	r5, r5, r7
    bfa6:	faa3 f587 	sel	r5, r3, r7
    bfaa:	fa86 f647 	uadd8	r6, r6, r7
    bfae:	faa5 f687 	sel	r6, r5, r7
    bfb2:	b98e      	cbnz	r6, bfd8 <memchr+0x78>
    bfb4:	d1ee      	bne.n	bf94 <memchr+0x34>
    bfb6:	bcf0      	pop	{r4, r5, r6, r7}
    bfb8:	f001 01ff 	and.w	r1, r1, #255	; 0xff
    bfbc:	f002 0207 	and.w	r2, r2, #7
    bfc0:	b132      	cbz	r2, bfd0 <memchr+0x70>
    bfc2:	f810 3b01 	ldrb.w	r3, [r0], #1
    bfc6:	3a01      	subs	r2, #1
    bfc8:	ea83 0301 	eor.w	r3, r3, r1
    bfcc:	b113      	cbz	r3, bfd4 <memchr+0x74>
    bfce:	d1f8      	bne.n	bfc2 <memchr+0x62>
    bfd0:	2000      	movs	r0, #0
    bfd2:	4770      	bx	lr
    bfd4:	3801      	subs	r0, #1
    bfd6:	4770      	bx	lr
    bfd8:	2d00      	cmp	r5, #0
    bfda:	bf06      	itte	eq
    bfdc:	4635      	moveq	r5, r6
    bfde:	3803      	subeq	r0, #3
    bfe0:	3807      	subne	r0, #7
    bfe2:	f015 0f01 	tst.w	r5, #1
    bfe6:	d107      	bne.n	bff8 <memchr+0x98>
    bfe8:	3001      	adds	r0, #1
    bfea:	f415 7f80 	tst.w	r5, #256	; 0x100
    bfee:	bf02      	ittt	eq
    bff0:	3001      	addeq	r0, #1
    bff2:	f415 3fc0 	tsteq.w	r5, #98304	; 0x18000
    bff6:	3001      	addeq	r0, #1
    bff8:	bcf0      	pop	{r4, r5, r6, r7}
    bffa:	3801      	subs	r0, #1
    bffc:	4770      	bx	lr
    bffe:	bf00      	nop

0000c000 <frexp>:
    c000:	b430      	push	{r4, r5}
    c002:	b082      	sub	sp, #8
    c004:	ed8d 0b00 	vstr	d0, [sp]
    c008:	9a01      	ldr	r2, [sp, #4]
    c00a:	4c19      	ldr	r4, [pc, #100]	; (c070 <frexp+0x70>)
    c00c:	f022 4300 	bic.w	r3, r2, #2147483648	; 0x80000000
    c010:	2100      	movs	r1, #0
    c012:	42a3      	cmp	r3, r4
    c014:	6001      	str	r1, [r0, #0]
    c016:	dc21      	bgt.n	c05c <frexp+0x5c>
    c018:	9c00      	ldr	r4, [sp, #0]
    c01a:	431c      	orrs	r4, r3
    c01c:	d01e      	beq.n	c05c <frexp+0x5c>
    c01e:	4c15      	ldr	r4, [pc, #84]	; (c074 <frexp+0x74>)
    c020:	4014      	ands	r4, r2
    c022:	b954      	cbnz	r4, c03a <frexp+0x3a>
    c024:	ed9f 7b10 	vldr	d7, [pc, #64]	; c068 <frexp+0x68>
    c028:	ee20 7b07 	vmul.f64	d7, d0, d7
    c02c:	ed8d 7b00 	vstr	d7, [sp]
    c030:	9a01      	ldr	r2, [sp, #4]
    c032:	f06f 0135 	mvn.w	r1, #53	; 0x35
    c036:	f022 4300 	bic.w	r3, r2, #2147483648	; 0x80000000
    c03a:	f022 42ff 	bic.w	r2, r2, #2139095040	; 0x7f800000
    c03e:	e9dd 4500 	ldrd	r4, r5, [sp]
    c042:	f422 02e0 	bic.w	r2, r2, #7340032	; 0x700000
    c046:	f042 557f 	orr.w	r5, r2, #1069547520	; 0x3fc00000
    c04a:	151b      	asrs	r3, r3, #20
    c04c:	f445 1500 	orr.w	r5, r5, #2097152	; 0x200000
    c050:	f2a3 33fe 	subw	r3, r3, #1022	; 0x3fe
    c054:	e9cd 4500 	strd	r4, r5, [sp]
    c058:	440b      	add	r3, r1
    c05a:	6003      	str	r3, [r0, #0]
    c05c:	ed9d 0b00 	vldr	d0, [sp]
    c060:	b002      	add	sp, #8
    c062:	bc30      	pop	{r4, r5}
    c064:	4770      	bx	lr
    c066:	bf00      	nop
    c068:	00000000 	.word	0x00000000
    c06c:	43500000 	.word	0x43500000
    c070:	7fefffff 	.word	0x7fefffff
    c074:	7ff00000 	.word	0x7ff00000

0000c078 <__assert_func>:
    c078:	b500      	push	{lr}
    c07a:	4c0b      	ldr	r4, [pc, #44]	; (c0a8 <__assert_func+0x30>)
    c07c:	6825      	ldr	r5, [r4, #0]
    c07e:	4614      	mov	r4, r2
    c080:	68ee      	ldr	r6, [r5, #12]
    c082:	461a      	mov	r2, r3
    c084:	b085      	sub	sp, #20
    c086:	4603      	mov	r3, r0
    c088:	460d      	mov	r5, r1
    c08a:	b14c      	cbz	r4, c0a0 <__assert_func+0x28>
    c08c:	4907      	ldr	r1, [pc, #28]	; (c0ac <__assert_func+0x34>)
    c08e:	9500      	str	r5, [sp, #0]
    c090:	e9cd 1401 	strd	r1, r4, [sp, #4]
    c094:	4630      	mov	r0, r6
    c096:	4906      	ldr	r1, [pc, #24]	; (c0b0 <__assert_func+0x38>)
    c098:	f000 ff86 	bl	cfa8 <fiprintf>
    c09c:	f7fa fbc0 	bl	6820 <abort>
    c0a0:	4904      	ldr	r1, [pc, #16]	; (c0b4 <__assert_func+0x3c>)
    c0a2:	460c      	mov	r4, r1
    c0a4:	e7f3      	b.n	c08e <__assert_func+0x16>
    c0a6:	bf00      	nop
    c0a8:	20001240 	.word	0x20001240
    c0ac:	20000748 	.word	0x20000748
    c0b0:	20000758 	.word	0x20000758
    c0b4:	20000754 	.word	0x20000754

0000c0b8 <_calloc_r>:
    c0b8:	b538      	push	{r3, r4, r5, lr}
    c0ba:	fba1 1402 	umull	r1, r4, r1, r2
    c0be:	bb8c      	cbnz	r4, c124 <_calloc_r+0x6c>
    c0c0:	f7fc fb1e 	bl	8700 <_malloc_r>
    c0c4:	4605      	mov	r5, r0
    c0c6:	b1e0      	cbz	r0, c102 <_calloc_r+0x4a>
    c0c8:	f850 2c04 	ldr.w	r2, [r0, #-4]
    c0cc:	f022 0203 	bic.w	r2, r2, #3
    c0d0:	3a04      	subs	r2, #4
    c0d2:	2a24      	cmp	r2, #36	; 0x24
    c0d4:	d817      	bhi.n	c106 <_calloc_r+0x4e>
    c0d6:	2a13      	cmp	r2, #19
    c0d8:	d91a      	bls.n	c110 <_calloc_r+0x58>
    c0da:	2a1b      	cmp	r2, #27
    c0dc:	e9c0 4400 	strd	r4, r4, [r0]
    c0e0:	d91d      	bls.n	c11e <_calloc_r+0x66>
    c0e2:	2a24      	cmp	r2, #36	; 0x24
    c0e4:	bf14      	ite	ne
    c0e6:	f100 0210 	addne.w	r2, r0, #16
    c0ea:	f100 0218 	addeq.w	r2, r0, #24
    c0ee:	f04f 0300 	mov.w	r3, #0
    c0f2:	e9c0 4402 	strd	r4, r4, [r0, #8]
    c0f6:	bf04      	itt	eq
    c0f8:	6104      	streq	r4, [r0, #16]
    c0fa:	6144      	streq	r4, [r0, #20]
    c0fc:	e9c2 3300 	strd	r3, r3, [r2]
    c100:	6093      	str	r3, [r2, #8]
    c102:	4628      	mov	r0, r5
    c104:	bd38      	pop	{r3, r4, r5, pc}
    c106:	4621      	mov	r1, r4
    c108:	f7fd f98c 	bl	9424 <memset>
    c10c:	4628      	mov	r0, r5
    c10e:	bd38      	pop	{r3, r4, r5, pc}
    c110:	4602      	mov	r2, r0
    c112:	2300      	movs	r3, #0
    c114:	e9c2 3300 	strd	r3, r3, [r2]
    c118:	6093      	str	r3, [r2, #8]
    c11a:	4628      	mov	r0, r5
    c11c:	bd38      	pop	{r3, r4, r5, pc}
    c11e:	f100 0208 	add.w	r2, r0, #8
    c122:	e7f6      	b.n	c112 <_calloc_r+0x5a>
    c124:	f7fd fa6e 	bl	9604 <__errno>
    c128:	230c      	movs	r3, #12
    c12a:	2500      	movs	r5, #0
    c12c:	6003      	str	r3, [r0, #0]
    c12e:	e7e8      	b.n	c102 <_calloc_r+0x4a>

0000c130 <quorem>:
    c130:	e92d 4ff0 	stmdb	sp!, {r4, r5, r6, r7, r8, r9, sl, fp, lr}
    c134:	6903      	ldr	r3, [r0, #16]
    c136:	690c      	ldr	r4, [r1, #16]
    c138:	42a3      	cmp	r3, r4
    c13a:	b083      	sub	sp, #12
    c13c:	f2c0 8087 	blt.w	c24e <quorem+0x11e>
    c140:	3c01      	subs	r4, #1
    c142:	f101 0514 	add.w	r5, r1, #20
    c146:	00a3      	lsls	r3, r4, #2
    c148:	f100 0814 	add.w	r8, r0, #20
    c14c:	9300      	str	r3, [sp, #0]
    c14e:	f855 3024 	ldr.w	r3, [r5, r4, lsl #2]
    c152:	f858 2024 	ldr.w	r2, [r8, r4, lsl #2]
    c156:	3301      	adds	r3, #1
    c158:	4681      	mov	r9, r0
    c15a:	429a      	cmp	r2, r3
    c15c:	eb08 0084 	add.w	r0, r8, r4, lsl #2
    c160:	eb05 0784 	add.w	r7, r5, r4, lsl #2
    c164:	9001      	str	r0, [sp, #4]
    c166:	fbb2 f6f3 	udiv	r6, r2, r3
    c16a:	d33b      	bcc.n	c1e4 <quorem+0xb4>
    c16c:	f04f 0c00 	mov.w	ip, #0
    c170:	46ae      	mov	lr, r5
    c172:	4640      	mov	r0, r8
    c174:	46e2      	mov	sl, ip
    c176:	4663      	mov	r3, ip
    c178:	f85e bb04 	ldr.w	fp, [lr], #4
    c17c:	6802      	ldr	r2, [r0, #0]
    c17e:	fa1f fc8b 	uxth.w	ip, fp
    c182:	fb06 330c 	mla	r3, r6, ip, r3
    c186:	ea4f 4c13 	mov.w	ip, r3, lsr #16
    c18a:	ea4f 4b1b 	mov.w	fp, fp, lsr #16
    c18e:	fb06 cc0b 	mla	ip, r6, fp, ip
    c192:	b29b      	uxth	r3, r3
    c194:	ebaa 0303 	sub.w	r3, sl, r3
    c198:	fa1f fa8c 	uxth.w	sl, ip
    c19c:	fa13 f382 	uxtah	r3, r3, r2
    c1a0:	ebca 4212 	rsb	r2, sl, r2, lsr #16
    c1a4:	eb02 4223 	add.w	r2, r2, r3, asr #16
    c1a8:	b29b      	uxth	r3, r3
    c1aa:	ea43 4302 	orr.w	r3, r3, r2, lsl #16
    c1ae:	4577      	cmp	r7, lr
    c1b0:	f840 3b04 	str.w	r3, [r0], #4
    c1b4:	ea4f 4a22 	mov.w	sl, r2, asr #16
    c1b8:	ea4f 431c 	mov.w	r3, ip, lsr #16
    c1bc:	d2dc      	bcs.n	c178 <quorem+0x48>
    c1be:	9b00      	ldr	r3, [sp, #0]
    c1c0:	f858 3003 	ldr.w	r3, [r8, r3]
    c1c4:	b973      	cbnz	r3, c1e4 <quorem+0xb4>
    c1c6:	9b01      	ldr	r3, [sp, #4]
    c1c8:	3b04      	subs	r3, #4
    c1ca:	4598      	cmp	r8, r3
    c1cc:	d304      	bcc.n	c1d8 <quorem+0xa8>
    c1ce:	e007      	b.n	c1e0 <quorem+0xb0>
    c1d0:	4598      	cmp	r8, r3
    c1d2:	f104 34ff 	add.w	r4, r4, #4294967295
    c1d6:	d203      	bcs.n	c1e0 <quorem+0xb0>
    c1d8:	f853 2904 	ldr.w	r2, [r3], #-4
    c1dc:	2a00      	cmp	r2, #0
    c1de:	d0f7      	beq.n	c1d0 <quorem+0xa0>
    c1e0:	f8c9 4010 	str.w	r4, [r9, #16]
    c1e4:	4648      	mov	r0, r9
    c1e6:	f7fd feab 	bl	9f40 <__mcmp>
    c1ea:	2800      	cmp	r0, #0
    c1ec:	db2b      	blt.n	c246 <quorem+0x116>
    c1ee:	3601      	adds	r6, #1
    c1f0:	4641      	mov	r1, r8
    c1f2:	2300      	movs	r3, #0
    c1f4:	f855 0b04 	ldr.w	r0, [r5], #4
    c1f8:	f8d1 c000 	ldr.w	ip, [r1]
    c1fc:	b282      	uxth	r2, r0
    c1fe:	1a9a      	subs	r2, r3, r2
    c200:	0c03      	lsrs	r3, r0, #16
    c202:	fa12 f28c 	uxtah	r2, r2, ip
    c206:	ebc3 431c 	rsb	r3, r3, ip, lsr #16
    c20a:	eb03 4322 	add.w	r3, r3, r2, asr #16
    c20e:	b292      	uxth	r2, r2
    c210:	ea42 4203 	orr.w	r2, r2, r3, lsl #16
    c214:	42af      	cmp	r7, r5
    c216:	f841 2b04 	str.w	r2, [r1], #4
    c21a:	ea4f 4323 	mov.w	r3, r3, asr #16
    c21e:	d2e9      	bcs.n	c1f4 <quorem+0xc4>
    c220:	f858 2024 	ldr.w	r2, [r8, r4, lsl #2]
    c224:	eb08 0384 	add.w	r3, r8, r4, lsl #2
    c228:	b96a      	cbnz	r2, c246 <quorem+0x116>
    c22a:	3b04      	subs	r3, #4
    c22c:	4598      	cmp	r8, r3
    c22e:	d304      	bcc.n	c23a <quorem+0x10a>
    c230:	e007      	b.n	c242 <quorem+0x112>
    c232:	4598      	cmp	r8, r3
    c234:	f104 34ff 	add.w	r4, r4, #4294967295
    c238:	d203      	bcs.n	c242 <quorem+0x112>
    c23a:	f853 2904 	ldr.w	r2, [r3], #-4
    c23e:	2a00      	cmp	r2, #0
    c240:	d0f7      	beq.n	c232 <quorem+0x102>
    c242:	f8c9 4010 	str.w	r4, [r9, #16]
    c246:	4630      	mov	r0, r6
    c248:	b003      	add	sp, #12
    c24a:	e8bd 8ff0 	ldmia.w	sp!, {r4, r5, r6, r7, r8, r9, sl, fp, pc}
    c24e:	2000      	movs	r0, #0
    c250:	b003      	add	sp, #12
    c252:	e8bd 8ff0 	ldmia.w	sp!, {r4, r5, r6, r7, r8, r9, sl, fp, pc}
    c256:	bf00      	nop

0000c258 <_dtoa_r>:
    c258:	e92d 4ff0 	stmdb	sp!, {r4, r5, r6, r7, r8, r9, sl, fp, lr}
    c25c:	ed2d 8b02 	vpush	{d8}
    c260:	b08f      	sub	sp, #60	; 0x3c
    c262:	ed8d 0b02 	vstr	d0, [sp, #8]
    c266:	9101      	str	r1, [sp, #4]
    c268:	6b81      	ldr	r1, [r0, #56]	; 0x38
    c26a:	9d1a      	ldr	r5, [sp, #104]	; 0x68
    c26c:	9305      	str	r3, [sp, #20]
    c26e:	ec57 6b10 	vmov	r6, r7, d0
    c272:	4604      	mov	r4, r0
    c274:	4693      	mov	fp, r2
    c276:	b141      	cbz	r1, c28a <_dtoa_r+0x32>
    c278:	6bc2      	ldr	r2, [r0, #60]	; 0x3c
    c27a:	604a      	str	r2, [r1, #4]
    c27c:	2301      	movs	r3, #1
    c27e:	4093      	lsls	r3, r2
    c280:	608b      	str	r3, [r1, #8]
    c282:	f7fd fbfd 	bl	9a80 <_Bfree>
    c286:	2300      	movs	r3, #0
    c288:	63a3      	str	r3, [r4, #56]	; 0x38
    c28a:	f1b7 0800 	subs.w	r8, r7, #0
    c28e:	bfb4      	ite	lt
    c290:	2301      	movlt	r3, #1
    c292:	2300      	movge	r3, #0
    c294:	602b      	str	r3, [r5, #0]
    c296:	4bbe      	ldr	r3, [pc, #760]	; (c590 <_dtoa_r+0x338>)
    c298:	bfbc      	itt	lt
    c29a:	f028 4800 	biclt.w	r8, r8, #2147483648	; 0x80000000
    c29e:	f8cd 800c 	strlt.w	r8, [sp, #12]
    c2a2:	ea33 0308 	bics.w	r3, r3, r8
    c2a6:	f000 809f 	beq.w	c3e8 <_dtoa_r+0x190>
    c2aa:	ed9d 8b02 	vldr	d8, [sp, #8]
    c2ae:	eeb5 8b40 	vcmp.f64	d8, #0.0
    c2b2:	eef1 fa10 	vmrs	APSR_nzcv, fpscr
    c2b6:	d111      	bne.n	c2dc <_dtoa_r+0x84>
    c2b8:	9a05      	ldr	r2, [sp, #20]
    c2ba:	2301      	movs	r3, #1
    c2bc:	6013      	str	r3, [r2, #0]
    c2be:	9b1b      	ldr	r3, [sp, #108]	; 0x6c
    c2c0:	2b00      	cmp	r3, #0
    c2c2:	f000 823f 	beq.w	c744 <_dtoa_r+0x4ec>
    c2c6:	4bb3      	ldr	r3, [pc, #716]	; (c594 <_dtoa_r+0x33c>)
    c2c8:	9a1b      	ldr	r2, [sp, #108]	; 0x6c
    c2ca:	6013      	str	r3, [r2, #0]
    c2cc:	3b01      	subs	r3, #1
    c2ce:	9300      	str	r3, [sp, #0]
    c2d0:	9800      	ldr	r0, [sp, #0]
    c2d2:	b00f      	add	sp, #60	; 0x3c
    c2d4:	ecbd 8b02 	vpop	{d8}
    c2d8:	e8bd 8ff0 	ldmia.w	sp!, {r4, r5, r6, r7, r8, r9, sl, fp, pc}
    c2dc:	aa0c      	add	r2, sp, #48	; 0x30
    c2de:	a90d      	add	r1, sp, #52	; 0x34
    c2e0:	4620      	mov	r0, r4
    c2e2:	eeb0 0b48 	vmov.f64	d0, d8
    c2e6:	f7fd fef7 	bl	a0d8 <__d2b>
    c2ea:	ea5f 5318 	movs.w	r3, r8, lsr #20
    c2ee:	4605      	mov	r5, r0
    c2f0:	f040 8092 	bne.w	c418 <_dtoa_r+0x1c0>
    c2f4:	e9dd 130c 	ldrd	r1, r3, [sp, #48]	; 0x30
    c2f8:	440b      	add	r3, r1
    c2fa:	f203 4232 	addw	r2, r3, #1074	; 0x432
    c2fe:	2a20      	cmp	r2, #32
    c300:	f340 82fa 	ble.w	c8f8 <_dtoa_r+0x6a0>
    c304:	f1c2 0240 	rsb	r2, r2, #64	; 0x40
    c308:	fa08 f802 	lsl.w	r8, r8, r2
    c30c:	f203 4212 	addw	r2, r3, #1042	; 0x412
    c310:	40d6      	lsrs	r6, r2
    c312:	ea48 0206 	orr.w	r2, r8, r6
    c316:	ee07 2a10 	vmov	s14, r2
    c31a:	eeb8 7b47 	vcvt.f64.u32	d7, s14
    c31e:	1e58      	subs	r0, r3, #1
    c320:	ee17 6a90 	vmov	r6, s15
    c324:	ec53 2b17 	vmov	r2, r3, d7
    c328:	f04f 0a01 	mov.w	sl, #1
    c32c:	f1a6 73f8 	sub.w	r3, r6, #32505856	; 0x1f00000
    c330:	ed9f 3b91 	vldr	d3, [pc, #580]	; c578 <_dtoa_r+0x320>
    c334:	ed9f 7b92 	vldr	d7, [pc, #584]	; c580 <_dtoa_r+0x328>
    c338:	ed9f 5b93 	vldr	d5, [pc, #588]	; c588 <_dtoa_r+0x330>
    c33c:	ee06 0a90 	vmov	s13, r0
    c340:	ec43 2b12 	vmov	d2, r2, r3
    c344:	eeb8 4be6 	vcvt.f64.s32	d4, s13
    c348:	eeb7 6b08 	vmov.f64	d6, #120	; 0x3fc00000  1.5
    c34c:	ee32 6b46 	vsub.f64	d6, d2, d6
    c350:	eea6 7b03 	vfma.f64	d7, d6, d3
    c354:	eea4 7b05 	vfma.f64	d7, d4, d5
    c358:	eefd 6bc7 	vcvt.s32.f64	s13, d7
    c35c:	eeb5 7bc0 	vcmpe.f64	d7, #0.0
    c360:	eef1 fa10 	vmrs	APSR_nzcv, fpscr
    c364:	ee16 7a90 	vmov	r7, s13
    c368:	d508      	bpl.n	c37c <_dtoa_r+0x124>
    c36a:	eeb8 6be6 	vcvt.f64.s32	d6, s13
    c36e:	eeb4 6b47 	vcmp.f64	d6, d7
    c372:	eef1 fa10 	vmrs	APSR_nzcv, fpscr
    c376:	bf18      	it	ne
    c378:	f107 37ff 	addne.w	r7, r7, #4294967295
    c37c:	2f16      	cmp	r7, #22
    c37e:	f200 8145 	bhi.w	c60c <_dtoa_r+0x3b4>
    c382:	4b85      	ldr	r3, [pc, #532]	; (c598 <_dtoa_r+0x340>)
    c384:	eb03 03c7 	add.w	r3, r3, r7, lsl #3
    c388:	ed93 7b00 	vldr	d7, [r3]
    c38c:	eeb4 8bc7 	vcmpe.f64	d8, d7
    c390:	eef1 fa10 	vmrs	APSR_nzcv, fpscr
    c394:	d557      	bpl.n	c446 <_dtoa_r+0x1ee>
    c396:	1a09      	subs	r1, r1, r0
    c398:	2300      	movs	r3, #0
    c39a:	f1b1 0801 	subs.w	r8, r1, #1
    c39e:	f107 37ff 	add.w	r7, r7, #4294967295
    c3a2:	930a      	str	r3, [sp, #40]	; 0x28
    c3a4:	f100 8139 	bmi.w	c61a <_dtoa_r+0x3c2>
    c3a8:	2300      	movs	r3, #0
    c3aa:	9306      	str	r3, [sp, #24]
    c3ac:	2f00      	cmp	r7, #0
    c3ae:	da52      	bge.n	c456 <_dtoa_r+0x1fe>
    c3b0:	9b06      	ldr	r3, [sp, #24]
    c3b2:	9704      	str	r7, [sp, #16]
    c3b4:	1bdb      	subs	r3, r3, r7
    c3b6:	9306      	str	r3, [sp, #24]
    c3b8:	427b      	negs	r3, r7
    c3ba:	9308      	str	r3, [sp, #32]
    c3bc:	9b01      	ldr	r3, [sp, #4]
    c3be:	2b09      	cmp	r3, #9
    c3c0:	f04f 0700 	mov.w	r7, #0
    c3c4:	d84e      	bhi.n	c464 <_dtoa_r+0x20c>
    c3c6:	2b05      	cmp	r3, #5
    c3c8:	f340 829d 	ble.w	c906 <_dtoa_r+0x6ae>
    c3cc:	3b04      	subs	r3, #4
    c3ce:	9301      	str	r3, [sp, #4]
    c3d0:	2600      	movs	r6, #0
    c3d2:	9b01      	ldr	r3, [sp, #4]
    c3d4:	1e9a      	subs	r2, r3, #2
    c3d6:	2a03      	cmp	r2, #3
    c3d8:	f200 8125 	bhi.w	c626 <_dtoa_r+0x3ce>
    c3dc:	e8df f012 	tbh	[pc, r2, lsl #1]
    c3e0:	03a703aa 	.word	0x03a703aa
    c3e4:	037e039d 	.word	0x037e039d
    c3e8:	9a05      	ldr	r2, [sp, #20]
    c3ea:	f3c8 0813 	ubfx	r8, r8, #0, #20
    c3ee:	f242 730f 	movw	r3, #9999	; 0x270f
    c3f2:	ea58 0806 	orrs.w	r8, r8, r6
    c3f6:	6013      	str	r3, [r2, #0]
    c3f8:	d11e      	bne.n	c438 <_dtoa_r+0x1e0>
    c3fa:	9b1b      	ldr	r3, [sp, #108]	; 0x6c
    c3fc:	2b00      	cmp	r3, #0
    c3fe:	f000 8591 	beq.w	cf24 <_dtoa_r+0xccc>
    c402:	4b66      	ldr	r3, [pc, #408]	; (c59c <_dtoa_r+0x344>)
    c404:	9300      	str	r3, [sp, #0]
    c406:	3308      	adds	r3, #8
    c408:	9a1b      	ldr	r2, [sp, #108]	; 0x6c
    c40a:	9800      	ldr	r0, [sp, #0]
    c40c:	6013      	str	r3, [r2, #0]
    c40e:	b00f      	add	sp, #60	; 0x3c
    c410:	ecbd 8b02 	vpop	{d8}
    c414:	e8bd 8ff0 	ldmia.w	sp!, {r4, r5, r6, r7, r8, r9, sl, fp, pc}
    c418:	ee18 6a90 	vmov	r6, s17
    c41c:	f3c6 0613 	ubfx	r6, r6, #0, #20
    c420:	f2a3 30ff 	subw	r0, r3, #1023	; 0x3ff
    c424:	ec53 2b18 	vmov	r2, r3, d8
    c428:	f046 537f 	orr.w	r3, r6, #1069547520	; 0x3fc00000
    c42c:	990c      	ldr	r1, [sp, #48]	; 0x30
    c42e:	f04f 0a00 	mov.w	sl, #0
    c432:	f443 1340 	orr.w	r3, r3, #3145728	; 0x300000
    c436:	e77b      	b.n	c330 <_dtoa_r+0xd8>
    c438:	9b1b      	ldr	r3, [sp, #108]	; 0x6c
    c43a:	2b00      	cmp	r3, #0
    c43c:	f040 833b 	bne.w	cab6 <_dtoa_r+0x85e>
    c440:	4b57      	ldr	r3, [pc, #348]	; (c5a0 <_dtoa_r+0x348>)
    c442:	9300      	str	r3, [sp, #0]
    c444:	e744      	b.n	c2d0 <_dtoa_r+0x78>
    c446:	1a09      	subs	r1, r1, r0
    c448:	2300      	movs	r3, #0
    c44a:	f1b1 0801 	subs.w	r8, r1, #1
    c44e:	930a      	str	r3, [sp, #40]	; 0x28
    c450:	f100 80e3 	bmi.w	c61a <_dtoa_r+0x3c2>
    c454:	9306      	str	r3, [sp, #24]
    c456:	2300      	movs	r3, #0
    c458:	9308      	str	r3, [sp, #32]
    c45a:	9b01      	ldr	r3, [sp, #4]
    c45c:	9704      	str	r7, [sp, #16]
    c45e:	2b09      	cmp	r3, #9
    c460:	44b8      	add	r8, r7
    c462:	d9b0      	bls.n	c3c6 <_dtoa_r+0x16e>
    c464:	2300      	movs	r3, #0
    c466:	2601      	movs	r6, #1
    c468:	9301      	str	r3, [sp, #4]
    c46a:	9607      	str	r6, [sp, #28]
    c46c:	f04f 39ff 	mov.w	r9, #4294967295
    c470:	469b      	mov	fp, r3
    c472:	2100      	movs	r1, #0
    c474:	63e1      	str	r1, [r4, #60]	; 0x3c
    c476:	f8cd 902c 	str.w	r9, [sp, #44]	; 0x2c
    c47a:	4620      	mov	r0, r4
    c47c:	f7fd fada 	bl	9a34 <_Balloc>
    c480:	9000      	str	r0, [sp, #0]
    c482:	2800      	cmp	r0, #0
    c484:	f000 8540 	beq.w	cf08 <_dtoa_r+0xcb0>
    c488:	9b00      	ldr	r3, [sp, #0]
    c48a:	63a3      	str	r3, [r4, #56]	; 0x38
    c48c:	f1b9 0f0e 	cmp.w	r9, #14
    c490:	f200 80dc 	bhi.w	c64c <_dtoa_r+0x3f4>
    c494:	2e00      	cmp	r6, #0
    c496:	f000 80d9 	beq.w	c64c <_dtoa_r+0x3f4>
    c49a:	9b04      	ldr	r3, [sp, #16]
    c49c:	2b00      	cmp	r3, #0
    c49e:	f340 83de 	ble.w	cc5e <_dtoa_r+0xa06>
    c4a2:	4a3d      	ldr	r2, [pc, #244]	; (c598 <_dtoa_r+0x340>)
    c4a4:	f003 010f 	and.w	r1, r3, #15
    c4a8:	eb02 02c1 	add.w	r2, r2, r1, lsl #3
    c4ac:	ed92 7b00 	vldr	d7, [r2]
    c4b0:	111a      	asrs	r2, r3, #4
    c4b2:	05db      	lsls	r3, r3, #23
    c4b4:	f140 8382 	bpl.w	cbbc <_dtoa_r+0x964>
    c4b8:	493a      	ldr	r1, [pc, #232]	; (c5a4 <_dtoa_r+0x34c>)
    c4ba:	ed91 6b08 	vldr	d6, [r1, #32]
    c4be:	f002 020f 	and.w	r2, r2, #15
    c4c2:	2003      	movs	r0, #3
    c4c4:	ee88 5b06 	vdiv.f64	d5, d8, d6
    c4c8:	b15a      	cbz	r2, c4e2 <_dtoa_r+0x28a>
    c4ca:	4936      	ldr	r1, [pc, #216]	; (c5a4 <_dtoa_r+0x34c>)
    c4cc:	07d6      	lsls	r6, r2, #31
    c4ce:	d504      	bpl.n	c4da <_dtoa_r+0x282>
    c4d0:	ed91 6b00 	vldr	d6, [r1]
    c4d4:	3001      	adds	r0, #1
    c4d6:	ee27 7b06 	vmul.f64	d7, d7, d6
    c4da:	1052      	asrs	r2, r2, #1
    c4dc:	f101 0108 	add.w	r1, r1, #8
    c4e0:	d1f4      	bne.n	c4cc <_dtoa_r+0x274>
    c4e2:	ee85 6b07 	vdiv.f64	d6, d5, d7
    c4e6:	9b0a      	ldr	r3, [sp, #40]	; 0x28
    c4e8:	b13b      	cbz	r3, c4fa <_dtoa_r+0x2a2>
    c4ea:	eeb7 7b00 	vmov.f64	d7, #112	; 0x3f800000  1.0
    c4ee:	eeb4 6bc7 	vcmpe.f64	d6, d7
    c4f2:	eef1 fa10 	vmrs	APSR_nzcv, fpscr
    c4f6:	f100 84ae 	bmi.w	ce56 <_dtoa_r+0xbfe>
    c4fa:	ee07 0a90 	vmov	s15, r0
    c4fe:	eeb8 5be7 	vcvt.f64.s32	d5, s15
    c502:	eeb1 7b0c 	vmov.f64	d7, #28	; 0x40e00000  7.0
    c506:	eea5 7b06 	vfma.f64	d7, d5, d6
    c50a:	ee17 2a90 	vmov	r2, s15
    c50e:	ec51 0b17 	vmov	r0, r1, d7
    c512:	f1a2 7150 	sub.w	r1, r2, #54525952	; 0x3400000
    c516:	f1b9 0f00 	cmp.w	r9, #0
    c51a:	f000 8388 	beq.w	cc2e <_dtoa_r+0x9d6>
    c51e:	9e04      	ldr	r6, [sp, #16]
    c520:	464a      	mov	r2, r9
    c522:	9b07      	ldr	r3, [sp, #28]
    c524:	2b00      	cmp	r3, #0
    c526:	f000 8447 	beq.w	cdb8 <_dtoa_r+0xb60>
    c52a:	eeb6 3b00 	vmov.f64	d3, #96	; 0x3f000000  0.5
    c52e:	4b1a      	ldr	r3, [pc, #104]	; (c598 <_dtoa_r+0x340>)
    c530:	eefd 4bc6 	vcvt.s32.f64	s9, d6
    c534:	eb03 0cc2 	add.w	ip, r3, r2, lsl #3
    c538:	eeb8 7be4 	vcvt.f64.s32	d7, s9
    c53c:	ee36 7b47 	vsub.f64	d7, d6, d7
    c540:	ed1c 6b02 	vldr	d6, [ip, #-8]
    c544:	ee83 5b06 	vdiv.f64	d5, d3, d6
    c548:	ec41 0b16 	vmov	d6, r0, r1
    c54c:	ee14 0a90 	vmov	r0, s9
    c550:	ee35 5b46 	vsub.f64	d5, d5, d6
    c554:	9900      	ldr	r1, [sp, #0]
    c556:	eeb4 5bc7 	vcmpe.f64	d5, d7
    c55a:	3030      	adds	r0, #48	; 0x30
    c55c:	eef1 fa10 	vmrs	APSR_nzcv, fpscr
    c560:	f801 0b01 	strb.w	r0, [r1], #1
    c564:	f300 84ac 	bgt.w	cec0 <_dtoa_r+0xc68>
    c568:	eeb7 2b00 	vmov.f64	d2, #112	; 0x3f800000  1.0
    c56c:	eeb2 4b04 	vmov.f64	d4, #36	; 0x41200000  10.0
    c570:	f04f 0c00 	mov.w	ip, #0
    c574:	e031      	b.n	c5da <_dtoa_r+0x382>
    c576:	bf00      	nop
    c578:	636f4361 	.word	0x636f4361
    c57c:	3fd287a7 	.word	0x3fd287a7
    c580:	8b60c8b3 	.word	0x8b60c8b3
    c584:	3fc68a28 	.word	0x3fc68a28
    c588:	509f79fb 	.word	0x509f79fb
    c58c:	3fd34413 	.word	0x3fd34413
    c590:	7ff00000 	.word	0x7ff00000
    c594:	200009a9 	.word	0x200009a9
    c598:	200002a8 	.word	0x200002a8
    c59c:	200008fc 	.word	0x200008fc
    c5a0:	20000908 	.word	0x20000908
    c5a4:	20000280 	.word	0x20000280
    c5a8:	f10c 0c01 	add.w	ip, ip, #1
    c5ac:	4594      	cmp	ip, r2
    c5ae:	da4d      	bge.n	c64c <_dtoa_r+0x3f4>
    c5b0:	ee27 7b04 	vmul.f64	d7, d7, d4
    c5b4:	ee25 5b04 	vmul.f64	d5, d5, d4
    c5b8:	eefd 6bc7 	vcvt.s32.f64	s13, d7
    c5bc:	ee16 3a90 	vmov	r3, s13
    c5c0:	eeb8 3be6 	vcvt.f64.s32	d3, s13
    c5c4:	3330      	adds	r3, #48	; 0x30
    c5c6:	ee37 7b43 	vsub.f64	d7, d7, d3
    c5ca:	eeb4 7bc5 	vcmpe.f64	d7, d5
    c5ce:	eef1 fa10 	vmrs	APSR_nzcv, fpscr
    c5d2:	f801 3b01 	strb.w	r3, [r1], #1
    c5d6:	f100 8473 	bmi.w	cec0 <_dtoa_r+0xc68>
    c5da:	ee32 6b47 	vsub.f64	d6, d2, d7
    c5de:	eeb4 6bc5 	vcmpe.f64	d6, d5
    c5e2:	eef1 fa10 	vmrs	APSR_nzcv, fpscr
    c5e6:	d5df      	bpl.n	c5a8 <_dtoa_r+0x350>
    c5e8:	9a00      	ldr	r2, [sp, #0]
    c5ea:	9604      	str	r6, [sp, #16]
    c5ec:	e002      	b.n	c5f4 <_dtoa_r+0x39c>
    c5ee:	428a      	cmp	r2, r1
    c5f0:	f000 8450 	beq.w	ce94 <_dtoa_r+0xc3c>
    c5f4:	4689      	mov	r9, r1
    c5f6:	f811 3d01 	ldrb.w	r3, [r1, #-1]!
    c5fa:	2b39      	cmp	r3, #57	; 0x39
    c5fc:	d0f7      	beq.n	c5ee <_dtoa_r+0x396>
    c5fe:	3301      	adds	r3, #1
    c600:	b2db      	uxtb	r3, r3
    c602:	700b      	strb	r3, [r1, #0]
    c604:	9b04      	ldr	r3, [sp, #16]
    c606:	3301      	adds	r3, #1
    c608:	9304      	str	r3, [sp, #16]
    c60a:	e155      	b.n	c8b8 <_dtoa_r+0x660>
    c60c:	1a09      	subs	r1, r1, r0
    c60e:	2301      	movs	r3, #1
    c610:	f1b1 0801 	subs.w	r8, r1, #1
    c614:	930a      	str	r3, [sp, #40]	; 0x28
    c616:	f57f aec7 	bpl.w	c3a8 <_dtoa_r+0x150>
    c61a:	f1c1 0301 	rsb	r3, r1, #1
    c61e:	9306      	str	r3, [sp, #24]
    c620:	f04f 0800 	mov.w	r8, #0
    c624:	e6c2      	b.n	c3ac <_dtoa_r+0x154>
    c626:	2600      	movs	r6, #0
    c628:	63e6      	str	r6, [r4, #60]	; 0x3c
    c62a:	4631      	mov	r1, r6
    c62c:	4620      	mov	r0, r4
    c62e:	f7fd fa01 	bl	9a34 <_Balloc>
    c632:	9000      	str	r0, [sp, #0]
    c634:	2800      	cmp	r0, #0
    c636:	f000 8467 	beq.w	cf08 <_dtoa_r+0xcb0>
    c63a:	9b00      	ldr	r3, [sp, #0]
    c63c:	63a3      	str	r3, [r4, #56]	; 0x38
    c63e:	f04f 33ff 	mov.w	r3, #4294967295
    c642:	930b      	str	r3, [sp, #44]	; 0x2c
    c644:	4699      	mov	r9, r3
    c646:	2301      	movs	r3, #1
    c648:	46b3      	mov	fp, r6
    c64a:	9307      	str	r3, [sp, #28]
    c64c:	9a0d      	ldr	r2, [sp, #52]	; 0x34
    c64e:	2a00      	cmp	r2, #0
    c650:	db55      	blt.n	c6fe <_dtoa_r+0x4a6>
    c652:	9904      	ldr	r1, [sp, #16]
    c654:	290e      	cmp	r1, #14
    c656:	dc52      	bgt.n	c6fe <_dtoa_r+0x4a6>
    c658:	4bb7      	ldr	r3, [pc, #732]	; (c938 <_dtoa_r+0x6e0>)
    c65a:	f1bb 0f00 	cmp.w	fp, #0
    c65e:	eb03 03c1 	add.w	r3, r3, r1, lsl #3
    c662:	ed93 6b00 	vldr	d6, [r3]
    c666:	da15      	bge.n	c694 <_dtoa_r+0x43c>
    c668:	f1b9 0f00 	cmp.w	r9, #0
    c66c:	dc12      	bgt.n	c694 <_dtoa_r+0x43c>
    c66e:	f040 82f2 	bne.w	cc56 <_dtoa_r+0x9fe>
    c672:	eeb1 7b04 	vmov.f64	d7, #20	; 0x40a00000  5.0
    c676:	ee26 7b07 	vmul.f64	d7, d6, d7
    c67a:	eeb4 8bc7 	vcmpe.f64	d8, d7
    c67e:	eef1 fa10 	vmrs	APSR_nzcv, fpscr
    c682:	46ca      	mov	sl, r9
    c684:	464e      	mov	r6, r9
    c686:	f200 826d 	bhi.w	cb64 <_dtoa_r+0x90c>
    c68a:	f8dd 8000 	ldr.w	r8, [sp]
    c68e:	ea6f 0b0b 	mvn.w	fp, fp
    c692:	e270      	b.n	cb76 <_dtoa_r+0x91e>
    c694:	ee88 7b06 	vdiv.f64	d7, d8, d6
    c698:	eebd 7bc7 	vcvt.s32.f64	s14, d7
    c69c:	9900      	ldr	r1, [sp, #0]
    c69e:	ee17 3a10 	vmov	r3, s14
    c6a2:	f1b9 0f01 	cmp.w	r9, #1
    c6a6:	f103 0330 	add.w	r3, r3, #48	; 0x30
    c6aa:	eeb8 5bc7 	vcvt.f64.s32	d5, s14
    c6ae:	f801 3b01 	strb.w	r3, [r1], #1
    c6b2:	eea5 8b46 	vfms.f64	d8, d5, d6
    c6b6:	f000 8334 	beq.w	cd22 <_dtoa_r+0xaca>
    c6ba:	eeb2 4b04 	vmov.f64	d4, #36	; 0x41200000  10.0
    c6be:	2301      	movs	r3, #1
    c6c0:	e011      	b.n	c6e6 <_dtoa_r+0x48e>
    c6c2:	ee88 7b06 	vdiv.f64	d7, d8, d6
    c6c6:	eebd 7bc7 	vcvt.s32.f64	s14, d7
    c6ca:	3301      	adds	r3, #1
    c6cc:	ee17 2a10 	vmov	r2, s14
    c6d0:	454b      	cmp	r3, r9
    c6d2:	f102 0230 	add.w	r2, r2, #48	; 0x30
    c6d6:	eeb8 5bc7 	vcvt.f64.s32	d5, s14
    c6da:	f801 2b01 	strb.w	r2, [r1], #1
    c6de:	eea5 8b46 	vfms.f64	d8, d5, d6
    c6e2:	f000 831e 	beq.w	cd22 <_dtoa_r+0xaca>
    c6e6:	ee28 8b04 	vmul.f64	d8, d8, d4
    c6ea:	eeb5 8b40 	vcmp.f64	d8, #0.0
    c6ee:	eef1 fa10 	vmrs	APSR_nzcv, fpscr
    c6f2:	d1e6      	bne.n	c6c2 <_dtoa_r+0x46a>
    c6f4:	9b04      	ldr	r3, [sp, #16]
    c6f6:	3301      	adds	r3, #1
    c6f8:	9304      	str	r3, [sp, #16]
    c6fa:	4689      	mov	r9, r1
    c6fc:	e0dc      	b.n	c8b8 <_dtoa_r+0x660>
    c6fe:	9b07      	ldr	r3, [sp, #28]
    c700:	b343      	cbz	r3, c754 <_dtoa_r+0x4fc>
    c702:	9b01      	ldr	r3, [sp, #4]
    c704:	2b01      	cmp	r3, #1
    c706:	f340 8276 	ble.w	cbf6 <_dtoa_r+0x99e>
    c70a:	9b08      	ldr	r3, [sp, #32]
    c70c:	f109 3aff 	add.w	sl, r9, #4294967295
    c710:	4553      	cmp	r3, sl
    c712:	f280 823f 	bge.w	cb94 <_dtoa_r+0x93c>
    c716:	9b08      	ldr	r3, [sp, #32]
    c718:	f8cd a020 	str.w	sl, [sp, #32]
    c71c:	ebaa 0203 	sub.w	r2, sl, r3
    c720:	4417      	add	r7, r2
    c722:	f04f 0a00 	mov.w	sl, #0
    c726:	f1b9 0f00 	cmp.w	r9, #0
    c72a:	f2c0 8325 	blt.w	cd78 <_dtoa_r+0xb20>
    c72e:	9b06      	ldr	r3, [sp, #24]
    c730:	9309      	str	r3, [sp, #36]	; 0x24
    c732:	444b      	add	r3, r9
    c734:	44c8      	add	r8, r9
    c736:	9306      	str	r3, [sp, #24]
    c738:	2101      	movs	r1, #1
    c73a:	4620      	mov	r0, r4
    c73c:	f7fd fa4c 	bl	9bd8 <__i2b>
    c740:	4606      	mov	r6, r0
    c742:	e00c      	b.n	c75e <_dtoa_r+0x506>
    c744:	4b7d      	ldr	r3, [pc, #500]	; (c93c <_dtoa_r+0x6e4>)
    c746:	9300      	str	r3, [sp, #0]
    c748:	9800      	ldr	r0, [sp, #0]
    c74a:	b00f      	add	sp, #60	; 0x3c
    c74c:	ecbd 8b02 	vpop	{d8}
    c750:	e8bd 8ff0 	ldmia.w	sp!, {r4, r5, r6, r7, r8, r9, sl, fp, pc}
    c754:	9b06      	ldr	r3, [sp, #24]
    c756:	f8dd a020 	ldr.w	sl, [sp, #32]
    c75a:	9e07      	ldr	r6, [sp, #28]
    c75c:	9309      	str	r3, [sp, #36]	; 0x24
    c75e:	9b09      	ldr	r3, [sp, #36]	; 0x24
    c760:	b16b      	cbz	r3, c77e <_dtoa_r+0x526>
    c762:	f1b8 0f00 	cmp.w	r8, #0
    c766:	dd0a      	ble.n	c77e <_dtoa_r+0x526>
    c768:	4543      	cmp	r3, r8
    c76a:	9906      	ldr	r1, [sp, #24]
    c76c:	461a      	mov	r2, r3
    c76e:	bfa8      	it	ge
    c770:	4642      	movge	r2, r8
    c772:	1a89      	subs	r1, r1, r2
    c774:	1a9b      	subs	r3, r3, r2
    c776:	9106      	str	r1, [sp, #24]
    c778:	9309      	str	r3, [sp, #36]	; 0x24
    c77a:	eba8 0802 	sub.w	r8, r8, r2
    c77e:	9b08      	ldr	r3, [sp, #32]
    c780:	b163      	cbz	r3, c79c <_dtoa_r+0x544>
    c782:	9b07      	ldr	r3, [sp, #28]
    c784:	2b00      	cmp	r3, #0
    c786:	f000 82a7 	beq.w	ccd8 <_dtoa_r+0xa80>
    c78a:	f1ba 0f00 	cmp.w	sl, #0
    c78e:	f300 8204 	bgt.w	cb9a <_dtoa_r+0x942>
    c792:	9b08      	ldr	r3, [sp, #32]
    c794:	ebb3 020a 	subs.w	r2, r3, sl
    c798:	f040 82ff 	bne.w	cd9a <_dtoa_r+0xb42>
    c79c:	2101      	movs	r1, #1
    c79e:	4620      	mov	r0, r4
    c7a0:	f7fd fa1a 	bl	9bd8 <__i2b>
    c7a4:	2f00      	cmp	r7, #0
    c7a6:	4682      	mov	sl, r0
    c7a8:	f300 80af 	bgt.w	c90a <_dtoa_r+0x6b2>
    c7ac:	9b01      	ldr	r3, [sp, #4]
    c7ae:	2b01      	cmp	r3, #1
    c7b0:	f340 8187 	ble.w	cac2 <_dtoa_r+0x86a>
    c7b4:	2300      	movs	r3, #0
    c7b6:	9308      	str	r3, [sp, #32]
    c7b8:	2001      	movs	r0, #1
    c7ba:	2f00      	cmp	r7, #0
    c7bc:	f040 80b1 	bne.w	c922 <_dtoa_r+0x6ca>
    c7c0:	4440      	add	r0, r8
    c7c2:	f010 001f 	ands.w	r0, r0, #31
    c7c6:	f000 817a 	beq.w	cabe <_dtoa_r+0x866>
    c7ca:	f1c0 0220 	rsb	r2, r0, #32
    c7ce:	2a04      	cmp	r2, #4
    c7d0:	f300 8088 	bgt.w	c8e4 <_dtoa_r+0x68c>
    c7d4:	f040 81f6 	bne.w	cbc4 <_dtoa_r+0x96c>
    c7d8:	9b06      	ldr	r3, [sp, #24]
    c7da:	2b00      	cmp	r3, #0
    c7dc:	dd05      	ble.n	c7ea <_dtoa_r+0x592>
    c7de:	4629      	mov	r1, r5
    c7e0:	461a      	mov	r2, r3
    c7e2:	4620      	mov	r0, r4
    c7e4:	f7fd fb34 	bl	9e50 <__lshift>
    c7e8:	4605      	mov	r5, r0
    c7ea:	f1b8 0f00 	cmp.w	r8, #0
    c7ee:	dd05      	ble.n	c7fc <_dtoa_r+0x5a4>
    c7f0:	4651      	mov	r1, sl
    c7f2:	4642      	mov	r2, r8
    c7f4:	4620      	mov	r0, r4
    c7f6:	f7fd fb2b 	bl	9e50 <__lshift>
    c7fa:	4682      	mov	sl, r0
    c7fc:	9b0a      	ldr	r3, [sp, #40]	; 0x28
    c7fe:	2b00      	cmp	r3, #0
    c800:	f040 813f 	bne.w	ca82 <_dtoa_r+0x82a>
    c804:	f1b9 0f00 	cmp.w	r9, #0
    c808:	f340 8125 	ble.w	ca56 <_dtoa_r+0x7fe>
    c80c:	9b07      	ldr	r3, [sp, #28]
    c80e:	2b00      	cmp	r3, #0
    c810:	f040 80a3 	bne.w	c95a <_dtoa_r+0x702>
    c814:	9b04      	ldr	r3, [sp, #16]
    c816:	3301      	adds	r3, #1
    c818:	9304      	str	r3, [sp, #16]
    c81a:	f8dd 8000 	ldr.w	r8, [sp]
    c81e:	2701      	movs	r7, #1
    c820:	e007      	b.n	c832 <_dtoa_r+0x5da>
    c822:	4629      	mov	r1, r5
    c824:	2300      	movs	r3, #0
    c826:	220a      	movs	r2, #10
    c828:	4620      	mov	r0, r4
    c82a:	f7fd f933 	bl	9a94 <__multadd>
    c82e:	3701      	adds	r7, #1
    c830:	4605      	mov	r5, r0
    c832:	4651      	mov	r1, sl
    c834:	4628      	mov	r0, r5
    c836:	f7ff fc7b 	bl	c130 <quorem>
    c83a:	45b9      	cmp	r9, r7
    c83c:	f100 0030 	add.w	r0, r0, #48	; 0x30
    c840:	f808 0b01 	strb.w	r0, [r8], #1
    c844:	dced      	bgt.n	c822 <_dtoa_r+0x5ca>
    c846:	f1b9 0f00 	cmp.w	r9, #0
    c84a:	9a00      	ldr	r2, [sp, #0]
    c84c:	bfcc      	ite	gt
    c84e:	46cb      	movgt	fp, r9
    c850:	f04f 0b01 	movle.w	fp, #1
    c854:	4603      	mov	r3, r0
    c856:	4493      	add	fp, r2
    c858:	2700      	movs	r7, #0
    c85a:	4629      	mov	r1, r5
    c85c:	2201      	movs	r2, #1
    c85e:	4620      	mov	r0, r4
    c860:	9301      	str	r3, [sp, #4]
    c862:	f7fd faf5 	bl	9e50 <__lshift>
    c866:	4651      	mov	r1, sl
    c868:	4605      	mov	r5, r0
    c86a:	f7fd fb69 	bl	9f40 <__mcmp>
    c86e:	2800      	cmp	r0, #0
    c870:	f340 81af 	ble.w	cbd2 <_dtoa_r+0x97a>
    c874:	f81b 3c01 	ldrb.w	r3, [fp, #-1]
    c878:	9a00      	ldr	r2, [sp, #0]
    c87a:	f10b 3bff 	add.w	fp, fp, #4294967295
    c87e:	e004      	b.n	c88a <_dtoa_r+0x632>
    c880:	455a      	cmp	r2, fp
    c882:	f000 81b1 	beq.w	cbe8 <_dtoa_r+0x990>
    c886:	f81b 3d01 	ldrb.w	r3, [fp, #-1]!
    c88a:	2b39      	cmp	r3, #57	; 0x39
    c88c:	f10b 0901 	add.w	r9, fp, #1
    c890:	d0f6      	beq.n	c880 <_dtoa_r+0x628>
    c892:	3301      	adds	r3, #1
    c894:	f88b 3000 	strb.w	r3, [fp]
    c898:	4651      	mov	r1, sl
    c89a:	4620      	mov	r0, r4
    c89c:	f7fd f8f0 	bl	9a80 <_Bfree>
    c8a0:	b156      	cbz	r6, c8b8 <_dtoa_r+0x660>
    c8a2:	b12f      	cbz	r7, c8b0 <_dtoa_r+0x658>
    c8a4:	42b7      	cmp	r7, r6
    c8a6:	d003      	beq.n	c8b0 <_dtoa_r+0x658>
    c8a8:	4639      	mov	r1, r7
    c8aa:	4620      	mov	r0, r4
    c8ac:	f7fd f8e8 	bl	9a80 <_Bfree>
    c8b0:	4631      	mov	r1, r6
    c8b2:	4620      	mov	r0, r4
    c8b4:	f7fd f8e4 	bl	9a80 <_Bfree>
    c8b8:	4629      	mov	r1, r5
    c8ba:	4620      	mov	r0, r4
    c8bc:	f7fd f8e0 	bl	9a80 <_Bfree>
    c8c0:	2300      	movs	r3, #0
    c8c2:	f889 3000 	strb.w	r3, [r9]
    c8c6:	e9dd 2304 	ldrd	r2, r3, [sp, #16]
    c8ca:	601a      	str	r2, [r3, #0]
    c8cc:	9b1b      	ldr	r3, [sp, #108]	; 0x6c
    c8ce:	2b00      	cmp	r3, #0
    c8d0:	f43f acfe 	beq.w	c2d0 <_dtoa_r+0x78>
    c8d4:	9800      	ldr	r0, [sp, #0]
    c8d6:	f8c3 9000 	str.w	r9, [r3]
    c8da:	b00f      	add	sp, #60	; 0x3c
    c8dc:	ecbd 8b02 	vpop	{d8}
    c8e0:	e8bd 8ff0 	ldmia.w	sp!, {r4, r5, r6, r7, r8, r9, sl, fp, pc}
    c8e4:	f1c0 001c 	rsb	r0, r0, #28
    c8e8:	9b06      	ldr	r3, [sp, #24]
    c8ea:	4403      	add	r3, r0
    c8ec:	9306      	str	r3, [sp, #24]
    c8ee:	9b09      	ldr	r3, [sp, #36]	; 0x24
    c8f0:	4403      	add	r3, r0
    c8f2:	9309      	str	r3, [sp, #36]	; 0x24
    c8f4:	4480      	add	r8, r0
    c8f6:	e76f      	b.n	c7d8 <_dtoa_r+0x580>
    c8f8:	f1c2 0220 	rsb	r2, r2, #32
    c8fc:	fa06 f202 	lsl.w	r2, r6, r2
    c900:	ee07 2a10 	vmov	s14, r2
    c904:	e509      	b.n	c31a <_dtoa_r+0xc2>
    c906:	2601      	movs	r6, #1
    c908:	e563      	b.n	c3d2 <_dtoa_r+0x17a>
    c90a:	4601      	mov	r1, r0
    c90c:	463a      	mov	r2, r7
    c90e:	4620      	mov	r0, r4
    c910:	f7fd fa3e 	bl	9d90 <__pow5mult>
    c914:	9b01      	ldr	r3, [sp, #4]
    c916:	2b01      	cmp	r3, #1
    c918:	4682      	mov	sl, r0
    c91a:	f340 81c5 	ble.w	cca8 <_dtoa_r+0xa50>
    c91e:	2300      	movs	r3, #0
    c920:	9308      	str	r3, [sp, #32]
    c922:	f8da 2010 	ldr.w	r2, [sl, #16]
    c926:	eb0a 0282 	add.w	r2, sl, r2, lsl #2
    c92a:	6910      	ldr	r0, [r2, #16]
    c92c:	f7fd f904 	bl	9b38 <__hi0bits>
    c930:	f1c0 0020 	rsb	r0, r0, #32
    c934:	e744      	b.n	c7c0 <_dtoa_r+0x568>
    c936:	bf00      	nop
    c938:	200002a8 	.word	0x200002a8
    c93c:	200009a8 	.word	0x200009a8
    c940:	4631      	mov	r1, r6
    c942:	2300      	movs	r3, #0
    c944:	220a      	movs	r2, #10
    c946:	4620      	mov	r0, r4
    c948:	f7fd f8a4 	bl	9a94 <__multadd>
    c94c:	9b0b      	ldr	r3, [sp, #44]	; 0x2c
    c94e:	2b00      	cmp	r3, #0
    c950:	4606      	mov	r6, r0
    c952:	f340 82ce 	ble.w	cef2 <_dtoa_r+0xc9a>
    c956:	9704      	str	r7, [sp, #16]
    c958:	4699      	mov	r9, r3
    c95a:	9b09      	ldr	r3, [sp, #36]	; 0x24
    c95c:	2b00      	cmp	r3, #0
    c95e:	dd05      	ble.n	c96c <_dtoa_r+0x714>
    c960:	4631      	mov	r1, r6
    c962:	461a      	mov	r2, r3
    c964:	4620      	mov	r0, r4
    c966:	f7fd fa73 	bl	9e50 <__lshift>
    c96a:	4606      	mov	r6, r0
    c96c:	9b08      	ldr	r3, [sp, #32]
    c96e:	2b00      	cmp	r3, #0
    c970:	f040 81eb 	bne.w	cd4a <_dtoa_r+0xaf2>
    c974:	46b0      	mov	r8, r6
    c976:	9b02      	ldr	r3, [sp, #8]
    c978:	9f00      	ldr	r7, [sp, #0]
    c97a:	f003 0201 	and.w	r2, r3, #1
    c97e:	1e7b      	subs	r3, r7, #1
    c980:	444b      	add	r3, r9
    c982:	9308      	str	r3, [sp, #32]
    c984:	9b01      	ldr	r3, [sp, #4]
    c986:	920a      	str	r2, [sp, #40]	; 0x28
    c988:	4313      	orrs	r3, r2
    c98a:	9309      	str	r3, [sp, #36]	; 0x24
    c98c:	4651      	mov	r1, sl
    c98e:	4628      	mov	r0, r5
    c990:	f7ff fbce 	bl	c130 <quorem>
    c994:	4631      	mov	r1, r6
    c996:	4683      	mov	fp, r0
    c998:	4628      	mov	r0, r5
    c99a:	f7fd fad1 	bl	9f40 <__mcmp>
    c99e:	4642      	mov	r2, r8
    c9a0:	4651      	mov	r1, sl
    c9a2:	4681      	mov	r9, r0
    c9a4:	4620      	mov	r0, r4
    c9a6:	f7fd faed 	bl	9f84 <__mdiff>
    c9aa:	68c2      	ldr	r2, [r0, #12]
    c9ac:	4601      	mov	r1, r0
    c9ae:	f10b 0330 	add.w	r3, fp, #48	; 0x30
    c9b2:	2a00      	cmp	r2, #0
    c9b4:	d142      	bne.n	ca3c <_dtoa_r+0x7e4>
    c9b6:	e9cd 0306 	strd	r0, r3, [sp, #24]
    c9ba:	4628      	mov	r0, r5
    c9bc:	f7fd fac0 	bl	9f40 <__mcmp>
    c9c0:	9906      	ldr	r1, [sp, #24]
    c9c2:	9002      	str	r0, [sp, #8]
    c9c4:	4620      	mov	r0, r4
    c9c6:	f7fd f85b 	bl	9a80 <_Bfree>
    c9ca:	9a02      	ldr	r2, [sp, #8]
    c9cc:	9b07      	ldr	r3, [sp, #28]
    c9ce:	b91a      	cbnz	r2, c9d8 <_dtoa_r+0x780>
    c9d0:	9909      	ldr	r1, [sp, #36]	; 0x24
    c9d2:	2900      	cmp	r1, #0
    c9d4:	f000 827e 	beq.w	ced4 <_dtoa_r+0xc7c>
    c9d8:	f1b9 0f00 	cmp.w	r9, #0
    c9dc:	f2c0 8183 	blt.w	cce6 <_dtoa_r+0xa8e>
    c9e0:	9901      	ldr	r1, [sp, #4]
    c9e2:	ea49 0901 	orr.w	r9, r9, r1
    c9e6:	990a      	ldr	r1, [sp, #40]	; 0x28
    c9e8:	ea51 0909 	orrs.w	r9, r1, r9
    c9ec:	f000 817b 	beq.w	cce6 <_dtoa_r+0xa8e>
    c9f0:	2a00      	cmp	r2, #0
    c9f2:	f300 81c6 	bgt.w	cd82 <_dtoa_r+0xb2a>
    c9f6:	9a08      	ldr	r2, [sp, #32]
    c9f8:	703b      	strb	r3, [r7, #0]
    c9fa:	f107 0901 	add.w	r9, r7, #1
    c9fe:	4297      	cmp	r7, r2
    ca00:	46cb      	mov	fp, r9
    ca02:	f000 81c4 	beq.w	cd8e <_dtoa_r+0xb36>
    ca06:	4629      	mov	r1, r5
    ca08:	2300      	movs	r3, #0
    ca0a:	220a      	movs	r2, #10
    ca0c:	4620      	mov	r0, r4
    ca0e:	f7fd f841 	bl	9a94 <__multadd>
    ca12:	4546      	cmp	r6, r8
    ca14:	4605      	mov	r5, r0
    ca16:	4631      	mov	r1, r6
    ca18:	f04f 0300 	mov.w	r3, #0
    ca1c:	f04f 020a 	mov.w	r2, #10
    ca20:	4620      	mov	r0, r4
    ca22:	d012      	beq.n	ca4a <_dtoa_r+0x7f2>
    ca24:	f7fd f836 	bl	9a94 <__multadd>
    ca28:	4641      	mov	r1, r8
    ca2a:	4606      	mov	r6, r0
    ca2c:	2300      	movs	r3, #0
    ca2e:	220a      	movs	r2, #10
    ca30:	4620      	mov	r0, r4
    ca32:	f7fd f82f 	bl	9a94 <__multadd>
    ca36:	464f      	mov	r7, r9
    ca38:	4680      	mov	r8, r0
    ca3a:	e7a7      	b.n	c98c <_dtoa_r+0x734>
    ca3c:	4620      	mov	r0, r4
    ca3e:	9302      	str	r3, [sp, #8]
    ca40:	f7fd f81e 	bl	9a80 <_Bfree>
    ca44:	9b02      	ldr	r3, [sp, #8]
    ca46:	2201      	movs	r2, #1
    ca48:	e7c6      	b.n	c9d8 <_dtoa_r+0x780>
    ca4a:	f7fd f823 	bl	9a94 <__multadd>
    ca4e:	464f      	mov	r7, r9
    ca50:	4606      	mov	r6, r0
    ca52:	4680      	mov	r8, r0
    ca54:	e79a      	b.n	c98c <_dtoa_r+0x734>
    ca56:	9b01      	ldr	r3, [sp, #4]
    ca58:	2b02      	cmp	r3, #2
    ca5a:	dc71      	bgt.n	cb40 <_dtoa_r+0x8e8>
    ca5c:	9b07      	ldr	r3, [sp, #28]
    ca5e:	2b00      	cmp	r3, #0
    ca60:	f47f af7b 	bne.w	c95a <_dtoa_r+0x702>
    ca64:	9b04      	ldr	r3, [sp, #16]
    ca66:	4651      	mov	r1, sl
    ca68:	3301      	adds	r3, #1
    ca6a:	4628      	mov	r0, r5
    ca6c:	9304      	str	r3, [sp, #16]
    ca6e:	f7ff fb5f 	bl	c130 <quorem>
    ca72:	f8dd b000 	ldr.w	fp, [sp]
    ca76:	f100 0330 	add.w	r3, r0, #48	; 0x30
    ca7a:	f80b 3b01 	strb.w	r3, [fp], #1
    ca7e:	2700      	movs	r7, #0
    ca80:	e6eb      	b.n	c85a <_dtoa_r+0x602>
    ca82:	4651      	mov	r1, sl
    ca84:	4628      	mov	r0, r5
    ca86:	f7fd fa5b 	bl	9f40 <__mcmp>
    ca8a:	2800      	cmp	r0, #0
    ca8c:	f6bf aeba 	bge.w	c804 <_dtoa_r+0x5ac>
    ca90:	4629      	mov	r1, r5
    ca92:	2300      	movs	r3, #0
    ca94:	220a      	movs	r2, #10
    ca96:	4620      	mov	r0, r4
    ca98:	f7fc fffc 	bl	9a94 <__multadd>
    ca9c:	9b04      	ldr	r3, [sp, #16]
    ca9e:	1e5f      	subs	r7, r3, #1
    caa0:	9b07      	ldr	r3, [sp, #28]
    caa2:	4605      	mov	r5, r0
    caa4:	2b00      	cmp	r3, #0
    caa6:	f47f af4b 	bne.w	c940 <_dtoa_r+0x6e8>
    caaa:	9b0b      	ldr	r3, [sp, #44]	; 0x2c
    caac:	2b00      	cmp	r3, #0
    caae:	f340 8218 	ble.w	cee2 <_dtoa_r+0xc8a>
    cab2:	4699      	mov	r9, r3
    cab4:	e6b1      	b.n	c81a <_dtoa_r+0x5c2>
    cab6:	4bbc      	ldr	r3, [pc, #752]	; (cda8 <_dtoa_r+0xb50>)
    cab8:	9300      	str	r3, [sp, #0]
    caba:	3303      	adds	r3, #3
    cabc:	e4a4      	b.n	c408 <_dtoa_r+0x1b0>
    cabe:	201c      	movs	r0, #28
    cac0:	e712      	b.n	c8e8 <_dtoa_r+0x690>
    cac2:	e9dd 0102 	ldrd	r0, r1, [sp, #8]
    cac6:	2800      	cmp	r0, #0
    cac8:	f47f ae74 	bne.w	c7b4 <_dtoa_r+0x55c>
    cacc:	f3c1 0213 	ubfx	r2, r1, #0, #20
    cad0:	2a00      	cmp	r2, #0
    cad2:	f000 80f4 	beq.w	ccbe <_dtoa_r+0xa66>
    cad6:	9b02      	ldr	r3, [sp, #8]
    cad8:	9308      	str	r3, [sp, #32]
    cada:	e66d      	b.n	c7b8 <_dtoa_r+0x560>
    cadc:	2301      	movs	r3, #1
    cade:	9307      	str	r3, [sp, #28]
    cae0:	9b04      	ldr	r3, [sp, #16]
    cae2:	445b      	add	r3, fp
    cae4:	f103 0901 	add.w	r9, r3, #1
    cae8:	f1b9 0f01 	cmp.w	r9, #1
    caec:	46cc      	mov	ip, r9
    caee:	930b      	str	r3, [sp, #44]	; 0x2c
    caf0:	bfb8      	it	lt
    caf2:	f04f 0c01 	movlt.w	ip, #1
    caf6:	2100      	movs	r1, #0
    caf8:	f1bc 0f17 	cmp.w	ip, #23
    cafc:	63e1      	str	r1, [r4, #60]	; 0x3c
    cafe:	f77f acbc 	ble.w	c47a <_dtoa_r+0x222>
    cb02:	2001      	movs	r0, #1
    cb04:	2204      	movs	r2, #4
    cb06:	0052      	lsls	r2, r2, #1
    cb08:	f102 0314 	add.w	r3, r2, #20
    cb0c:	4563      	cmp	r3, ip
    cb0e:	4601      	mov	r1, r0
    cb10:	f100 0001 	add.w	r0, r0, #1
    cb14:	d9f7      	bls.n	cb06 <_dtoa_r+0x8ae>
    cb16:	63e1      	str	r1, [r4, #60]	; 0x3c
    cb18:	e4af      	b.n	c47a <_dtoa_r+0x222>
    cb1a:	2301      	movs	r3, #1
    cb1c:	9307      	str	r3, [sp, #28]
    cb1e:	f1bb 0f00 	cmp.w	fp, #0
    cb22:	dd52      	ble.n	cbca <_dtoa_r+0x972>
    cb24:	f8cd b02c 	str.w	fp, [sp, #44]	; 0x2c
    cb28:	46d9      	mov	r9, fp
    cb2a:	46dc      	mov	ip, fp
    cb2c:	e7e3      	b.n	caf6 <_dtoa_r+0x89e>
    cb2e:	2300      	movs	r3, #0
    cb30:	9307      	str	r3, [sp, #28]
    cb32:	e7d5      	b.n	cae0 <_dtoa_r+0x888>
    cb34:	2300      	movs	r3, #0
    cb36:	9307      	str	r3, [sp, #28]
    cb38:	e7f1      	b.n	cb1e <_dtoa_r+0x8c6>
    cb3a:	f8dd 902c 	ldr.w	r9, [sp, #44]	; 0x2c
    cb3e:	9704      	str	r7, [sp, #16]
    cb40:	f1b9 0f00 	cmp.w	r9, #0
    cb44:	f47f ada1 	bne.w	c68a <_dtoa_r+0x432>
    cb48:	4651      	mov	r1, sl
    cb4a:	464b      	mov	r3, r9
    cb4c:	2205      	movs	r2, #5
    cb4e:	4620      	mov	r0, r4
    cb50:	f7fc ffa0 	bl	9a94 <__multadd>
    cb54:	4601      	mov	r1, r0
    cb56:	4682      	mov	sl, r0
    cb58:	4628      	mov	r0, r5
    cb5a:	f7fd f9f1 	bl	9f40 <__mcmp>
    cb5e:	2800      	cmp	r0, #0
    cb60:	f77f ad93 	ble.w	c68a <_dtoa_r+0x432>
    cb64:	9b04      	ldr	r3, [sp, #16]
    cb66:	f103 0b01 	add.w	fp, r3, #1
    cb6a:	9b00      	ldr	r3, [sp, #0]
    cb6c:	2231      	movs	r2, #49	; 0x31
    cb6e:	4698      	mov	r8, r3
    cb70:	f803 2b01 	strb.w	r2, [r3], #1
    cb74:	9300      	str	r3, [sp, #0]
    cb76:	4651      	mov	r1, sl
    cb78:	4620      	mov	r0, r4
    cb7a:	f7fc ff81 	bl	9a80 <_Bfree>
    cb7e:	f10b 0301 	add.w	r3, fp, #1
    cb82:	f8dd 9000 	ldr.w	r9, [sp]
    cb86:	9304      	str	r3, [sp, #16]
    cb88:	f8cd 8000 	str.w	r8, [sp]
    cb8c:	2e00      	cmp	r6, #0
    cb8e:	f47f ae8f 	bne.w	c8b0 <_dtoa_r+0x658>
    cb92:	e691      	b.n	c8b8 <_dtoa_r+0x660>
    cb94:	eba3 0a0a 	sub.w	sl, r3, sl
    cb98:	e5c5      	b.n	c726 <_dtoa_r+0x4ce>
    cb9a:	4631      	mov	r1, r6
    cb9c:	4652      	mov	r2, sl
    cb9e:	4620      	mov	r0, r4
    cba0:	f7fd f8f6 	bl	9d90 <__pow5mult>
    cba4:	462a      	mov	r2, r5
    cba6:	4601      	mov	r1, r0
    cba8:	4606      	mov	r6, r0
    cbaa:	4620      	mov	r0, r4
    cbac:	f7fd f842 	bl	9c34 <__multiply>
    cbb0:	4629      	mov	r1, r5
    cbb2:	4605      	mov	r5, r0
    cbb4:	4620      	mov	r0, r4
    cbb6:	f7fc ff63 	bl	9a80 <_Bfree>
    cbba:	e5ea      	b.n	c792 <_dtoa_r+0x53a>
    cbbc:	2002      	movs	r0, #2
    cbbe:	eeb0 5b48 	vmov.f64	d5, d8
    cbc2:	e481      	b.n	c4c8 <_dtoa_r+0x270>
    cbc4:	f1c0 003c 	rsb	r0, r0, #60	; 0x3c
    cbc8:	e68e      	b.n	c8e8 <_dtoa_r+0x690>
    cbca:	f04f 0b01 	mov.w	fp, #1
    cbce:	46d9      	mov	r9, fp
    cbd0:	e44f      	b.n	c472 <_dtoa_r+0x21a>
    cbd2:	d103      	bne.n	cbdc <_dtoa_r+0x984>
    cbd4:	9b01      	ldr	r3, [sp, #4]
    cbd6:	07db      	lsls	r3, r3, #31
    cbd8:	f53f ae4c 	bmi.w	c874 <_dtoa_r+0x61c>
    cbdc:	46d9      	mov	r9, fp
    cbde:	f81b 3d01 	ldrb.w	r3, [fp, #-1]!
    cbe2:	2b30      	cmp	r3, #48	; 0x30
    cbe4:	d0fa      	beq.n	cbdc <_dtoa_r+0x984>
    cbe6:	e657      	b.n	c898 <_dtoa_r+0x640>
    cbe8:	9b04      	ldr	r3, [sp, #16]
    cbea:	9a00      	ldr	r2, [sp, #0]
    cbec:	3301      	adds	r3, #1
    cbee:	9304      	str	r3, [sp, #16]
    cbf0:	2331      	movs	r3, #49	; 0x31
    cbf2:	7013      	strb	r3, [r2, #0]
    cbf4:	e650      	b.n	c898 <_dtoa_r+0x640>
    cbf6:	f1ba 0f00 	cmp.w	sl, #0
    cbfa:	f000 8123 	beq.w	ce44 <_dtoa_r+0xbec>
    cbfe:	f202 4233 	addw	r2, r2, #1075	; 0x433
    cc02:	9b06      	ldr	r3, [sp, #24]
    cc04:	9309      	str	r3, [sp, #36]	; 0x24
    cc06:	4413      	add	r3, r2
    cc08:	f8dd a020 	ldr.w	sl, [sp, #32]
    cc0c:	9306      	str	r3, [sp, #24]
    cc0e:	4490      	add	r8, r2
    cc10:	e592      	b.n	c738 <_dtoa_r+0x4e0>
    cc12:	ee07 0a90 	vmov	s15, r0
    cc16:	eeb1 5b0c 	vmov.f64	d5, #28	; 0x40e00000  7.0
    cc1a:	eeb8 7be7 	vcvt.f64.s32	d7, s15
    cc1e:	eea6 5b07 	vfma.f64	d5, d6, d7
    cc22:	ee15 2a90 	vmov	r2, s11
    cc26:	ec51 0b15 	vmov	r0, r1, d5
    cc2a:	f1a2 7150 	sub.w	r1, r2, #54525952	; 0x3400000
    cc2e:	ec41 0b15 	vmov	d5, r0, r1
    cc32:	eeb1 7b04 	vmov.f64	d7, #20	; 0x40a00000  5.0
    cc36:	ee36 7b47 	vsub.f64	d7, d6, d7
    cc3a:	eeb4 7bc5 	vcmpe.f64	d7, d5
    cc3e:	eef1 fa10 	vmrs	APSR_nzcv, fpscr
    cc42:	f300 8137 	bgt.w	ceb4 <_dtoa_r+0xc5c>
    cc46:	eeb1 5b45 	vneg.f64	d5, d5
    cc4a:	eeb4 7bc5 	vcmpe.f64	d7, d5
    cc4e:	eef1 fa10 	vmrs	APSR_nzcv, fpscr
    cc52:	f57f acfb 	bpl.w	c64c <_dtoa_r+0x3f4>
    cc56:	f04f 0a00 	mov.w	sl, #0
    cc5a:	4656      	mov	r6, sl
    cc5c:	e515      	b.n	c68a <_dtoa_r+0x432>
    cc5e:	f000 80f5 	beq.w	ce4c <_dtoa_r+0xbf4>
    cc62:	9b04      	ldr	r3, [sp, #16]
    cc64:	4951      	ldr	r1, [pc, #324]	; (cdac <_dtoa_r+0xb54>)
    cc66:	425a      	negs	r2, r3
    cc68:	f002 000f 	and.w	r0, r2, #15
    cc6c:	eb01 01c0 	add.w	r1, r1, r0, lsl #3
    cc70:	ed91 6b00 	vldr	d6, [r1]
    cc74:	1112      	asrs	r2, r2, #4
    cc76:	ee28 6b06 	vmul.f64	d6, d8, d6
    cc7a:	f000 8142 	beq.w	cf02 <_dtoa_r+0xcaa>
    cc7e:	eeb0 7b46 	vmov.f64	d7, d6
    cc82:	494b      	ldr	r1, [pc, #300]	; (cdb0 <_dtoa_r+0xb58>)
    cc84:	2600      	movs	r6, #0
    cc86:	2002      	movs	r0, #2
    cc88:	07d3      	lsls	r3, r2, #31
    cc8a:	d505      	bpl.n	cc98 <_dtoa_r+0xa40>
    cc8c:	ed91 5b00 	vldr	d5, [r1]
    cc90:	3001      	adds	r0, #1
    cc92:	2601      	movs	r6, #1
    cc94:	ee27 7b05 	vmul.f64	d7, d7, d5
    cc98:	1052      	asrs	r2, r2, #1
    cc9a:	f101 0108 	add.w	r1, r1, #8
    cc9e:	d1f3      	bne.n	cc88 <_dtoa_r+0xa30>
    cca0:	2e00      	cmp	r6, #0
    cca2:	fe06 6b07 	vseleq.f64	d6, d6, d7
    cca6:	e41e      	b.n	c4e6 <_dtoa_r+0x28e>
    cca8:	9b02      	ldr	r3, [sp, #8]
    ccaa:	2b00      	cmp	r3, #0
    ccac:	f47f ae37 	bne.w	c91e <_dtoa_r+0x6c6>
    ccb0:	e9dd 0102 	ldrd	r0, r1, [sp, #8]
    ccb4:	f3c1 0213 	ubfx	r2, r1, #0, #20
    ccb8:	2a00      	cmp	r2, #0
    ccba:	f040 8137 	bne.w	cf2c <_dtoa_r+0xcd4>
    ccbe:	4a3d      	ldr	r2, [pc, #244]	; (cdb4 <_dtoa_r+0xb5c>)
    ccc0:	400a      	ands	r2, r1
    ccc2:	2a00      	cmp	r2, #0
    ccc4:	f000 80fa 	beq.w	cebc <_dtoa_r+0xc64>
    ccc8:	9b06      	ldr	r3, [sp, #24]
    ccca:	3301      	adds	r3, #1
    cccc:	9306      	str	r3, [sp, #24]
    ccce:	2301      	movs	r3, #1
    ccd0:	f108 0801 	add.w	r8, r8, #1
    ccd4:	9308      	str	r3, [sp, #32]
    ccd6:	e56f      	b.n	c7b8 <_dtoa_r+0x560>
    ccd8:	4629      	mov	r1, r5
    ccda:	9a08      	ldr	r2, [sp, #32]
    ccdc:	4620      	mov	r0, r4
    ccde:	f7fd f857 	bl	9d90 <__pow5mult>
    cce2:	4605      	mov	r5, r0
    cce4:	e55a      	b.n	c79c <_dtoa_r+0x544>
    cce6:	2a00      	cmp	r2, #0
    cce8:	dd12      	ble.n	cd10 <_dtoa_r+0xab8>
    ccea:	4629      	mov	r1, r5
    ccec:	2201      	movs	r2, #1
    ccee:	4620      	mov	r0, r4
    ccf0:	9301      	str	r3, [sp, #4]
    ccf2:	f7fd f8ad 	bl	9e50 <__lshift>
    ccf6:	4651      	mov	r1, sl
    ccf8:	4605      	mov	r5, r0
    ccfa:	f7fd f921 	bl	9f40 <__mcmp>
    ccfe:	2800      	cmp	r0, #0
    cd00:	9b01      	ldr	r3, [sp, #4]
    cd02:	f340 80e1 	ble.w	cec8 <_dtoa_r+0xc70>
    cd06:	2b39      	cmp	r3, #57	; 0x39
    cd08:	f000 80ca 	beq.w	cea0 <_dtoa_r+0xc48>
    cd0c:	f10b 0331 	add.w	r3, fp, #49	; 0x31
    cd10:	46b9      	mov	r9, r7
    cd12:	f809 3b01 	strb.w	r3, [r9], #1
    cd16:	9b04      	ldr	r3, [sp, #16]
    cd18:	3301      	adds	r3, #1
    cd1a:	4637      	mov	r7, r6
    cd1c:	9304      	str	r3, [sp, #16]
    cd1e:	4646      	mov	r6, r8
    cd20:	e5ba      	b.n	c898 <_dtoa_r+0x640>
    cd22:	ee38 8b08 	vadd.f64	d8, d8, d8
    cd26:	eeb4 8bc6 	vcmpe.f64	d8, d6
    cd2a:	eef1 fa10 	vmrs	APSR_nzcv, fpscr
    cd2e:	dc0a      	bgt.n	cd46 <_dtoa_r+0xaee>
    cd30:	eeb4 8b46 	vcmp.f64	d8, d6
    cd34:	eef1 fa10 	vmrs	APSR_nzcv, fpscr
    cd38:	f47f acdc 	bne.w	c6f4 <_dtoa_r+0x49c>
    cd3c:	ee17 3a10 	vmov	r3, s14
    cd40:	07d8      	lsls	r0, r3, #31
    cd42:	f57f acd7 	bpl.w	c6f4 <_dtoa_r+0x49c>
    cd46:	9a00      	ldr	r2, [sp, #0]
    cd48:	e454      	b.n	c5f4 <_dtoa_r+0x39c>
    cd4a:	6871      	ldr	r1, [r6, #4]
    cd4c:	4620      	mov	r0, r4
    cd4e:	f7fc fe71 	bl	9a34 <_Balloc>
    cd52:	4607      	mov	r7, r0
    cd54:	2800      	cmp	r0, #0
    cd56:	f000 80de 	beq.w	cf16 <_dtoa_r+0xcbe>
    cd5a:	6933      	ldr	r3, [r6, #16]
    cd5c:	3302      	adds	r3, #2
    cd5e:	009a      	lsls	r2, r3, #2
    cd60:	f106 010c 	add.w	r1, r6, #12
    cd64:	300c      	adds	r0, #12
    cd66:	f7f9 fba1 	bl	64ac <memcpy>
    cd6a:	4639      	mov	r1, r7
    cd6c:	2201      	movs	r2, #1
    cd6e:	4620      	mov	r0, r4
    cd70:	f7fd f86e 	bl	9e50 <__lshift>
    cd74:	4680      	mov	r8, r0
    cd76:	e5fe      	b.n	c976 <_dtoa_r+0x71e>
    cd78:	9b06      	ldr	r3, [sp, #24]
    cd7a:	eba3 0309 	sub.w	r3, r3, r9
    cd7e:	9309      	str	r3, [sp, #36]	; 0x24
    cd80:	e4da      	b.n	c738 <_dtoa_r+0x4e0>
    cd82:	2b39      	cmp	r3, #57	; 0x39
    cd84:	f000 808c 	beq.w	cea0 <_dtoa_r+0xc48>
    cd88:	46b9      	mov	r9, r7
    cd8a:	3301      	adds	r3, #1
    cd8c:	e7c1      	b.n	cd12 <_dtoa_r+0xaba>
    cd8e:	9a04      	ldr	r2, [sp, #16]
    cd90:	3201      	adds	r2, #1
    cd92:	4637      	mov	r7, r6
    cd94:	9204      	str	r2, [sp, #16]
    cd96:	4646      	mov	r6, r8
    cd98:	e55f      	b.n	c85a <_dtoa_r+0x602>
    cd9a:	4629      	mov	r1, r5
    cd9c:	4620      	mov	r0, r4
    cd9e:	f7fc fff7 	bl	9d90 <__pow5mult>
    cda2:	4605      	mov	r5, r0
    cda4:	e4fa      	b.n	c79c <_dtoa_r+0x544>
    cda6:	bf00      	nop
    cda8:	20000908 	.word	0x20000908
    cdac:	200002a8 	.word	0x200002a8
    cdb0:	20000280 	.word	0x20000280
    cdb4:	7ff00000 	.word	0x7ff00000
    cdb8:	4b5e      	ldr	r3, [pc, #376]	; (cf34 <_dtoa_r+0xcdc>)
    cdba:	eefd 5bc6 	vcvt.s32.f64	s11, d6
    cdbe:	eb03 0cc2 	add.w	ip, r3, r2, lsl #3
    cdc2:	ed1c 3b02 	vldr	d3, [ip, #-8]
    cdc6:	eeb8 7be5 	vcvt.f64.s32	d7, s11
    cdca:	ee36 7b47 	vsub.f64	d7, d6, d7
    cdce:	ec41 0b16 	vmov	d6, r0, r1
    cdd2:	ee15 1a90 	vmov	r1, s11
    cdd6:	ee23 3b06 	vmul.f64	d3, d3, d6
    cdda:	9800      	ldr	r0, [sp, #0]
    cddc:	3130      	adds	r1, #48	; 0x30
    cdde:	2a01      	cmp	r2, #1
    cde0:	f800 1b01 	strb.w	r1, [r0], #1
    cde4:	f000 8083 	beq.w	ceee <_dtoa_r+0xc96>
    cde8:	eeb2 4b04 	vmov.f64	d4, #36	; 0x41200000  10.0
    cdec:	9b00      	ldr	r3, [sp, #0]
    cdee:	1899      	adds	r1, r3, r2
    cdf0:	ee27 7b04 	vmul.f64	d7, d7, d4
    cdf4:	eefd 6bc7 	vcvt.s32.f64	s13, d7
    cdf8:	ee16 3a90 	vmov	r3, s13
    cdfc:	3330      	adds	r3, #48	; 0x30
    cdfe:	f800 3b01 	strb.w	r3, [r0], #1
    ce02:	4281      	cmp	r1, r0
    ce04:	eeb8 5be6 	vcvt.f64.s32	d5, s13
    ce08:	ee37 7b45 	vsub.f64	d7, d7, d5
    ce0c:	d1f0      	bne.n	cdf0 <_dtoa_r+0xb98>
    ce0e:	eeb6 6b00 	vmov.f64	d6, #96	; 0x3f000000  0.5
    ce12:	ee33 5b06 	vadd.f64	d5, d3, d6
    ce16:	eeb4 5bc7 	vcmpe.f64	d5, d7
    ce1a:	eef1 fa10 	vmrs	APSR_nzcv, fpscr
    ce1e:	f53f abe3 	bmi.w	c5e8 <_dtoa_r+0x390>
    ce22:	ee36 6b43 	vsub.f64	d6, d6, d3
    ce26:	eeb4 6bc7 	vcmpe.f64	d6, d7
    ce2a:	eef1 fa10 	vmrs	APSR_nzcv, fpscr
    ce2e:	f77f ac0d 	ble.w	c64c <_dtoa_r+0x3f4>
    ce32:	4689      	mov	r9, r1
    ce34:	3901      	subs	r1, #1
    ce36:	f819 3c01 	ldrb.w	r3, [r9, #-1]
    ce3a:	2b30      	cmp	r3, #48	; 0x30
    ce3c:	d0f9      	beq.n	ce32 <_dtoa_r+0xbda>
    ce3e:	1c73      	adds	r3, r6, #1
    ce40:	9304      	str	r3, [sp, #16]
    ce42:	e539      	b.n	c8b8 <_dtoa_r+0x660>
    ce44:	9a0c      	ldr	r2, [sp, #48]	; 0x30
    ce46:	f1c2 0236 	rsb	r2, r2, #54	; 0x36
    ce4a:	e6da      	b.n	cc02 <_dtoa_r+0x9aa>
    ce4c:	2002      	movs	r0, #2
    ce4e:	eeb0 6b48 	vmov.f64	d6, d8
    ce52:	f7ff bb48 	b.w	c4e6 <_dtoa_r+0x28e>
    ce56:	f1b9 0f00 	cmp.w	r9, #0
    ce5a:	f43f aeda 	beq.w	cc12 <_dtoa_r+0x9ba>
    ce5e:	9a0b      	ldr	r2, [sp, #44]	; 0x2c
    ce60:	2a00      	cmp	r2, #0
    ce62:	f77f abf3 	ble.w	c64c <_dtoa_r+0x3f4>
    ce66:	eeb2 4b04 	vmov.f64	d4, #36	; 0x41200000  10.0
    ce6a:	ee26 6b04 	vmul.f64	d6, d6, d4
    ce6e:	3001      	adds	r0, #1
    ce70:	ee07 0a90 	vmov	s15, r0
    ce74:	9b04      	ldr	r3, [sp, #16]
    ce76:	eeb8 5be7 	vcvt.f64.s32	d5, s15
    ce7a:	eeb1 7b0c 	vmov.f64	d7, #28	; 0x40e00000  7.0
    ce7e:	eea6 7b05 	vfma.f64	d7, d6, d5
    ce82:	ee17 ca90 	vmov	ip, s15
    ce86:	ec51 0b17 	vmov	r0, r1, d7
    ce8a:	1e5e      	subs	r6, r3, #1
    ce8c:	f1ac 7150 	sub.w	r1, ip, #54525952	; 0x3400000
    ce90:	f7ff bb47 	b.w	c522 <_dtoa_r+0x2ca>
    ce94:	9b04      	ldr	r3, [sp, #16]
    ce96:	3301      	adds	r3, #1
    ce98:	9304      	str	r3, [sp, #16]
    ce9a:	2331      	movs	r3, #49	; 0x31
    ce9c:	f7ff bbb1 	b.w	c602 <_dtoa_r+0x3aa>
    cea0:	9b04      	ldr	r3, [sp, #16]
    cea2:	46bb      	mov	fp, r7
    cea4:	3301      	adds	r3, #1
    cea6:	9304      	str	r3, [sp, #16]
    cea8:	2339      	movs	r3, #57	; 0x39
    ceaa:	4637      	mov	r7, r6
    ceac:	f80b 3b01 	strb.w	r3, [fp], #1
    ceb0:	4646      	mov	r6, r8
    ceb2:	e4e1      	b.n	c878 <_dtoa_r+0x620>
    ceb4:	f04f 0a00 	mov.w	sl, #0
    ceb8:	4656      	mov	r6, sl
    ceba:	e653      	b.n	cb64 <_dtoa_r+0x90c>
    cebc:	9208      	str	r2, [sp, #32]
    cebe:	e47b      	b.n	c7b8 <_dtoa_r+0x560>
    cec0:	1c73      	adds	r3, r6, #1
    cec2:	9304      	str	r3, [sp, #16]
    cec4:	4689      	mov	r9, r1
    cec6:	e4f7      	b.n	c8b8 <_dtoa_r+0x660>
    cec8:	f47f af22 	bne.w	cd10 <_dtoa_r+0xab8>
    cecc:	07da      	lsls	r2, r3, #31
    cece:	f57f af1f 	bpl.w	cd10 <_dtoa_r+0xab8>
    ced2:	e718      	b.n	cd06 <_dtoa_r+0xaae>
    ced4:	2b39      	cmp	r3, #57	; 0x39
    ced6:	d0e3      	beq.n	cea0 <_dtoa_r+0xc48>
    ced8:	f1b9 0f00 	cmp.w	r9, #0
    cedc:	f73f af16 	bgt.w	cd0c <_dtoa_r+0xab4>
    cee0:	e716      	b.n	cd10 <_dtoa_r+0xab8>
    cee2:	9b01      	ldr	r3, [sp, #4]
    cee4:	2b02      	cmp	r3, #2
    cee6:	f73f ae28 	bgt.w	cb3a <_dtoa_r+0x8e2>
    ceea:	9704      	str	r7, [sp, #16]
    ceec:	e5ba      	b.n	ca64 <_dtoa_r+0x80c>
    ceee:	4601      	mov	r1, r0
    cef0:	e78d      	b.n	ce0e <_dtoa_r+0xbb6>
    cef2:	9b01      	ldr	r3, [sp, #4]
    cef4:	2b02      	cmp	r3, #2
    cef6:	f73f ae20 	bgt.w	cb3a <_dtoa_r+0x8e2>
    cefa:	f8dd 902c 	ldr.w	r9, [sp, #44]	; 0x2c
    cefe:	9704      	str	r7, [sp, #16]
    cf00:	e52b      	b.n	c95a <_dtoa_r+0x702>
    cf02:	2002      	movs	r0, #2
    cf04:	f7ff baef 	b.w	c4e6 <_dtoa_r+0x28e>
    cf08:	4b0b      	ldr	r3, [pc, #44]	; (cf38 <_dtoa_r+0xce0>)
    cf0a:	480c      	ldr	r0, [pc, #48]	; (cf3c <_dtoa_r+0xce4>)
    cf0c:	2200      	movs	r2, #0
    cf0e:	f240 11af 	movw	r1, #431	; 0x1af
    cf12:	f7ff f8b1 	bl	c078 <__assert_func>
    cf16:	4b08      	ldr	r3, [pc, #32]	; (cf38 <_dtoa_r+0xce0>)
    cf18:	4808      	ldr	r0, [pc, #32]	; (cf3c <_dtoa_r+0xce4>)
    cf1a:	463a      	mov	r2, r7
    cf1c:	f240 21ef 	movw	r1, #751	; 0x2ef
    cf20:	f7ff f8aa 	bl	c078 <__assert_func>
    cf24:	4b06      	ldr	r3, [pc, #24]	; (cf40 <_dtoa_r+0xce8>)
    cf26:	9300      	str	r3, [sp, #0]
    cf28:	f7ff b9d2 	b.w	c2d0 <_dtoa_r+0x78>
    cf2c:	9b02      	ldr	r3, [sp, #8]
    cf2e:	9308      	str	r3, [sp, #32]
    cf30:	e4f7      	b.n	c922 <_dtoa_r+0x6ca>
    cf32:	bf00      	nop
    cf34:	200002a8 	.word	0x200002a8
    cf38:	20000788 	.word	0x20000788
    cf3c:	2000090c 	.word	0x2000090c
    cf40:	200008fc 	.word	0x200008fc

0000cf44 <_wcrtomb_r>:
    cf44:	b570      	push	{r4, r5, r6, lr}
    cf46:	4605      	mov	r5, r0
    cf48:	b084      	sub	sp, #16
    cf4a:	b15b      	cbz	r3, cf64 <_wcrtomb_r+0x20>
    cf4c:	461c      	mov	r4, r3
    cf4e:	b169      	cbz	r1, cf6c <_wcrtomb_r+0x28>
    cf50:	4b0e      	ldr	r3, [pc, #56]	; (cf8c <_wcrtomb_r+0x48>)
    cf52:	4628      	mov	r0, r5
    cf54:	f8d3 60e0 	ldr.w	r6, [r3, #224]	; 0xe0
    cf58:	4623      	mov	r3, r4
    cf5a:	47b0      	blx	r6
    cf5c:	1c43      	adds	r3, r0, #1
    cf5e:	d00f      	beq.n	cf80 <_wcrtomb_r+0x3c>
    cf60:	b004      	add	sp, #16
    cf62:	bd70      	pop	{r4, r5, r6, pc}
    cf64:	f500 7482 	add.w	r4, r0, #260	; 0x104
    cf68:	2900      	cmp	r1, #0
    cf6a:	d1f1      	bne.n	cf50 <_wcrtomb_r+0xc>
    cf6c:	4a07      	ldr	r2, [pc, #28]	; (cf8c <_wcrtomb_r+0x48>)
    cf6e:	4623      	mov	r3, r4
    cf70:	f8d2 60e0 	ldr.w	r6, [r2, #224]	; 0xe0
    cf74:	4628      	mov	r0, r5
    cf76:	460a      	mov	r2, r1
    cf78:	a901      	add	r1, sp, #4
    cf7a:	47b0      	blx	r6
    cf7c:	1c43      	adds	r3, r0, #1
    cf7e:	d1ef      	bne.n	cf60 <_wcrtomb_r+0x1c>
    cf80:	2200      	movs	r2, #0
    cf82:	238a      	movs	r3, #138	; 0x8a
    cf84:	6022      	str	r2, [r4, #0]
    cf86:	602b      	str	r3, [r5, #0]
    cf88:	b004      	add	sp, #16
    cf8a:	bd70      	pop	{r4, r5, r6, pc}
    cf8c:	20000cb8 	.word	0x20000cb8

0000cf90 <_wcsrtombs_r>:
    cf90:	b510      	push	{r4, lr}
    cf92:	b082      	sub	sp, #8
    cf94:	9c04      	ldr	r4, [sp, #16]
    cf96:	e9cd 3400 	strd	r3, r4, [sp]
    cf9a:	f04f 33ff 	mov.w	r3, #4294967295
    cf9e:	f001 fbc7 	bl	e730 <_wcsnrtombs_r>
    cfa2:	b002      	add	sp, #8
    cfa4:	bd10      	pop	{r4, pc}
    cfa6:	bf00      	nop

0000cfa8 <fiprintf>:
    cfa8:	b40e      	push	{r1, r2, r3}
    cfaa:	b510      	push	{r4, lr}
    cfac:	b083      	sub	sp, #12
    cfae:	ab05      	add	r3, sp, #20
    cfb0:	4c06      	ldr	r4, [pc, #24]	; (cfcc <fiprintf+0x24>)
    cfb2:	f853 2b04 	ldr.w	r2, [r3], #4
    cfb6:	9301      	str	r3, [sp, #4]
    cfb8:	4601      	mov	r1, r0
    cfba:	6820      	ldr	r0, [r4, #0]
    cfbc:	f000 f8c4 	bl	d148 <_vfiprintf_r>
    cfc0:	b003      	add	sp, #12
    cfc2:	e8bd 4010 	ldmia.w	sp!, {r4, lr}
    cfc6:	b003      	add	sp, #12
    cfc8:	4770      	bx	lr
    cfca:	bf00      	nop
    cfcc:	20001240 	.word	0x20001240

0000cfd0 <__ssprint_r>:
    cfd0:	e92d 4ff0 	stmdb	sp!, {r4, r5, r6, r7, r8, r9, sl, fp, lr}
    cfd4:	6893      	ldr	r3, [r2, #8]
    cfd6:	6817      	ldr	r7, [r2, #0]
    cfd8:	b083      	sub	sp, #12
    cfda:	4692      	mov	sl, r2
    cfdc:	2b00      	cmp	r3, #0
    cfde:	d070      	beq.n	d0c2 <__ssprint_r+0xf2>
    cfe0:	4681      	mov	r9, r0
    cfe2:	688a      	ldr	r2, [r1, #8]
    cfe4:	6808      	ldr	r0, [r1, #0]
    cfe6:	460c      	mov	r4, r1
    cfe8:	3708      	adds	r7, #8
    cfea:	e043      	b.n	d074 <__ssprint_r+0xa4>
    cfec:	89a3      	ldrh	r3, [r4, #12]
    cfee:	f413 6f90 	tst.w	r3, #1152	; 0x480
    cff2:	d02e      	beq.n	d052 <__ssprint_r+0x82>
    cff4:	e9d4 1604 	ldrd	r1, r6, [r4, #16]
    cff8:	eba0 0801 	sub.w	r8, r0, r1
    cffc:	eb06 0646 	add.w	r6, r6, r6, lsl #1
    d000:	eb06 76d6 	add.w	r6, r6, r6, lsr #31
    d004:	f108 0001 	add.w	r0, r8, #1
    d008:	1076      	asrs	r6, r6, #1
    d00a:	4428      	add	r0, r5
    d00c:	42b0      	cmp	r0, r6
    d00e:	4632      	mov	r2, r6
    d010:	bf84      	itt	hi
    d012:	4606      	movhi	r6, r0
    d014:	4632      	movhi	r2, r6
    d016:	055b      	lsls	r3, r3, #21
    d018:	d537      	bpl.n	d08a <__ssprint_r+0xba>
    d01a:	4611      	mov	r1, r2
    d01c:	4648      	mov	r0, r9
    d01e:	f7fb fb6f 	bl	8700 <_malloc_r>
    d022:	9001      	str	r0, [sp, #4]
    d024:	2800      	cmp	r0, #0
    d026:	d03a      	beq.n	d09e <__ssprint_r+0xce>
    d028:	4642      	mov	r2, r8
    d02a:	6921      	ldr	r1, [r4, #16]
    d02c:	f7f9 fa3e 	bl	64ac <memcpy>
    d030:	89a2      	ldrh	r2, [r4, #12]
    d032:	9b01      	ldr	r3, [sp, #4]
    d034:	f422 6290 	bic.w	r2, r2, #1152	; 0x480
    d038:	f042 0280 	orr.w	r2, r2, #128	; 0x80
    d03c:	81a2      	strh	r2, [r4, #12]
    d03e:	eba6 0208 	sub.w	r2, r6, r8
    d042:	eb03 0008 	add.w	r0, r3, r8
    d046:	6166      	str	r6, [r4, #20]
    d048:	60a2      	str	r2, [r4, #8]
    d04a:	6123      	str	r3, [r4, #16]
    d04c:	6020      	str	r0, [r4, #0]
    d04e:	462e      	mov	r6, r5
    d050:	46a8      	mov	r8, r5
    d052:	4642      	mov	r2, r8
    d054:	4659      	mov	r1, fp
    d056:	f7fc f969 	bl	932c <memmove>
    d05a:	f8da 3008 	ldr.w	r3, [sl, #8]
    d05e:	68a2      	ldr	r2, [r4, #8]
    d060:	6820      	ldr	r0, [r4, #0]
    d062:	1b92      	subs	r2, r2, r6
    d064:	4440      	add	r0, r8
    d066:	1b5b      	subs	r3, r3, r5
    d068:	60a2      	str	r2, [r4, #8]
    d06a:	6020      	str	r0, [r4, #0]
    d06c:	f8ca 3008 	str.w	r3, [sl, #8]
    d070:	b33b      	cbz	r3, d0c2 <__ssprint_r+0xf2>
    d072:	3708      	adds	r7, #8
    d074:	e957 b502 	ldrd	fp, r5, [r7, #-8]
    d078:	2d00      	cmp	r5, #0
    d07a:	d0fa      	beq.n	d072 <__ssprint_r+0xa2>
    d07c:	42aa      	cmp	r2, r5
    d07e:	4616      	mov	r6, r2
    d080:	4690      	mov	r8, r2
    d082:	d9b3      	bls.n	cfec <__ssprint_r+0x1c>
    d084:	462e      	mov	r6, r5
    d086:	46a8      	mov	r8, r5
    d088:	e7e3      	b.n	d052 <__ssprint_r+0x82>
    d08a:	4648      	mov	r0, r9
    d08c:	f7fb fdf4 	bl	8c78 <_realloc_r>
    d090:	4603      	mov	r3, r0
    d092:	2800      	cmp	r0, #0
    d094:	d1d3      	bne.n	d03e <__ssprint_r+0x6e>
    d096:	6921      	ldr	r1, [r4, #16]
    d098:	4648      	mov	r0, r9
    d09a:	f7fc fbaf 	bl	97fc <_free_r>
    d09e:	89a3      	ldrh	r3, [r4, #12]
    d0a0:	220c      	movs	r2, #12
    d0a2:	f043 0340 	orr.w	r3, r3, #64	; 0x40
    d0a6:	f8c9 2000 	str.w	r2, [r9]
    d0aa:	f04f 30ff 	mov.w	r0, #4294967295
    d0ae:	81a3      	strh	r3, [r4, #12]
    d0b0:	2200      	movs	r2, #0
    d0b2:	2300      	movs	r3, #0
    d0b4:	f8ca 2008 	str.w	r2, [sl, #8]
    d0b8:	f8ca 3004 	str.w	r3, [sl, #4]
    d0bc:	b003      	add	sp, #12
    d0be:	e8bd 8ff0 	ldmia.w	sp!, {r4, r5, r6, r7, r8, r9, sl, fp, pc}
    d0c2:	2000      	movs	r0, #0
    d0c4:	2300      	movs	r3, #0
    d0c6:	f8ca 3004 	str.w	r3, [sl, #4]
    d0ca:	b003      	add	sp, #12
    d0cc:	e8bd 8ff0 	ldmia.w	sp!, {r4, r5, r6, r7, r8, r9, sl, fp, pc}

0000d0d0 <__sprint_r.part.0>:
    d0d0:	e92d 4ff8 	stmdb	sp!, {r3, r4, r5, r6, r7, r8, r9, sl, fp, lr}
    d0d4:	6e4b      	ldr	r3, [r1, #100]	; 0x64
    d0d6:	049c      	lsls	r4, r3, #18
    d0d8:	4690      	mov	r8, r2
    d0da:	d52d      	bpl.n	d138 <__sprint_r.part.0+0x68>
    d0dc:	6893      	ldr	r3, [r2, #8]
    d0de:	6812      	ldr	r2, [r2, #0]
    d0e0:	b343      	cbz	r3, d134 <__sprint_r.part.0+0x64>
    d0e2:	468b      	mov	fp, r1
    d0e4:	4606      	mov	r6, r0
    d0e6:	f102 0908 	add.w	r9, r2, #8
    d0ea:	e959 5a02 	ldrd	r5, sl, [r9, #-8]
    d0ee:	ea5f 079a 	movs.w	r7, sl, lsr #2
    d0f2:	d015      	beq.n	d120 <__sprint_r.part.0+0x50>
    d0f4:	3d04      	subs	r5, #4
    d0f6:	2400      	movs	r4, #0
    d0f8:	e001      	b.n	d0fe <__sprint_r.part.0+0x2e>
    d0fa:	42a7      	cmp	r7, r4
    d0fc:	d00e      	beq.n	d11c <__sprint_r.part.0+0x4c>
    d0fe:	f855 1f04 	ldr.w	r1, [r5, #4]!
    d102:	465a      	mov	r2, fp
    d104:	4630      	mov	r0, r6
    d106:	f001 fa5b 	bl	e5c0 <_fputwc_r>
    d10a:	1c43      	adds	r3, r0, #1
    d10c:	f104 0401 	add.w	r4, r4, #1
    d110:	d1f3      	bne.n	d0fa <__sprint_r.part.0+0x2a>
    d112:	2300      	movs	r3, #0
    d114:	e9c8 3301 	strd	r3, r3, [r8, #4]
    d118:	e8bd 8ff8 	ldmia.w	sp!, {r3, r4, r5, r6, r7, r8, r9, sl, fp, pc}
    d11c:	f8d8 3008 	ldr.w	r3, [r8, #8]
    d120:	f02a 0a03 	bic.w	sl, sl, #3
    d124:	eba3 030a 	sub.w	r3, r3, sl
    d128:	f8c8 3008 	str.w	r3, [r8, #8]
    d12c:	f109 0908 	add.w	r9, r9, #8
    d130:	2b00      	cmp	r3, #0
    d132:	d1da      	bne.n	d0ea <__sprint_r.part.0+0x1a>
    d134:	2000      	movs	r0, #0
    d136:	e7ec      	b.n	d112 <__sprint_r.part.0+0x42>
    d138:	f001 f80c 	bl	e154 <__sfvwrite_r>
    d13c:	2300      	movs	r3, #0
    d13e:	e9c8 3301 	strd	r3, r3, [r8, #4]
    d142:	e8bd 8ff8 	ldmia.w	sp!, {r3, r4, r5, r6, r7, r8, r9, sl, fp, pc}
    d146:	bf00      	nop

0000d148 <_vfiprintf_r>:
    d148:	e92d 4ff0 	stmdb	sp!, {r4, r5, r6, r7, r8, r9, sl, fp, lr}
    d14c:	ed2d 8b02 	vpush	{d8}
    d150:	b0c5      	sub	sp, #276	; 0x114
    d152:	f10d 0a50 	add.w	sl, sp, #80	; 0x50
    d156:	4683      	mov	fp, r0
    d158:	ee08 1a10 	vmov	s16, r1
    d15c:	4616      	mov	r6, r2
    d15e:	2100      	movs	r1, #0
    d160:	2208      	movs	r2, #8
    d162:	4650      	mov	r0, sl
    d164:	461c      	mov	r4, r3
    d166:	9307      	str	r3, [sp, #28]
    d168:	f7fc f95c 	bl	9424 <memset>
    d16c:	f1bb 0f00 	cmp.w	fp, #0
    d170:	d004      	beq.n	d17c <_vfiprintf_r+0x34>
    d172:	f8db 3034 	ldr.w	r3, [fp, #52]	; 0x34
    d176:	2b00      	cmp	r3, #0
    d178:	f000 86a0 	beq.w	debc <_vfiprintf_r+0xd74>
    d17c:	ee18 2a10 	vmov	r2, s16
    d180:	6e53      	ldr	r3, [r2, #100]	; 0x64
    d182:	07db      	lsls	r3, r3, #31
    d184:	f140 8513 	bpl.w	dbae <_vfiprintf_r+0xa66>
    d188:	f9b2 100c 	ldrsh.w	r1, [r2, #12]
    d18c:	b28a      	uxth	r2, r1
    d18e:	0495      	lsls	r5, r2, #18
    d190:	d40b      	bmi.n	d1aa <_vfiprintf_r+0x62>
    d192:	ee18 3a10 	vmov	r3, s16
    d196:	f441 5100 	orr.w	r1, r1, #8192	; 0x2000
    d19a:	8199      	strh	r1, [r3, #12]
    d19c:	6e5b      	ldr	r3, [r3, #100]	; 0x64
    d19e:	b28a      	uxth	r2, r1
    d1a0:	ee18 1a10 	vmov	r1, s16
    d1a4:	f423 5300 	bic.w	r3, r3, #8192	; 0x2000
    d1a8:	664b      	str	r3, [r1, #100]	; 0x64
    d1aa:	0710      	lsls	r0, r2, #28
    d1ac:	f140 8105 	bpl.w	d3ba <_vfiprintf_r+0x272>
    d1b0:	ee18 3a10 	vmov	r3, s16
    d1b4:	691b      	ldr	r3, [r3, #16]
    d1b6:	2b00      	cmp	r3, #0
    d1b8:	f000 80ff 	beq.w	d3ba <_vfiprintf_r+0x272>
    d1bc:	f002 031a 	and.w	r3, r2, #26
    d1c0:	2b0a      	cmp	r3, #10
    d1c2:	f000 810a 	beq.w	d3da <_vfiprintf_r+0x292>
    d1c6:	2300      	movs	r3, #0
    d1c8:	e9cd 3319 	strd	r3, r3, [sp, #100]	; 0x64
    d1cc:	e9cd 330d 	strd	r3, r3, [sp, #52]	; 0x34
    d1d0:	aa1b      	add	r2, sp, #108	; 0x6c
    d1d2:	930c      	str	r3, [sp, #48]	; 0x30
    d1d4:	9218      	str	r2, [sp, #96]	; 0x60
    d1d6:	4691      	mov	r9, r2
    d1d8:	930b      	str	r3, [sp, #44]	; 0x2c
    d1da:	9305      	str	r3, [sp, #20]
    d1dc:	46b0      	mov	r8, r6
    d1de:	4644      	mov	r4, r8
    d1e0:	4ba8      	ldr	r3, [pc, #672]	; (d484 <_vfiprintf_r+0x33c>)
    d1e2:	f8d3 50e4 	ldr.w	r5, [r3, #228]	; 0xe4
    d1e6:	f7fc f9a1 	bl	952c <__locale_mb_cur_max>
    d1ea:	4622      	mov	r2, r4
    d1ec:	4603      	mov	r3, r0
    d1ee:	a912      	add	r1, sp, #72	; 0x48
    d1f0:	f8cd a000 	str.w	sl, [sp]
    d1f4:	4658      	mov	r0, fp
    d1f6:	47a8      	blx	r5
    d1f8:	2800      	cmp	r0, #0
    d1fa:	f000 8145 	beq.w	d488 <_vfiprintf_r+0x340>
    d1fe:	f2c0 8139 	blt.w	d474 <_vfiprintf_r+0x32c>
    d202:	9a12      	ldr	r2, [sp, #72]	; 0x48
    d204:	2a25      	cmp	r2, #37	; 0x25
    d206:	4603      	mov	r3, r0
    d208:	d001      	beq.n	d20e <_vfiprintf_r+0xc6>
    d20a:	441c      	add	r4, r3
    d20c:	e7e8      	b.n	d1e0 <_vfiprintf_r+0x98>
    d20e:	ebb4 0608 	subs.w	r6, r4, r8
    d212:	4605      	mov	r5, r0
    d214:	f040 813c 	bne.w	d490 <_vfiprintf_r+0x348>
    d218:	2300      	movs	r3, #0
    d21a:	7861      	ldrb	r1, [r4, #1]
    d21c:	f88d 3043 	strb.w	r3, [sp, #67]	; 0x43
    d220:	f104 0801 	add.w	r8, r4, #1
    d224:	9306      	str	r3, [sp, #24]
    d226:	f04f 37ff 	mov.w	r7, #4294967295
    d22a:	461e      	mov	r6, r3
    d22c:	242b      	movs	r4, #43	; 0x2b
    d22e:	f108 0801 	add.w	r8, r8, #1
    d232:	f1a1 0320 	sub.w	r3, r1, #32
    d236:	2b5a      	cmp	r3, #90	; 0x5a
    d238:	f200 8178 	bhi.w	d52c <_vfiprintf_r+0x3e4>
    d23c:	e8df f013 	tbh	[pc, r3, lsl #1]
    d240:	017602b5 	.word	0x017602b5
    d244:	02b00176 	.word	0x02b00176
    d248:	01760176 	.word	0x01760176
    d24c:	006a0176 	.word	0x006a0176
    d250:	01760176 	.word	0x01760176
    d254:	028d027d 	.word	0x028d027d
    d258:	02880176 	.word	0x02880176
    d25c:	01760297 	.word	0x01760297
    d260:	005b0292 	.word	0x005b0292
    d264:	005b005b 	.word	0x005b005b
    d268:	005b005b 	.word	0x005b005b
    d26c:	005b005b 	.word	0x005b005b
    d270:	005b005b 	.word	0x005b005b
    d274:	01760176 	.word	0x01760176
    d278:	01760176 	.word	0x01760176
    d27c:	01760176 	.word	0x01760176
    d280:	01760176 	.word	0x01760176
    d284:	025c0176 	.word	0x025c0176
    d288:	01760084 	.word	0x01760084
    d28c:	01760176 	.word	0x01760176
    d290:	01760176 	.word	0x01760176
    d294:	01760176 	.word	0x01760176
    d298:	01760176 	.word	0x01760176
    d29c:	00e80176 	.word	0x00e80176
    d2a0:	01760176 	.word	0x01760176
    d2a4:	02330176 	.word	0x02330176
    d2a8:	02da0176 	.word	0x02da0176
    d2ac:	01760176 	.word	0x01760176
    d2b0:	0176058b 	.word	0x0176058b
    d2b4:	01760176 	.word	0x01760176
    d2b8:	01760176 	.word	0x01760176
    d2bc:	01760176 	.word	0x01760176
    d2c0:	01760176 	.word	0x01760176
    d2c4:	025c0176 	.word	0x025c0176
    d2c8:	01760086 	.word	0x01760086
    d2cc:	01760176 	.word	0x01760176
    d2d0:	008602cd 	.word	0x008602cd
    d2d4:	0176007f 	.word	0x0176007f
    d2d8:	017602c0 	.word	0x017602c0
    d2dc:	00ea02fd 	.word	0x00ea02fd
    d2e0:	007f02ed 	.word	0x007f02ed
    d2e4:	02330176 	.word	0x02330176
    d2e8:	0569007c 	.word	0x0569007c
    d2ec:	01760176 	.word	0x01760176
    d2f0:	0176056b 	.word	0x0176056b
    d2f4:	007c      	.short	0x007c
    d2f6:	f1a1 0330 	sub.w	r3, r1, #48	; 0x30
    d2fa:	2200      	movs	r2, #0
    d2fc:	f818 1b01 	ldrb.w	r1, [r8], #1
    d300:	eb02 0282 	add.w	r2, r2, r2, lsl #2
    d304:	eb03 0242 	add.w	r2, r3, r2, lsl #1
    d308:	f1a1 0330 	sub.w	r3, r1, #48	; 0x30
    d30c:	2b09      	cmp	r3, #9
    d30e:	d9f5      	bls.n	d2fc <_vfiprintf_r+0x1b4>
    d310:	9206      	str	r2, [sp, #24]
    d312:	e78e      	b.n	d232 <_vfiprintf_r+0xea>
    d314:	4658      	mov	r0, fp
    d316:	f7fe fe1f 	bl	bf58 <_localeconv_r>
    d31a:	6843      	ldr	r3, [r0, #4]
    d31c:	930d      	str	r3, [sp, #52]	; 0x34
    d31e:	4618      	mov	r0, r3
    d320:	f7fc f9ae 	bl	9680 <strlen>
    d324:	900e      	str	r0, [sp, #56]	; 0x38
    d326:	4605      	mov	r5, r0
    d328:	4658      	mov	r0, fp
    d32a:	f7fe fe15 	bl	bf58 <_localeconv_r>
    d32e:	6883      	ldr	r3, [r0, #8]
    d330:	930b      	str	r3, [sp, #44]	; 0x2c
    d332:	2d00      	cmp	r5, #0
    d334:	f040 84d6 	bne.w	dce4 <_vfiprintf_r+0xb9c>
    d338:	f898 1000 	ldrb.w	r1, [r8]
    d33c:	e777      	b.n	d22e <_vfiprintf_r+0xe6>
    d33e:	f898 1000 	ldrb.w	r1, [r8]
    d342:	f046 0620 	orr.w	r6, r6, #32
    d346:	e772      	b.n	d22e <_vfiprintf_r+0xe6>
    d348:	f046 0610 	orr.w	r6, r6, #16
    d34c:	06b4      	lsls	r4, r6, #26
    d34e:	f140 818e 	bpl.w	d66e <_vfiprintf_r+0x526>
    d352:	9b07      	ldr	r3, [sp, #28]
    d354:	3307      	adds	r3, #7
    d356:	f023 0307 	bic.w	r3, r3, #7
    d35a:	461a      	mov	r2, r3
    d35c:	6859      	ldr	r1, [r3, #4]
    d35e:	f852 3b08 	ldr.w	r3, [r2], #8
    d362:	9207      	str	r2, [sp, #28]
    d364:	460a      	mov	r2, r1
    d366:	2900      	cmp	r1, #0
    d368:	f2c0 8470 	blt.w	dc4c <_vfiprintf_r+0xb04>
    d36c:	1c79      	adds	r1, r7, #1
    d36e:	f000 85a2 	beq.w	deb6 <_vfiprintf_r+0xd6e>
    d372:	f026 0180 	bic.w	r1, r6, #128	; 0x80
    d376:	9103      	str	r1, [sp, #12]
    d378:	ea53 0102 	orrs.w	r1, r3, r2
    d37c:	f000 843f 	beq.w	dbfe <_vfiprintf_r+0xab6>
    d380:	2b0a      	cmp	r3, #10
    d382:	f172 0100 	sbcs.w	r1, r2, #0
    d386:	f080 8541 	bcs.w	de0c <_vfiprintf_r+0xcc4>
    d38a:	3330      	adds	r3, #48	; 0x30
    d38c:	f88d 310f 	strb.w	r3, [sp, #271]	; 0x10f
    d390:	9e03      	ldr	r6, [sp, #12]
    d392:	2301      	movs	r3, #1
    d394:	9304      	str	r3, [sp, #16]
    d396:	f20d 140f 	addw	r4, sp, #271	; 0x10f
    d39a:	9b04      	ldr	r3, [sp, #16]
    d39c:	42bb      	cmp	r3, r7
    d39e:	bfb8      	it	lt
    d3a0:	463b      	movlt	r3, r7
    d3a2:	9303      	str	r3, [sp, #12]
    d3a4:	2300      	movs	r3, #0
    d3a6:	9308      	str	r3, [sp, #32]
    d3a8:	f89d 3043 	ldrb.w	r3, [sp, #67]	; 0x43
    d3ac:	2b00      	cmp	r3, #0
    d3ae:	f000 80cb 	beq.w	d548 <_vfiprintf_r+0x400>
    d3b2:	9b03      	ldr	r3, [sp, #12]
    d3b4:	3301      	adds	r3, #1
    d3b6:	9303      	str	r3, [sp, #12]
    d3b8:	e0c6      	b.n	d548 <_vfiprintf_r+0x400>
    d3ba:	ee18 1a10 	vmov	r1, s16
    d3be:	4658      	mov	r0, fp
    d3c0:	ee18 5a10 	vmov	r5, s16
    d3c4:	f001 f840 	bl	e448 <__swsetup_r>
    d3c8:	2800      	cmp	r0, #0
    d3ca:	f040 8652 	bne.w	e072 <_vfiprintf_r+0xf2a>
    d3ce:	89aa      	ldrh	r2, [r5, #12]
    d3d0:	f002 031a 	and.w	r3, r2, #26
    d3d4:	2b0a      	cmp	r3, #10
    d3d6:	f47f aef6 	bne.w	d1c6 <_vfiprintf_r+0x7e>
    d3da:	ee18 1a10 	vmov	r1, s16
    d3de:	f9b1 300e 	ldrsh.w	r3, [r1, #14]
    d3e2:	2b00      	cmp	r3, #0
    d3e4:	f6ff aeef 	blt.w	d1c6 <_vfiprintf_r+0x7e>
    d3e8:	6e4b      	ldr	r3, [r1, #100]	; 0x64
    d3ea:	07db      	lsls	r3, r3, #31
    d3ec:	d402      	bmi.n	d3f4 <_vfiprintf_r+0x2ac>
    d3ee:	0597      	lsls	r7, r2, #22
    d3f0:	f140 8612 	bpl.w	e018 <_vfiprintf_r+0xed0>
    d3f4:	ee18 1a10 	vmov	r1, s16
    d3f8:	4623      	mov	r3, r4
    d3fa:	4632      	mov	r2, r6
    d3fc:	4658      	mov	r0, fp
    d3fe:	f000 fe69 	bl	e0d4 <__sbprintf>
    d402:	9005      	str	r0, [sp, #20]
    d404:	9805      	ldr	r0, [sp, #20]
    d406:	b045      	add	sp, #276	; 0x114
    d408:	ecbd 8b02 	vpop	{d8}
    d40c:	e8bd 8ff0 	ldmia.w	sp!, {r4, r5, r6, r7, r8, r9, sl, fp, pc}
    d410:	f046 0610 	orr.w	r6, r6, #16
    d414:	f016 0220 	ands.w	r2, r6, #32
    d418:	f000 8136 	beq.w	d688 <_vfiprintf_r+0x540>
    d41c:	9b07      	ldr	r3, [sp, #28]
    d41e:	3307      	adds	r3, #7
    d420:	f023 0307 	bic.w	r3, r3, #7
    d424:	4619      	mov	r1, r3
    d426:	685a      	ldr	r2, [r3, #4]
    d428:	f851 3b08 	ldr.w	r3, [r1], #8
    d42c:	9107      	str	r1, [sp, #28]
    d42e:	f426 6180 	bic.w	r1, r6, #1024	; 0x400
    d432:	9103      	str	r1, [sp, #12]
    d434:	2100      	movs	r1, #0
    d436:	2000      	movs	r0, #0
    d438:	f88d 0043 	strb.w	r0, [sp, #67]	; 0x43
    d43c:	1c78      	adds	r0, r7, #1
    d43e:	f000 8210 	beq.w	d862 <_vfiprintf_r+0x71a>
    d442:	9803      	ldr	r0, [sp, #12]
    d444:	f020 0680 	bic.w	r6, r0, #128	; 0x80
    d448:	ea53 0002 	orrs.w	r0, r3, r2
    d44c:	f040 8208 	bne.w	d860 <_vfiprintf_r+0x718>
    d450:	2f00      	cmp	r7, #0
    d452:	f040 8538 	bne.w	dec6 <_vfiprintf_r+0xd7e>
    d456:	2900      	cmp	r1, #0
    d458:	f040 83d5 	bne.w	dc06 <_vfiprintf_r+0xabe>
    d45c:	9b03      	ldr	r3, [sp, #12]
    d45e:	f013 0301 	ands.w	r3, r3, #1
    d462:	9304      	str	r3, [sp, #16]
    d464:	f000 8411 	beq.w	dc8a <_vfiprintf_r+0xb42>
    d468:	2330      	movs	r3, #48	; 0x30
    d46a:	f88d 310f 	strb.w	r3, [sp, #271]	; 0x10f
    d46e:	f20d 140f 	addw	r4, sp, #271	; 0x10f
    d472:	e792      	b.n	d39a <_vfiprintf_r+0x252>
    d474:	2208      	movs	r2, #8
    d476:	2100      	movs	r1, #0
    d478:	4650      	mov	r0, sl
    d47a:	f7fb ffd3 	bl	9424 <memset>
    d47e:	2301      	movs	r3, #1
    d480:	441c      	add	r4, r3
    d482:	e6ad      	b.n	d1e0 <_vfiprintf_r+0x98>
    d484:	20000cb8 	.word	0x20000cb8
    d488:	ebb4 0608 	subs.w	r6, r4, r8
    d48c:	4605      	mov	r5, r0
    d48e:	d01b      	beq.n	d4c8 <_vfiprintf_r+0x380>
    d490:	9b19      	ldr	r3, [sp, #100]	; 0x64
    d492:	9a1a      	ldr	r2, [sp, #104]	; 0x68
    d494:	3301      	adds	r3, #1
    d496:	4432      	add	r2, r6
    d498:	2b07      	cmp	r3, #7
    d49a:	e9c9 8600 	strd	r8, r6, [r9]
    d49e:	921a      	str	r2, [sp, #104]	; 0x68
    d4a0:	9319      	str	r3, [sp, #100]	; 0x64
    d4a2:	dd1c      	ble.n	d4de <_vfiprintf_r+0x396>
    d4a4:	2a00      	cmp	r2, #0
    d4a6:	f000 83a6 	beq.w	dbf6 <_vfiprintf_r+0xaae>
    d4aa:	ee18 1a10 	vmov	r1, s16
    d4ae:	aa18      	add	r2, sp, #96	; 0x60
    d4b0:	4658      	mov	r0, fp
    d4b2:	f7ff fe0d 	bl	d0d0 <__sprint_r.part.0>
    d4b6:	bb20      	cbnz	r0, d502 <_vfiprintf_r+0x3ba>
    d4b8:	f10d 096c 	add.w	r9, sp, #108	; 0x6c
    d4bc:	9b05      	ldr	r3, [sp, #20]
    d4be:	4433      	add	r3, r6
    d4c0:	9305      	str	r3, [sp, #20]
    d4c2:	2d00      	cmp	r5, #0
    d4c4:	f47f aea8 	bne.w	d218 <_vfiprintf_r+0xd0>
    d4c8:	9b1a      	ldr	r3, [sp, #104]	; 0x68
    d4ca:	2b00      	cmp	r3, #0
    d4cc:	f040 85c1 	bne.w	e052 <_vfiprintf_r+0xf0a>
    d4d0:	ee18 3a10 	vmov	r3, s16
    d4d4:	2200      	movs	r2, #0
    d4d6:	f9b3 300c 	ldrsh.w	r3, [r3, #12]
    d4da:	9219      	str	r2, [sp, #100]	; 0x64
    d4dc:	e015      	b.n	d50a <_vfiprintf_r+0x3c2>
    d4de:	f109 0908 	add.w	r9, r9, #8
    d4e2:	e7eb      	b.n	d4bc <_vfiprintf_r+0x374>
    d4e4:	ee18 1a10 	vmov	r1, s16
    d4e8:	aa18      	add	r2, sp, #96	; 0x60
    d4ea:	4658      	mov	r0, fp
    d4ec:	f7ff fdf0 	bl	d0d0 <__sprint_r.part.0>
    d4f0:	2800      	cmp	r0, #0
    d4f2:	f000 80a6 	beq.w	d642 <_vfiprintf_r+0x4fa>
    d4f6:	9b08      	ldr	r3, [sp, #32]
    d4f8:	b11b      	cbz	r3, d502 <_vfiprintf_r+0x3ba>
    d4fa:	9908      	ldr	r1, [sp, #32]
    d4fc:	4658      	mov	r0, fp
    d4fe:	f7fc f97d 	bl	97fc <_free_r>
    d502:	ee18 3a10 	vmov	r3, s16
    d506:	f9b3 300c 	ldrsh.w	r3, [r3, #12]
    d50a:	ee18 2a10 	vmov	r2, s16
    d50e:	6e52      	ldr	r2, [r2, #100]	; 0x64
    d510:	f012 0f01 	tst.w	r2, #1
    d514:	b29a      	uxth	r2, r3
    d516:	f000 80a0 	beq.w	d65a <_vfiprintf_r+0x512>
    d51a:	0650      	lsls	r0, r2, #25
    d51c:	f100 85b2 	bmi.w	e084 <_vfiprintf_r+0xf3c>
    d520:	9805      	ldr	r0, [sp, #20]
    d522:	b045      	add	sp, #276	; 0x114
    d524:	ecbd 8b02 	vpop	{d8}
    d528:	e8bd 8ff0 	ldmia.w	sp!, {r4, r5, r6, r7, r8, r9, sl, fp, pc}
    d52c:	2900      	cmp	r1, #0
    d52e:	d0cb      	beq.n	d4c8 <_vfiprintf_r+0x380>
    d530:	2300      	movs	r3, #0
    d532:	f88d 3043 	strb.w	r3, [sp, #67]	; 0x43
    d536:	2301      	movs	r3, #1
    d538:	e9cd 3303 	strd	r3, r3, [sp, #12]
    d53c:	f88d 10ac 	strb.w	r1, [sp, #172]	; 0xac
    d540:	ac2b      	add	r4, sp, #172	; 0xac
    d542:	2300      	movs	r3, #0
    d544:	9308      	str	r3, [sp, #32]
    d546:	461f      	mov	r7, r3
    d548:	f016 0302 	ands.w	r3, r6, #2
    d54c:	9309      	str	r3, [sp, #36]	; 0x24
    d54e:	d002      	beq.n	d556 <_vfiprintf_r+0x40e>
    d550:	9b03      	ldr	r3, [sp, #12]
    d552:	3302      	adds	r3, #2
    d554:	9303      	str	r3, [sp, #12]
    d556:	f016 0384 	ands.w	r3, r6, #132	; 0x84
    d55a:	930a      	str	r3, [sp, #40]	; 0x28
    d55c:	d105      	bne.n	d56a <_vfiprintf_r+0x422>
    d55e:	9b06      	ldr	r3, [sp, #24]
    d560:	9a03      	ldr	r2, [sp, #12]
    d562:	1a9d      	subs	r5, r3, r2
    d564:	2d00      	cmp	r5, #0
    d566:	f300 827b 	bgt.w	da60 <_vfiprintf_r+0x918>
    d56a:	e9dd 0319 	ldrd	r0, r3, [sp, #100]	; 0x64
    d56e:	1c41      	adds	r1, r0, #1
    d570:	f89d 2043 	ldrb.w	r2, [sp, #67]	; 0x43
    d574:	b182      	cbz	r2, d598 <_vfiprintf_r+0x450>
    d576:	2201      	movs	r2, #1
    d578:	3301      	adds	r3, #1
    d57a:	f8c9 2004 	str.w	r2, [r9, #4]
    d57e:	2907      	cmp	r1, #7
    d580:	f10d 0243 	add.w	r2, sp, #67	; 0x43
    d584:	e9cd 1319 	strd	r1, r3, [sp, #100]	; 0x64
    d588:	f8c9 2000 	str.w	r2, [r9]
    d58c:	f300 824a 	bgt.w	da24 <_vfiprintf_r+0x8dc>
    d590:	4608      	mov	r0, r1
    d592:	f109 0908 	add.w	r9, r9, #8
    d596:	3101      	adds	r1, #1
    d598:	9a09      	ldr	r2, [sp, #36]	; 0x24
    d59a:	b1e2      	cbz	r2, d5d6 <_vfiprintf_r+0x48e>
    d59c:	aa11      	add	r2, sp, #68	; 0x44
    d59e:	3302      	adds	r3, #2
    d5a0:	f8c9 2000 	str.w	r2, [r9]
    d5a4:	2907      	cmp	r1, #7
    d5a6:	f04f 0202 	mov.w	r2, #2
    d5aa:	e9cd 1319 	strd	r1, r3, [sp, #100]	; 0x64
    d5ae:	f8c9 2004 	str.w	r2, [r9, #4]
    d5b2:	f340 8250 	ble.w	da56 <_vfiprintf_r+0x90e>
    d5b6:	2b00      	cmp	r3, #0
    d5b8:	f000 8343 	beq.w	dc42 <_vfiprintf_r+0xafa>
    d5bc:	ee18 1a10 	vmov	r1, s16
    d5c0:	aa18      	add	r2, sp, #96	; 0x60
    d5c2:	4658      	mov	r0, fp
    d5c4:	f7ff fd84 	bl	d0d0 <__sprint_r.part.0>
    d5c8:	2800      	cmp	r0, #0
    d5ca:	d194      	bne.n	d4f6 <_vfiprintf_r+0x3ae>
    d5cc:	e9dd 0319 	ldrd	r0, r3, [sp, #100]	; 0x64
    d5d0:	f10d 096c 	add.w	r9, sp, #108	; 0x6c
    d5d4:	1c41      	adds	r1, r0, #1
    d5d6:	9a0a      	ldr	r2, [sp, #40]	; 0x28
    d5d8:	2a80      	cmp	r2, #128	; 0x80
    d5da:	f000 8184 	beq.w	d8e6 <_vfiprintf_r+0x79e>
    d5de:	9a04      	ldr	r2, [sp, #16]
    d5e0:	1abd      	subs	r5, r7, r2
    d5e2:	2d00      	cmp	r5, #0
    d5e4:	f300 81d7 	bgt.w	d996 <_vfiprintf_r+0x84e>
    d5e8:	9a04      	ldr	r2, [sp, #16]
    d5ea:	f8c9 4000 	str.w	r4, [r9]
    d5ee:	4413      	add	r3, r2
    d5f0:	2907      	cmp	r1, #7
    d5f2:	e9cd 1319 	strd	r1, r3, [sp, #100]	; 0x64
    d5f6:	f8c9 2004 	str.w	r2, [r9, #4]
    d5fa:	f340 816e 	ble.w	d8da <_vfiprintf_r+0x792>
    d5fe:	2b00      	cmp	r3, #0
    d600:	f000 8275 	beq.w	daee <_vfiprintf_r+0x9a6>
    d604:	ee18 1a10 	vmov	r1, s16
    d608:	aa18      	add	r2, sp, #96	; 0x60
    d60a:	4658      	mov	r0, fp
    d60c:	f7ff fd60 	bl	d0d0 <__sprint_r.part.0>
    d610:	2800      	cmp	r0, #0
    d612:	f47f af70 	bne.w	d4f6 <_vfiprintf_r+0x3ae>
    d616:	9b1a      	ldr	r3, [sp, #104]	; 0x68
    d618:	f10d 096c 	add.w	r9, sp, #108	; 0x6c
    d61c:	0775      	lsls	r5, r6, #29
    d61e:	d505      	bpl.n	d62c <_vfiprintf_r+0x4e4>
    d620:	9a06      	ldr	r2, [sp, #24]
    d622:	9903      	ldr	r1, [sp, #12]
    d624:	1a54      	subs	r4, r2, r1
    d626:	2c00      	cmp	r4, #0
    d628:	f300 826b 	bgt.w	db02 <_vfiprintf_r+0x9ba>
    d62c:	e9dd 2105 	ldrd	r2, r1, [sp, #20]
    d630:	9803      	ldr	r0, [sp, #12]
    d632:	4281      	cmp	r1, r0
    d634:	bfac      	ite	ge
    d636:	1852      	addge	r2, r2, r1
    d638:	1812      	addlt	r2, r2, r0
    d63a:	9205      	str	r2, [sp, #20]
    d63c:	2b00      	cmp	r3, #0
    d63e:	f47f af51 	bne.w	d4e4 <_vfiprintf_r+0x39c>
    d642:	9908      	ldr	r1, [sp, #32]
    d644:	2300      	movs	r3, #0
    d646:	9319      	str	r3, [sp, #100]	; 0x64
    d648:	2900      	cmp	r1, #0
    d64a:	f000 8149 	beq.w	d8e0 <_vfiprintf_r+0x798>
    d64e:	4658      	mov	r0, fp
    d650:	f7fc f8d4 	bl	97fc <_free_r>
    d654:	f10d 096c 	add.w	r9, sp, #108	; 0x6c
    d658:	e5c1      	b.n	d1de <_vfiprintf_r+0x96>
    d65a:	059c      	lsls	r4, r3, #22
    d65c:	f53f af5d 	bmi.w	d51a <_vfiprintf_r+0x3d2>
    d660:	ee18 4a10 	vmov	r4, s16
    d664:	6da0      	ldr	r0, [r4, #88]	; 0x58
    d666:	f7fb fffd 	bl	9664 <__retarget_lock_release_recursive>
    d66a:	89a2      	ldrh	r2, [r4, #12]
    d66c:	e755      	b.n	d51a <_vfiprintf_r+0x3d2>
    d66e:	06f0      	lsls	r0, r6, #27
    d670:	9a07      	ldr	r2, [sp, #28]
    d672:	f100 831f 	bmi.w	dcb4 <_vfiprintf_r+0xb6c>
    d676:	0671      	lsls	r1, r6, #25
    d678:	f140 8319 	bpl.w	dcae <_vfiprintf_r+0xb66>
    d67c:	f932 3b04 	ldrsh.w	r3, [r2], #4
    d680:	9207      	str	r2, [sp, #28]
    d682:	17da      	asrs	r2, r3, #31
    d684:	4611      	mov	r1, r2
    d686:	e66e      	b.n	d366 <_vfiprintf_r+0x21e>
    d688:	f016 0310 	ands.w	r3, r6, #16
    d68c:	9907      	ldr	r1, [sp, #28]
    d68e:	f040 8309 	bne.w	dca4 <_vfiprintf_r+0xb5c>
    d692:	f016 0040 	ands.w	r0, r6, #64	; 0x40
    d696:	f000 8301 	beq.w	dc9c <_vfiprintf_r+0xb54>
    d69a:	461a      	mov	r2, r3
    d69c:	f851 3b04 	ldr.w	r3, [r1], #4
    d6a0:	9107      	str	r1, [sp, #28]
    d6a2:	b29b      	uxth	r3, r3
    d6a4:	e6c3      	b.n	d42e <_vfiprintf_r+0x2e6>
    d6a6:	9b07      	ldr	r3, [sp, #28]
    d6a8:	461a      	mov	r2, r3
    d6aa:	2300      	movs	r3, #0
    d6ac:	f88d 3043 	strb.w	r3, [sp, #67]	; 0x43
    d6b0:	4613      	mov	r3, r2
    d6b2:	f853 4b04 	ldr.w	r4, [r3], #4
    d6b6:	9303      	str	r3, [sp, #12]
    d6b8:	2c00      	cmp	r4, #0
    d6ba:	f000 8412 	beq.w	dee2 <_vfiprintf_r+0xd9a>
    d6be:	2953      	cmp	r1, #83	; 0x53
    d6c0:	f000 8365 	beq.w	dd8e <_vfiprintf_r+0xc46>
    d6c4:	f016 0510 	ands.w	r5, r6, #16
    d6c8:	f040 8361 	bne.w	dd8e <_vfiprintf_r+0xc46>
    d6cc:	1c7b      	adds	r3, r7, #1
    d6ce:	f000 84b3 	beq.w	e038 <_vfiprintf_r+0xef0>
    d6d2:	463a      	mov	r2, r7
    d6d4:	4629      	mov	r1, r5
    d6d6:	4620      	mov	r0, r4
    d6d8:	f7fe fc42 	bl	bf60 <memchr>
    d6dc:	9008      	str	r0, [sp, #32]
    d6de:	2800      	cmp	r0, #0
    d6e0:	f000 849f 	beq.w	e022 <_vfiprintf_r+0xeda>
    d6e4:	1b03      	subs	r3, r0, r4
    d6e6:	9a03      	ldr	r2, [sp, #12]
    d6e8:	9304      	str	r3, [sp, #16]
    d6ea:	ea23 73e3 	bic.w	r3, r3, r3, asr #31
    d6ee:	462f      	mov	r7, r5
    d6f0:	9207      	str	r2, [sp, #28]
    d6f2:	9303      	str	r3, [sp, #12]
    d6f4:	9508      	str	r5, [sp, #32]
    d6f6:	e657      	b.n	d3a8 <_vfiprintf_r+0x260>
    d6f8:	2943      	cmp	r1, #67	; 0x43
    d6fa:	d002      	beq.n	d702 <_vfiprintf_r+0x5ba>
    d6fc:	06f5      	lsls	r5, r6, #27
    d6fe:	f140 832d 	bpl.w	dd5c <_vfiprintf_r+0xc14>
    d702:	9d07      	ldr	r5, [sp, #28]
    d704:	2208      	movs	r2, #8
    d706:	2100      	movs	r1, #0
    d708:	a816      	add	r0, sp, #88	; 0x58
    d70a:	ac2b      	add	r4, sp, #172	; 0xac
    d70c:	f7fb fe8a 	bl	9424 <memset>
    d710:	ab16      	add	r3, sp, #88	; 0x58
    d712:	f855 2b04 	ldr.w	r2, [r5], #4
    d716:	4621      	mov	r1, r4
    d718:	4658      	mov	r0, fp
    d71a:	f7ff fc13 	bl	cf44 <_wcrtomb_r>
    d71e:	4603      	mov	r3, r0
    d720:	3301      	adds	r3, #1
    d722:	9004      	str	r0, [sp, #16]
    d724:	f000 84b3 	beq.w	e08e <_vfiprintf_r+0xf46>
    d728:	9b04      	ldr	r3, [sp, #16]
    d72a:	9507      	str	r5, [sp, #28]
    d72c:	ea23 73e3 	bic.w	r3, r3, r3, asr #31
    d730:	9303      	str	r3, [sp, #12]
    d732:	2300      	movs	r3, #0
    d734:	f88d 3043 	strb.w	r3, [sp, #67]	; 0x43
    d738:	e703      	b.n	d542 <_vfiprintf_r+0x3fa>
    d73a:	9b07      	ldr	r3, [sp, #28]
    d73c:	f853 2b04 	ldr.w	r2, [r3], #4
    d740:	9206      	str	r2, [sp, #24]
    d742:	2a00      	cmp	r2, #0
    d744:	f280 829c 	bge.w	dc80 <_vfiprintf_r+0xb38>
    d748:	9a06      	ldr	r2, [sp, #24]
    d74a:	4252      	negs	r2, r2
    d74c:	e9cd 2306 	strd	r2, r3, [sp, #24]
    d750:	f898 1000 	ldrb.w	r1, [r8]
    d754:	f046 0604 	orr.w	r6, r6, #4
    d758:	e569      	b.n	d22e <_vfiprintf_r+0xe6>
    d75a:	f898 1000 	ldrb.w	r1, [r8]
    d75e:	f88d 4043 	strb.w	r4, [sp, #67]	; 0x43
    d762:	e564      	b.n	d22e <_vfiprintf_r+0xe6>
    d764:	f898 1000 	ldrb.w	r1, [r8]
    d768:	f046 0680 	orr.w	r6, r6, #128	; 0x80
    d76c:	e55f      	b.n	d22e <_vfiprintf_r+0xe6>
    d76e:	4642      	mov	r2, r8
    d770:	f812 1b01 	ldrb.w	r1, [r2], #1
    d774:	292a      	cmp	r1, #42	; 0x2a
    d776:	f000 8496 	beq.w	e0a6 <_vfiprintf_r+0xf5e>
    d77a:	f1a1 0330 	sub.w	r3, r1, #48	; 0x30
    d77e:	2b09      	cmp	r3, #9
    d780:	4690      	mov	r8, r2
    d782:	f04f 0700 	mov.w	r7, #0
    d786:	f63f ad54 	bhi.w	d232 <_vfiprintf_r+0xea>
    d78a:	f818 1b01 	ldrb.w	r1, [r8], #1
    d78e:	eb07 0787 	add.w	r7, r7, r7, lsl #2
    d792:	eb03 0747 	add.w	r7, r3, r7, lsl #1
    d796:	f1a1 0330 	sub.w	r3, r1, #48	; 0x30
    d79a:	2b09      	cmp	r3, #9
    d79c:	d9f5      	bls.n	d78a <_vfiprintf_r+0x642>
    d79e:	e548      	b.n	d232 <_vfiprintf_r+0xea>
    d7a0:	f898 1000 	ldrb.w	r1, [r8]
    d7a4:	f046 0601 	orr.w	r6, r6, #1
    d7a8:	e541      	b.n	d22e <_vfiprintf_r+0xe6>
    d7aa:	f89d 3043 	ldrb.w	r3, [sp, #67]	; 0x43
    d7ae:	2b00      	cmp	r3, #0
    d7b0:	f47f adc2 	bne.w	d338 <_vfiprintf_r+0x1f0>
    d7b4:	2320      	movs	r3, #32
    d7b6:	f898 1000 	ldrb.w	r1, [r8]
    d7ba:	f88d 3043 	strb.w	r3, [sp, #67]	; 0x43
    d7be:	e536      	b.n	d22e <_vfiprintf_r+0xe6>
    d7c0:	f898 1000 	ldrb.w	r1, [r8]
    d7c4:	296c      	cmp	r1, #108	; 0x6c
    d7c6:	bf03      	ittte	eq
    d7c8:	f898 1001 	ldrbeq.w	r1, [r8, #1]
    d7cc:	f046 0620 	orreq.w	r6, r6, #32
    d7d0:	f108 0801 	addeq.w	r8, r8, #1
    d7d4:	f046 0610 	orrne.w	r6, r6, #16
    d7d8:	e529      	b.n	d22e <_vfiprintf_r+0xe6>
    d7da:	f898 1000 	ldrb.w	r1, [r8]
    d7de:	2968      	cmp	r1, #104	; 0x68
    d7e0:	bf03      	ittte	eq
    d7e2:	f898 1001 	ldrbeq.w	r1, [r8, #1]
    d7e6:	f446 7600 	orreq.w	r6, r6, #512	; 0x200
    d7ea:	f108 0801 	addeq.w	r8, r8, #1
    d7ee:	f046 0640 	orrne.w	r6, r6, #64	; 0x40
    d7f2:	e51c      	b.n	d22e <_vfiprintf_r+0xe6>
    d7f4:	f046 0310 	orr.w	r3, r6, #16
    d7f8:	9303      	str	r3, [sp, #12]
    d7fa:	9b03      	ldr	r3, [sp, #12]
    d7fc:	f013 0220 	ands.w	r2, r3, #32
    d800:	f000 8206 	beq.w	dc10 <_vfiprintf_r+0xac8>
    d804:	9b07      	ldr	r3, [sp, #28]
    d806:	3307      	adds	r3, #7
    d808:	f023 0307 	bic.w	r3, r3, #7
    d80c:	4619      	mov	r1, r3
    d80e:	685a      	ldr	r2, [r3, #4]
    d810:	f851 3b08 	ldr.w	r3, [r1], #8
    d814:	9107      	str	r1, [sp, #28]
    d816:	2101      	movs	r1, #1
    d818:	e60d      	b.n	d436 <_vfiprintf_r+0x2ee>
    d81a:	9a07      	ldr	r2, [sp, #28]
    d81c:	f046 0302 	orr.w	r3, r6, #2
    d820:	9303      	str	r3, [sp, #12]
    d822:	f852 3b04 	ldr.w	r3, [r2], #4
    d826:	9207      	str	r2, [sp, #28]
    d828:	f647 0230 	movw	r2, #30768	; 0x7830
    d82c:	f8ad 2044 	strh.w	r2, [sp, #68]	; 0x44
    d830:	4ab8      	ldr	r2, [pc, #736]	; (db14 <_vfiprintf_r+0x9cc>)
    d832:	920c      	str	r2, [sp, #48]	; 0x30
    d834:	2102      	movs	r1, #2
    d836:	2200      	movs	r2, #0
    d838:	e5fd      	b.n	d436 <_vfiprintf_r+0x2ee>
    d83a:	06b7      	lsls	r7, r6, #26
    d83c:	f100 8248 	bmi.w	dcd0 <_vfiprintf_r+0xb88>
    d840:	06f5      	lsls	r5, r6, #27
    d842:	f100 8346 	bmi.w	ded2 <_vfiprintf_r+0xd8a>
    d846:	0674      	lsls	r4, r6, #25
    d848:	f100 83d5 	bmi.w	dff6 <_vfiprintf_r+0xeae>
    d84c:	05b0      	lsls	r0, r6, #22
    d84e:	f140 8340 	bpl.w	ded2 <_vfiprintf_r+0xd8a>
    d852:	9b07      	ldr	r3, [sp, #28]
    d854:	9905      	ldr	r1, [sp, #20]
    d856:	f853 2b04 	ldr.w	r2, [r3], #4
    d85a:	9307      	str	r3, [sp, #28]
    d85c:	7011      	strb	r1, [r2, #0]
    d85e:	e4be      	b.n	d1de <_vfiprintf_r+0x96>
    d860:	9603      	str	r6, [sp, #12]
    d862:	2901      	cmp	r1, #1
    d864:	f43f ad8c 	beq.w	d380 <_vfiprintf_r+0x238>
    d868:	2902      	cmp	r1, #2
    d86a:	ac44      	add	r4, sp, #272	; 0x110
    d86c:	d111      	bne.n	d892 <_vfiprintf_r+0x74a>
    d86e:	980c      	ldr	r0, [sp, #48]	; 0x30
    d870:	f003 010f 	and.w	r1, r3, #15
    d874:	091b      	lsrs	r3, r3, #4
    d876:	5c41      	ldrb	r1, [r0, r1]
    d878:	f804 1d01 	strb.w	r1, [r4, #-1]!
    d87c:	ea43 7302 	orr.w	r3, r3, r2, lsl #28
    d880:	0912      	lsrs	r2, r2, #4
    d882:	ea53 0102 	orrs.w	r1, r3, r2
    d886:	d1f3      	bne.n	d870 <_vfiprintf_r+0x728>
    d888:	9e03      	ldr	r6, [sp, #12]
    d88a:	ab44      	add	r3, sp, #272	; 0x110
    d88c:	1b1b      	subs	r3, r3, r4
    d88e:	9304      	str	r3, [sp, #16]
    d890:	e583      	b.n	d39a <_vfiprintf_r+0x252>
    d892:	f003 0107 	and.w	r1, r3, #7
    d896:	08db      	lsrs	r3, r3, #3
    d898:	ea43 7342 	orr.w	r3, r3, r2, lsl #29
    d89c:	08d2      	lsrs	r2, r2, #3
    d89e:	3130      	adds	r1, #48	; 0x30
    d8a0:	ea53 0502 	orrs.w	r5, r3, r2
    d8a4:	4620      	mov	r0, r4
    d8a6:	f804 1d01 	strb.w	r1, [r4, #-1]!
    d8aa:	d1f2      	bne.n	d892 <_vfiprintf_r+0x74a>
    d8ac:	9e03      	ldr	r6, [sp, #12]
    d8ae:	07f3      	lsls	r3, r6, #31
    d8b0:	d5eb      	bpl.n	d88a <_vfiprintf_r+0x742>
    d8b2:	2930      	cmp	r1, #48	; 0x30
    d8b4:	d0e8      	beq.n	d888 <_vfiprintf_r+0x740>
    d8b6:	2330      	movs	r3, #48	; 0x30
    d8b8:	3802      	subs	r0, #2
    d8ba:	f804 3c01 	strb.w	r3, [r4, #-1]
    d8be:	ab44      	add	r3, sp, #272	; 0x110
    d8c0:	1a1b      	subs	r3, r3, r0
    d8c2:	9e03      	ldr	r6, [sp, #12]
    d8c4:	9304      	str	r3, [sp, #16]
    d8c6:	4604      	mov	r4, r0
    d8c8:	e567      	b.n	d39a <_vfiprintf_r+0x252>
    d8ca:	9b04      	ldr	r3, [sp, #16]
    d8cc:	941b      	str	r4, [sp, #108]	; 0x6c
    d8ce:	2201      	movs	r2, #1
    d8d0:	931c      	str	r3, [sp, #112]	; 0x70
    d8d2:	931a      	str	r3, [sp, #104]	; 0x68
    d8d4:	9219      	str	r2, [sp, #100]	; 0x64
    d8d6:	f10d 096c 	add.w	r9, sp, #108	; 0x6c
    d8da:	f109 0908 	add.w	r9, r9, #8
    d8de:	e69d      	b.n	d61c <_vfiprintf_r+0x4d4>
    d8e0:	f10d 096c 	add.w	r9, sp, #108	; 0x6c
    d8e4:	e47b      	b.n	d1de <_vfiprintf_r+0x96>
    d8e6:	9a06      	ldr	r2, [sp, #24]
    d8e8:	9d03      	ldr	r5, [sp, #12]
    d8ea:	1b55      	subs	r5, r2, r5
    d8ec:	2d00      	cmp	r5, #0
    d8ee:	f77f ae76 	ble.w	d5de <_vfiprintf_r+0x496>
    d8f2:	2d10      	cmp	r5, #16
    d8f4:	f340 83bb 	ble.w	e06e <_vfiprintf_r+0xf26>
    d8f8:	9409      	str	r4, [sp, #36]	; 0x24
    d8fa:	ee18 4a10 	vmov	r4, s16
    d8fe:	e007      	b.n	d910 <_vfiprintf_r+0x7c8>
    d900:	f100 0c02 	add.w	ip, r0, #2
    d904:	f109 0908 	add.w	r9, r9, #8
    d908:	4610      	mov	r0, r2
    d90a:	3d10      	subs	r5, #16
    d90c:	2d10      	cmp	r5, #16
    d90e:	dd1e      	ble.n	d94e <_vfiprintf_r+0x806>
    d910:	4981      	ldr	r1, [pc, #516]	; (db18 <_vfiprintf_r+0x9d0>)
    d912:	f8c9 1000 	str.w	r1, [r9]
    d916:	1c42      	adds	r2, r0, #1
    d918:	3310      	adds	r3, #16
    d91a:	2110      	movs	r1, #16
    d91c:	2a07      	cmp	r2, #7
    d91e:	e9cd 2319 	strd	r2, r3, [sp, #100]	; 0x64
    d922:	f8c9 1004 	str.w	r1, [r9, #4]
    d926:	ddeb      	ble.n	d900 <_vfiprintf_r+0x7b8>
    d928:	aa18      	add	r2, sp, #96	; 0x60
    d92a:	2b00      	cmp	r3, #0
    d92c:	d074      	beq.n	da18 <_vfiprintf_r+0x8d0>
    d92e:	4621      	mov	r1, r4
    d930:	4658      	mov	r0, fp
    d932:	f10d 096c 	add.w	r9, sp, #108	; 0x6c
    d936:	f7ff fbcb 	bl	d0d0 <__sprint_r.part.0>
    d93a:	2800      	cmp	r0, #0
    d93c:	f47f addb 	bne.w	d4f6 <_vfiprintf_r+0x3ae>
    d940:	e9dd 0319 	ldrd	r0, r3, [sp, #100]	; 0x64
    d944:	3d10      	subs	r5, #16
    d946:	2d10      	cmp	r5, #16
    d948:	f100 0c01 	add.w	ip, r0, #1
    d94c:	dce0      	bgt.n	d910 <_vfiprintf_r+0x7c8>
    d94e:	9c09      	ldr	r4, [sp, #36]	; 0x24
    d950:	4a71      	ldr	r2, [pc, #452]	; (db18 <_vfiprintf_r+0x9d0>)
    d952:	f8c9 5004 	str.w	r5, [r9, #4]
    d956:	442b      	add	r3, r5
    d958:	f1bc 0f07 	cmp.w	ip, #7
    d95c:	e9cd c319 	strd	ip, r3, [sp, #100]	; 0x64
    d960:	f8c9 2000 	str.w	r2, [r9]
    d964:	f340 8194 	ble.w	dc90 <_vfiprintf_r+0xb48>
    d968:	2b00      	cmp	r3, #0
    d96a:	f000 831f 	beq.w	dfac <_vfiprintf_r+0xe64>
    d96e:	ee18 1a10 	vmov	r1, s16
    d972:	aa18      	add	r2, sp, #96	; 0x60
    d974:	4658      	mov	r0, fp
    d976:	f7ff fbab 	bl	d0d0 <__sprint_r.part.0>
    d97a:	2800      	cmp	r0, #0
    d97c:	f47f adbb 	bne.w	d4f6 <_vfiprintf_r+0x3ae>
    d980:	9a04      	ldr	r2, [sp, #16]
    d982:	e9dd 0319 	ldrd	r0, r3, [sp, #100]	; 0x64
    d986:	1abd      	subs	r5, r7, r2
    d988:	2d00      	cmp	r5, #0
    d98a:	f100 0101 	add.w	r1, r0, #1
    d98e:	f10d 096c 	add.w	r9, sp, #108	; 0x6c
    d992:	f77f ae29 	ble.w	d5e8 <_vfiprintf_r+0x4a0>
    d996:	2d10      	cmp	r5, #16
    d998:	dd29      	ble.n	d9ee <_vfiprintf_r+0x8a6>
    d99a:	9409      	str	r4, [sp, #36]	; 0x24
    d99c:	2710      	movs	r7, #16
    d99e:	ee18 4a10 	vmov	r4, s16
    d9a2:	e007      	b.n	d9b4 <_vfiprintf_r+0x86c>
    d9a4:	f100 0c02 	add.w	ip, r0, #2
    d9a8:	f109 0908 	add.w	r9, r9, #8
    d9ac:	4610      	mov	r0, r2
    d9ae:	3d10      	subs	r5, #16
    d9b0:	2d10      	cmp	r5, #16
    d9b2:	dd1a      	ble.n	d9ea <_vfiprintf_r+0x8a2>
    d9b4:	1c42      	adds	r2, r0, #1
    d9b6:	4958      	ldr	r1, [pc, #352]	; (db18 <_vfiprintf_r+0x9d0>)
    d9b8:	3310      	adds	r3, #16
    d9ba:	2a07      	cmp	r2, #7
    d9bc:	e9c9 1700 	strd	r1, r7, [r9]
    d9c0:	e9cd 2319 	strd	r2, r3, [sp, #100]	; 0x64
    d9c4:	ddee      	ble.n	d9a4 <_vfiprintf_r+0x85c>
    d9c6:	aa18      	add	r2, sp, #96	; 0x60
    d9c8:	b303      	cbz	r3, da0c <_vfiprintf_r+0x8c4>
    d9ca:	4621      	mov	r1, r4
    d9cc:	4658      	mov	r0, fp
    d9ce:	f10d 096c 	add.w	r9, sp, #108	; 0x6c
    d9d2:	f7ff fb7d 	bl	d0d0 <__sprint_r.part.0>
    d9d6:	2800      	cmp	r0, #0
    d9d8:	f47f ad8d 	bne.w	d4f6 <_vfiprintf_r+0x3ae>
    d9dc:	e9dd 0319 	ldrd	r0, r3, [sp, #100]	; 0x64
    d9e0:	3d10      	subs	r5, #16
    d9e2:	2d10      	cmp	r5, #16
    d9e4:	f100 0c01 	add.w	ip, r0, #1
    d9e8:	dce4      	bgt.n	d9b4 <_vfiprintf_r+0x86c>
    d9ea:	9c09      	ldr	r4, [sp, #36]	; 0x24
    d9ec:	4661      	mov	r1, ip
    d9ee:	4a4a      	ldr	r2, [pc, #296]	; (db18 <_vfiprintf_r+0x9d0>)
    d9f0:	f8c9 5004 	str.w	r5, [r9, #4]
    d9f4:	442b      	add	r3, r5
    d9f6:	2907      	cmp	r1, #7
    d9f8:	e9cd 1319 	strd	r1, r3, [sp, #100]	; 0x64
    d9fc:	f8c9 2000 	str.w	r2, [r9]
    da00:	f300 80e7 	bgt.w	dbd2 <_vfiprintf_r+0xa8a>
    da04:	f109 0908 	add.w	r9, r9, #8
    da08:	3101      	adds	r1, #1
    da0a:	e5ed      	b.n	d5e8 <_vfiprintf_r+0x4a0>
    da0c:	f04f 0c01 	mov.w	ip, #1
    da10:	4618      	mov	r0, r3
    da12:	f10d 096c 	add.w	r9, sp, #108	; 0x6c
    da16:	e7ca      	b.n	d9ae <_vfiprintf_r+0x866>
    da18:	f04f 0c01 	mov.w	ip, #1
    da1c:	4618      	mov	r0, r3
    da1e:	f10d 096c 	add.w	r9, sp, #108	; 0x6c
    da22:	e772      	b.n	d90a <_vfiprintf_r+0x7c2>
    da24:	2b00      	cmp	r3, #0
    da26:	f000 8104 	beq.w	dc32 <_vfiprintf_r+0xaea>
    da2a:	ee18 1a10 	vmov	r1, s16
    da2e:	aa18      	add	r2, sp, #96	; 0x60
    da30:	4658      	mov	r0, fp
    da32:	f7ff fb4d 	bl	d0d0 <__sprint_r.part.0>
    da36:	2800      	cmp	r0, #0
    da38:	f47f ad5d 	bne.w	d4f6 <_vfiprintf_r+0x3ae>
    da3c:	e9dd 0319 	ldrd	r0, r3, [sp, #100]	; 0x64
    da40:	f10d 096c 	add.w	r9, sp, #108	; 0x6c
    da44:	1c41      	adds	r1, r0, #1
    da46:	e5a7      	b.n	d598 <_vfiprintf_r+0x450>
    da48:	2302      	movs	r3, #2
    da4a:	aa11      	add	r2, sp, #68	; 0x44
    da4c:	931c      	str	r3, [sp, #112]	; 0x70
    da4e:	921b      	str	r2, [sp, #108]	; 0x6c
    da50:	2101      	movs	r1, #1
    da52:	f10d 096c 	add.w	r9, sp, #108	; 0x6c
    da56:	4608      	mov	r0, r1
    da58:	f109 0908 	add.w	r9, r9, #8
    da5c:	1c41      	adds	r1, r0, #1
    da5e:	e5ba      	b.n	d5d6 <_vfiprintf_r+0x48e>
    da60:	2d10      	cmp	r5, #16
    da62:	f340 82e5 	ble.w	e030 <_vfiprintf_r+0xee8>
    da66:	e9dd 1319 	ldrd	r1, r3, [sp, #100]	; 0x64
    da6a:	940f      	str	r4, [sp, #60]	; 0x3c
    da6c:	4608      	mov	r0, r1
    da6e:	ee18 4a10 	vmov	r4, s16
    da72:	e007      	b.n	da84 <_vfiprintf_r+0x93c>
    da74:	f100 0c02 	add.w	ip, r0, #2
    da78:	f109 0908 	add.w	r9, r9, #8
    da7c:	4610      	mov	r0, r2
    da7e:	3d10      	subs	r5, #16
    da80:	2d10      	cmp	r5, #16
    da82:	dd1d      	ble.n	dac0 <_vfiprintf_r+0x978>
    da84:	4925      	ldr	r1, [pc, #148]	; (db1c <_vfiprintf_r+0x9d4>)
    da86:	f8c9 1000 	str.w	r1, [r9]
    da8a:	1c42      	adds	r2, r0, #1
    da8c:	3310      	adds	r3, #16
    da8e:	2110      	movs	r1, #16
    da90:	2a07      	cmp	r2, #7
    da92:	e9cd 2319 	strd	r2, r3, [sp, #100]	; 0x64
    da96:	f8c9 1004 	str.w	r1, [r9, #4]
    da9a:	ddeb      	ble.n	da74 <_vfiprintf_r+0x92c>
    da9c:	aa18      	add	r2, sp, #96	; 0x60
    da9e:	b303      	cbz	r3, dae2 <_vfiprintf_r+0x99a>
    daa0:	4621      	mov	r1, r4
    daa2:	4658      	mov	r0, fp
    daa4:	f10d 096c 	add.w	r9, sp, #108	; 0x6c
    daa8:	f7ff fb12 	bl	d0d0 <__sprint_r.part.0>
    daac:	2800      	cmp	r0, #0
    daae:	f47f ad22 	bne.w	d4f6 <_vfiprintf_r+0x3ae>
    dab2:	e9dd 0319 	ldrd	r0, r3, [sp, #100]	; 0x64
    dab6:	3d10      	subs	r5, #16
    dab8:	2d10      	cmp	r5, #16
    daba:	f100 0c01 	add.w	ip, r0, #1
    dabe:	dce1      	bgt.n	da84 <_vfiprintf_r+0x93c>
    dac0:	9c0f      	ldr	r4, [sp, #60]	; 0x3c
    dac2:	4660      	mov	r0, ip
    dac4:	4a15      	ldr	r2, [pc, #84]	; (db1c <_vfiprintf_r+0x9d4>)
    dac6:	f8c9 5004 	str.w	r5, [r9, #4]
    daca:	442b      	add	r3, r5
    dacc:	2807      	cmp	r0, #7
    dace:	e9cd 0319 	strd	r0, r3, [sp, #100]	; 0x64
    dad2:	f8c9 2000 	str.w	r2, [r9]
    dad6:	f300 80c1 	bgt.w	dc5c <_vfiprintf_r+0xb14>
    dada:	f109 0908 	add.w	r9, r9, #8
    dade:	1c41      	adds	r1, r0, #1
    dae0:	e546      	b.n	d570 <_vfiprintf_r+0x428>
    dae2:	4618      	mov	r0, r3
    dae4:	f04f 0c01 	mov.w	ip, #1
    dae8:	f10d 096c 	add.w	r9, sp, #108	; 0x6c
    daec:	e7c7      	b.n	da7e <_vfiprintf_r+0x936>
    daee:	0776      	lsls	r6, r6, #29
    daf0:	9319      	str	r3, [sp, #100]	; 0x64
    daf2:	d553      	bpl.n	db9c <_vfiprintf_r+0xa54>
    daf4:	9a06      	ldr	r2, [sp, #24]
    daf6:	9903      	ldr	r1, [sp, #12]
    daf8:	1a54      	subs	r4, r2, r1
    dafa:	2c00      	cmp	r4, #0
    dafc:	dd4e      	ble.n	db9c <_vfiprintf_r+0xa54>
    dafe:	f10d 096c 	add.w	r9, sp, #108	; 0x6c
    db02:	2c10      	cmp	r4, #16
    db04:	f340 82b0 	ble.w	e068 <_vfiprintf_r+0xf20>
    db08:	9919      	ldr	r1, [sp, #100]	; 0x64
    db0a:	ee18 6a10 	vmov	r6, s16
    db0e:	2510      	movs	r5, #16
    db10:	e00d      	b.n	db2e <_vfiprintf_r+0x9e6>
    db12:	bf00      	nop
    db14:	20000978 	.word	0x20000978
    db18:	20000b68 	.word	0x20000b68
    db1c:	200009bc 	.word	0x200009bc
    db20:	1c88      	adds	r0, r1, #2
    db22:	f109 0908 	add.w	r9, r9, #8
    db26:	4611      	mov	r1, r2
    db28:	3c10      	subs	r4, #16
    db2a:	2c10      	cmp	r4, #16
    db2c:	dd1a      	ble.n	db64 <_vfiprintf_r+0xa1c>
    db2e:	1c4a      	adds	r2, r1, #1
    db30:	48b3      	ldr	r0, [pc, #716]	; (de00 <_vfiprintf_r+0xcb8>)
    db32:	3310      	adds	r3, #16
    db34:	2a07      	cmp	r2, #7
    db36:	e9c9 0500 	strd	r0, r5, [r9]
    db3a:	e9cd 2319 	strd	r2, r3, [sp, #100]	; 0x64
    db3e:	ddef      	ble.n	db20 <_vfiprintf_r+0x9d8>
    db40:	aa18      	add	r2, sp, #96	; 0x60
    db42:	b333      	cbz	r3, db92 <_vfiprintf_r+0xa4a>
    db44:	4631      	mov	r1, r6
    db46:	4658      	mov	r0, fp
    db48:	f7ff fac2 	bl	d0d0 <__sprint_r.part.0>
    db4c:	2800      	cmp	r0, #0
    db4e:	f47f acd2 	bne.w	d4f6 <_vfiprintf_r+0x3ae>
    db52:	e9dd 1319 	ldrd	r1, r3, [sp, #100]	; 0x64
    db56:	3c10      	subs	r4, #16
    db58:	2c10      	cmp	r4, #16
    db5a:	f101 0001 	add.w	r0, r1, #1
    db5e:	f10d 096c 	add.w	r9, sp, #108	; 0x6c
    db62:	dce4      	bgt.n	db2e <_vfiprintf_r+0x9e6>
    db64:	4aa6      	ldr	r2, [pc, #664]	; (de00 <_vfiprintf_r+0xcb8>)
    db66:	f8c9 4004 	str.w	r4, [r9, #4]
    db6a:	4423      	add	r3, r4
    db6c:	2807      	cmp	r0, #7
    db6e:	e9cd 0319 	strd	r0, r3, [sp, #100]	; 0x64
    db72:	f8c9 2000 	str.w	r2, [r9]
    db76:	f77f ad59 	ble.w	d62c <_vfiprintf_r+0x4e4>
    db7a:	b17b      	cbz	r3, db9c <_vfiprintf_r+0xa54>
    db7c:	ee18 1a10 	vmov	r1, s16
    db80:	aa18      	add	r2, sp, #96	; 0x60
    db82:	4658      	mov	r0, fp
    db84:	f7ff faa4 	bl	d0d0 <__sprint_r.part.0>
    db88:	2800      	cmp	r0, #0
    db8a:	f47f acb4 	bne.w	d4f6 <_vfiprintf_r+0x3ae>
    db8e:	9b1a      	ldr	r3, [sp, #104]	; 0x68
    db90:	e54c      	b.n	d62c <_vfiprintf_r+0x4e4>
    db92:	2001      	movs	r0, #1
    db94:	4619      	mov	r1, r3
    db96:	f10d 096c 	add.w	r9, sp, #108	; 0x6c
    db9a:	e7c5      	b.n	db28 <_vfiprintf_r+0x9e0>
    db9c:	e9dd 3205 	ldrd	r3, r2, [sp, #20]
    dba0:	9903      	ldr	r1, [sp, #12]
    dba2:	428a      	cmp	r2, r1
    dba4:	bfac      	ite	ge
    dba6:	189b      	addge	r3, r3, r2
    dba8:	185b      	addlt	r3, r3, r1
    dbaa:	9305      	str	r3, [sp, #20]
    dbac:	e549      	b.n	d642 <_vfiprintf_r+0x4fa>
    dbae:	f9b2 100c 	ldrsh.w	r1, [r2, #12]
    dbb2:	058f      	lsls	r7, r1, #22
    dbb4:	ee18 3a10 	vmov	r3, s16
    dbb8:	b28a      	uxth	r2, r1
    dbba:	f53f aae8 	bmi.w	d18e <_vfiprintf_r+0x46>
    dbbe:	ee18 5a10 	vmov	r5, s16
    dbc2:	6d98      	ldr	r0, [r3, #88]	; 0x58
    dbc4:	f7fb fd4c 	bl	9660 <__retarget_lock_acquire_recursive>
    dbc8:	f9b5 100c 	ldrsh.w	r1, [r5, #12]
    dbcc:	b28a      	uxth	r2, r1
    dbce:	f7ff bade 	b.w	d18e <_vfiprintf_r+0x46>
    dbd2:	2b00      	cmp	r3, #0
    dbd4:	f43f ae79 	beq.w	d8ca <_vfiprintf_r+0x782>
    dbd8:	ee18 1a10 	vmov	r1, s16
    dbdc:	aa18      	add	r2, sp, #96	; 0x60
    dbde:	4658      	mov	r0, fp
    dbe0:	f7ff fa76 	bl	d0d0 <__sprint_r.part.0>
    dbe4:	2800      	cmp	r0, #0
    dbe6:	f47f ac86 	bne.w	d4f6 <_vfiprintf_r+0x3ae>
    dbea:	9919      	ldr	r1, [sp, #100]	; 0x64
    dbec:	9b1a      	ldr	r3, [sp, #104]	; 0x68
    dbee:	3101      	adds	r1, #1
    dbf0:	f10d 096c 	add.w	r9, sp, #108	; 0x6c
    dbf4:	e4f8      	b.n	d5e8 <_vfiprintf_r+0x4a0>
    dbf6:	9219      	str	r2, [sp, #100]	; 0x64
    dbf8:	f10d 096c 	add.w	r9, sp, #108	; 0x6c
    dbfc:	e45e      	b.n	d4bc <_vfiprintf_r+0x374>
    dbfe:	2f00      	cmp	r7, #0
    dc00:	f47f abc3 	bne.w	d38a <_vfiprintf_r+0x242>
    dc04:	9e03      	ldr	r6, [sp, #12]
    dc06:	2700      	movs	r7, #0
    dc08:	9704      	str	r7, [sp, #16]
    dc0a:	ac44      	add	r4, sp, #272	; 0x110
    dc0c:	f7ff bbc5 	b.w	d39a <_vfiprintf_r+0x252>
    dc10:	9b03      	ldr	r3, [sp, #12]
    dc12:	f013 0310 	ands.w	r3, r3, #16
    dc16:	d154      	bne.n	dcc2 <_vfiprintf_r+0xb7a>
    dc18:	9a03      	ldr	r2, [sp, #12]
    dc1a:	f012 0040 	ands.w	r0, r2, #64	; 0x40
    dc1e:	f000 816b 	beq.w	def8 <_vfiprintf_r+0xdb0>
    dc22:	9907      	ldr	r1, [sp, #28]
    dc24:	461a      	mov	r2, r3
    dc26:	f851 3b04 	ldr.w	r3, [r1], #4
    dc2a:	9107      	str	r1, [sp, #28]
    dc2c:	b29b      	uxth	r3, r3
    dc2e:	2101      	movs	r1, #1
    dc30:	e401      	b.n	d436 <_vfiprintf_r+0x2ee>
    dc32:	9a09      	ldr	r2, [sp, #36]	; 0x24
    dc34:	2a00      	cmp	r2, #0
    dc36:	d164      	bne.n	dd02 <_vfiprintf_r+0xbba>
    dc38:	4618      	mov	r0, r3
    dc3a:	2101      	movs	r1, #1
    dc3c:	f10d 096c 	add.w	r9, sp, #108	; 0x6c
    dc40:	e4c9      	b.n	d5d6 <_vfiprintf_r+0x48e>
    dc42:	2101      	movs	r1, #1
    dc44:	4618      	mov	r0, r3
    dc46:	f10d 096c 	add.w	r9, sp, #108	; 0x6c
    dc4a:	e4c4      	b.n	d5d6 <_vfiprintf_r+0x48e>
    dc4c:	425b      	negs	r3, r3
    dc4e:	eb62 0242 	sbc.w	r2, r2, r2, lsl #1
    dc52:	9603      	str	r6, [sp, #12]
    dc54:	202d      	movs	r0, #45	; 0x2d
    dc56:	2101      	movs	r1, #1
    dc58:	f7ff bbee 	b.w	d438 <_vfiprintf_r+0x2f0>
    dc5c:	2b00      	cmp	r3, #0
    dc5e:	f000 8088 	beq.w	dd72 <_vfiprintf_r+0xc2a>
    dc62:	ee18 1a10 	vmov	r1, s16
    dc66:	aa18      	add	r2, sp, #96	; 0x60
    dc68:	4658      	mov	r0, fp
    dc6a:	f7ff fa31 	bl	d0d0 <__sprint_r.part.0>
    dc6e:	2800      	cmp	r0, #0
    dc70:	f47f ac41 	bne.w	d4f6 <_vfiprintf_r+0x3ae>
    dc74:	e9dd 0319 	ldrd	r0, r3, [sp, #100]	; 0x64
    dc78:	f10d 096c 	add.w	r9, sp, #108	; 0x6c
    dc7c:	1c41      	adds	r1, r0, #1
    dc7e:	e477      	b.n	d570 <_vfiprintf_r+0x428>
    dc80:	f898 1000 	ldrb.w	r1, [r8]
    dc84:	9307      	str	r3, [sp, #28]
    dc86:	f7ff bad2 	b.w	d22e <_vfiprintf_r+0xe6>
    dc8a:	ac44      	add	r4, sp, #272	; 0x110
    dc8c:	f7ff bb85 	b.w	d39a <_vfiprintf_r+0x252>
    dc90:	f109 0908 	add.w	r9, r9, #8
    dc94:	f10c 0101 	add.w	r1, ip, #1
    dc98:	4660      	mov	r0, ip
    dc9a:	e4a0      	b.n	d5de <_vfiprintf_r+0x496>
    dc9c:	f416 7200 	ands.w	r2, r6, #512	; 0x200
    dca0:	f040 8197 	bne.w	dfd2 <_vfiprintf_r+0xe8a>
    dca4:	f851 3b04 	ldr.w	r3, [r1], #4
    dca8:	9107      	str	r1, [sp, #28]
    dcaa:	f7ff bbc0 	b.w	d42e <_vfiprintf_r+0x2e6>
    dcae:	05b3      	lsls	r3, r6, #22
    dcb0:	f100 8188 	bmi.w	dfc4 <_vfiprintf_r+0xe7c>
    dcb4:	f852 3b04 	ldr.w	r3, [r2], #4
    dcb8:	9207      	str	r2, [sp, #28]
    dcba:	17da      	asrs	r2, r3, #31
    dcbc:	4611      	mov	r1, r2
    dcbe:	f7ff bb52 	b.w	d366 <_vfiprintf_r+0x21e>
    dcc2:	9907      	ldr	r1, [sp, #28]
    dcc4:	f851 3b04 	ldr.w	r3, [r1], #4
    dcc8:	9107      	str	r1, [sp, #28]
    dcca:	2101      	movs	r1, #1
    dccc:	f7ff bbb3 	b.w	d436 <_vfiprintf_r+0x2ee>
    dcd0:	9b07      	ldr	r3, [sp, #28]
    dcd2:	9805      	ldr	r0, [sp, #20]
    dcd4:	f853 1b04 	ldr.w	r1, [r3], #4
    dcd8:	9307      	str	r3, [sp, #28]
    dcda:	17c2      	asrs	r2, r0, #31
    dcdc:	e9c1 0200 	strd	r0, r2, [r1]
    dce0:	f7ff ba7d 	b.w	d1de <_vfiprintf_r+0x96>
    dce4:	9b0b      	ldr	r3, [sp, #44]	; 0x2c
    dce6:	2b00      	cmp	r3, #0
    dce8:	f43f ab26 	beq.w	d338 <_vfiprintf_r+0x1f0>
    dcec:	9b0b      	ldr	r3, [sp, #44]	; 0x2c
    dcee:	781b      	ldrb	r3, [r3, #0]
    dcf0:	2b00      	cmp	r3, #0
    dcf2:	f43f ab21 	beq.w	d338 <_vfiprintf_r+0x1f0>
    dcf6:	f898 1000 	ldrb.w	r1, [r8]
    dcfa:	f446 6680 	orr.w	r6, r6, #1024	; 0x400
    dcfe:	f7ff ba96 	b.w	d22e <_vfiprintf_r+0xe6>
    dd02:	2302      	movs	r3, #2
    dd04:	aa11      	add	r2, sp, #68	; 0x44
    dd06:	931c      	str	r3, [sp, #112]	; 0x70
    dd08:	921b      	str	r2, [sp, #108]	; 0x6c
    dd0a:	2001      	movs	r0, #1
    dd0c:	f10d 096c 	add.w	r9, sp, #108	; 0x6c
    dd10:	e6a2      	b.n	da58 <_vfiprintf_r+0x910>
    dd12:	9603      	str	r6, [sp, #12]
    dd14:	e571      	b.n	d7fa <_vfiprintf_r+0x6b2>
    dd16:	4b3b      	ldr	r3, [pc, #236]	; (de04 <_vfiprintf_r+0xcbc>)
    dd18:	930c      	str	r3, [sp, #48]	; 0x30
    dd1a:	f016 0220 	ands.w	r2, r6, #32
    dd1e:	d059      	beq.n	ddd4 <_vfiprintf_r+0xc8c>
    dd20:	9b07      	ldr	r3, [sp, #28]
    dd22:	3307      	adds	r3, #7
    dd24:	f023 0307 	bic.w	r3, r3, #7
    dd28:	4618      	mov	r0, r3
    dd2a:	685a      	ldr	r2, [r3, #4]
    dd2c:	f850 3b08 	ldr.w	r3, [r0], #8
    dd30:	9007      	str	r0, [sp, #28]
    dd32:	07f4      	lsls	r4, r6, #31
    dd34:	d509      	bpl.n	dd4a <_vfiprintf_r+0xc02>
    dd36:	ea53 0002 	orrs.w	r0, r3, r2
    dd3a:	d006      	beq.n	dd4a <_vfiprintf_r+0xc02>
    dd3c:	f88d 1045 	strb.w	r1, [sp, #69]	; 0x45
    dd40:	2130      	movs	r1, #48	; 0x30
    dd42:	f046 0602 	orr.w	r6, r6, #2
    dd46:	f88d 1044 	strb.w	r1, [sp, #68]	; 0x44
    dd4a:	f426 6180 	bic.w	r1, r6, #1024	; 0x400
    dd4e:	9103      	str	r1, [sp, #12]
    dd50:	2102      	movs	r1, #2
    dd52:	f7ff bb70 	b.w	d436 <_vfiprintf_r+0x2ee>
    dd56:	4b2c      	ldr	r3, [pc, #176]	; (de08 <_vfiprintf_r+0xcc0>)
    dd58:	930c      	str	r3, [sp, #48]	; 0x30
    dd5a:	e7de      	b.n	dd1a <_vfiprintf_r+0xbd2>
    dd5c:	9b07      	ldr	r3, [sp, #28]
    dd5e:	2101      	movs	r1, #1
    dd60:	f853 2b04 	ldr.w	r2, [r3], #4
    dd64:	9103      	str	r1, [sp, #12]
    dd66:	f88d 20ac 	strb.w	r2, [sp, #172]	; 0xac
    dd6a:	9307      	str	r3, [sp, #28]
    dd6c:	9104      	str	r1, [sp, #16]
    dd6e:	ac2b      	add	r4, sp, #172	; 0xac
    dd70:	e4df      	b.n	d732 <_vfiprintf_r+0x5ea>
    dd72:	f89d 2043 	ldrb.w	r2, [sp, #67]	; 0x43
    dd76:	2a00      	cmp	r2, #0
    dd78:	f040 8132 	bne.w	dfe0 <_vfiprintf_r+0xe98>
    dd7c:	9a09      	ldr	r2, [sp, #36]	; 0x24
    dd7e:	2a00      	cmp	r2, #0
    dd80:	f47f ae62 	bne.w	da48 <_vfiprintf_r+0x900>
    dd84:	4618      	mov	r0, r3
    dd86:	2101      	movs	r1, #1
    dd88:	f10d 096c 	add.w	r9, sp, #108	; 0x6c
    dd8c:	e427      	b.n	d5de <_vfiprintf_r+0x496>
    dd8e:	2100      	movs	r1, #0
    dd90:	2208      	movs	r2, #8
    dd92:	a816      	add	r0, sp, #88	; 0x58
    dd94:	9413      	str	r4, [sp, #76]	; 0x4c
    dd96:	f7fb fb45 	bl	9424 <memset>
    dd9a:	1c79      	adds	r1, r7, #1
    dd9c:	f000 80bc 	beq.w	df18 <_vfiprintf_r+0xdd0>
    dda0:	2500      	movs	r5, #0
    dda2:	9407      	str	r4, [sp, #28]
    dda4:	462c      	mov	r4, r5
    dda6:	e00c      	b.n	ddc2 <_vfiprintf_r+0xc7a>
    dda8:	a92b      	add	r1, sp, #172	; 0xac
    ddaa:	4658      	mov	r0, fp
    ddac:	f7ff f8ca 	bl	cf44 <_wcrtomb_r>
    ddb0:	1c42      	adds	r2, r0, #1
    ddb2:	4420      	add	r0, r4
    ddb4:	f000 816b 	beq.w	e08e <_vfiprintf_r+0xf46>
    ddb8:	42b8      	cmp	r0, r7
    ddba:	dc08      	bgt.n	ddce <_vfiprintf_r+0xc86>
    ddbc:	f000 8170 	beq.w	e0a0 <_vfiprintf_r+0xf58>
    ddc0:	4604      	mov	r4, r0
    ddc2:	9a13      	ldr	r2, [sp, #76]	; 0x4c
    ddc4:	5952      	ldr	r2, [r2, r5]
    ddc6:	ab16      	add	r3, sp, #88	; 0x58
    ddc8:	3504      	adds	r5, #4
    ddca:	2a00      	cmp	r2, #0
    ddcc:	d1ec      	bne.n	dda8 <_vfiprintf_r+0xc60>
    ddce:	9404      	str	r4, [sp, #16]
    ddd0:	9c07      	ldr	r4, [sp, #28]
    ddd2:	e0af      	b.n	df34 <_vfiprintf_r+0xdec>
    ddd4:	f016 0310 	ands.w	r3, r6, #16
    ddd8:	9807      	ldr	r0, [sp, #28]
    ddda:	d10c      	bne.n	ddf6 <_vfiprintf_r+0xcae>
    dddc:	f016 0440 	ands.w	r4, r6, #64	; 0x40
    dde0:	d005      	beq.n	ddee <_vfiprintf_r+0xca6>
    dde2:	461a      	mov	r2, r3
    dde4:	f850 3b04 	ldr.w	r3, [r0], #4
    dde8:	9007      	str	r0, [sp, #28]
    ddea:	b29b      	uxth	r3, r3
    ddec:	e7a1      	b.n	dd32 <_vfiprintf_r+0xbea>
    ddee:	f416 7200 	ands.w	r2, r6, #512	; 0x200
    ddf2:	f040 80e1 	bne.w	dfb8 <_vfiprintf_r+0xe70>
    ddf6:	f850 3b04 	ldr.w	r3, [r0], #4
    ddfa:	9007      	str	r0, [sp, #28]
    ddfc:	e799      	b.n	dd32 <_vfiprintf_r+0xbea>
    ddfe:	bf00      	nop
    de00:	200009bc 	.word	0x200009bc
    de04:	20000978 	.word	0x20000978
    de08:	2000098c 	.word	0x2000098c
    de0c:	9903      	ldr	r1, [sp, #12]
    de0e:	9704      	str	r7, [sp, #16]
    de10:	ac44      	add	r4, sp, #272	; 0x110
    de12:	469e      	mov	lr, r3
    de14:	ee08 ba90 	vmov	s17, fp
    de18:	f401 6680 	and.w	r6, r1, #1024	; 0x400
    de1c:	f04f 0c00 	mov.w	ip, #0
    de20:	4623      	mov	r3, r4
    de22:	e006      	b.n	de32 <_vfiprintf_r+0xcea>
    de24:	f1be 0f0a 	cmp.w	lr, #10
    de28:	f172 0200 	sbcs.w	r2, r2, #0
    de2c:	d339      	bcc.n	dea2 <_vfiprintf_r+0xd5a>
    de2e:	46a6      	mov	lr, r4
    de30:	462a      	mov	r2, r5
    de32:	49a6      	ldr	r1, [pc, #664]	; (e0cc <_vfiprintf_r+0xf84>)
    de34:	eb1e 0002 	adds.w	r0, lr, r2
    de38:	f140 0000 	adc.w	r0, r0, #0
    de3c:	460f      	mov	r7, r1
    de3e:	fba1 1400 	umull	r1, r4, r1, r0
    de42:	f024 0103 	bic.w	r1, r4, #3
    de46:	eb01 0194 	add.w	r1, r1, r4, lsr #2
    de4a:	1a40      	subs	r0, r0, r1
    de4c:	ebbe 0100 	subs.w	r1, lr, r0
    de50:	f04f 35cc 	mov.w	r5, #3435973836	; 0xcccccccc
    de54:	f162 0400 	sbc.w	r4, r2, #0
    de58:	fb05 f501 	mul.w	r5, r5, r1
    de5c:	fb07 5504 	mla	r5, r7, r4, r5
    de60:	fba1 4107 	umull	r4, r1, r1, r7
    de64:	440d      	add	r5, r1
    de66:	2705      	movs	r7, #5
    de68:	f004 0101 	and.w	r1, r4, #1
    de6c:	fba1 1b07 	umull	r1, fp, r1, r7
    de70:	1809      	adds	r1, r1, r0
    de72:	0864      	lsrs	r4, r4, #1
    de74:	3130      	adds	r1, #48	; 0x30
    de76:	f803 1c01 	strb.w	r1, [r3, #-1]
    de7a:	ea44 74c5 	orr.w	r4, r4, r5, lsl #31
    de7e:	f10c 0c01 	add.w	ip, ip, #1
    de82:	3b01      	subs	r3, #1
    de84:	086d      	lsrs	r5, r5, #1
    de86:	2e00      	cmp	r6, #0
    de88:	d0cc      	beq.n	de24 <_vfiprintf_r+0xcdc>
    de8a:	990b      	ldr	r1, [sp, #44]	; 0x2c
    de8c:	7809      	ldrb	r1, [r1, #0]
    de8e:	4561      	cmp	r1, ip
    de90:	d1c8      	bne.n	de24 <_vfiprintf_r+0xcdc>
    de92:	f1bc 0fff 	cmp.w	ip, #255	; 0xff
    de96:	d0c5      	beq.n	de24 <_vfiprintf_r+0xcdc>
    de98:	f1be 0f0a 	cmp.w	lr, #10
    de9c:	f172 0200 	sbcs.w	r2, r2, #0
    dea0:	d26c      	bcs.n	df7c <_vfiprintf_r+0xe34>
    dea2:	461c      	mov	r4, r3
    dea4:	ab44      	add	r3, sp, #272	; 0x110
    dea6:	1b1b      	subs	r3, r3, r4
    dea8:	9f04      	ldr	r7, [sp, #16]
    deaa:	9e03      	ldr	r6, [sp, #12]
    deac:	9304      	str	r3, [sp, #16]
    deae:	ee18 ba90 	vmov	fp, s17
    deb2:	f7ff ba72 	b.w	d39a <_vfiprintf_r+0x252>
    deb6:	9603      	str	r6, [sp, #12]
    deb8:	f7ff ba62 	b.w	d380 <_vfiprintf_r+0x238>
    debc:	4658      	mov	r0, fp
    debe:	f7fb f95d 	bl	917c <__sinit>
    dec2:	f7ff b95b 	b.w	d17c <_vfiprintf_r+0x34>
    dec6:	2901      	cmp	r1, #1
    dec8:	9603      	str	r6, [sp, #12]
    deca:	f47f accd 	bne.w	d868 <_vfiprintf_r+0x720>
    dece:	f7ff ba5c 	b.w	d38a <_vfiprintf_r+0x242>
    ded2:	9b07      	ldr	r3, [sp, #28]
    ded4:	9905      	ldr	r1, [sp, #20]
    ded6:	f853 2b04 	ldr.w	r2, [r3], #4
    deda:	6011      	str	r1, [r2, #0]
    dedc:	9307      	str	r3, [sp, #28]
    dede:	f7ff b97e 	b.w	d1de <_vfiprintf_r+0x96>
    dee2:	2f06      	cmp	r7, #6
    dee4:	463b      	mov	r3, r7
    dee6:	9a03      	ldr	r2, [sp, #12]
    dee8:	4c79      	ldr	r4, [pc, #484]	; (e0d0 <_vfiprintf_r+0xf88>)
    deea:	9207      	str	r2, [sp, #28]
    deec:	bf28      	it	cs
    deee:	2306      	movcs	r3, #6
    def0:	9304      	str	r3, [sp, #16]
    def2:	9303      	str	r3, [sp, #12]
    def4:	f7ff bb25 	b.w	d542 <_vfiprintf_r+0x3fa>
    def8:	9b03      	ldr	r3, [sp, #12]
    defa:	9907      	ldr	r1, [sp, #28]
    defc:	f413 7200 	ands.w	r2, r3, #512	; 0x200
    df00:	bf14      	ite	ne
    df02:	f851 3b04 	ldrne.w	r3, [r1], #4
    df06:	f851 3b04 	ldreq.w	r3, [r1], #4
    df0a:	9107      	str	r1, [sp, #28]
    df0c:	bf1c      	itt	ne
    df0e:	4602      	movne	r2, r0
    df10:	b2db      	uxtbne	r3, r3
    df12:	2101      	movs	r1, #1
    df14:	f7ff ba8f 	b.w	d436 <_vfiprintf_r+0x2ee>
    df18:	ab16      	add	r3, sp, #88	; 0x58
    df1a:	9300      	str	r3, [sp, #0]
    df1c:	2300      	movs	r3, #0
    df1e:	4619      	mov	r1, r3
    df20:	aa13      	add	r2, sp, #76	; 0x4c
    df22:	4658      	mov	r0, fp
    df24:	f7ff f834 	bl	cf90 <_wcsrtombs_r>
    df28:	4603      	mov	r3, r0
    df2a:	3301      	adds	r3, #1
    df2c:	9004      	str	r0, [sp, #16]
    df2e:	f000 80ae 	beq.w	e08e <_vfiprintf_r+0xf46>
    df32:	9413      	str	r4, [sp, #76]	; 0x4c
    df34:	9b04      	ldr	r3, [sp, #16]
    df36:	2b00      	cmp	r3, #0
    df38:	d030      	beq.n	df9c <_vfiprintf_r+0xe54>
    df3a:	2b63      	cmp	r3, #99	; 0x63
    df3c:	dc63      	bgt.n	e006 <_vfiprintf_r+0xebe>
    df3e:	2300      	movs	r3, #0
    df40:	9308      	str	r3, [sp, #32]
    df42:	ac2b      	add	r4, sp, #172	; 0xac
    df44:	2208      	movs	r2, #8
    df46:	2100      	movs	r1, #0
    df48:	a816      	add	r0, sp, #88	; 0x58
    df4a:	f7fb fa6b 	bl	9424 <memset>
    df4e:	9d04      	ldr	r5, [sp, #16]
    df50:	ab16      	add	r3, sp, #88	; 0x58
    df52:	9300      	str	r3, [sp, #0]
    df54:	aa13      	add	r2, sp, #76	; 0x4c
    df56:	462b      	mov	r3, r5
    df58:	4621      	mov	r1, r4
    df5a:	4658      	mov	r0, fp
    df5c:	f7ff f818 	bl	cf90 <_wcsrtombs_r>
    df60:	4285      	cmp	r5, r0
    df62:	f040 80ab 	bne.w	e0bc <_vfiprintf_r+0xf74>
    df66:	9b03      	ldr	r3, [sp, #12]
    df68:	9a04      	ldr	r2, [sp, #16]
    df6a:	9307      	str	r3, [sp, #28]
    df6c:	2300      	movs	r3, #0
    df6e:	54a3      	strb	r3, [r4, r2]
    df70:	461f      	mov	r7, r3
    df72:	ea22 73e2 	bic.w	r3, r2, r2, asr #31
    df76:	9303      	str	r3, [sp, #12]
    df78:	f7ff ba16 	b.w	d3a8 <_vfiprintf_r+0x260>
    df7c:	9a0e      	ldr	r2, [sp, #56]	; 0x38
    df7e:	990d      	ldr	r1, [sp, #52]	; 0x34
    df80:	1a9b      	subs	r3, r3, r2
    df82:	4618      	mov	r0, r3
    df84:	9308      	str	r3, [sp, #32]
    df86:	f7fb fa9f 	bl	94c8 <strncpy>
    df8a:	990b      	ldr	r1, [sp, #44]	; 0x2c
    df8c:	9b08      	ldr	r3, [sp, #32]
    df8e:	784a      	ldrb	r2, [r1, #1]
    df90:	b10a      	cbz	r2, df96 <_vfiprintf_r+0xe4e>
    df92:	3101      	adds	r1, #1
    df94:	910b      	str	r1, [sp, #44]	; 0x2c
    df96:	f04f 0c00 	mov.w	ip, #0
    df9a:	e748      	b.n	de2e <_vfiprintf_r+0xce6>
    df9c:	9b03      	ldr	r3, [sp, #12]
    df9e:	9307      	str	r3, [sp, #28]
    dfa0:	9b04      	ldr	r3, [sp, #16]
    dfa2:	9303      	str	r3, [sp, #12]
    dfa4:	461f      	mov	r7, r3
    dfa6:	9308      	str	r3, [sp, #32]
    dfa8:	f7ff b9fe 	b.w	d3a8 <_vfiprintf_r+0x260>
    dfac:	2101      	movs	r1, #1
    dfae:	4618      	mov	r0, r3
    dfb0:	f10d 096c 	add.w	r9, sp, #108	; 0x6c
    dfb4:	f7ff bb13 	b.w	d5de <_vfiprintf_r+0x496>
    dfb8:	f850 3b04 	ldr.w	r3, [r0], #4
    dfbc:	9007      	str	r0, [sp, #28]
    dfbe:	4622      	mov	r2, r4
    dfc0:	b2db      	uxtb	r3, r3
    dfc2:	e6b6      	b.n	dd32 <_vfiprintf_r+0xbea>
    dfc4:	f912 3b04 	ldrsb.w	r3, [r2], #4
    dfc8:	9207      	str	r2, [sp, #28]
    dfca:	17da      	asrs	r2, r3, #31
    dfcc:	4611      	mov	r1, r2
    dfce:	f7ff b9ca 	b.w	d366 <_vfiprintf_r+0x21e>
    dfd2:	f851 3b04 	ldr.w	r3, [r1], #4
    dfd6:	9107      	str	r1, [sp, #28]
    dfd8:	4602      	mov	r2, r0
    dfda:	b2db      	uxtb	r3, r3
    dfdc:	f7ff ba27 	b.w	d42e <_vfiprintf_r+0x2e6>
    dfe0:	2301      	movs	r3, #1
    dfe2:	931c      	str	r3, [sp, #112]	; 0x70
    dfe4:	2101      	movs	r1, #1
    dfe6:	f10d 0343 	add.w	r3, sp, #67	; 0x43
    dfea:	931b      	str	r3, [sp, #108]	; 0x6c
    dfec:	f10d 096c 	add.w	r9, sp, #108	; 0x6c
    dff0:	460b      	mov	r3, r1
    dff2:	f7ff bacd 	b.w	d590 <_vfiprintf_r+0x448>
    dff6:	9b07      	ldr	r3, [sp, #28]
    dff8:	9905      	ldr	r1, [sp, #20]
    dffa:	f853 2b04 	ldr.w	r2, [r3], #4
    dffe:	9307      	str	r3, [sp, #28]
    e000:	8011      	strh	r1, [r2, #0]
    e002:	f7ff b8ec 	b.w	d1de <_vfiprintf_r+0x96>
    e006:	1c59      	adds	r1, r3, #1
    e008:	4658      	mov	r0, fp
    e00a:	f7fa fb79 	bl	8700 <_malloc_r>
    e00e:	4604      	mov	r4, r0
    e010:	2800      	cmp	r0, #0
    e012:	d03c      	beq.n	e08e <_vfiprintf_r+0xf46>
    e014:	9008      	str	r0, [sp, #32]
    e016:	e795      	b.n	df44 <_vfiprintf_r+0xdfc>
    e018:	6d88      	ldr	r0, [r1, #88]	; 0x58
    e01a:	f7fb fb23 	bl	9664 <__retarget_lock_release_recursive>
    e01e:	f7ff b9e9 	b.w	d3f4 <_vfiprintf_r+0x2ac>
    e022:	9b03      	ldr	r3, [sp, #12]
    e024:	9307      	str	r3, [sp, #28]
    e026:	e9cd 7703 	strd	r7, r7, [sp, #12]
    e02a:	9f08      	ldr	r7, [sp, #32]
    e02c:	f7ff b9bc 	b.w	d3a8 <_vfiprintf_r+0x260>
    e030:	9819      	ldr	r0, [sp, #100]	; 0x64
    e032:	9b1a      	ldr	r3, [sp, #104]	; 0x68
    e034:	3001      	adds	r0, #1
    e036:	e545      	b.n	dac4 <_vfiprintf_r+0x97c>
    e038:	9b03      	ldr	r3, [sp, #12]
    e03a:	9307      	str	r3, [sp, #28]
    e03c:	4620      	mov	r0, r4
    e03e:	f7fb fb1f 	bl	9680 <strlen>
    e042:	ea20 73e0 	bic.w	r3, r0, r0, asr #31
    e046:	462f      	mov	r7, r5
    e048:	9004      	str	r0, [sp, #16]
    e04a:	9303      	str	r3, [sp, #12]
    e04c:	9508      	str	r5, [sp, #32]
    e04e:	f7ff b9ab 	b.w	d3a8 <_vfiprintf_r+0x260>
    e052:	ee18 1a10 	vmov	r1, s16
    e056:	aa18      	add	r2, sp, #96	; 0x60
    e058:	4658      	mov	r0, fp
    e05a:	f7ff f839 	bl	d0d0 <__sprint_r.part.0>
    e05e:	2800      	cmp	r0, #0
    e060:	f43f aa36 	beq.w	d4d0 <_vfiprintf_r+0x388>
    e064:	f7ff ba4d 	b.w	d502 <_vfiprintf_r+0x3ba>
    e068:	9819      	ldr	r0, [sp, #100]	; 0x64
    e06a:	3001      	adds	r0, #1
    e06c:	e57a      	b.n	db64 <_vfiprintf_r+0xa1c>
    e06e:	468c      	mov	ip, r1
    e070:	e46e      	b.n	d950 <_vfiprintf_r+0x808>
    e072:	6e6b      	ldr	r3, [r5, #100]	; 0x64
    e074:	07d9      	lsls	r1, r3, #31
    e076:	d405      	bmi.n	e084 <_vfiprintf_r+0xf3c>
    e078:	89ab      	ldrh	r3, [r5, #12]
    e07a:	059a      	lsls	r2, r3, #22
    e07c:	d402      	bmi.n	e084 <_vfiprintf_r+0xf3c>
    e07e:	6da8      	ldr	r0, [r5, #88]	; 0x58
    e080:	f7fb faf0 	bl	9664 <__retarget_lock_release_recursive>
    e084:	f04f 33ff 	mov.w	r3, #4294967295
    e088:	9305      	str	r3, [sp, #20]
    e08a:	f7ff ba49 	b.w	d520 <_vfiprintf_r+0x3d8>
    e08e:	ee18 2a10 	vmov	r2, s16
    e092:	f9b2 300c 	ldrsh.w	r3, [r2, #12]
    e096:	f043 0340 	orr.w	r3, r3, #64	; 0x40
    e09a:	8193      	strh	r3, [r2, #12]
    e09c:	f7ff ba35 	b.w	d50a <_vfiprintf_r+0x3c2>
    e0a0:	9c07      	ldr	r4, [sp, #28]
    e0a2:	9704      	str	r7, [sp, #16]
    e0a4:	e746      	b.n	df34 <_vfiprintf_r+0xdec>
    e0a6:	9b07      	ldr	r3, [sp, #28]
    e0a8:	f898 1001 	ldrb.w	r1, [r8, #1]
    e0ac:	f853 7b04 	ldr.w	r7, [r3], #4
    e0b0:	9307      	str	r3, [sp, #28]
    e0b2:	4690      	mov	r8, r2
    e0b4:	ea47 77e7 	orr.w	r7, r7, r7, asr #31
    e0b8:	f7ff b8b9 	b.w	d22e <_vfiprintf_r+0xe6>
    e0bc:	ee18 2a10 	vmov	r2, s16
    e0c0:	8993      	ldrh	r3, [r2, #12]
    e0c2:	f043 0340 	orr.w	r3, r3, #64	; 0x40
    e0c6:	8193      	strh	r3, [r2, #12]
    e0c8:	f7ff ba15 	b.w	d4f6 <_vfiprintf_r+0x3ae>
    e0cc:	cccccccd 	.word	0xcccccccd
    e0d0:	200009a0 	.word	0x200009a0

0000e0d4 <__sbprintf>:
    e0d4:	b570      	push	{r4, r5, r6, lr}
    e0d6:	460c      	mov	r4, r1
    e0d8:	8989      	ldrh	r1, [r1, #12]
    e0da:	f5ad 6d8e 	sub.w	sp, sp, #1136	; 0x470
    e0de:	f021 0102 	bic.w	r1, r1, #2
    e0e2:	f8ad 1014 	strh.w	r1, [sp, #20]
    e0e6:	6e61      	ldr	r1, [r4, #100]	; 0x64
    e0e8:	911b      	str	r1, [sp, #108]	; 0x6c
    e0ea:	89e1      	ldrh	r1, [r4, #14]
    e0ec:	f8ad 1016 	strh.w	r1, [sp, #22]
    e0f0:	69e1      	ldr	r1, [r4, #28]
    e0f2:	9109      	str	r1, [sp, #36]	; 0x24
    e0f4:	6a61      	ldr	r1, [r4, #36]	; 0x24
    e0f6:	910b      	str	r1, [sp, #44]	; 0x2c
    e0f8:	a91c      	add	r1, sp, #112	; 0x70
    e0fa:	9102      	str	r1, [sp, #8]
    e0fc:	9106      	str	r1, [sp, #24]
    e0fe:	f44f 6180 	mov.w	r1, #1024	; 0x400
    e102:	4606      	mov	r6, r0
    e104:	9104      	str	r1, [sp, #16]
    e106:	9107      	str	r1, [sp, #28]
    e108:	a818      	add	r0, sp, #96	; 0x60
    e10a:	2100      	movs	r1, #0
    e10c:	e9cd 3200 	strd	r3, r2, [sp]
    e110:	9108      	str	r1, [sp, #32]
    e112:	f7fb faa1 	bl	9658 <__retarget_lock_init_recursive>
    e116:	e9dd 3200 	ldrd	r3, r2, [sp]
    e11a:	a902      	add	r1, sp, #8
    e11c:	4630      	mov	r0, r6
    e11e:	f7ff f813 	bl	d148 <_vfiprintf_r>
    e122:	1e05      	subs	r5, r0, #0
    e124:	db07      	blt.n	e136 <__sbprintf+0x62>
    e126:	a902      	add	r1, sp, #8
    e128:	4630      	mov	r0, r6
    e12a:	f7fd feeb 	bl	bf04 <_fflush_r>
    e12e:	2800      	cmp	r0, #0
    e130:	bf18      	it	ne
    e132:	f04f 35ff 	movne.w	r5, #4294967295
    e136:	f8bd 3014 	ldrh.w	r3, [sp, #20]
    e13a:	065b      	lsls	r3, r3, #25
    e13c:	d503      	bpl.n	e146 <__sbprintf+0x72>
    e13e:	89a3      	ldrh	r3, [r4, #12]
    e140:	f043 0340 	orr.w	r3, r3, #64	; 0x40
    e144:	81a3      	strh	r3, [r4, #12]
    e146:	9818      	ldr	r0, [sp, #96]	; 0x60
    e148:	f7fb fa88 	bl	965c <__retarget_lock_close_recursive>
    e14c:	4628      	mov	r0, r5
    e14e:	f50d 6d8e 	add.w	sp, sp, #1136	; 0x470
    e152:	bd70      	pop	{r4, r5, r6, pc}

0000e154 <__sfvwrite_r>:
    e154:	6893      	ldr	r3, [r2, #8]
    e156:	2b00      	cmp	r3, #0
    e158:	f000 8085 	beq.w	e266 <__sfvwrite_r+0x112>
    e15c:	e92d 4ff0 	stmdb	sp!, {r4, r5, r6, r7, r8, r9, sl, fp, lr}
    e160:	f9b1 300c 	ldrsh.w	r3, [r1, #12]
    e164:	460c      	mov	r4, r1
    e166:	0719      	lsls	r1, r3, #28
    e168:	4680      	mov	r8, r0
    e16a:	b083      	sub	sp, #12
    e16c:	4617      	mov	r7, r2
    e16e:	b298      	uxth	r0, r3
    e170:	d525      	bpl.n	e1be <__sfvwrite_r+0x6a>
    e172:	6923      	ldr	r3, [r4, #16]
    e174:	b31b      	cbz	r3, e1be <__sfvwrite_r+0x6a>
    e176:	f010 0302 	ands.w	r3, r0, #2
    e17a:	683d      	ldr	r5, [r7, #0]
    e17c:	d02d      	beq.n	e1da <__sfvwrite_r+0x86>
    e17e:	f04f 0a00 	mov.w	sl, #0
    e182:	f8df b2c0 	ldr.w	fp, [pc, #704]	; e444 <__sfvwrite_r+0x2f0>
    e186:	4656      	mov	r6, sl
    e188:	46b9      	mov	r9, r7
    e18a:	455e      	cmp	r6, fp
    e18c:	4633      	mov	r3, r6
    e18e:	4652      	mov	r2, sl
    e190:	bf28      	it	cs
    e192:	465b      	movcs	r3, fp
    e194:	4640      	mov	r0, r8
    e196:	2e00      	cmp	r6, #0
    e198:	d052      	beq.n	e240 <__sfvwrite_r+0xec>
    e19a:	69e1      	ldr	r1, [r4, #28]
    e19c:	6a67      	ldr	r7, [r4, #36]	; 0x24
    e19e:	47b8      	blx	r7
    e1a0:	2800      	cmp	r0, #0
    e1a2:	dd56      	ble.n	e252 <__sfvwrite_r+0xfe>
    e1a4:	f8d9 3008 	ldr.w	r3, [r9, #8]
    e1a8:	1a1b      	subs	r3, r3, r0
    e1aa:	4482      	add	sl, r0
    e1ac:	1a36      	subs	r6, r6, r0
    e1ae:	f8c9 3008 	str.w	r3, [r9, #8]
    e1b2:	2b00      	cmp	r3, #0
    e1b4:	d1e9      	bne.n	e18a <__sfvwrite_r+0x36>
    e1b6:	2000      	movs	r0, #0
    e1b8:	b003      	add	sp, #12
    e1ba:	e8bd 8ff0 	ldmia.w	sp!, {r4, r5, r6, r7, r8, r9, sl, fp, pc}
    e1be:	4621      	mov	r1, r4
    e1c0:	4640      	mov	r0, r8
    e1c2:	f000 f941 	bl	e448 <__swsetup_r>
    e1c6:	2800      	cmp	r0, #0
    e1c8:	f040 8138 	bne.w	e43c <__sfvwrite_r+0x2e8>
    e1cc:	f9b4 300c 	ldrsh.w	r3, [r4, #12]
    e1d0:	683d      	ldr	r5, [r7, #0]
    e1d2:	b298      	uxth	r0, r3
    e1d4:	f010 0302 	ands.w	r3, r0, #2
    e1d8:	d1d1      	bne.n	e17e <__sfvwrite_r+0x2a>
    e1da:	f010 0901 	ands.w	r9, r0, #1
    e1de:	d144      	bne.n	e26a <__sfvwrite_r+0x116>
    e1e0:	464e      	mov	r6, r9
    e1e2:	9700      	str	r7, [sp, #0]
    e1e4:	b346      	cbz	r6, e238 <__sfvwrite_r+0xe4>
    e1e6:	0582      	lsls	r2, r0, #22
    e1e8:	f8d4 b008 	ldr.w	fp, [r4, #8]
    e1ec:	f140 8085 	bpl.w	e2fa <__sfvwrite_r+0x1a6>
    e1f0:	45b3      	cmp	fp, r6
    e1f2:	465a      	mov	r2, fp
    e1f4:	f200 80b4 	bhi.w	e360 <__sfvwrite_r+0x20c>
    e1f8:	f410 6f90 	tst.w	r0, #1152	; 0x480
    e1fc:	f040 80c1 	bne.w	e382 <__sfvwrite_r+0x22e>
    e200:	6820      	ldr	r0, [r4, #0]
    e202:	9201      	str	r2, [sp, #4]
    e204:	4649      	mov	r1, r9
    e206:	f7fb f891 	bl	932c <memmove>
    e20a:	68a3      	ldr	r3, [r4, #8]
    e20c:	9a01      	ldr	r2, [sp, #4]
    e20e:	eba3 010b 	sub.w	r1, r3, fp
    e212:	6823      	ldr	r3, [r4, #0]
    e214:	60a1      	str	r1, [r4, #8]
    e216:	4413      	add	r3, r2
    e218:	46b2      	mov	sl, r6
    e21a:	6023      	str	r3, [r4, #0]
    e21c:	2600      	movs	r6, #0
    e21e:	9a00      	ldr	r2, [sp, #0]
    e220:	6893      	ldr	r3, [r2, #8]
    e222:	eba3 030a 	sub.w	r3, r3, sl
    e226:	44d1      	add	r9, sl
    e228:	6093      	str	r3, [r2, #8]
    e22a:	2b00      	cmp	r3, #0
    e22c:	d0c3      	beq.n	e1b6 <__sfvwrite_r+0x62>
    e22e:	f9b4 000c 	ldrsh.w	r0, [r4, #12]
    e232:	b280      	uxth	r0, r0
    e234:	2e00      	cmp	r6, #0
    e236:	d1d6      	bne.n	e1e6 <__sfvwrite_r+0x92>
    e238:	e9d5 9600 	ldrd	r9, r6, [r5]
    e23c:	3508      	adds	r5, #8
    e23e:	e7d1      	b.n	e1e4 <__sfvwrite_r+0x90>
    e240:	e9d5 a600 	ldrd	sl, r6, [r5]
    e244:	3508      	adds	r5, #8
    e246:	e7a0      	b.n	e18a <__sfvwrite_r+0x36>
    e248:	4621      	mov	r1, r4
    e24a:	4640      	mov	r0, r8
    e24c:	f7fd fe5a 	bl	bf04 <_fflush_r>
    e250:	b388      	cbz	r0, e2b6 <__sfvwrite_r+0x162>
    e252:	f9b4 300c 	ldrsh.w	r3, [r4, #12]
    e256:	f043 0340 	orr.w	r3, r3, #64	; 0x40
    e25a:	f04f 30ff 	mov.w	r0, #4294967295
    e25e:	81a3      	strh	r3, [r4, #12]
    e260:	b003      	add	sp, #12
    e262:	e8bd 8ff0 	ldmia.w	sp!, {r4, r5, r6, r7, r8, r9, sl, fp, pc}
    e266:	2000      	movs	r0, #0
    e268:	4770      	bx	lr
    e26a:	461e      	mov	r6, r3
    e26c:	46ba      	mov	sl, r7
    e26e:	4699      	mov	r9, r3
    e270:	4618      	mov	r0, r3
    e272:	9500      	str	r5, [sp, #0]
    e274:	461f      	mov	r7, r3
    e276:	b366      	cbz	r6, e2d2 <__sfvwrite_r+0x17e>
    e278:	2800      	cmp	r0, #0
    e27a:	d032      	beq.n	e2e2 <__sfvwrite_r+0x18e>
    e27c:	464a      	mov	r2, r9
    e27e:	e9d4 1304 	ldrd	r1, r3, [r4, #16]
    e282:	6820      	ldr	r0, [r4, #0]
    e284:	68a5      	ldr	r5, [r4, #8]
    e286:	42b2      	cmp	r2, r6
    e288:	bf28      	it	cs
    e28a:	4632      	movcs	r2, r6
    e28c:	4288      	cmp	r0, r1
    e28e:	d904      	bls.n	e29a <__sfvwrite_r+0x146>
    e290:	eb05 0b03 	add.w	fp, r5, r3
    e294:	455a      	cmp	r2, fp
    e296:	f300 80a7 	bgt.w	e3e8 <__sfvwrite_r+0x294>
    e29a:	4293      	cmp	r3, r2
    e29c:	dc64      	bgt.n	e368 <__sfvwrite_r+0x214>
    e29e:	69e1      	ldr	r1, [r4, #28]
    e2a0:	6a65      	ldr	r5, [r4, #36]	; 0x24
    e2a2:	463a      	mov	r2, r7
    e2a4:	4640      	mov	r0, r8
    e2a6:	47a8      	blx	r5
    e2a8:	f1b0 0b00 	subs.w	fp, r0, #0
    e2ac:	ddd1      	ble.n	e252 <__sfvwrite_r+0xfe>
    e2ae:	ebb9 090b 	subs.w	r9, r9, fp
    e2b2:	d0c9      	beq.n	e248 <__sfvwrite_r+0xf4>
    e2b4:	2001      	movs	r0, #1
    e2b6:	f8da 3008 	ldr.w	r3, [sl, #8]
    e2ba:	eba3 030b 	sub.w	r3, r3, fp
    e2be:	445f      	add	r7, fp
    e2c0:	eba6 060b 	sub.w	r6, r6, fp
    e2c4:	f8ca 3008 	str.w	r3, [sl, #8]
    e2c8:	2b00      	cmp	r3, #0
    e2ca:	f43f af74 	beq.w	e1b6 <__sfvwrite_r+0x62>
    e2ce:	2e00      	cmp	r6, #0
    e2d0:	d1d2      	bne.n	e278 <__sfvwrite_r+0x124>
    e2d2:	9a00      	ldr	r2, [sp, #0]
    e2d4:	6856      	ldr	r6, [r2, #4]
    e2d6:	4613      	mov	r3, r2
    e2d8:	3208      	adds	r2, #8
    e2da:	9200      	str	r2, [sp, #0]
    e2dc:	2e00      	cmp	r6, #0
    e2de:	d0f8      	beq.n	e2d2 <__sfvwrite_r+0x17e>
    e2e0:	681f      	ldr	r7, [r3, #0]
    e2e2:	4632      	mov	r2, r6
    e2e4:	210a      	movs	r1, #10
    e2e6:	4638      	mov	r0, r7
    e2e8:	f7fd fe3a 	bl	bf60 <memchr>
    e2ec:	2800      	cmp	r0, #0
    e2ee:	f000 809c 	beq.w	e42a <__sfvwrite_r+0x2d6>
    e2f2:	3001      	adds	r0, #1
    e2f4:	eba0 0907 	sub.w	r9, r0, r7
    e2f8:	e7c0      	b.n	e27c <__sfvwrite_r+0x128>
    e2fa:	6820      	ldr	r0, [r4, #0]
    e2fc:	6923      	ldr	r3, [r4, #16]
    e2fe:	4298      	cmp	r0, r3
    e300:	d816      	bhi.n	e330 <__sfvwrite_r+0x1dc>
    e302:	6962      	ldr	r2, [r4, #20]
    e304:	42b2      	cmp	r2, r6
    e306:	d813      	bhi.n	e330 <__sfvwrite_r+0x1dc>
    e308:	f06f 4300 	mvn.w	r3, #2147483648	; 0x80000000
    e30c:	42b3      	cmp	r3, r6
    e30e:	bf28      	it	cs
    e310:	4633      	movcs	r3, r6
    e312:	69e1      	ldr	r1, [r4, #28]
    e314:	fb93 f3f2 	sdiv	r3, r3, r2
    e318:	6a67      	ldr	r7, [r4, #36]	; 0x24
    e31a:	fb02 f303 	mul.w	r3, r2, r3
    e31e:	4640      	mov	r0, r8
    e320:	464a      	mov	r2, r9
    e322:	47b8      	blx	r7
    e324:	f1b0 0a00 	subs.w	sl, r0, #0
    e328:	dd93      	ble.n	e252 <__sfvwrite_r+0xfe>
    e32a:	eba6 060a 	sub.w	r6, r6, sl
    e32e:	e776      	b.n	e21e <__sfvwrite_r+0xca>
    e330:	45b3      	cmp	fp, r6
    e332:	46da      	mov	sl, fp
    e334:	bf28      	it	cs
    e336:	46b2      	movcs	sl, r6
    e338:	4652      	mov	r2, sl
    e33a:	4649      	mov	r1, r9
    e33c:	f7fa fff6 	bl	932c <memmove>
    e340:	68a3      	ldr	r3, [r4, #8]
    e342:	6822      	ldr	r2, [r4, #0]
    e344:	eba3 030a 	sub.w	r3, r3, sl
    e348:	4452      	add	r2, sl
    e34a:	60a3      	str	r3, [r4, #8]
    e34c:	6022      	str	r2, [r4, #0]
    e34e:	2b00      	cmp	r3, #0
    e350:	d1eb      	bne.n	e32a <__sfvwrite_r+0x1d6>
    e352:	4621      	mov	r1, r4
    e354:	4640      	mov	r0, r8
    e356:	f7fd fdd5 	bl	bf04 <_fflush_r>
    e35a:	2800      	cmp	r0, #0
    e35c:	d0e5      	beq.n	e32a <__sfvwrite_r+0x1d6>
    e35e:	e778      	b.n	e252 <__sfvwrite_r+0xfe>
    e360:	6820      	ldr	r0, [r4, #0]
    e362:	46b3      	mov	fp, r6
    e364:	4632      	mov	r2, r6
    e366:	e74c      	b.n	e202 <__sfvwrite_r+0xae>
    e368:	4639      	mov	r1, r7
    e36a:	9201      	str	r2, [sp, #4]
    e36c:	f7fa ffde 	bl	932c <memmove>
    e370:	9a01      	ldr	r2, [sp, #4]
    e372:	68a3      	ldr	r3, [r4, #8]
    e374:	1a9b      	subs	r3, r3, r2
    e376:	60a3      	str	r3, [r4, #8]
    e378:	6823      	ldr	r3, [r4, #0]
    e37a:	4413      	add	r3, r2
    e37c:	6023      	str	r3, [r4, #0]
    e37e:	4693      	mov	fp, r2
    e380:	e795      	b.n	e2ae <__sfvwrite_r+0x15a>
    e382:	6823      	ldr	r3, [r4, #0]
    e384:	6921      	ldr	r1, [r4, #16]
    e386:	eba3 0b01 	sub.w	fp, r3, r1
    e38a:	6963      	ldr	r3, [r4, #20]
    e38c:	eb03 0a43 	add.w	sl, r3, r3, lsl #1
    e390:	eb0a 7ada 	add.w	sl, sl, sl, lsr #31
    e394:	f10b 0301 	add.w	r3, fp, #1
    e398:	ea4f 0a6a 	mov.w	sl, sl, asr #1
    e39c:	4433      	add	r3, r6
    e39e:	4553      	cmp	r3, sl
    e3a0:	4652      	mov	r2, sl
    e3a2:	bf84      	itt	hi
    e3a4:	469a      	movhi	sl, r3
    e3a6:	4652      	movhi	r2, sl
    e3a8:	0543      	lsls	r3, r0, #21
    e3aa:	d52c      	bpl.n	e406 <__sfvwrite_r+0x2b2>
    e3ac:	4611      	mov	r1, r2
    e3ae:	4640      	mov	r0, r8
    e3b0:	f7fa f9a6 	bl	8700 <_malloc_r>
    e3b4:	2800      	cmp	r0, #0
    e3b6:	d03b      	beq.n	e430 <__sfvwrite_r+0x2dc>
    e3b8:	465a      	mov	r2, fp
    e3ba:	6921      	ldr	r1, [r4, #16]
    e3bc:	9001      	str	r0, [sp, #4]
    e3be:	f7f8 f875 	bl	64ac <memcpy>
    e3c2:	89a2      	ldrh	r2, [r4, #12]
    e3c4:	9b01      	ldr	r3, [sp, #4]
    e3c6:	f422 6290 	bic.w	r2, r2, #1152	; 0x480
    e3ca:	f042 0280 	orr.w	r2, r2, #128	; 0x80
    e3ce:	81a2      	strh	r2, [r4, #12]
    e3d0:	eb03 000b 	add.w	r0, r3, fp
    e3d4:	6123      	str	r3, [r4, #16]
    e3d6:	ebaa 030b 	sub.w	r3, sl, fp
    e3da:	f8c4 a014 	str.w	sl, [r4, #20]
    e3de:	60a3      	str	r3, [r4, #8]
    e3e0:	6020      	str	r0, [r4, #0]
    e3e2:	46b3      	mov	fp, r6
    e3e4:	4632      	mov	r2, r6
    e3e6:	e70c      	b.n	e202 <__sfvwrite_r+0xae>
    e3e8:	4639      	mov	r1, r7
    e3ea:	465a      	mov	r2, fp
    e3ec:	f7fa ff9e 	bl	932c <memmove>
    e3f0:	6823      	ldr	r3, [r4, #0]
    e3f2:	445b      	add	r3, fp
    e3f4:	6023      	str	r3, [r4, #0]
    e3f6:	4621      	mov	r1, r4
    e3f8:	4640      	mov	r0, r8
    e3fa:	f7fd fd83 	bl	bf04 <_fflush_r>
    e3fe:	2800      	cmp	r0, #0
    e400:	f43f af55 	beq.w	e2ae <__sfvwrite_r+0x15a>
    e404:	e725      	b.n	e252 <__sfvwrite_r+0xfe>
    e406:	4640      	mov	r0, r8
    e408:	f7fa fc36 	bl	8c78 <_realloc_r>
    e40c:	4603      	mov	r3, r0
    e40e:	2800      	cmp	r0, #0
    e410:	d1de      	bne.n	e3d0 <__sfvwrite_r+0x27c>
    e412:	6921      	ldr	r1, [r4, #16]
    e414:	4640      	mov	r0, r8
    e416:	f7fb f9f1 	bl	97fc <_free_r>
    e41a:	f9b4 300c 	ldrsh.w	r3, [r4, #12]
    e41e:	220c      	movs	r2, #12
    e420:	f023 0380 	bic.w	r3, r3, #128	; 0x80
    e424:	f8c8 2000 	str.w	r2, [r8]
    e428:	e715      	b.n	e256 <__sfvwrite_r+0x102>
    e42a:	1c72      	adds	r2, r6, #1
    e42c:	4691      	mov	r9, r2
    e42e:	e726      	b.n	e27e <__sfvwrite_r+0x12a>
    e430:	220c      	movs	r2, #12
    e432:	f9b4 300c 	ldrsh.w	r3, [r4, #12]
    e436:	f8c8 2000 	str.w	r2, [r8]
    e43a:	e70c      	b.n	e256 <__sfvwrite_r+0x102>
    e43c:	f04f 30ff 	mov.w	r0, #4294967295
    e440:	e6ba      	b.n	e1b8 <__sfvwrite_r+0x64>
    e442:	bf00      	nop
    e444:	7ffffc00 	.word	0x7ffffc00

0000e448 <__swsetup_r>:
    e448:	b538      	push	{r3, r4, r5, lr}
    e44a:	4b31      	ldr	r3, [pc, #196]	; (e510 <__swsetup_r+0xc8>)
    e44c:	681b      	ldr	r3, [r3, #0]
    e44e:	4605      	mov	r5, r0
    e450:	460c      	mov	r4, r1
    e452:	b113      	cbz	r3, e45a <__swsetup_r+0x12>
    e454:	6b5a      	ldr	r2, [r3, #52]	; 0x34
    e456:	2a00      	cmp	r2, #0
    e458:	d04e      	beq.n	e4f8 <__swsetup_r+0xb0>
    e45a:	f9b4 300c 	ldrsh.w	r3, [r4, #12]
    e45e:	0718      	lsls	r0, r3, #28
    e460:	b29a      	uxth	r2, r3
    e462:	d51c      	bpl.n	e49e <__swsetup_r+0x56>
    e464:	6921      	ldr	r1, [r4, #16]
    e466:	b329      	cbz	r1, e4b4 <__swsetup_r+0x6c>
    e468:	f012 0001 	ands.w	r0, r2, #1
    e46c:	d007      	beq.n	e47e <__swsetup_r+0x36>
    e46e:	2000      	movs	r0, #0
    e470:	60a0      	str	r0, [r4, #8]
    e472:	6960      	ldr	r0, [r4, #20]
    e474:	4240      	negs	r0, r0
    e476:	61a0      	str	r0, [r4, #24]
    e478:	b139      	cbz	r1, e48a <__swsetup_r+0x42>
    e47a:	2000      	movs	r0, #0
    e47c:	bd38      	pop	{r3, r4, r5, pc}
    e47e:	0795      	lsls	r5, r2, #30
    e480:	bf58      	it	pl
    e482:	6960      	ldrpl	r0, [r4, #20]
    e484:	60a0      	str	r0, [r4, #8]
    e486:	2900      	cmp	r1, #0
    e488:	d1f7      	bne.n	e47a <__swsetup_r+0x32>
    e48a:	0612      	lsls	r2, r2, #24
    e48c:	bf58      	it	pl
    e48e:	4608      	movpl	r0, r1
    e490:	d5f4      	bpl.n	e47c <__swsetup_r+0x34>
    e492:	f043 0340 	orr.w	r3, r3, #64	; 0x40
    e496:	81a3      	strh	r3, [r4, #12]
    e498:	f04f 30ff 	mov.w	r0, #4294967295
    e49c:	bd38      	pop	{r3, r4, r5, pc}
    e49e:	06d1      	lsls	r1, r2, #27
    e4a0:	d52e      	bpl.n	e500 <__swsetup_r+0xb8>
    e4a2:	0752      	lsls	r2, r2, #29
    e4a4:	d414      	bmi.n	e4d0 <__swsetup_r+0x88>
    e4a6:	6921      	ldr	r1, [r4, #16]
    e4a8:	f043 0308 	orr.w	r3, r3, #8
    e4ac:	81a3      	strh	r3, [r4, #12]
    e4ae:	b29a      	uxth	r2, r3
    e4b0:	2900      	cmp	r1, #0
    e4b2:	d1d9      	bne.n	e468 <__swsetup_r+0x20>
    e4b4:	f402 7020 	and.w	r0, r2, #640	; 0x280
    e4b8:	f5b0 7f00 	cmp.w	r0, #512	; 0x200
    e4bc:	d0d4      	beq.n	e468 <__swsetup_r+0x20>
    e4be:	4621      	mov	r1, r4
    e4c0:	4628      	mov	r0, r5
    e4c2:	f000 f947 	bl	e754 <__smakebuf_r>
    e4c6:	f9b4 300c 	ldrsh.w	r3, [r4, #12]
    e4ca:	6921      	ldr	r1, [r4, #16]
    e4cc:	b29a      	uxth	r2, r3
    e4ce:	e7cb      	b.n	e468 <__swsetup_r+0x20>
    e4d0:	6b21      	ldr	r1, [r4, #48]	; 0x30
    e4d2:	b151      	cbz	r1, e4ea <__swsetup_r+0xa2>
    e4d4:	f104 0240 	add.w	r2, r4, #64	; 0x40
    e4d8:	4291      	cmp	r1, r2
    e4da:	d004      	beq.n	e4e6 <__swsetup_r+0x9e>
    e4dc:	4628      	mov	r0, r5
    e4de:	f7fb f98d 	bl	97fc <_free_r>
    e4e2:	f9b4 300c 	ldrsh.w	r3, [r4, #12]
    e4e6:	2200      	movs	r2, #0
    e4e8:	6322      	str	r2, [r4, #48]	; 0x30
    e4ea:	6921      	ldr	r1, [r4, #16]
    e4ec:	2200      	movs	r2, #0
    e4ee:	e9c4 1200 	strd	r1, r2, [r4]
    e4f2:	f023 0324 	bic.w	r3, r3, #36	; 0x24
    e4f6:	e7d7      	b.n	e4a8 <__swsetup_r+0x60>
    e4f8:	4618      	mov	r0, r3
    e4fa:	f7fa fe3f 	bl	917c <__sinit>
    e4fe:	e7ac      	b.n	e45a <__swsetup_r+0x12>
    e500:	2209      	movs	r2, #9
    e502:	f043 0340 	orr.w	r3, r3, #64	; 0x40
    e506:	602a      	str	r2, [r5, #0]
    e508:	f04f 30ff 	mov.w	r0, #4294967295
    e50c:	81a3      	strh	r3, [r4, #12]
    e50e:	bd38      	pop	{r3, r4, r5, pc}
    e510:	20001240 	.word	0x20001240

0000e514 <__fputwc>:
    e514:	e92d 47f0 	stmdb	sp!, {r4, r5, r6, r7, r8, r9, sl, lr}
    e518:	b082      	sub	sp, #8
    e51a:	4682      	mov	sl, r0
    e51c:	4688      	mov	r8, r1
    e51e:	4614      	mov	r4, r2
    e520:	f7fb f804 	bl	952c <__locale_mb_cur_max>
    e524:	2801      	cmp	r0, #1
    e526:	d103      	bne.n	e530 <__fputwc+0x1c>
    e528:	f108 33ff 	add.w	r3, r8, #4294967295
    e52c:	2bfe      	cmp	r3, #254	; 0xfe
    e52e:	d936      	bls.n	e59e <__fputwc+0x8a>
    e530:	f10d 0904 	add.w	r9, sp, #4
    e534:	4642      	mov	r2, r8
    e536:	f104 035c 	add.w	r3, r4, #92	; 0x5c
    e53a:	4649      	mov	r1, r9
    e53c:	4650      	mov	r0, sl
    e53e:	f7fe fd01 	bl	cf44 <_wcrtomb_r>
    e542:	1c42      	adds	r2, r0, #1
    e544:	4606      	mov	r6, r0
    e546:	d032      	beq.n	e5ae <__fputwc+0x9a>
    e548:	b320      	cbz	r0, e594 <__fputwc+0x80>
    e54a:	f89d c004 	ldrb.w	ip, [sp, #4]
    e54e:	2500      	movs	r5, #0
    e550:	e009      	b.n	e566 <__fputwc+0x52>
    e552:	6823      	ldr	r3, [r4, #0]
    e554:	1c5a      	adds	r2, r3, #1
    e556:	6022      	str	r2, [r4, #0]
    e558:	f883 c000 	strb.w	ip, [r3]
    e55c:	3501      	adds	r5, #1
    e55e:	42b5      	cmp	r5, r6
    e560:	d218      	bcs.n	e594 <__fputwc+0x80>
    e562:	f819 cf01 	ldrb.w	ip, [r9, #1]!
    e566:	68a3      	ldr	r3, [r4, #8]
    e568:	3b01      	subs	r3, #1
    e56a:	2b00      	cmp	r3, #0
    e56c:	60a3      	str	r3, [r4, #8]
    e56e:	daf0      	bge.n	e552 <__fputwc+0x3e>
    e570:	69a7      	ldr	r7, [r4, #24]
    e572:	42bb      	cmp	r3, r7
    e574:	4661      	mov	r1, ip
    e576:	4622      	mov	r2, r4
    e578:	4650      	mov	r0, sl
    e57a:	db02      	blt.n	e582 <__fputwc+0x6e>
    e57c:	f1bc 0f0a 	cmp.w	ip, #10
    e580:	d1e7      	bne.n	e552 <__fputwc+0x3e>
    e582:	f000 f953 	bl	e82c <__swbuf_r>
    e586:	1c43      	adds	r3, r0, #1
    e588:	d1e8      	bne.n	e55c <__fputwc+0x48>
    e58a:	4606      	mov	r6, r0
    e58c:	4630      	mov	r0, r6
    e58e:	b002      	add	sp, #8
    e590:	e8bd 87f0 	ldmia.w	sp!, {r4, r5, r6, r7, r8, r9, sl, pc}
    e594:	4646      	mov	r6, r8
    e596:	4630      	mov	r0, r6
    e598:	b002      	add	sp, #8
    e59a:	e8bd 87f0 	ldmia.w	sp!, {r4, r5, r6, r7, r8, r9, sl, pc}
    e59e:	fa5f fc88 	uxtb.w	ip, r8
    e5a2:	f88d c004 	strb.w	ip, [sp, #4]
    e5a6:	4606      	mov	r6, r0
    e5a8:	f10d 0904 	add.w	r9, sp, #4
    e5ac:	e7cf      	b.n	e54e <__fputwc+0x3a>
    e5ae:	89a3      	ldrh	r3, [r4, #12]
    e5b0:	4630      	mov	r0, r6
    e5b2:	f043 0340 	orr.w	r3, r3, #64	; 0x40
    e5b6:	81a3      	strh	r3, [r4, #12]
    e5b8:	b002      	add	sp, #8
    e5ba:	e8bd 87f0 	ldmia.w	sp!, {r4, r5, r6, r7, r8, r9, sl, pc}
    e5be:	bf00      	nop

0000e5c0 <_fputwc_r>:
    e5c0:	b530      	push	{r4, r5, lr}
    e5c2:	6e53      	ldr	r3, [r2, #100]	; 0x64
    e5c4:	f013 0f01 	tst.w	r3, #1
    e5c8:	f9b2 300c 	ldrsh.w	r3, [r2, #12]
    e5cc:	4614      	mov	r4, r2
    e5ce:	b083      	sub	sp, #12
    e5d0:	4605      	mov	r5, r0
    e5d2:	b29a      	uxth	r2, r3
    e5d4:	d101      	bne.n	e5da <_fputwc_r+0x1a>
    e5d6:	0598      	lsls	r0, r3, #22
    e5d8:	d51c      	bpl.n	e614 <_fputwc_r+0x54>
    e5da:	0490      	lsls	r0, r2, #18
    e5dc:	d406      	bmi.n	e5ec <_fputwc_r+0x2c>
    e5de:	6e62      	ldr	r2, [r4, #100]	; 0x64
    e5e0:	f443 5300 	orr.w	r3, r3, #8192	; 0x2000
    e5e4:	f442 5200 	orr.w	r2, r2, #8192	; 0x2000
    e5e8:	81a3      	strh	r3, [r4, #12]
    e5ea:	6662      	str	r2, [r4, #100]	; 0x64
    e5ec:	4622      	mov	r2, r4
    e5ee:	4628      	mov	r0, r5
    e5f0:	f7ff ff90 	bl	e514 <__fputwc>
    e5f4:	6e63      	ldr	r3, [r4, #100]	; 0x64
    e5f6:	07da      	lsls	r2, r3, #31
    e5f8:	4605      	mov	r5, r0
    e5fa:	d402      	bmi.n	e602 <_fputwc_r+0x42>
    e5fc:	89a3      	ldrh	r3, [r4, #12]
    e5fe:	059b      	lsls	r3, r3, #22
    e600:	d502      	bpl.n	e608 <_fputwc_r+0x48>
    e602:	4628      	mov	r0, r5
    e604:	b003      	add	sp, #12
    e606:	bd30      	pop	{r4, r5, pc}
    e608:	6da0      	ldr	r0, [r4, #88]	; 0x58
    e60a:	f7fb f82b 	bl	9664 <__retarget_lock_release_recursive>
    e60e:	4628      	mov	r0, r5
    e610:	b003      	add	sp, #12
    e612:	bd30      	pop	{r4, r5, pc}
    e614:	6da0      	ldr	r0, [r4, #88]	; 0x58
    e616:	9101      	str	r1, [sp, #4]
    e618:	f7fb f822 	bl	9660 <__retarget_lock_acquire_recursive>
    e61c:	f9b4 300c 	ldrsh.w	r3, [r4, #12]
    e620:	9901      	ldr	r1, [sp, #4]
    e622:	b29a      	uxth	r2, r3
    e624:	e7d9      	b.n	e5da <_fputwc_r+0x1a>
    e626:	bf00      	nop

0000e628 <_wcsnrtombs_l>:
    e628:	e92d 4ff0 	stmdb	sp!, {r4, r5, r6, r7, r8, r9, sl, fp, lr}
    e62c:	b08b      	sub	sp, #44	; 0x2c
    e62e:	e9dd 8a15 	ldrd	r8, sl, [sp, #84]	; 0x54
    e632:	9f14      	ldr	r7, [sp, #80]	; 0x50
    e634:	9103      	str	r1, [sp, #12]
    e636:	4681      	mov	r9, r0
    e638:	9205      	str	r2, [sp, #20]
    e63a:	461e      	mov	r6, r3
    e63c:	f1b8 0f00 	cmp.w	r8, #0
    e640:	d05c      	beq.n	e6fc <_wcsnrtombs_l+0xd4>
    e642:	9b03      	ldr	r3, [sp, #12]
    e644:	2b00      	cmp	r3, #0
    e646:	d05e      	beq.n	e706 <_wcsnrtombs_l+0xde>
    e648:	9b05      	ldr	r3, [sp, #20]
    e64a:	681d      	ldr	r5, [r3, #0]
    e64c:	2f00      	cmp	r7, #0
    e64e:	d06a      	beq.n	e726 <_wcsnrtombs_l+0xfe>
    e650:	1e74      	subs	r4, r6, #1
    e652:	b34e      	cbz	r6, e6a8 <_wcsnrtombs_l+0x80>
    e654:	9b03      	ldr	r3, [sp, #12]
    e656:	9304      	str	r3, [sp, #16]
    e658:	3d04      	subs	r5, #4
    e65a:	2600      	movs	r6, #0
    e65c:	9501      	str	r5, [sp, #4]
    e65e:	e00b      	b.n	e678 <_wcsnrtombs_l+0x50>
    e660:	9b03      	ldr	r3, [sp, #12]
    e662:	bb2b      	cbnz	r3, e6b0 <_wcsnrtombs_l+0x88>
    e664:	9b01      	ldr	r3, [sp, #4]
    e666:	681a      	ldr	r2, [r3, #0]
    e668:	2a00      	cmp	r2, #0
    e66a:	d03a      	beq.n	e6e2 <_wcsnrtombs_l+0xba>
    e66c:	45bc      	cmp	ip, r7
    e66e:	d25c      	bcs.n	e72a <_wcsnrtombs_l+0x102>
    e670:	3c01      	subs	r4, #1
    e672:	1c63      	adds	r3, r4, #1
    e674:	4666      	mov	r6, ip
    e676:	d017      	beq.n	e6a8 <_wcsnrtombs_l+0x80>
    e678:	f8d8 3000 	ldr.w	r3, [r8]
    e67c:	9302      	str	r3, [sp, #8]
    e67e:	9b01      	ldr	r3, [sp, #4]
    e680:	f8da 50e0 	ldr.w	r5, [sl, #224]	; 0xe0
    e684:	f853 2f04 	ldr.w	r2, [r3, #4]!
    e688:	9301      	str	r3, [sp, #4]
    e68a:	a907      	add	r1, sp, #28
    e68c:	4643      	mov	r3, r8
    e68e:	4648      	mov	r0, r9
    e690:	f8d8 b004 	ldr.w	fp, [r8, #4]
    e694:	47a8      	blx	r5
    e696:	1c42      	adds	r2, r0, #1
    e698:	d03a      	beq.n	e710 <_wcsnrtombs_l+0xe8>
    e69a:	eb00 0c06 	add.w	ip, r0, r6
    e69e:	45bc      	cmp	ip, r7
    e6a0:	d9de      	bls.n	e660 <_wcsnrtombs_l+0x38>
    e6a2:	9b02      	ldr	r3, [sp, #8]
    e6a4:	e9c8 3b00 	strd	r3, fp, [r8]
    e6a8:	4630      	mov	r0, r6
    e6aa:	b00b      	add	sp, #44	; 0x2c
    e6ac:	e8bd 8ff0 	ldmia.w	sp!, {r4, r5, r6, r7, r8, r9, sl, fp, pc}
    e6b0:	2800      	cmp	r0, #0
    e6b2:	dd0e      	ble.n	e6d2 <_wcsnrtombs_l+0xaa>
    e6b4:	9b04      	ldr	r3, [sp, #16]
    e6b6:	9d01      	ldr	r5, [sp, #4]
    e6b8:	4418      	add	r0, r3
    e6ba:	1e5a      	subs	r2, r3, #1
    e6bc:	a907      	add	r1, sp, #28
    e6be:	f100 3eff 	add.w	lr, r0, #4294967295
    e6c2:	f811 3b01 	ldrb.w	r3, [r1], #1
    e6c6:	f802 3f01 	strb.w	r3, [r2, #1]!
    e6ca:	4572      	cmp	r2, lr
    e6cc:	d1f9      	bne.n	e6c2 <_wcsnrtombs_l+0x9a>
    e6ce:	9501      	str	r5, [sp, #4]
    e6d0:	9004      	str	r0, [sp, #16]
    e6d2:	9b05      	ldr	r3, [sp, #20]
    e6d4:	681a      	ldr	r2, [r3, #0]
    e6d6:	3204      	adds	r2, #4
    e6d8:	601a      	str	r2, [r3, #0]
    e6da:	9b01      	ldr	r3, [sp, #4]
    e6dc:	681a      	ldr	r2, [r3, #0]
    e6de:	2a00      	cmp	r2, #0
    e6e0:	d1c4      	bne.n	e66c <_wcsnrtombs_l+0x44>
    e6e2:	9b03      	ldr	r3, [sp, #12]
    e6e4:	b10b      	cbz	r3, e6ea <_wcsnrtombs_l+0xc2>
    e6e6:	9b05      	ldr	r3, [sp, #20]
    e6e8:	601a      	str	r2, [r3, #0]
    e6ea:	f10c 36ff 	add.w	r6, ip, #4294967295
    e6ee:	2200      	movs	r2, #0
    e6f0:	4630      	mov	r0, r6
    e6f2:	f8c8 2000 	str.w	r2, [r8]
    e6f6:	b00b      	add	sp, #44	; 0x2c
    e6f8:	e8bd 8ff0 	ldmia.w	sp!, {r4, r5, r6, r7, r8, r9, sl, fp, pc}
    e6fc:	9b03      	ldr	r3, [sp, #12]
    e6fe:	f500 7886 	add.w	r8, r0, #268	; 0x10c
    e702:	2b00      	cmp	r3, #0
    e704:	d1a0      	bne.n	e648 <_wcsnrtombs_l+0x20>
    e706:	9b05      	ldr	r3, [sp, #20]
    e708:	f04f 37ff 	mov.w	r7, #4294967295
    e70c:	681d      	ldr	r5, [r3, #0]
    e70e:	e79f      	b.n	e650 <_wcsnrtombs_l+0x28>
    e710:	4606      	mov	r6, r0
    e712:	218a      	movs	r1, #138	; 0x8a
    e714:	2200      	movs	r2, #0
    e716:	4630      	mov	r0, r6
    e718:	f8c9 1000 	str.w	r1, [r9]
    e71c:	f8c8 2000 	str.w	r2, [r8]
    e720:	b00b      	add	sp, #44	; 0x2c
    e722:	e8bd 8ff0 	ldmia.w	sp!, {r4, r5, r6, r7, r8, r9, sl, fp, pc}
    e726:	463e      	mov	r6, r7
    e728:	e7be      	b.n	e6a8 <_wcsnrtombs_l+0x80>
    e72a:	4666      	mov	r6, ip
    e72c:	e7bc      	b.n	e6a8 <_wcsnrtombs_l+0x80>
    e72e:	bf00      	nop

0000e730 <_wcsnrtombs_r>:
    e730:	b510      	push	{r4, lr}
    e732:	b084      	sub	sp, #16
    e734:	4c05      	ldr	r4, [pc, #20]	; (e74c <_wcsnrtombs_r+0x1c>)
    e736:	9806      	ldr	r0, [sp, #24]
    e738:	9000      	str	r0, [sp, #0]
    e73a:	9807      	ldr	r0, [sp, #28]
    e73c:	9001      	str	r0, [sp, #4]
    e73e:	4804      	ldr	r0, [pc, #16]	; (e750 <_wcsnrtombs_r+0x20>)
    e740:	6800      	ldr	r0, [r0, #0]
    e742:	9402      	str	r4, [sp, #8]
    e744:	f7ff ff70 	bl	e628 <_wcsnrtombs_l>
    e748:	b004      	add	sp, #16
    e74a:	bd10      	pop	{r4, pc}
    e74c:	20000cb8 	.word	0x20000cb8
    e750:	20001240 	.word	0x20001240

0000e754 <__smakebuf_r>:
    e754:	e92d 41f0 	stmdb	sp!, {r4, r5, r6, r7, r8, lr}
    e758:	898b      	ldrh	r3, [r1, #12]
    e75a:	460c      	mov	r4, r1
    e75c:	0799      	lsls	r1, r3, #30
    e75e:	b096      	sub	sp, #88	; 0x58
    e760:	d508      	bpl.n	e774 <__smakebuf_r+0x20>
    e762:	f104 0343 	add.w	r3, r4, #67	; 0x43
    e766:	2201      	movs	r2, #1
    e768:	e9c4 3204 	strd	r3, r2, [r4, #16]
    e76c:	6023      	str	r3, [r4, #0]
    e76e:	b016      	add	sp, #88	; 0x58
    e770:	e8bd 81f0 	ldmia.w	sp!, {r4, r5, r6, r7, r8, pc}
    e774:	f9b4 100e 	ldrsh.w	r1, [r4, #14]
    e778:	2900      	cmp	r1, #0
    e77a:	4606      	mov	r6, r0
    e77c:	db25      	blt.n	e7ca <__smakebuf_r+0x76>
    e77e:	466a      	mov	r2, sp
    e780:	f000 f8ac 	bl	e8dc <_fstat_r>
    e784:	2800      	cmp	r0, #0
    e786:	db1f      	blt.n	e7c8 <__smakebuf_r+0x74>
    e788:	9d01      	ldr	r5, [sp, #4]
    e78a:	f405 4570 	and.w	r5, r5, #61440	; 0xf000
    e78e:	f5a5 5500 	sub.w	r5, r5, #8192	; 0x2000
    e792:	fab5 f585 	clz	r5, r5
    e796:	f44f 6880 	mov.w	r8, #1024	; 0x400
    e79a:	096d      	lsrs	r5, r5, #5
    e79c:	f44f 6700 	mov.w	r7, #2048	; 0x800
    e7a0:	4641      	mov	r1, r8
    e7a2:	4630      	mov	r0, r6
    e7a4:	f7f9 ffac 	bl	8700 <_malloc_r>
    e7a8:	b1e0      	cbz	r0, e7e4 <__smakebuf_r+0x90>
    e7aa:	f9b4 300c 	ldrsh.w	r3, [r4, #12]
    e7ae:	f8c4 8014 	str.w	r8, [r4, #20]
    e7b2:	f043 0380 	orr.w	r3, r3, #128	; 0x80
    e7b6:	6020      	str	r0, [r4, #0]
    e7b8:	6120      	str	r0, [r4, #16]
    e7ba:	81a3      	strh	r3, [r4, #12]
    e7bc:	bb35      	cbnz	r5, e80c <__smakebuf_r+0xb8>
    e7be:	433b      	orrs	r3, r7
    e7c0:	81a3      	strh	r3, [r4, #12]
    e7c2:	b016      	add	sp, #88	; 0x58
    e7c4:	e8bd 81f0 	ldmia.w	sp!, {r4, r5, r6, r7, r8, pc}
    e7c8:	89a3      	ldrh	r3, [r4, #12]
    e7ca:	f013 0580 	ands.w	r5, r3, #128	; 0x80
    e7ce:	d019      	beq.n	e804 <__smakebuf_r+0xb0>
    e7d0:	f04f 0840 	mov.w	r8, #64	; 0x40
    e7d4:	2500      	movs	r5, #0
    e7d6:	4641      	mov	r1, r8
    e7d8:	4630      	mov	r0, r6
    e7da:	462f      	mov	r7, r5
    e7dc:	f7f9 ff90 	bl	8700 <_malloc_r>
    e7e0:	2800      	cmp	r0, #0
    e7e2:	d1e2      	bne.n	e7aa <__smakebuf_r+0x56>
    e7e4:	f9b4 300c 	ldrsh.w	r3, [r4, #12]
    e7e8:	059a      	lsls	r2, r3, #22
    e7ea:	d4c0      	bmi.n	e76e <__smakebuf_r+0x1a>
    e7ec:	f023 0303 	bic.w	r3, r3, #3
    e7f0:	f104 0243 	add.w	r2, r4, #67	; 0x43
    e7f4:	f043 0302 	orr.w	r3, r3, #2
    e7f8:	2101      	movs	r1, #1
    e7fa:	e9c4 2104 	strd	r2, r1, [r4, #16]
    e7fe:	81a3      	strh	r3, [r4, #12]
    e800:	6022      	str	r2, [r4, #0]
    e802:	e7b4      	b.n	e76e <__smakebuf_r+0x1a>
    e804:	f44f 6880 	mov.w	r8, #1024	; 0x400
    e808:	462f      	mov	r7, r5
    e80a:	e7c9      	b.n	e7a0 <__smakebuf_r+0x4c>
    e80c:	f9b4 100e 	ldrsh.w	r1, [r4, #14]
    e810:	4630      	mov	r0, r6
    e812:	f000 f879 	bl	e908 <_isatty_r>
    e816:	b910      	cbnz	r0, e81e <__smakebuf_r+0xca>
    e818:	f9b4 300c 	ldrsh.w	r3, [r4, #12]
    e81c:	e7cf      	b.n	e7be <__smakebuf_r+0x6a>
    e81e:	89a3      	ldrh	r3, [r4, #12]
    e820:	f023 0303 	bic.w	r3, r3, #3
    e824:	f043 0301 	orr.w	r3, r3, #1
    e828:	b21b      	sxth	r3, r3
    e82a:	e7c8      	b.n	e7be <__smakebuf_r+0x6a>

0000e82c <__swbuf_r>:
    e82c:	b5f8      	push	{r3, r4, r5, r6, r7, lr}
    e82e:	460d      	mov	r5, r1
    e830:	4614      	mov	r4, r2
    e832:	4606      	mov	r6, r0
    e834:	b110      	cbz	r0, e83c <__swbuf_r+0x10>
    e836:	6b43      	ldr	r3, [r0, #52]	; 0x34
    e838:	2b00      	cmp	r3, #0
    e83a:	d04c      	beq.n	e8d6 <__swbuf_r+0xaa>
    e83c:	f9b4 200c 	ldrsh.w	r2, [r4, #12]
    e840:	69a3      	ldr	r3, [r4, #24]
    e842:	60a3      	str	r3, [r4, #8]
    e844:	0717      	lsls	r7, r2, #28
    e846:	b290      	uxth	r0, r2
    e848:	d51b      	bpl.n	e882 <__swbuf_r+0x56>
    e84a:	6923      	ldr	r3, [r4, #16]
    e84c:	b1cb      	cbz	r3, e882 <__swbuf_r+0x56>
    e84e:	b2ed      	uxtb	r5, r5
    e850:	0481      	lsls	r1, r0, #18
    e852:	462f      	mov	r7, r5
    e854:	d522      	bpl.n	e89c <__swbuf_r+0x70>
    e856:	6822      	ldr	r2, [r4, #0]
    e858:	6961      	ldr	r1, [r4, #20]
    e85a:	1ad3      	subs	r3, r2, r3
    e85c:	4299      	cmp	r1, r3
    e85e:	dd29      	ble.n	e8b4 <__swbuf_r+0x88>
    e860:	3301      	adds	r3, #1
    e862:	68a1      	ldr	r1, [r4, #8]
    e864:	3901      	subs	r1, #1
    e866:	60a1      	str	r1, [r4, #8]
    e868:	1c51      	adds	r1, r2, #1
    e86a:	6021      	str	r1, [r4, #0]
    e86c:	7015      	strb	r5, [r2, #0]
    e86e:	6962      	ldr	r2, [r4, #20]
    e870:	429a      	cmp	r2, r3
    e872:	d027      	beq.n	e8c4 <__swbuf_r+0x98>
    e874:	89a3      	ldrh	r3, [r4, #12]
    e876:	07db      	lsls	r3, r3, #31
    e878:	d501      	bpl.n	e87e <__swbuf_r+0x52>
    e87a:	2d0a      	cmp	r5, #10
    e87c:	d022      	beq.n	e8c4 <__swbuf_r+0x98>
    e87e:	4638      	mov	r0, r7
    e880:	bdf8      	pop	{r3, r4, r5, r6, r7, pc}
    e882:	4621      	mov	r1, r4
    e884:	4630      	mov	r0, r6
    e886:	f7ff fddf 	bl	e448 <__swsetup_r>
    e88a:	bb08      	cbnz	r0, e8d0 <__swbuf_r+0xa4>
    e88c:	f9b4 200c 	ldrsh.w	r2, [r4, #12]
    e890:	6923      	ldr	r3, [r4, #16]
    e892:	b290      	uxth	r0, r2
    e894:	b2ed      	uxtb	r5, r5
    e896:	0481      	lsls	r1, r0, #18
    e898:	462f      	mov	r7, r5
    e89a:	d4dc      	bmi.n	e856 <__swbuf_r+0x2a>
    e89c:	f442 5200 	orr.w	r2, r2, #8192	; 0x2000
    e8a0:	81a2      	strh	r2, [r4, #12]
    e8a2:	6e62      	ldr	r2, [r4, #100]	; 0x64
    e8a4:	6961      	ldr	r1, [r4, #20]
    e8a6:	f422 5200 	bic.w	r2, r2, #8192	; 0x2000
    e8aa:	6662      	str	r2, [r4, #100]	; 0x64
    e8ac:	6822      	ldr	r2, [r4, #0]
    e8ae:	1ad3      	subs	r3, r2, r3
    e8b0:	4299      	cmp	r1, r3
    e8b2:	dcd5      	bgt.n	e860 <__swbuf_r+0x34>
    e8b4:	4621      	mov	r1, r4
    e8b6:	4630      	mov	r0, r6
    e8b8:	f7fd fb24 	bl	bf04 <_fflush_r>
    e8bc:	b940      	cbnz	r0, e8d0 <__swbuf_r+0xa4>
    e8be:	6822      	ldr	r2, [r4, #0]
    e8c0:	2301      	movs	r3, #1
    e8c2:	e7ce      	b.n	e862 <__swbuf_r+0x36>
    e8c4:	4621      	mov	r1, r4
    e8c6:	4630      	mov	r0, r6
    e8c8:	f7fd fb1c 	bl	bf04 <_fflush_r>
    e8cc:	2800      	cmp	r0, #0
    e8ce:	d0d6      	beq.n	e87e <__swbuf_r+0x52>
    e8d0:	f04f 37ff 	mov.w	r7, #4294967295
    e8d4:	e7d3      	b.n	e87e <__swbuf_r+0x52>
    e8d6:	f7fa fc51 	bl	917c <__sinit>
    e8da:	e7af      	b.n	e83c <__swbuf_r+0x10>

0000e8dc <_fstat_r>:
    e8dc:	b570      	push	{r4, r5, r6, lr}
    e8de:	460c      	mov	r4, r1
    e8e0:	4d08      	ldr	r5, [pc, #32]	; (e904 <_fstat_r+0x28>)
    e8e2:	4603      	mov	r3, r0
    e8e4:	2600      	movs	r6, #0
    e8e6:	4620      	mov	r0, r4
    e8e8:	4611      	mov	r1, r2
    e8ea:	461c      	mov	r4, r3
    e8ec:	602e      	str	r6, [r5, #0]
    e8ee:	f7f7 ff8b 	bl	6808 <_fstat>
    e8f2:	1c43      	adds	r3, r0, #1
    e8f4:	d000      	beq.n	e8f8 <_fstat_r+0x1c>
    e8f6:	bd70      	pop	{r4, r5, r6, pc}
    e8f8:	682b      	ldr	r3, [r5, #0]
    e8fa:	2b00      	cmp	r3, #0
    e8fc:	d0fb      	beq.n	e8f6 <_fstat_r+0x1a>
    e8fe:	6023      	str	r3, [r4, #0]
    e900:	bd70      	pop	{r4, r5, r6, pc}
    e902:	bf00      	nop
    e904:	20009b54 	.word	0x20009b54

0000e908 <_isatty_r>:
    e908:	b538      	push	{r3, r4, r5, lr}
    e90a:	4d07      	ldr	r5, [pc, #28]	; (e928 <_isatty_r+0x20>)
    e90c:	2200      	movs	r2, #0
    e90e:	4604      	mov	r4, r0
    e910:	4608      	mov	r0, r1
    e912:	602a      	str	r2, [r5, #0]
    e914:	f7f7 ff7e 	bl	6814 <_isatty>
    e918:	1c43      	adds	r3, r0, #1
    e91a:	d000      	beq.n	e91e <_isatty_r+0x16>
    e91c:	bd38      	pop	{r3, r4, r5, pc}
    e91e:	682b      	ldr	r3, [r5, #0]
    e920:	2b00      	cmp	r3, #0
    e922:	d0fb      	beq.n	e91c <_isatty_r+0x14>
    e924:	6023      	str	r3, [r4, #0]
    e926:	bd38      	pop	{r3, r4, r5, pc}
    e928:	20009b54 	.word	0x20009b54
    e92c:	00000000 	.word	0x00000000

0000e930 <___reboot_Teensyduino__veneer>:
    e930:	f85f f000 	ldr.w	pc, [pc]	; e934 <___reboot_Teensyduino__veneer+0x4>
    e934:	60001cdd 	.word	0x60001cdd

0000e938 <___init_veneer>:
    e938:	f85f f000 	ldr.w	pc, [pc]	; e93c <___init_veneer+0x4>
    e93c:	60001d85 	.word	0x60001d85

Disassembly of section .fini:

0000e940 <_fini>:
    e940:	b5f8      	push	{r3, r4, r5, r6, r7, lr}
    e942:	bf00      	nop
