
validation\performance\builds\teensy41_hot3d_rgb565_bench_teensy41_run1\RGB565Hot3DKernelBench.ino.elf:     file format elf32-littlearm


Disassembly of section .text.code:

60001400 <memory_copy>:
60001400:	4282      	cmp	r2, r0
60001402:	d005      	beq.n	60001410 <memory_copy+0x10>
60001404:	f851 3b04 	ldr.w	r3, [r1], #4
60001408:	f840 3b04 	str.w	r3, [r0], #4
6000140c:	4282      	cmp	r2, r0
6000140e:	d8f9      	bhi.n	60001404 <memory_copy+0x4>
60001410:	4770      	bx	lr
60001412:	bf00      	nop

60001414 <memory_clear.constprop.0>:
60001414:	4a04      	ldr	r2, [pc, #16]	; (60001428 <memory_clear.constprop.0+0x14>)
60001416:	4905      	ldr	r1, [pc, #20]	; (6000142c <memory_clear.constprop.0+0x18>)
60001418:	f04f 0300 	mov.w	r3, #0
6000141c:	f842 3b04 	str.w	r3, [r2], #4
60001420:	4291      	cmp	r1, r2
60001422:	d8fb      	bhi.n	6000141c <memory_clear.constprop.0+0x8>
60001424:	4770      	bx	lr
60001426:	bf00      	nop
60001428:	200016c0 	.word	0x200016c0
6000142c:	20009c40 	.word	0x20009c40

60001430 <ResetHandler2>:
60001430:	b580      	push	{r7, lr}
60001432:	f3bf 8f4f 	dsb	sy
60001436:	f000 f94b 	bl	600016d0 <startup_default_early_hook>
6000143a:	4c54      	ldr	r4, [pc, #336]	; (6000158c <ResetHandler2+0x15c>)
6000143c:	4b54      	ldr	r3, [pc, #336]	; (60001590 <ResetHandler2+0x160>)
6000143e:	2008      	movs	r0, #8
60001440:	4954      	ldr	r1, [pc, #336]	; (60001594 <ResetHandler2+0x164>)
60001442:	f8c3 0154 	str.w	r0, [r3, #340]	; 0x154
60001446:	4a54      	ldr	r2, [pc, #336]	; (60001598 <ResetHandler2+0x168>)
60001448:	f8c3 1100 	str.w	r1, [r3, #256]	; 0x100
6000144c:	4853      	ldr	r0, [pc, #332]	; (6000159c <ResetHandler2+0x16c>)
6000144e:	f8c3 40f0 	str.w	r4, [r3, #240]	; 0xf0
60001452:	4953      	ldr	r1, [pc, #332]	; (600015a0 <ResetHandler2+0x170>)
60001454:	f7ff ffd4 	bl	60001400 <memory_copy>
60001458:	4a52      	ldr	r2, [pc, #328]	; (600015a4 <ResetHandler2+0x174>)
6000145a:	4953      	ldr	r1, [pc, #332]	; (600015a8 <ResetHandler2+0x178>)
6000145c:	4853      	ldr	r0, [pc, #332]	; (600015ac <ResetHandler2+0x17c>)
6000145e:	f7ff ffcf 	bl	60001400 <memory_copy>
60001462:	4c53      	ldr	r4, [pc, #332]	; (600015b0 <ResetHandler2+0x180>)
60001464:	f7ff ffd6 	bl	60001414 <memory_clear.constprop.0>
60001468:	f44f 0070 	mov.w	r0, #15728640	; 0xf00000
6000146c:	f04f 21e0 	mov.w	r1, #3758153728	; 0xe000e000
60001470:	2300      	movs	r3, #0
60001472:	4a50      	ldr	r2, [pc, #320]	; (600015b4 <ResetHandler2+0x184>)
60001474:	f8c1 0d88 	str.w	r0, [r1, #3464]	; 0xd88
60001478:	f844 2023 	str.w	r2, [r4, r3, lsl #2]
6000147c:	3301      	adds	r3, #1
6000147e:	2bb0      	cmp	r3, #176	; 0xb0
60001480:	d1fa      	bne.n	60001478 <ResetHandler2+0x48>
60001482:	4b4d      	ldr	r3, [pc, #308]	; (600015b8 <ResetHandler2+0x188>)
60001484:	2180      	movs	r1, #128	; 0x80
60001486:	4a4d      	ldr	r2, [pc, #308]	; (600015bc <ResetHandler2+0x18c>)
60001488:	f803 1b01 	strb.w	r1, [r3], #1
6000148c:	4293      	cmp	r3, r2
6000148e:	d1fb      	bne.n	60001488 <ResetHandler2+0x58>
60001490:	f04f 25e0 	mov.w	r5, #3758153728	; 0xe000e000
60001494:	4f4a      	ldr	r7, [pc, #296]	; (600015c0 <ResetHandler2+0x190>)
60001496:	4a4b      	ldr	r2, [pc, #300]	; (600015c4 <ResetHandler2+0x194>)
60001498:	f04f 31ff 	mov.w	r1, #4294967295
6000149c:	f8c5 4d08 	str.w	r4, [r5, #3336]	; 0xd08
600014a0:	2600      	movs	r6, #0
600014a2:	f8d5 3d24 	ldr.w	r3, [r5, #3364]	; 0xd24
600014a6:	f443 23e0 	orr.w	r3, r3, #458752	; 0x70000
600014aa:	f8c5 3d24 	str.w	r3, [r5, #3364]	; 0xd24
600014ae:	69fb      	ldr	r3, [r7, #28]
600014b0:	f023 037f 	bic.w	r3, r3, #127	; 0x7f
600014b4:	f043 0340 	orr.w	r3, r3, #64	; 0x40
600014b8:	61fb      	str	r3, [r7, #28]
600014ba:	6a7b      	ldr	r3, [r7, #36]	; 0x24
600014bc:	f023 037f 	bic.w	r3, r3, #127	; 0x7f
600014c0:	f043 0340 	orr.w	r3, r3, #64	; 0x40
600014c4:	627b      	str	r3, [r7, #36]	; 0x24
600014c6:	6691      	str	r1, [r2, #104]	; 0x68
600014c8:	66d1      	str	r1, [r2, #108]	; 0x6c
600014ca:	6711      	str	r1, [r2, #112]	; 0x70
600014cc:	6751      	str	r1, [r2, #116]	; 0x74
600014ce:	f000 f907 	bl	600016e0 <configure_cache>
600014d2:	4b3d      	ldr	r3, [pc, #244]	; (600015c8 <ResetHandler2+0x198>)
600014d4:	2263      	movs	r2, #99	; 0x63
600014d6:	493d      	ldr	r1, [pc, #244]	; (600015cc <ResetHandler2+0x19c>)
600014d8:	63a3      	str	r3, [r4, #56]	; 0x38
600014da:	4b3d      	ldr	r3, [pc, #244]	; (600015d0 <ResetHandler2+0x1a0>)
600014dc:	63e3      	str	r3, [r4, #60]	; 0x3c
600014de:	2303      	movs	r3, #3
600014e0:	616a      	str	r2, [r5, #20]
600014e2:	4a3c      	ldr	r2, [pc, #240]	; (600015d4 <ResetHandler2+0x1a4>)
600014e4:	61ae      	str	r6, [r5, #24]
600014e6:	612b      	str	r3, [r5, #16]
600014e8:	f8c5 2d20 	str.w	r2, [r5, #3360]	; 0xd20
600014ec:	f8d5 2dfc 	ldr.w	r2, [r5, #3580]	; 0xdfc
600014f0:	4b39      	ldr	r3, [pc, #228]	; (600015d8 <ResetHandler2+0x1a8>)
600014f2:	f042 7280 	orr.w	r2, r2, #16777216	; 0x1000000
600014f6:	f8c5 2dfc 	str.w	r2, [r5, #3580]	; 0xdfc
600014fa:	681a      	ldr	r2, [r3, #0]
600014fc:	f042 0201 	orr.w	r2, r2, #1
60001500:	601a      	str	r2, [r3, #0]
60001502:	685b      	ldr	r3, [r3, #4]
60001504:	600b      	str	r3, [r1, #0]
60001506:	f000 faaf 	bl	60001a68 <usb_pll_start>
6000150a:	4834      	ldr	r0, [pc, #208]	; (600015dc <ResetHandler2+0x1ac>)
6000150c:	f000 fc4c 	bl	60001da8 <__set_arm_clock_veneer>
60001510:	6ef9      	ldr	r1, [r7, #108]	; 0x6c
60001512:	4b33      	ldr	r3, [pc, #204]	; (600015e0 <ResetHandler2+0x1b0>)
60001514:	4a33      	ldr	r2, [pc, #204]	; (600015e4 <ResetHandler2+0x1b4>)
60001516:	f441 5140 	orr.w	r1, r1, #12288	; 0x3000
6000151a:	66f9      	str	r1, [r7, #108]	; 0x6c
6000151c:	601e      	str	r6, [r3, #0]
6000151e:	f8c3 6108 	str.w	r6, [r3, #264]	; 0x108
60001522:	f8c3 6118 	str.w	r6, [r3, #280]	; 0x118
60001526:	f8c3 6128 	str.w	r6, [r3, #296]	; 0x128
6000152a:	f8c3 6138 	str.w	r6, [r3, #312]	; 0x138
6000152e:	6b93      	ldr	r3, [r2, #56]	; 0x38
60001530:	07db      	lsls	r3, r3, #31
60001532:	d408      	bmi.n	60001546 <ResetHandler2+0x116>
60001534:	f642 6315 	movw	r3, #11797	; 0x2e15
60001538:	492b      	ldr	r1, [pc, #172]	; (600015e8 <ResetHandler2+0x1b8>)
6000153a:	6551      	str	r1, [r2, #84]	; 0x54
6000153c:	6513      	str	r3, [r2, #80]	; 0x50
6000153e:	6b93      	ldr	r3, [r2, #56]	; 0x38
60001540:	f043 0301 	orr.w	r3, r3, #1
60001544:	6393      	str	r3, [r2, #56]	; 0x38
60001546:	4a27      	ldr	r2, [pc, #156]	; (600015e4 <ResetHandler2+0x1b4>)
60001548:	4c28      	ldr	r4, [pc, #160]	; (600015ec <ResetHandler2+0x1bc>)
6000154a:	6893      	ldr	r3, [r2, #8]
6000154c:	f043 1301 	orr.w	r3, r3, #65537	; 0x10001
60001550:	6093      	str	r3, [r2, #8]
60001552:	f000 f94f 	bl	600017f4 <configure_external_ram>
60001556:	f000 fbeb 	bl	60001d30 <analog_init>
6000155a:	f000 fc1d 	bl	60001d98 <__pwm_init_veneer>
6000155e:	f000 fab1 	bl	60001ac4 <tempmon_init>
60001562:	f000 f8b7 	bl	600016d4 <startup_default_middle_hook>
60001566:	6823      	ldr	r3, [r4, #0]
60001568:	2b13      	cmp	r3, #19
6000156a:	d9fc      	bls.n	60001566 <ResetHandler2+0x136>
6000156c:	f000 fb42 	bl	60001bf4 <usb_init>
60001570:	6823      	ldr	r3, [r4, #0]
60001572:	f5b3 7f96 	cmp.w	r3, #300	; 0x12c
60001576:	d3fb      	bcc.n	60001570 <ResetHandler2+0x140>
60001578:	f000 f8b0 	bl	600016dc <startup_debug_reset>
6000157c:	f000 f8ac 	bl	600016d8 <startup_default_late_hook>
60001580:	f000 fc0e 	bl	60001da0 <____libc_init_array_veneer>
60001584:	f000 fc1c 	bl	60001dc0 <__main_veneer>
60001588:	bf30      	wfi
6000158a:	e7fd      	b.n	60001588 <ResetHandler2+0x158>
6000158c:	13110d0c 	.word	0x13110d0c
60001590:	400d8000 	.word	0x400d8000
60001594:	2018101b 	.word	0x2018101b
60001598:	0000e940 	.word	0x0000e940
6000159c:	00000000 	.word	0x00000000
600015a0:	60001edc 	.word	0x60001edc
600015a4:	200016c0 	.word	0x200016c0
600015a8:	60010820 	.word	0x60010820
600015ac:	20000000 	.word	0x20000000
600015b0:	20001400 	.word	0x20001400
600015b4:	00006645 	.word	0x00006645
600015b8:	e000e400 	.word	0xe000e400
600015bc:	e000e4a0 	.word	0xe000e4a0
600015c0:	400fc000 	.word	0x400fc000
600015c4:	400ac000 	.word	0x400ac000
600015c8:	00007dcd 	.word	0x00007dcd
600015cc:	20009bcc 	.word	0x20009bcc
600015d0:	00007e19 	.word	0x00007e19
600015d4:	20200000 	.word	0x20200000
600015d8:	e0001000 	.word	0xe0001000
600015dc:	23c34600 	.word	0x23c34600
600015e0:	40084000 	.word	0x40084000
600015e4:	400d4000 	.word	0x400d4000
600015e8:	56c00000 	.word	0x56c00000
600015ec:	20009bd0 	.word	0x20009bd0

600015f0 <ResetHandler>:
600015f0:	4b05      	ldr	r3, [pc, #20]	; (60001608 <ResetHandler+0x18>)
600015f2:	f44f 012a 	mov.w	r1, #11141120	; 0xaa0000
600015f6:	4a05      	ldr	r2, [pc, #20]	; (6000160c <ResetHandler+0x1c>)
600015f8:	4805      	ldr	r0, [pc, #20]	; (60001610 <ResetHandler+0x20>)
600015fa:	645a      	str	r2, [r3, #68]	; 0x44
600015fc:	6418      	str	r0, [r3, #64]	; 0x40
600015fe:	4a05      	ldr	r2, [pc, #20]	; (60001614 <ResetHandler+0x24>)
60001600:	6399      	str	r1, [r3, #56]	; 0x38
60001602:	4695      	mov	sp, r2
60001604:	f7ff ff14 	bl	60001430 <ResetHandler2>
60001608:	400ac000 	.word	0x400ac000
6000160c:	aaaaaaaf 	.word	0xaaaaaaaf
60001610:	00200007 	.word	0x00200007
60001614:	20070000 	.word	0x20070000

60001618 <flexspi2_psram_size>:
60001618:	4a2b      	ldr	r2, [pc, #172]	; (600016c8 <flexspi2_psram_size+0xb0>)
6000161a:	2100      	movs	r1, #0
6000161c:	2301      	movs	r3, #1
6000161e:	b410      	push	{r4}
60001620:	f8c2 00a0 	str.w	r0, [r2, #160]	; 0xa0
60001624:	f8c2 10a4 	str.w	r1, [r2, #164]	; 0xa4
60001628:	f8c2 30b0 	str.w	r3, [r2, #176]	; 0xb0
6000162c:	6953      	ldr	r3, [r2, #20]
6000162e:	07db      	lsls	r3, r3, #31
60001630:	d5fc      	bpl.n	6000162c <flexspi2_psram_size+0x14>
60001632:	2301      	movs	r3, #1
60001634:	f44f 3480 	mov.w	r4, #65536	; 0x10000
60001638:	4923      	ldr	r1, [pc, #140]	; (600016c8 <flexspi2_psram_size+0xb0>)
6000163a:	6153      	str	r3, [r2, #20]
6000163c:	f8c2 00a0 	str.w	r0, [r2, #160]	; 0xa0
60001640:	f8c2 40a4 	str.w	r4, [r2, #164]	; 0xa4
60001644:	f8c2 30b0 	str.w	r3, [r2, #176]	; 0xb0
60001648:	694b      	ldr	r3, [r1, #20]
6000164a:	07dc      	lsls	r4, r3, #31
6000164c:	d5fc      	bpl.n	60001648 <flexspi2_psram_size+0x30>
6000164e:	2301      	movs	r3, #1
60001650:	f44f 3400 	mov.w	r4, #131072	; 0x20000
60001654:	4a1c      	ldr	r2, [pc, #112]	; (600016c8 <flexspi2_psram_size+0xb0>)
60001656:	614b      	str	r3, [r1, #20]
60001658:	f8c1 00a0 	str.w	r0, [r1, #160]	; 0xa0
6000165c:	f8c1 40a4 	str.w	r4, [r1, #164]	; 0xa4
60001660:	f8c1 30b0 	str.w	r3, [r1, #176]	; 0xb0
60001664:	6953      	ldr	r3, [r2, #20]
60001666:	07d9      	lsls	r1, r3, #31
60001668:	d5fc      	bpl.n	60001664 <flexspi2_psram_size+0x4c>
6000166a:	2301      	movs	r3, #1
6000166c:	4c17      	ldr	r4, [pc, #92]	; (600016cc <flexspi2_psram_size+0xb4>)
6000166e:	4916      	ldr	r1, [pc, #88]	; (600016c8 <flexspi2_psram_size+0xb0>)
60001670:	6153      	str	r3, [r2, #20]
60001672:	f8c2 00a0 	str.w	r0, [r2, #160]	; 0xa0
60001676:	f8c2 40a4 	str.w	r4, [r2, #164]	; 0xa4
6000167a:	f8c2 30b0 	str.w	r3, [r2, #176]	; 0xb0
6000167e:	694b      	ldr	r3, [r1, #20]
60001680:	07db      	lsls	r3, r3, #31
60001682:	d5fc      	bpl.n	6000167e <flexspi2_psram_size+0x66>
60001684:	f8d1 3100 	ldr.w	r3, [r1, #256]	; 0x100
60001688:	f645 500d 	movw	r0, #23821	; 0x5d0d
6000168c:	2421      	movs	r4, #33	; 0x21
6000168e:	b29a      	uxth	r2, r3
60001690:	614c      	str	r4, [r1, #20]
60001692:	4282      	cmp	r2, r0
60001694:	d014      	beq.n	600016c0 <flexspi2_psram_size+0xa8>
60001696:	f645 519d 	movw	r1, #23965	; 0x5d9d
6000169a:	428a      	cmp	r2, r1
6000169c:	d10c      	bne.n	600016b8 <flexspi2_psram_size+0xa0>
6000169e:	f3c3 5342 	ubfx	r3, r3, #21, #3
600016a2:	2b03      	cmp	r3, #3
600016a4:	d00c      	beq.n	600016c0 <flexspi2_psram_size+0xa8>
600016a6:	f1a3 0304 	sub.w	r3, r3, #4
600016aa:	f85d 4b04 	ldr.w	r4, [sp], #4
600016ae:	fab3 f383 	clz	r3, r3
600016b2:	095b      	lsrs	r3, r3, #5
600016b4:	0118      	lsls	r0, r3, #4
600016b6:	4770      	bx	lr
600016b8:	2000      	movs	r0, #0
600016ba:	f85d 4b04 	ldr.w	r4, [sp], #4
600016be:	4770      	bx	lr
600016c0:	2008      	movs	r0, #8
600016c2:	f85d 4b04 	ldr.w	r4, [sp], #4
600016c6:	4770      	bx	lr
600016c8:	402a4000 	.word	0x402a4000
600016cc:	00030004 	.word	0x00030004

600016d0 <startup_default_early_hook>:
600016d0:	4770      	bx	lr
600016d2:	bf00      	nop

600016d4 <startup_default_middle_hook>:
600016d4:	4770      	bx	lr
600016d6:	bf00      	nop

600016d8 <startup_default_late_hook>:
600016d8:	4770      	bx	lr
600016da:	bf00      	nop

600016dc <startup_debug_reset>:
600016dc:	bf00      	nop
600016de:	4770      	bx	lr

600016e0 <configure_cache>:
600016e0:	b410      	push	{r4}
600016e2:	f04f 23e0 	mov.w	r3, #3758153728	; 0xe000e000
600016e6:	2100      	movs	r1, #0
600016e8:	2410      	movs	r4, #16
600016ea:	4832      	ldr	r0, [pc, #200]	; (600017b4 <configure_cache+0xd4>)
600016ec:	f8c3 1d94 	str.w	r1, [r3, #3476]	; 0xd94
600016f0:	f8c3 4d9c 	str.w	r4, [r3, #3484]	; 0xd9c
600016f4:	2411      	movs	r4, #17
600016f6:	f8c3 0da0 	str.w	r0, [r3, #3488]	; 0xda0
600016fa:	482f      	ldr	r0, [pc, #188]	; (600017b8 <configure_cache+0xd8>)
600016fc:	f8c3 4d9c 	str.w	r4, [r3, #3484]	; 0xd9c
60001700:	2412      	movs	r4, #18
60001702:	f8c3 0da0 	str.w	r0, [r3, #3488]	; 0xda0
60001706:	482d      	ldr	r0, [pc, #180]	; (600017bc <configure_cache+0xdc>)
60001708:	f8c3 4d9c 	str.w	r4, [r3, #3484]	; 0xd9c
6000170c:	4a2c      	ldr	r2, [pc, #176]	; (600017c0 <configure_cache+0xe0>)
6000170e:	f8c3 0da0 	str.w	r0, [r3, #3488]	; 0xda0
60001712:	4c2c      	ldr	r4, [pc, #176]	; (600017c4 <configure_cache+0xe4>)
60001714:	f042 0215 	orr.w	r2, r2, #21
60001718:	482b      	ldr	r0, [pc, #172]	; (600017c8 <configure_cache+0xe8>)
6000171a:	f8c3 4d9c 	str.w	r4, [r3, #3484]	; 0xd9c
6000171e:	f8c3 0da0 	str.w	r0, [r3, #3488]	; 0xda0
60001722:	4c2a      	ldr	r4, [pc, #168]	; (600017cc <configure_cache+0xec>)
60001724:	482a      	ldr	r0, [pc, #168]	; (600017d0 <configure_cache+0xf0>)
60001726:	f8c3 4d9c 	str.w	r4, [r3, #3484]	; 0xd9c
6000172a:	f8c3 0da0 	str.w	r0, [r3, #3488]	; 0xda0
6000172e:	4c29      	ldr	r4, [pc, #164]	; (600017d4 <configure_cache+0xf4>)
60001730:	f8c3 2d9c 	str.w	r2, [r3, #3484]	; 0xd9c
60001734:	4828      	ldr	r0, [pc, #160]	; (600017d8 <configure_cache+0xf8>)
60001736:	4a29      	ldr	r2, [pc, #164]	; (600017dc <configure_cache+0xfc>)
60001738:	f8c3 4da0 	str.w	r4, [r3, #3488]	; 0xda0
6000173c:	f8c3 0d9c 	str.w	r0, [r3, #3484]	; 0xd9c
60001740:	f8c3 2da0 	str.w	r2, [r3, #3488]	; 0xda0
60001744:	f502 22a0 	add.w	r2, r2, #327680	; 0x50000
60001748:	4c25      	ldr	r4, [pc, #148]	; (600017e0 <configure_cache+0x100>)
6000174a:	320c      	adds	r2, #12
6000174c:	4825      	ldr	r0, [pc, #148]	; (600017e4 <configure_cache+0x104>)
6000174e:	f8c3 4d9c 	str.w	r4, [r3, #3484]	; 0xd9c
60001752:	f8c3 2da0 	str.w	r2, [r3, #3488]	; 0xda0
60001756:	4a24      	ldr	r2, [pc, #144]	; (600017e8 <configure_cache+0x108>)
60001758:	f8c3 0d9c 	str.w	r0, [r3, #3484]	; 0xd9c
6000175c:	f8c3 2da0 	str.w	r2, [r3, #3488]	; 0xda0
60001760:	f102 6240 	add.w	r2, r2, #201326592	; 0xc000000
60001764:	4c21      	ldr	r4, [pc, #132]	; (600017ec <configure_cache+0x10c>)
60001766:	3202      	adds	r2, #2
60001768:	4821      	ldr	r0, [pc, #132]	; (600017f0 <configure_cache+0x110>)
6000176a:	f8c3 4d9c 	str.w	r4, [r3, #3484]	; 0xd9c
6000176e:	f8c3 2da0 	str.w	r2, [r3, #3488]	; 0xda0
60001772:	320a      	adds	r2, #10
60001774:	f8c3 0d9c 	str.w	r0, [r3, #3484]	; 0xd9c
60001778:	f8c3 2da0 	str.w	r2, [r3, #3488]	; 0xda0
6000177c:	bf00      	nop
6000177e:	bf00      	nop
60001780:	bf00      	nop
60001782:	bf00      	nop
60001784:	bf00      	nop
60001786:	2201      	movs	r2, #1
60001788:	f8c3 2d94 	str.w	r2, [r3, #3476]	; 0xd94
6000178c:	f3bf 8f4f 	dsb	sy
60001790:	f3bf 8f6f 	isb	sy
60001794:	f8c3 1f50 	str.w	r1, [r3, #3920]	; 0xf50
60001798:	f3bf 8f4f 	dsb	sy
6000179c:	f3bf 8f6f 	isb	sy
600017a0:	f8d3 2d14 	ldr.w	r2, [r3, #3348]	; 0xd14
600017a4:	f85d 4b04 	ldr.w	r4, [sp], #4
600017a8:	f442 3240 	orr.w	r2, r2, #196608	; 0x30000
600017ac:	f8c3 2d14 	str.w	r2, [r3, #3348]	; 0xd14
600017b0:	4770      	bx	lr
600017b2:	bf00      	nop
600017b4:	1000003f 	.word	0x1000003f
600017b8:	07080025 	.word	0x07080025
600017bc:	00100009 	.word	0x00100009
600017c0:	20009c40 	.word	0x20009c40
600017c4:	00200013 	.word	0x00200013
600017c8:	07020021 	.word	0x07020021
600017cc:	20000014 	.word	0x20000014
600017d0:	13080025 	.word	0x13080025
600017d4:	10000009 	.word	0x10000009
600017d8:	20200016 	.word	0x20200016
600017dc:	130b0027 	.word	0x130b0027
600017e0:	40000017 	.word	0x40000017
600017e4:	60000018 	.word	0x60000018
600017e8:	070b002f 	.word	0x070b002f
600017ec:	70000019 	.word	0x70000019
600017f0:	8000001a 	.word	0x8000001a

600017f4 <configure_external_ram>:
600017f4:	b5f0      	push	{r4, r5, r6, r7, lr}
600017f6:	4b82      	ldr	r3, [pc, #520]	; (60001a00 <configure_external_ram+0x20c>)
600017f8:	2218      	movs	r2, #24
600017fa:	4d82      	ldr	r5, [pc, #520]	; (60001a04 <configure_external_ram+0x210>)
600017fc:	2001      	movs	r0, #1
600017fe:	4f82      	ldr	r7, [pc, #520]	; (60001a08 <configure_external_ram+0x214>)
60001800:	b083      	sub	sp, #12
60001802:	f8c3 525c 	str.w	r5, [r3, #604]	; 0x25c
60001806:	4981      	ldr	r1, [pc, #516]	; (60001a0c <configure_external_ram+0x218>)
60001808:	f8c3 7260 	str.w	r7, [r3, #608]	; 0x260
6000180c:	4c80      	ldr	r4, [pc, #512]	; (60001a10 <configure_external_ram+0x21c>)
6000180e:	f8c3 5264 	str.w	r5, [r3, #612]	; 0x264
60001812:	f5a5 4530 	sub.w	r5, r5, #45056	; 0xb000
60001816:	4e7f      	ldr	r6, [pc, #508]	; (60001a14 <configure_external_ram+0x220>)
60001818:	f8c3 5268 	str.w	r5, [r3, #616]	; 0x268
6000181c:	f248 750c 	movw	r5, #34572	; 0x870c
60001820:	f8c3 426c 	str.w	r4, [r3, #620]	; 0x26c
60001824:	f8c3 4270 	str.w	r4, [r3, #624]	; 0x270
60001828:	f8c3 4274 	str.w	r4, [r3, #628]	; 0x274
6000182c:	f8c3 4278 	str.w	r4, [r3, #632]	; 0x278
60001830:	f04f 34ff 	mov.w	r4, #4294967295
60001834:	66da      	str	r2, [r3, #108]	; 0x6c
60001836:	671a      	str	r2, [r3, #112]	; 0x70
60001838:	675a      	str	r2, [r3, #116]	; 0x74
6000183a:	679a      	str	r2, [r3, #120]	; 0x78
6000183c:	67da      	str	r2, [r3, #124]	; 0x7c
6000183e:	f8c3 2080 	str.w	r2, [r3, #128]	; 0x80
60001842:	f8c3 2084 	str.w	r2, [r3, #132]	; 0x84
60001846:	f8c3 2088 	str.w	r2, [r3, #136]	; 0x88
6000184a:	f8c1 032c 	str.w	r0, [r1, #812]	; 0x32c
6000184e:	4a72      	ldr	r2, [pc, #456]	; (60001a18 <configure_external_ram+0x224>)
60001850:	f8c1 0330 	str.w	r0, [r1, #816]	; 0x330
60001854:	f8c1 0334 	str.w	r0, [r1, #820]	; 0x334
60001858:	f8c1 0338 	str.w	r0, [r1, #824]	; 0x338
6000185c:	f8c1 033c 	str.w	r0, [r1, #828]	; 0x33c
60001860:	f8c1 0350 	str.w	r0, [r1, #848]	; 0x350
60001864:	69b1      	ldr	r1, [r6, #24]
60001866:	4b6d      	ldr	r3, [pc, #436]	; (60001a1c <configure_external_ram+0x228>)
60001868:	400a      	ands	r2, r1
6000186a:	486d      	ldr	r0, [pc, #436]	; (60001a20 <configure_external_ram+0x22c>)
6000186c:	496d      	ldr	r1, [pc, #436]	; (60001a24 <configure_external_ram+0x230>)
6000186e:	4313      	orrs	r3, r2
60001870:	4a6d      	ldr	r2, [pc, #436]	; (60001a28 <configure_external_ram+0x234>)
60001872:	61b3      	str	r3, [r6, #24]
60001874:	f8d6 3084 	ldr.w	r3, [r6, #132]	; 0x84
60001878:	f043 030c 	orr.w	r3, r3, #12
6000187c:	f8c6 3084 	str.w	r3, [r6, #132]	; 0x84
60001880:	6803      	ldr	r3, [r0, #0]
60001882:	f043 0302 	orr.w	r3, r3, #2
60001886:	6003      	str	r3, [r0, #0]
60001888:	6803      	ldr	r3, [r0, #0]
6000188a:	402b      	ands	r3, r5
6000188c:	2521      	movs	r5, #33	; 0x21
6000188e:	431a      	orrs	r2, r3
60001890:	4b66      	ldr	r3, [pc, #408]	; (60001a2c <configure_external_ram+0x238>)
60001892:	6002      	str	r2, [r0, #0]
60001894:	6044      	str	r4, [r0, #4]
60001896:	688a      	ldr	r2, [r1, #8]
60001898:	4c65      	ldr	r4, [pc, #404]	; (60001a30 <configure_external_ram+0x23c>)
6000189a:	4013      	ands	r3, r2
6000189c:	4a65      	ldr	r2, [pc, #404]	; (60001a34 <configure_external_ram+0x240>)
6000189e:	f043 5300 	orr.w	r3, r3, #536870912	; 0x20000000
600018a2:	6083      	str	r3, [r0, #8]
600018a4:	68c3      	ldr	r3, [r0, #12]
600018a6:	f023 0378 	bic.w	r3, r3, #120	; 0x78
600018aa:	60c3      	str	r3, [r0, #12]
600018ac:	6a03      	ldr	r3, [r0, #32]
600018ae:	4013      	ands	r3, r2
600018b0:	4323      	orrs	r3, r4
600018b2:	6203      	str	r3, [r0, #32]
600018b4:	6a03      	ldr	r3, [r0, #32]
600018b6:	4013      	ands	r3, r2
600018b8:	4a5f      	ldr	r2, [pc, #380]	; (60001a38 <configure_external_ram+0x244>)
600018ba:	4323      	orrs	r3, r4
600018bc:	f240 6405 	movw	r4, #1541	; 0x605
600018c0:	6243      	str	r3, [r0, #36]	; 0x24
600018c2:	6282      	str	r2, [r0, #40]	; 0x28
600018c4:	62c2      	str	r2, [r0, #44]	; 0x2c
600018c6:	2200      	movs	r2, #0
600018c8:	f8d1 30b8 	ldr.w	r3, [r1, #184]	; 0xb8
600018cc:	f023 033f 	bic.w	r3, r3, #63	; 0x3f
600018d0:	f043 0301 	orr.w	r3, r3, #1
600018d4:	f8c0 30b8 	str.w	r3, [r0, #184]	; 0xb8
600018d8:	f8d1 30bc 	ldr.w	r3, [r1, #188]	; 0xbc
600018dc:	4957      	ldr	r1, [pc, #348]	; (60001a3c <configure_external_ram+0x248>)
600018de:	f023 033f 	bic.w	r3, r3, #63	; 0x3f
600018e2:	f043 0301 	orr.w	r3, r3, #1
600018e6:	f8c0 30bc 	str.w	r3, [r0, #188]	; 0xbc
600018ea:	6102      	str	r2, [r0, #16]
600018ec:	6705      	str	r5, [r0, #112]	; 0x70
600018ee:	f8c0 4080 	str.w	r4, [r0, #128]	; 0x80
600018f2:	6745      	str	r5, [r0, #116]	; 0x74
600018f4:	f8c0 4084 	str.w	r4, [r0, #132]	; 0x84
600018f8:	2402      	movs	r4, #2
600018fa:	6803      	ldr	r3, [r0, #0]
600018fc:	f023 0302 	bic.w	r3, r3, #2
60001900:	6003      	str	r3, [r0, #0]
60001902:	6181      	str	r1, [r0, #24]
60001904:	4b4e      	ldr	r3, [pc, #312]	; (60001a40 <configure_external_ram+0x24c>)
60001906:	494f      	ldr	r1, [pc, #316]	; (60001a44 <configure_external_ram+0x250>)
60001908:	61c4      	str	r4, [r0, #28]
6000190a:	f843 2b04 	str.w	r2, [r3], #4
6000190e:	428b      	cmp	r3, r1
60001910:	d1fb      	bne.n	6000190a <configure_external_ram+0x116>
60001912:	4d43      	ldr	r5, [pc, #268]	; (60001a20 <configure_external_ram+0x22c>)
60001914:	682b      	ldr	r3, [r5, #0]
60001916:	f043 0301 	orr.w	r3, r3, #1
6000191a:	602b      	str	r3, [r5, #0]
6000191c:	682c      	ldr	r4, [r5, #0]
6000191e:	f014 0401 	ands.w	r4, r4, #1
60001922:	d1fb      	bne.n	6000191c <configure_external_ram+0x128>
60001924:	4945      	ldr	r1, [pc, #276]	; (60001a3c <configure_external_ram+0x248>)
60001926:	2302      	movs	r3, #2
60001928:	f240 62f5 	movw	r2, #1781	; 0x6f5
6000192c:	4620      	mov	r0, r4
6000192e:	61a9      	str	r1, [r5, #24]
60001930:	f240 4199 	movw	r1, #1177	; 0x499
60001934:	61eb      	str	r3, [r5, #28]
60001936:	f240 4366 	movw	r3, #1126	; 0x466
6000193a:	f8c5 2200 	str.w	r2, [r5, #512]	; 0x200
6000193e:	f242 4201 	movw	r2, #9217	; 0x2401
60001942:	f8c5 3210 	str.w	r3, [r5, #528]	; 0x210
60001946:	4b40      	ldr	r3, [pc, #256]	; (60001a48 <configure_external_ram+0x254>)
60001948:	f8c5 1220 	str.w	r1, [r5, #544]	; 0x220
6000194c:	f8c5 3230 	str.w	r3, [r5, #560]	; 0x230
60001950:	f240 4335 	movw	r3, #1077	; 0x435
60001954:	f8c5 2234 	str.w	r2, [r5, #564]	; 0x234
60001958:	493c      	ldr	r1, [pc, #240]	; (60001a4c <configure_external_ram+0x258>)
6000195a:	f8c5 3240 	str.w	r3, [r5, #576]	; 0x240
6000195e:	4b3c      	ldr	r3, [pc, #240]	; (60001a50 <configure_external_ram+0x25c>)
60001960:	f8c5 1250 	str.w	r1, [r5, #592]	; 0x250
60001964:	4a3b      	ldr	r2, [pc, #236]	; (60001a54 <configure_external_ram+0x260>)
60001966:	f8c5 3254 	str.w	r3, [r5, #596]	; 0x254
6000196a:	f242 2301 	movw	r3, #8705	; 0x2201
6000196e:	f8c5 2260 	str.w	r2, [r5, #608]	; 0x260
60001972:	f8c5 3264 	str.w	r3, [r5, #612]	; 0x264
60001976:	f7ff fe4f 	bl	60001618 <flexspi2_psram_size>
6000197a:	4606      	mov	r6, r0
6000197c:	2800      	cmp	r0, #0
6000197e:	d036      	beq.n	600019ee <configure_external_ram+0x1fa>
60001980:	0283      	lsls	r3, r0, #10
60001982:	f44f 2280 	mov.w	r2, #262144	; 0x40000
60001986:	662b      	str	r3, [r5, #96]	; 0x60
60001988:	2301      	movs	r3, #1
6000198a:	f8c5 40a0 	str.w	r4, [r5, #160]	; 0xa0
6000198e:	4c24      	ldr	r4, [pc, #144]	; (60001a20 <configure_external_ram+0x22c>)
60001990:	f8c5 20a4 	str.w	r2, [r5, #164]	; 0xa4
60001994:	f8c5 30b0 	str.w	r3, [r5, #176]	; 0xb0
60001998:	6963      	ldr	r3, [r4, #20]
6000199a:	07da      	lsls	r2, r3, #31
6000199c:	d5fc      	bpl.n	60001998 <configure_external_ram+0x1a4>
6000199e:	2501      	movs	r5, #1
600019a0:	0537      	lsls	r7, r6, #20
600019a2:	6165      	str	r5, [r4, #20]
600019a4:	4638      	mov	r0, r7
600019a6:	f7ff fe37 	bl	60001618 <flexspi2_psram_size>
600019aa:	1832      	adds	r2, r6, r0
600019ac:	4b2a      	ldr	r3, [pc, #168]	; (60001a58 <configure_external_ram+0x264>)
600019ae:	b2d2      	uxtb	r2, r2
600019b0:	701a      	strb	r2, [r3, #0]
600019b2:	b178      	cbz	r0, 600019d4 <configure_external_ram+0x1e0>
600019b4:	0280      	lsls	r0, r0, #10
600019b6:	f44f 2380 	mov.w	r3, #262144	; 0x40000
600019ba:	4919      	ldr	r1, [pc, #100]	; (60001a20 <configure_external_ram+0x22c>)
600019bc:	6660      	str	r0, [r4, #100]	; 0x64
600019be:	f8c4 70a0 	str.w	r7, [r4, #160]	; 0xa0
600019c2:	f8c4 30a4 	str.w	r3, [r4, #164]	; 0xa4
600019c6:	f8c4 50b0 	str.w	r5, [r4, #176]	; 0xb0
600019ca:	694b      	ldr	r3, [r1, #20]
600019cc:	07db      	lsls	r3, r3, #31
600019ce:	d5fc      	bpl.n	600019ca <configure_external_ram+0x1d6>
600019d0:	2301      	movs	r3, #1
600019d2:	614b      	str	r3, [r1, #20]
600019d4:	4921      	ldr	r1, [pc, #132]	; (60001a5c <configure_external_ram+0x268>)
600019d6:	2400      	movs	r4, #0
600019d8:	4821      	ldr	r0, [pc, #132]	; (60001a60 <configure_external_ram+0x26c>)
600019da:	2301      	movs	r3, #1
600019dc:	9400      	str	r4, [sp, #0]
600019de:	1a40      	subs	r0, r0, r1
600019e0:	eb00 5202 	add.w	r2, r0, r2, lsl #20
600019e4:	481f      	ldr	r0, [pc, #124]	; (60001a64 <configure_external_ram+0x270>)
600019e6:	f000 f9e3 	bl	60001db0 <__sm_set_pool_veneer>
600019ea:	b003      	add	sp, #12
600019ec:	bdf0      	pop	{r4, r5, r6, r7, pc}
600019ee:	4b1d      	ldr	r3, [pc, #116]	; (60001a64 <configure_external_ram+0x270>)
600019f0:	4a19      	ldr	r2, [pc, #100]	; (60001a58 <configure_external_ram+0x264>)
600019f2:	6018      	str	r0, [r3, #0]
600019f4:	7010      	strb	r0, [r2, #0]
600019f6:	60d8      	str	r0, [r3, #12]
600019f8:	e9c3 0001 	strd	r0, r0, [r3, #4]
600019fc:	b003      	add	sp, #12
600019fe:	bdf0      	pop	{r4, r5, r6, r7, pc}
60001a00:	401f8000 	.word	0x401f8000
60001a04:	0001b0f9 	.word	0x0001b0f9
60001a08:	000110f9 	.word	0x000110f9
60001a0c:	401f8400 	.word	0x401f8400
60001a10:	000170f9 	.word	0x000170f9
60001a14:	400fc000 	.word	0x400fc000
60001a18:	1ffffcff 	.word	0x1ffffcff
60001a1c:	80000300 	.word	0x80000300
60001a20:	402a4000 	.word	0x402a4000
60001a24:	402a8000 	.word	0x402a8000
60001a28:	ffff0012 	.word	0xffff0012
60001a2c:	00f737ff 	.word	0x00f737ff
60001a30:	80000040 	.word	0x80000040
60001a34:	7cf0ff00 	.word	0x7cf0ff00
60001a38:	830f00ff 	.word	0x830f00ff
60001a3c:	5af05af0 	.word	0x5af05af0
60001a40:	402a4200 	.word	0x402a4200
60001a44:	402a4300 	.word	0x402a4300
60001a48:	3018049f 	.word	0x3018049f
60001a4c:	0a1806eb 	.word	0x0a1806eb
60001a50:	26013206 	.word	0x26013206
60001a54:	0a180638 	.word	0x0a180638
60001a58:	20009bf6 	.word	0x20009bf6
60001a5c:	70000000 	.word	0x70000000
60001a60:	70000000 	.word	0x70000000
60001a64:	20009b58 	.word	0x20009b58

60001a68 <usb_pll_start>:
60001a68:	b4f0      	push	{r4, r5, r6, r7}
60001a6a:	4a15      	ldr	r2, [pc, #84]	; (60001ac0 <usb_pll_start+0x58>)
60001a6c:	2740      	movs	r7, #64	; 0x40
60001a6e:	f44f 3180 	mov.w	r1, #65536	; 0x10000
60001a72:	f44f 5680 	mov.w	r6, #4096	; 0x1000
60001a76:	f44f 5500 	mov.w	r5, #8192	; 0x2000
60001a7a:	f44f 4440 	mov.w	r4, #49152	; 0xc000
60001a7e:	f243 0042 	movw	r0, #12354	; 0x3042
60001a82:	6913      	ldr	r3, [r2, #16]
60001a84:	f013 0f02 	tst.w	r3, #2
60001a88:	d10e      	bne.n	60001aa8 <usb_pll_start+0x40>
60001a8a:	f413 5f00 	tst.w	r3, #8192	; 0x2000
60001a8e:	d00f      	beq.n	60001ab0 <usb_pll_start+0x48>
60001a90:	f413 5f80 	tst.w	r3, #4096	; 0x1000
60001a94:	d00e      	beq.n	60001ab4 <usb_pll_start+0x4c>
60001a96:	2b00      	cmp	r3, #0
60001a98:	daf3      	bge.n	60001a82 <usb_pll_start+0x1a>
60001a9a:	f413 3f80 	tst.w	r3, #65536	; 0x10000
60001a9e:	d10b      	bne.n	60001ab8 <usb_pll_start+0x50>
60001aa0:	065b      	lsls	r3, r3, #25
60001aa2:	d50b      	bpl.n	60001abc <usb_pll_start+0x54>
60001aa4:	bcf0      	pop	{r4, r5, r6, r7}
60001aa6:	4770      	bx	lr
60001aa8:	6194      	str	r4, [r2, #24]
60001aaa:	6151      	str	r1, [r2, #20]
60001aac:	6190      	str	r0, [r2, #24]
60001aae:	e7e8      	b.n	60001a82 <usb_pll_start+0x1a>
60001ab0:	6155      	str	r5, [r2, #20]
60001ab2:	e7e6      	b.n	60001a82 <usb_pll_start+0x1a>
60001ab4:	6156      	str	r6, [r2, #20]
60001ab6:	e7e4      	b.n	60001a82 <usb_pll_start+0x1a>
60001ab8:	6191      	str	r1, [r2, #24]
60001aba:	e7e2      	b.n	60001a82 <usb_pll_start+0x1a>
60001abc:	6157      	str	r7, [r2, #20]
60001abe:	e7e0      	b.n	60001a82 <usb_pll_start+0x1a>
60001ac0:	400d8000 	.word	0x400d8000

60001ac4 <tempmon_init>:
60001ac4:	4a3f      	ldr	r2, [pc, #252]	; (60001bc4 <tempmon_init+0x100>)
60001ac6:	2003      	movs	r0, #3
60001ac8:	493f      	ldr	r1, [pc, #252]	; (60001bc8 <tempmon_init+0x104>)
60001aca:	eef3 5a09 	vmov.f32	s11, #57	; 0x41c80000  25.0
60001ace:	f8d2 3080 	ldr.w	r3, [r2, #128]	; 0x80
60001ad2:	f04f 0c00 	mov.w	ip, #0
60001ad6:	ed9f 6a3d 	vldr	s12, [pc, #244]	; 60001bcc <tempmon_init+0x108>
60001ada:	f023 0301 	bic.w	r3, r3, #1
60001ade:	ed9f 5a3c 	vldr	s10, [pc, #240]	; 60001bd0 <tempmon_init+0x10c>
60001ae2:	b430      	push	{r4, r5}
60001ae4:	f8c2 3080 	str.w	r3, [r2, #128]	; 0x80
60001ae8:	f8c2 0090 	str.w	r0, [r2, #144]	; 0x90
60001aec:	f8d1 10e0 	ldr.w	r1, [r1, #224]	; 0xe0
60001af0:	4d38      	ldr	r5, [pc, #224]	; (60001bd4 <tempmon_init+0x110>)
60001af2:	b2cb      	uxtb	r3, r1
60001af4:	4c38      	ldr	r4, [pc, #224]	; (60001bd8 <tempmon_init+0x114>)
60001af6:	4839      	ldr	r0, [pc, #228]	; (60001bdc <tempmon_init+0x118>)
60001af8:	602b      	str	r3, [r5, #0]
60001afa:	ee07 3a90 	vmov	s15, r3
60001afe:	0d0b      	lsrs	r3, r1, #20
60001b00:	f3c1 210b 	ubfx	r1, r1, #8, #12
60001b04:	eef8 7ae7 	vcvt.f32.s32	s15, s15
60001b08:	ee06 3a90 	vmov	s13, r3
60001b0c:	ee07 1a10 	vmov	s14, r1
60001b10:	4b33      	ldr	r3, [pc, #204]	; (60001be0 <tempmon_init+0x11c>)
60001b12:	eeb8 7ac7 	vcvt.f32.s32	s14, s14
60001b16:	6021      	str	r1, [r4, #0]
60001b18:	eef8 6ae6 	vcvt.f32.s32	s13, s13
60001b1c:	4931      	ldr	r1, [pc, #196]	; (60001be4 <tempmon_init+0x120>)
60001b1e:	ee37 6ac6 	vsub.f32	s12, s15, s12
60001b22:	ee37 5ac5 	vsub.f32	s10, s15, s10
60001b26:	ee76 6ac7 	vsub.f32	s13, s13, s14
60001b2a:	ee77 7ae5 	vsub.f32	s15, s15, s11
60001b2e:	ee26 6a26 	vmul.f32	s12, s12, s13
60001b32:	edc3 6a00 	vstr	s13, [r3]
60001b36:	ee25 5a26 	vmul.f32	s10, s10, s13
60001b3a:	f8d2 3080 	ldr.w	r3, [r2, #128]	; 0x80
60001b3e:	ee67 4aa6 	vmul.f32	s9, s15, s13
60001b42:	edc0 7a00 	vstr	s15, [r0]
60001b46:	eec6 5a27 	vdiv.f32	s11, s12, s15
60001b4a:	4827      	ldr	r0, [pc, #156]	; (60001be8 <tempmon_init+0x124>)
60001b4c:	ee85 6a27 	vdiv.f32	s12, s10, s15
60001b50:	eec4 6aa7 	vdiv.f32	s13, s9, s15
60001b54:	ee75 5a87 	vadd.f32	s11, s11, s14
60001b58:	eefc 5ae5 	vcvt.u32.f32	s11, s11
60001b5c:	ee36 6a07 	vadd.f32	s12, s12, s14
60001b60:	ee15 4a90 	vmov	r4, s11
60001b64:	eebc 6ac6 	vcvt.u32.f32	s12, s12
60001b68:	ea43 5304 	orr.w	r3, r3, r4, lsl #20
60001b6c:	ee76 7a87 	vadd.f32	s15, s13, s14
60001b70:	f8c2 3080 	str.w	r3, [r2, #128]	; 0x80
60001b74:	ee16 3a10 	vmov	r3, s12
60001b78:	f8d2 4190 	ldr.w	r4, [r2, #400]	; 0x190
60001b7c:	eefc 7ae7 	vcvt.u32.f32	s15, s15
60001b80:	ea01 4103 	and.w	r1, r1, r3, lsl #16
60001b84:	4321      	orrs	r1, r4
60001b86:	ee17 3a90 	vmov	r3, s15
60001b8a:	f8c2 1190 	str.w	r1, [r2, #400]	; 0x190
60001b8e:	f3c3 030b 	ubfx	r3, r3, #0, #12
60001b92:	f8d2 1190 	ldr.w	r1, [r2, #400]	; 0x190
60001b96:	430b      	orrs	r3, r1
60001b98:	4914      	ldr	r1, [pc, #80]	; (60001bec <tempmon_init+0x128>)
60001b9a:	f8c2 3190 	str.w	r3, [r2, #400]	; 0x190
60001b9e:	f8d2 3080 	ldr.w	r3, [r2, #128]	; 0x80
60001ba2:	f043 0302 	orr.w	r3, r3, #2
60001ba6:	f8c2 3080 	str.w	r3, [r2, #128]	; 0x80
60001baa:	4b11      	ldr	r3, [pc, #68]	; (60001bf0 <tempmon_init+0x12c>)
60001bac:	f880 c040 	strb.w	ip, [r0, #64]	; 0x40
60001bb0:	f8c1 3140 	str.w	r3, [r1, #320]	; 0x140
60001bb4:	f04f 23e0 	mov.w	r3, #3758153728	; 0xe000e000
60001bb8:	2201      	movs	r2, #1
60001bba:	bc30      	pop	{r4, r5}
60001bbc:	f8c3 2108 	str.w	r2, [r3, #264]	; 0x108
60001bc0:	4770      	bx	lr
60001bc2:	bf00      	nop
60001bc4:	400d8100 	.word	0x400d8100
60001bc8:	401f4400 	.word	0x401f4400
60001bcc:	42aa0000 	.word	0x42aa0000
60001bd0:	42b40000 	.word	0x42b40000
60001bd4:	20009bbc 	.word	0x20009bbc
60001bd8:	20009bb8 	.word	0x20009bb8
60001bdc:	20009bc0 	.word	0x20009bc0
60001be0:	20009bc4 	.word	0x20009bc4
60001be4:	0fff0000 	.word	0x0fff0000
60001be8:	e000e400 	.word	0xe000e400
60001bec:	20001400 	.word	0x20001400
60001bf0:	00006825 	.word	0x00006825

60001bf4 <usb_init>:
60001bf4:	4b31      	ldr	r3, [pc, #196]	; (60001cbc <usb_init+0xc8>)
60001bf6:	f640 7261 	movw	r2, #3937	; 0xf61
60001bfa:	b510      	push	{r4, lr}
60001bfc:	f8c3 2120 	str.w	r2, [r3, #288]	; 0x120
60001c00:	f240 4404 	movw	r4, #1028	; 0x404
60001c04:	f000 f8d8 	bl	60001db8 <__usb_init_serialnumber_veneer>
60001c08:	4a2d      	ldr	r2, [pc, #180]	; (60001cc0 <usb_init+0xcc>)
60001c0a:	492e      	ldr	r1, [pc, #184]	; (60001cc4 <usb_init+0xd0>)
60001c0c:	f8d2 3080 	ldr.w	r3, [r2, #128]	; 0x80
60001c10:	482d      	ldr	r0, [pc, #180]	; (60001cc8 <usb_init+0xd4>)
60001c12:	f043 0303 	orr.w	r3, r3, #3
60001c16:	f8c2 3080 	str.w	r3, [r2, #128]	; 0x80
60001c1a:	4b2c      	ldr	r3, [pc, #176]	; (60001ccc <usb_init+0xd8>)
60001c1c:	f8c1 4160 	str.w	r4, [r1, #352]	; 0x160
60001c20:	6802      	ldr	r2, [r0, #0]
60001c22:	421a      	tst	r2, r3
60001c24:	d103      	bne.n	60001c2e <usb_init+0x3a>
60001c26:	f8d1 31a8 	ldr.w	r3, [r1, #424]	; 0x1a8
60001c2a:	079a      	lsls	r2, r3, #30
60001c2c:	d01b      	beq.n	60001c66 <usb_init+0x72>
60001c2e:	4a25      	ldr	r2, [pc, #148]	; (60001cc4 <usb_init+0xd0>)
60001c30:	f04f 4100 	mov.w	r1, #2147483648	; 0x80000000
60001c34:	4b24      	ldr	r3, [pc, #144]	; (60001cc8 <usb_init+0xd4>)
60001c36:	6359      	str	r1, [r3, #52]	; 0x34
60001c38:	f8d2 3140 	ldr.w	r3, [r2, #320]	; 0x140
60001c3c:	f043 0302 	orr.w	r3, r3, #2
60001c40:	f8c2 3140 	str.w	r3, [r2, #320]	; 0x140
60001c44:	f8d2 3140 	ldr.w	r3, [r2, #320]	; 0x140
60001c48:	079b      	lsls	r3, r3, #30
60001c4a:	d4fb      	bmi.n	60001c44 <usb_init+0x50>
60001c4c:	f44f 3000 	mov.w	r0, #131072	; 0x20000
60001c50:	f04f 21e0 	mov.w	r1, #3758153728	; 0xe000e000
60001c54:	4b1c      	ldr	r3, [pc, #112]	; (60001cc8 <usb_init+0xd4>)
60001c56:	f04f 4200 	mov.w	r2, #2147483648	; 0x80000000
60001c5a:	f8c1 028c 	str.w	r0, [r1, #652]	; 0x28c
60001c5e:	2019      	movs	r0, #25
60001c60:	639a      	str	r2, [r3, #56]	; 0x38
60001c62:	f000 f8b1 	bl	60001dc8 <__delay_veneer>
60001c66:	4a18      	ldr	r2, [pc, #96]	; (60001cc8 <usb_init+0xd4>)
60001c68:	f04f 4080 	mov.w	r0, #1073741824	; 0x40000000
60001c6c:	4c15      	ldr	r4, [pc, #84]	; (60001cc4 <usb_init+0xd0>)
60001c6e:	2100      	movs	r1, #0
60001c70:	6390      	str	r0, [r2, #56]	; 0x38
60001c72:	200a      	movs	r0, #10
60001c74:	4b16      	ldr	r3, [pc, #88]	; (60001cd0 <usb_init+0xdc>)
60001c76:	6011      	str	r1, [r2, #0]
60001c78:	f44f 7220 	mov.w	r2, #640	; 0x280
60001c7c:	f8c4 01a8 	str.w	r0, [r4, #424]	; 0x1a8
60001c80:	4618      	mov	r0, r3
60001c82:	f000 f885 	bl	60001d90 <__memset_veneer>
60001c86:	f44f 0280 	mov.w	r2, #4194304	; 0x400000
60001c8a:	4603      	mov	r3, r0
60001c8c:	f44f 0081 	mov.w	r0, #4227072	; 0x408000
60001c90:	f240 1143 	movw	r1, #323	; 0x143
60001c94:	6018      	str	r0, [r3, #0]
60001c96:	f8c4 3158 	str.w	r3, [r4, #344]	; 0x158
60001c9a:	641a      	str	r2, [r3, #64]	; 0x40
60001c9c:	4b0d      	ldr	r3, [pc, #52]	; (60001cd4 <usb_init+0xe0>)
60001c9e:	4a0e      	ldr	r2, [pc, #56]	; (60001cd8 <usb_init+0xe4>)
60001ca0:	f8c4 1148 	str.w	r1, [r4, #328]	; 0x148
60001ca4:	f8c3 2204 	str.w	r2, [r3, #516]	; 0x204
60001ca8:	f04f 22e0 	mov.w	r2, #3758153728	; 0xe000e000
60001cac:	f44f 3100 	mov.w	r1, #131072	; 0x20000
60001cb0:	2301      	movs	r3, #1
60001cb2:	f8c2 110c 	str.w	r1, [r2, #268]	; 0x10c
60001cb6:	f8c4 3140 	str.w	r3, [r4, #320]	; 0x140
60001cba:	bd10      	pop	{r4, pc}
60001cbc:	400d8000 	.word	0x400d8000
60001cc0:	400fc000 	.word	0x400fc000
60001cc4:	402e0000 	.word	0x402e0000
60001cc8:	400d9000 	.word	0x400d9000
60001ccc:	001e1c00 	.word	0x001e1c00
60001cd0:	20000000 	.word	0x20000000
60001cd4:	20001400 	.word	0x20001400
60001cd8:	00006889 	.word	0x00006889

60001cdc <_reboot_Teensyduino_>:
60001cdc:	b508      	push	{r3, lr}
60001cde:	4b0e      	ldr	r3, [pc, #56]	; (60001d18 <_reboot_Teensyduino_+0x3c>)
60001ce0:	6e1b      	ldr	r3, [r3, #96]	; 0x60
60001ce2:	079b      	lsls	r3, r3, #30
60001ce4:	d400      	bmi.n	60001ce8 <_reboot_Teensyduino_+0xc>
60001ce6:	befb      	bkpt	0x00fb
60001ce8:	b672      	cpsid	i
60001cea:	4b0c      	ldr	r3, [pc, #48]	; (60001d1c <_reboot_Teensyduino_+0x40>)
60001cec:	2000      	movs	r0, #0
60001cee:	4a0c      	ldr	r2, [pc, #48]	; (60001d20 <_reboot_Teensyduino_+0x44>)
60001cf0:	f8c3 0140 	str.w	r0, [r3, #320]	; 0x140
60001cf4:	f103 4360 	add.w	r3, r3, #3758096384	; 0xe0000000
60001cf8:	490a      	ldr	r1, [pc, #40]	; (60001d24 <_reboot_Teensyduino_+0x48>)
60001cfa:	f5a3 235f 	sub.w	r3, r3, #913408	; 0xdf000
60001cfe:	6411      	str	r1, [r2, #64]	; 0x40
60001d00:	469d      	mov	sp, r3
60001d02:	f3bf 8f4f 	dsb	sy
60001d06:	f44f 1300 	mov.w	r3, #2097152	; 0x200000
60001d0a:	4807      	ldr	r0, [pc, #28]	; (60001d28 <_reboot_Teensyduino_+0x4c>)
60001d0c:	4a07      	ldr	r2, [pc, #28]	; (60001d2c <_reboot_Teensyduino_+0x50>)
60001d0e:	69db      	ldr	r3, [r3, #28]
60001d10:	6002      	str	r2, [r0, #0]
60001d12:	689b      	ldr	r3, [r3, #8]
60001d14:	4798      	blx	r3
60001d16:	bf00      	nop
60001d18:	401f4400 	.word	0x401f4400
60001d1c:	402e0000 	.word	0x402e0000
60001d20:	400ac000 	.word	0x400ac000
60001d24:	00200003 	.word	0x00200003
60001d28:	20208000 	.word	0x20208000
60001d2c:	eb120000 	.word	0xeb120000

60001d30 <analog_init>:
60001d30:	4b10      	ldr	r3, [pc, #64]	; (60001d74 <analog_init+0x44>)
60001d32:	20a0      	movs	r0, #160	; 0xa0
60001d34:	4a10      	ldr	r2, [pc, #64]	; (60001d78 <analog_init+0x48>)
60001d36:	6ed9      	ldr	r1, [r3, #108]	; 0x6c
60001d38:	f441 3140 	orr.w	r1, r1, #196608	; 0x30000
60001d3c:	b410      	push	{r4}
60001d3e:	66d9      	str	r1, [r3, #108]	; 0x6c
60001d40:	f240 6437 	movw	r4, #1591	; 0x637
60001d44:	6ed9      	ldr	r1, [r3, #108]	; 0x6c
60001d46:	f441 7140 	orr.w	r1, r1, #768	; 0x300
60001d4a:	66d9      	str	r1, [r3, #108]	; 0x6c
60001d4c:	6454      	str	r4, [r2, #68]	; 0x44
60001d4e:	6490      	str	r0, [r2, #72]	; 0x48
60001d50:	6c93      	ldr	r3, [r2, #72]	; 0x48
60001d52:	061b      	lsls	r3, r3, #24
60001d54:	d4fc      	bmi.n	60001d50 <analog_init+0x20>
60001d56:	4a09      	ldr	r2, [pc, #36]	; (60001d7c <analog_init+0x4c>)
60001d58:	f240 6137 	movw	r1, #1591	; 0x637
60001d5c:	23a0      	movs	r3, #160	; 0xa0
60001d5e:	6451      	str	r1, [r2, #68]	; 0x44
60001d60:	6493      	str	r3, [r2, #72]	; 0x48
60001d62:	6c93      	ldr	r3, [r2, #72]	; 0x48
60001d64:	f013 0380 	ands.w	r3, r3, #128	; 0x80
60001d68:	d1fb      	bne.n	60001d62 <analog_init+0x32>
60001d6a:	4a05      	ldr	r2, [pc, #20]	; (60001d80 <analog_init+0x50>)
60001d6c:	7013      	strb	r3, [r2, #0]
60001d6e:	f85d 4b04 	ldr.w	r4, [sp], #4
60001d72:	4770      	bx	lr
60001d74:	400fc000 	.word	0x400fc000
60001d78:	400c4000 	.word	0x400c4000
60001d7c:	400c8000 	.word	0x400c8000
60001d80:	20009bf5 	.word	0x20009bf5

60001d84 <_init>:
60001d84:	b5f8      	push	{r3, r4, r5, r6, r7, lr}
60001d86:	bf00      	nop
60001d88:	bcf8      	pop	{r3, r4, r5, r6, r7}
60001d8a:	bc08      	pop	{r3}
60001d8c:	469e      	mov	lr, r3
60001d8e:	4770      	bx	lr

60001d90 <__memset_veneer>:
60001d90:	f85f f000 	ldr.w	pc, [pc]	; 60001d94 <__memset_veneer+0x4>
60001d94:	00009425 	.word	0x00009425

60001d98 <__pwm_init_veneer>:
60001d98:	f85f f000 	ldr.w	pc, [pc]	; 60001d9c <__pwm_init_veneer+0x4>
60001d9c:	00008155 	.word	0x00008155

60001da0 <____libc_init_array_veneer>:
60001da0:	f85f f000 	ldr.w	pc, [pc]	; 60001da4 <____libc_init_array_veneer+0x4>
60001da4:	00009611 	.word	0x00009611

60001da8 <__set_arm_clock_veneer>:
60001da8:	f85f f000 	ldr.w	pc, [pc]	; 60001dac <__set_arm_clock_veneer+0x4>
60001dac:	00007e39 	.word	0x00007e39

60001db0 <__sm_set_pool_veneer>:
60001db0:	f85f f000 	ldr.w	pc, [pc]	; 60001db4 <__sm_set_pool_veneer+0x4>
60001db4:	00008665 	.word	0x00008665

60001db8 <__usb_init_serialnumber_veneer>:
60001db8:	f85f f000 	ldr.w	pc, [pc]	; 60001dbc <__usb_init_serialnumber_veneer+0x4>
60001dbc:	00007369 	.word	0x00007369

60001dc0 <__main_veneer>:
60001dc0:	f85f f000 	ldr.w	pc, [pc]	; 60001dc4 <__main_veneer+0x4>
60001dc4:	0000649d 	.word	0x0000649d

60001dc8 <__delay_veneer>:
60001dc8:	f85f f000 	ldr.w	pc, [pc]	; 60001dcc <__delay_veneer+0x4>
60001dcc:	000063a1 	.word	0x000063a1

60001dd0 <__frame_dummy_init_array_entry>:
60001dd0:	00000045                                E...

Disassembly of section .text.itcm:

00000000 <_stext>:
	...

00000020 <register_tm_clones>:
      20:	4805      	ldr	r0, [pc, #20]	; (38 <_teensy_model_identifier+0x13>)
      22:	4b06      	ldr	r3, [pc, #24]	; (3c <_teensy_model_identifier+0x17>)
      24:	1a1b      	subs	r3, r3, r0
      26:	0fd9      	lsrs	r1, r3, #31
      28:	eb01 01a3 	add.w	r1, r1, r3, asr #2
      2c:	1049      	asrs	r1, r1, #1
      2e:	d002      	beq.n	36 <_teensy_model_identifier+0x11>
      30:	4b03      	ldr	r3, [pc, #12]	; (40 <_teensy_model_identifier+0x1b>)
      32:	b103      	cbz	r3, 36 <_teensy_model_identifier+0x11>
      34:	4718      	bx	r3
      36:	4770      	bx	lr
      38:	200016c0 	.word	0x200016c0
      3c:	200016c0 	.word	0x200016c0
      40:	00000000 	.word	0x00000000

00000044 <frame_dummy>:
      44:	b508      	push	{r3, lr}
      46:	4b05      	ldr	r3, [pc, #20]	; (5c <frame_dummy+0x18>)
      48:	b11b      	cbz	r3, 52 <frame_dummy+0xe>
      4a:	4905      	ldr	r1, [pc, #20]	; (60 <frame_dummy+0x1c>)
      4c:	4805      	ldr	r0, [pc, #20]	; (64 <frame_dummy+0x20>)
      4e:	f3af 8000 	nop.w
      52:	e8bd 4008 	ldmia.w	sp!, {r3, lr}
      56:	f7ff bfe3 	b.w	20 <register_tm_clones>
      5a:	bf00      	nop
      5c:	00000000 	.word	0x00000000
      60:	20009b68 	.word	0x20009b68
      64:	60012c00 	.word	0x60012c00

00000068 <refMean4(unsigned short, unsigned short, unsigned short, unsigned short)>:
      68:	b510      	push	{r4, lr}
      6a:	f000 0c1f 	and.w	ip, r0, #31
      6e:	f001 041f 	and.w	r4, r1, #31
      72:	f3c0 1e45 	ubfx	lr, r0, #5, #6
      76:	44a4      	add	ip, r4
      78:	f3c1 1445 	ubfx	r4, r1, #5, #6
      7c:	0ac9      	lsrs	r1, r1, #11
      7e:	44a6      	add	lr, r4
      80:	eb01 20d0 	add.w	r0, r1, r0, lsr #11
      84:	eb00 21d2 	add.w	r1, r0, r2, lsr #11
      88:	f002 001f 	and.w	r0, r2, #31
      8c:	f3c2 1245 	ubfx	r2, r2, #5, #6
      90:	eb01 21d3 	add.w	r1, r1, r3, lsr #11
      94:	4460      	add	r0, ip
      96:	4472      	add	r2, lr
      98:	f3c3 1c45 	ubfx	ip, r3, #5, #6
      9c:	f003 031f 	and.w	r3, r3, #31
      a0:	1089      	asrs	r1, r1, #2
      a2:	4462      	add	r2, ip
      a4:	4418      	add	r0, r3
      a6:	1092      	asrs	r2, r2, #2
      a8:	1080      	asrs	r0, r0, #2
      aa:	ea40 1042 	orr.w	r0, r0, r2, lsl #5
      ae:	ea40 20c1 	orr.w	r0, r0, r1, lsl #11
      b2:	b280      	uxth	r0, r0
      b4:	bd10      	pop	{r4, pc}
      b6:	bf00      	nop

000000b8 <refBilinear(unsigned short, unsigned short, unsigned short, unsigned short, float, float)>:
      b8:	eef0 7a40 	vmov.f32	s15, s0
      bc:	e92d 43f0 	stmdb	sp!, {r4, r5, r6, r7, r8, r9, lr}
      c0:	eefe 7acc 	vcvt.s32.f32	s15, s15, #8
      c4:	f3c3 1e45 	ubfx	lr, r3, #5, #6
      c8:	f3c1 1545 	ubfx	r5, r1, #5, #6
      cc:	f003 091f 	and.w	r9, r3, #31
      d0:	f3c2 1845 	ubfx	r8, r2, #5, #6
      d4:	f002 071f 	and.w	r7, r2, #31
      d8:	ee17 6a90 	vmov	r6, s15
      dc:	eef0 7a60 	vmov.f32	s15, s1
      e0:	0ad2      	lsrs	r2, r2, #11
      e2:	0adb      	lsrs	r3, r3, #11
      e4:	eefe 7acc 	vcvt.s32.f32	s15, s15, #8
      e8:	ee17 ca90 	vmov	ip, s15
      ec:	f5cc 7480 	rsb	r4, ip, #256	; 0x100
      f0:	fb0c fe0e 	mul.w	lr, ip, lr
      f4:	fb0c f909 	mul.w	r9, ip, r9
      f8:	fb04 ee05 	mla	lr, r4, r5, lr
      fc:	fb0c f502 	mul.w	r5, ip, r2
     100:	f001 021f 	and.w	r2, r1, #31
     104:	fb0c f303 	mul.w	r3, ip, r3
     108:	0ac9      	lsrs	r1, r1, #11
     10a:	fb0c f808 	mul.w	r8, ip, r8
     10e:	fb0c f707 	mul.w	r7, ip, r7
     112:	fb04 9c02 	mla	ip, r4, r2, r9
     116:	fb04 3201 	mla	r2, r4, r1, r3
     11a:	f3c0 1145 	ubfx	r1, r0, #5, #6
     11e:	fb06 f30c 	mul.w	r3, r6, ip
     122:	f000 0c1f 	and.w	ip, r0, #31
     126:	fb06 fe0e 	mul.w	lr, r6, lr
     12a:	0ac0      	lsrs	r0, r0, #11
     12c:	fb06 f202 	mul.w	r2, r6, r2
     130:	f5c6 7680 	rsb	r6, r6, #256	; 0x100
     134:	fb04 8101 	mla	r1, r4, r1, r8
     138:	fb04 7c0c 	mla	ip, r4, ip, r7
     13c:	fb04 5000 	mla	r0, r4, r0, r5
     140:	fb06 330c 	mla	r3, r6, ip, r3
     144:	fb06 e101 	mla	r1, r6, r1, lr
     148:	fb06 2200 	mla	r2, r6, r0, r2
     14c:	f3c3 4004 	ubfx	r0, r3, #16, #5
     150:	f3c1 4105 	ubfx	r1, r1, #16, #6
     154:	1413      	asrs	r3, r2, #16
     156:	ea40 1041 	orr.w	r0, r0, r1, lsl #5
     15a:	ea40 20c3 	orr.w	r0, r0, r3, lsl #11
     15e:	b280      	uxth	r0, r0
     160:	e8bd 83f0 	ldmia.w	sp!, {r4, r5, r6, r7, r8, r9, pc}

00000164 <spanTriangleRef(unsigned short*, unsigned short const*, unsigned short const*, unsigned short const*, unsigned long)>:
     164:	e92d 4ff0 	stmdb	sp!, {r4, r5, r6, r7, r8, r9, sl, fp, lr}
     168:	9d09      	ldr	r5, [sp, #36]	; 0x24
     16a:	2d00      	cmp	r5, #0
     16c:	d03d      	beq.n	1ea <spanTriangleRef(unsigned short*, unsigned short const*, unsigned short const*, unsigned short const*, unsigned long)+0x86>
     16e:	f1a1 0c02 	sub.w	ip, r1, #2
     172:	1e94      	subs	r4, r2, #2
     174:	f1a3 0e02 	sub.w	lr, r3, #2
     178:	3802      	subs	r0, #2
     17a:	eb0c 0845 	add.w	r8, ip, r5, lsl #1
     17e:	4f1c      	ldr	r7, [pc, #112]	; (1f0 <spanTriangleRef(unsigned short*, unsigned short const*, unsigned short const*, unsigned short const*, unsigned long)+0x8c>)
     180:	4e1c      	ldr	r6, [pc, #112]	; (1f4 <spanTriangleRef(unsigned short*, unsigned short const*, unsigned short const*, unsigned short const*, unsigned long)+0x90>)
     182:	4d1d      	ldr	r5, [pc, #116]	; (1f8 <spanTriangleRef(unsigned short*, unsigned short const*, unsigned short const*, unsigned short const*, unsigned long)+0x94>)
     184:	491d      	ldr	r1, [pc, #116]	; (1fc <spanTriangleRef(unsigned short*, unsigned short const*, unsigned short const*, unsigned short const*, unsigned long)+0x98>)
     186:	f856 2b04 	ldr.w	r2, [r6], #4
     18a:	f857 9b04 	ldr.w	r9, [r7], #4
     18e:	f855 3b04 	ldr.w	r3, [r5], #4
     192:	ea4f 1a42 	mov.w	sl, r2, lsl #5
     196:	ea4f 1949 	mov.w	r9, r9, lsl #5
     19a:	f834 2f02 	ldrh.w	r2, [r4, #2]!
     19e:	f83c bf02 	ldrh.w	fp, [ip, #2]!
     1a2:	fb99 f9f3 	sdiv	r9, r9, r3
     1a6:	fb9a faf3 	sdiv	sl, sl, r3
     1aa:	ea42 4302 	orr.w	r3, r2, r2, lsl #16
     1ae:	f83e 2f02 	ldrh.w	r2, [lr, #2]!
     1b2:	ea4b 4b0b 	orr.w	fp, fp, fp, lsl #16
     1b6:	45e0      	cmp	r8, ip
     1b8:	ea03 0301 	and.w	r3, r3, r1
     1bc:	ea42 4202 	orr.w	r2, r2, r2, lsl #16
     1c0:	ea0b 0b01 	and.w	fp, fp, r1
     1c4:	fb0a f303 	mul.w	r3, sl, r3
     1c8:	ea02 0201 	and.w	r2, r2, r1
     1cc:	fb09 330b 	mla	r3, r9, fp, r3
     1d0:	f1c9 0920 	rsb	r9, r9, #32
     1d4:	eba9 090a 	sub.w	r9, r9, sl
     1d8:	fb09 3302 	mla	r3, r9, r2, r3
     1dc:	ea01 1353 	and.w	r3, r1, r3, lsr #5
     1e0:	ea43 4313 	orr.w	r3, r3, r3, lsr #16
     1e4:	f820 3f02 	strh.w	r3, [r0, #2]!
     1e8:	d1cd      	bne.n	186 <spanTriangleRef(unsigned short*, unsigned short const*, unsigned short const*, unsigned short const*, unsigned long)+0x22>
     1ea:	e8bd 8ff0 	ldmia.w	sp!, {r4, r5, r6, r7, r8, r9, sl, fp, pc}
     1ee:	bf00      	nop
     1f0:	200038c8 	.word	0x200038c8
     1f4:	200040d8 	.word	0x200040d8
     1f8:	20006928 	.word	0x20006928
     1fc:	07e0f81f 	.word	0x07e0f81f

00000200 <spanTrianglePacked(unsigned short*, unsigned short const*, unsigned short const*, unsigned short const*, unsigned long)>:
     200:	e92d 4ff0 	stmdb	sp!, {r4, r5, r6, r7, r8, r9, sl, fp, lr}
     204:	9d09      	ldr	r5, [sp, #36]	; 0x24
     206:	2d00      	cmp	r5, #0
     208:	d03d      	beq.n	286 <spanTrianglePacked(unsigned short*, unsigned short const*, unsigned short const*, unsigned short const*, unsigned long)+0x86>
     20a:	f1a1 0c02 	sub.w	ip, r1, #2
     20e:	1e94      	subs	r4, r2, #2
     210:	f1a3 0e02 	sub.w	lr, r3, #2
     214:	3802      	subs	r0, #2
     216:	eb0c 0845 	add.w	r8, ip, r5, lsl #1
     21a:	4f1c      	ldr	r7, [pc, #112]	; (28c <spanTrianglePacked(unsigned short*, unsigned short const*, unsigned short const*, unsigned short const*, unsigned long)+0x8c>)
     21c:	4e1c      	ldr	r6, [pc, #112]	; (290 <spanTrianglePacked(unsigned short*, unsigned short const*, unsigned short const*, unsigned short const*, unsigned long)+0x90>)
     21e:	4d1d      	ldr	r5, [pc, #116]	; (294 <spanTrianglePacked(unsigned short*, unsigned short const*, unsigned short const*, unsigned short const*, unsigned long)+0x94>)
     220:	491d      	ldr	r1, [pc, #116]	; (298 <spanTrianglePacked(unsigned short*, unsigned short const*, unsigned short const*, unsigned short const*, unsigned long)+0x98>)
     222:	f856 2b04 	ldr.w	r2, [r6], #4
     226:	f857 9b04 	ldr.w	r9, [r7], #4
     22a:	f855 3b04 	ldr.w	r3, [r5], #4
     22e:	ea4f 1a42 	mov.w	sl, r2, lsl #5
     232:	ea4f 1949 	mov.w	r9, r9, lsl #5
     236:	f834 2f02 	ldrh.w	r2, [r4, #2]!
     23a:	f83c bf02 	ldrh.w	fp, [ip, #2]!
     23e:	fb99 f9f3 	sdiv	r9, r9, r3
     242:	fb9a faf3 	sdiv	sl, sl, r3
     246:	ea42 4302 	orr.w	r3, r2, r2, lsl #16
     24a:	f83e 2f02 	ldrh.w	r2, [lr, #2]!
     24e:	ea4b 4b0b 	orr.w	fp, fp, fp, lsl #16
     252:	45e0      	cmp	r8, ip
     254:	ea03 0301 	and.w	r3, r3, r1
     258:	ea42 4202 	orr.w	r2, r2, r2, lsl #16
     25c:	ea0b 0b01 	and.w	fp, fp, r1
     260:	fb0a f303 	mul.w	r3, sl, r3
     264:	ea02 0201 	and.w	r2, r2, r1
     268:	fb09 330b 	mla	r3, r9, fp, r3
     26c:	f1c9 0920 	rsb	r9, r9, #32
     270:	eba9 090a 	sub.w	r9, r9, sl
     274:	fb09 3302 	mla	r3, r9, r2, r3
     278:	ea01 1353 	and.w	r3, r1, r3, lsr #5
     27c:	ea43 4313 	orr.w	r3, r3, r3, lsr #16
     280:	f820 3f02 	strh.w	r3, [r0, #2]!
     284:	d1cd      	bne.n	222 <spanTrianglePacked(unsigned short*, unsigned short const*, unsigned short const*, unsigned short const*, unsigned long)+0x22>
     286:	e8bd 8ff0 	ldmia.w	sp!, {r4, r5, r6, r7, r8, r9, sl, fp, pc}
     28a:	bf00      	nop
     28c:	200038c8 	.word	0x200038c8
     290:	200040d8 	.word	0x200040d8
     294:	20006928 	.word	0x20006928
     298:	07e0f81f 	.word	0x07e0f81f

0000029c <spanTriangleScalar(unsigned short*, unsigned short const*, unsigned short const*, unsigned short const*, unsigned long)>:
     29c:	e92d 4ff0 	stmdb	sp!, {r4, r5, r6, r7, r8, r9, sl, fp, lr}
     2a0:	b083      	sub	sp, #12
     2a2:	9c0c      	ldr	r4, [sp, #48]	; 0x30
     2a4:	2c00      	cmp	r4, #0
     2a6:	d056      	beq.n	356 <spanTriangleScalar(unsigned short*, unsigned short const*, unsigned short const*, unsigned short const*, unsigned long)+0xba>
     2a8:	1e8d      	subs	r5, r1, #2
     2aa:	1e9f      	subs	r7, r3, #2
     2ac:	f1a2 0802 	sub.w	r8, r2, #2
     2b0:	1e86      	subs	r6, r0, #2
     2b2:	eb05 0344 	add.w	r3, r5, r4, lsl #1
     2b6:	f8df a0a8 	ldr.w	sl, [pc, #168]	; 360 <spanTriangleScalar(unsigned short*, unsigned short const*, unsigned short const*, unsigned short const*, unsigned long)+0xc4>
     2ba:	f8df 90a8 	ldr.w	r9, [pc, #168]	; 364 <spanTriangleScalar(unsigned short*, unsigned short const*, unsigned short const*, unsigned short const*, unsigned long)+0xc8>
     2be:	9301      	str	r3, [sp, #4]
     2c0:	4b26      	ldr	r3, [pc, #152]	; (35c <spanTriangleScalar(unsigned short*, unsigned short const*, unsigned short const*, unsigned short const*, unsigned long)+0xc0>)
     2c2:	9300      	str	r3, [sp, #0]
     2c4:	9a00      	ldr	r2, [sp, #0]
     2c6:	f85a 1b04 	ldr.w	r1, [sl], #4
     2ca:	f852 4b04 	ldr.w	r4, [r2], #4
     2ce:	f859 3b04 	ldr.w	r3, [r9], #4
     2d2:	0149      	lsls	r1, r1, #5
     2d4:	f838 0f02 	ldrh.w	r0, [r8, #2]!
     2d8:	015b      	lsls	r3, r3, #5
     2da:	9200      	str	r2, [sp, #0]
     2dc:	f3c0 1b45 	ubfx	fp, r0, #5, #6
     2e0:	f835 2f02 	ldrh.w	r2, [r5, #2]!
     2e4:	ea4f 2ed0 	mov.w	lr, r0, lsr #11
     2e8:	f000 001f 	and.w	r0, r0, #31
     2ec:	fb91 f1f4 	sdiv	r1, r1, r4
     2f0:	fb93 f3f4 	sdiv	r3, r3, r4
     2f4:	f1c1 0c20 	rsb	ip, r1, #32
     2f8:	fb03 fb0b 	mul.w	fp, r3, fp
     2fc:	fb03 fe0e 	mul.w	lr, r3, lr
     300:	f837 4f02 	ldrh.w	r4, [r7, #2]!
     304:	ebac 0c03 	sub.w	ip, ip, r3
     308:	fb03 f000 	mul.w	r0, r3, r0
     30c:	f3c2 1345 	ubfx	r3, r2, #5, #6
     310:	fb01 b303 	mla	r3, r1, r3, fp
     314:	ea4f 2bd2 	mov.w	fp, r2, lsr #11
     318:	f002 021f 	and.w	r2, r2, #31
     31c:	fb01 eb0b 	mla	fp, r1, fp, lr
     320:	fb01 0202 	mla	r2, r1, r2, r0
     324:	f3c4 1145 	ubfx	r1, r4, #5, #6
     328:	fb0c 3301 	mla	r3, ip, r1, r3
     32c:	0ae1      	lsrs	r1, r4, #11
     32e:	f004 041f 	and.w	r4, r4, #31
     332:	fb0c b101 	mla	r1, ip, r1, fp
     336:	f403 63fc 	and.w	r3, r3, #2016	; 0x7e0
     33a:	fb0c 2204 	mla	r2, ip, r4, r2
     33e:	f3c1 1144 	ubfx	r1, r1, #5, #5
     342:	f3c2 1244 	ubfx	r2, r2, #5, #5
     346:	ea43 23c1 	orr.w	r3, r3, r1, lsl #11
     34a:	4313      	orrs	r3, r2
     34c:	f826 3f02 	strh.w	r3, [r6, #2]!
     350:	9b01      	ldr	r3, [sp, #4]
     352:	42ab      	cmp	r3, r5
     354:	d1b6      	bne.n	2c4 <spanTriangleScalar(unsigned short*, unsigned short const*, unsigned short const*, unsigned short const*, unsigned long)+0x28>
     356:	b003      	add	sp, #12
     358:	e8bd 8ff0 	ldmia.w	sp!, {r4, r5, r6, r7, r8, r9, sl, fp, pc}
     35c:	20006928 	.word	0x20006928
     360:	200038c8 	.word	0x200038c8
     364:	200040d8 	.word	0x200040d8

00000368 <spanBilinearRef(unsigned short*, unsigned short const*, unsigned short const*, unsigned short const*, unsigned short const*, unsigned long)>:
     368:	e92d 4ff0 	stmdb	sp!, {r4, r5, r6, r7, r8, r9, sl, fp, lr}
     36c:	b085      	sub	sp, #20
     36e:	9c0f      	ldr	r4, [sp, #60]	; 0x3c
     370:	2c00      	cmp	r4, #0
     372:	d079      	beq.n	468 <spanBilinearRef(unsigned short*, unsigned short const*, unsigned short const*, unsigned short const*, unsigned short const*, unsigned long)+0x100>
     374:	1e8d      	subs	r5, r1, #2
     376:	1e9f      	subs	r7, r3, #2
     378:	f1a2 0802 	sub.w	r8, r2, #2
     37c:	1e86      	subs	r6, r0, #2
     37e:	eb05 0344 	add.w	r3, r5, r4, lsl #1
     382:	9303      	str	r3, [sp, #12]
     384:	9b0e      	ldr	r3, [sp, #56]	; 0x38
     386:	3b02      	subs	r3, #2
     388:	9302      	str	r3, [sp, #8]
     38a:	4b39      	ldr	r3, [pc, #228]	; (470 <spanBilinearRef(unsigned short*, unsigned short const*, unsigned short const*, unsigned short const*, unsigned short const*, unsigned long)+0x108>)
     38c:	9301      	str	r3, [sp, #4]
     38e:	4b39      	ldr	r3, [pc, #228]	; (474 <spanBilinearRef(unsigned short*, unsigned short const*, unsigned short const*, unsigned short const*, unsigned short const*, unsigned long)+0x10c>)
     390:	9300      	str	r3, [sp, #0]
     392:	9b00      	ldr	r3, [sp, #0]
     394:	9a02      	ldr	r2, [sp, #8]
     396:	ecf3 7a01 	vldmia	r3!, {s15}
     39a:	9901      	ldr	r1, [sp, #4]
     39c:	eeb0 7a67 	vmov.f32	s14, s15
     3a0:	9300      	str	r3, [sp, #0]
     3a2:	f832 3f02 	ldrh.w	r3, [r2, #2]!
     3a6:	f838 bf02 	ldrh.w	fp, [r8, #2]!
     3aa:	eebe 7acc 	vcvt.s32.f32	s14, s14, #8
     3ae:	ecf1 7a01 	vldmia	r1!, {s15}
     3b2:	f3c3 1045 	ubfx	r0, r3, #5, #6
     3b6:	9202      	str	r2, [sp, #8]
     3b8:	f837 9f02 	ldrh.w	r9, [r7, #2]!
     3bc:	f003 0a1f 	and.w	sl, r3, #31
     3c0:	ee17 2a10 	vmov	r2, s14
     3c4:	9101      	str	r1, [sp, #4]
     3c6:	eeb0 7a67 	vmov.f32	s14, s15
     3ca:	f3cb 1145 	ubfx	r1, fp, #5, #6
     3ce:	f5c2 7480 	rsb	r4, r2, #256	; 0x100
     3d2:	fb02 f000 	mul.w	r0, r2, r0
     3d6:	f3c9 1e45 	ubfx	lr, r9, #5, #6
     3da:	0adb      	lsrs	r3, r3, #11
     3dc:	fb04 0001 	mla	r0, r4, r1, r0
     3e0:	f009 011f 	and.w	r1, r9, #31
     3e4:	ea4f 29d9 	mov.w	r9, r9, lsr #11
     3e8:	eebe 7acc 	vcvt.s32.f32	s14, s14, #8
     3ec:	f835 cf02 	ldrh.w	ip, [r5, #2]!
     3f0:	fb02 fa0a 	mul.w	sl, r2, sl
     3f4:	fb02 f303 	mul.w	r3, r2, r3
     3f8:	fb02 fe0e 	mul.w	lr, r2, lr
     3fc:	fb02 f101 	mul.w	r1, r2, r1
     400:	fb02 f909 	mul.w	r9, r2, r9
     404:	f00b 021f 	and.w	r2, fp, #31
     408:	ea4f 2bdb 	mov.w	fp, fp, lsr #11
     40c:	fb04 aa02 	mla	sl, r4, r2, sl
     410:	ee17 2a10 	vmov	r2, s14
     414:	fb04 330b 	mla	r3, r4, fp, r3
     418:	f3cc 1b45 	ubfx	fp, ip, #5, #6
     41c:	fb02 f000 	mul.w	r0, r2, r0
     420:	fb02 fa0a 	mul.w	sl, r2, sl
     424:	fb02 f303 	mul.w	r3, r2, r3
     428:	f5c2 7280 	rsb	r2, r2, #256	; 0x100
     42c:	fb04 ee0b 	mla	lr, r4, fp, lr
     430:	fb02 000e 	mla	r0, r2, lr, r0
     434:	f00c 0e1f 	and.w	lr, ip, #31
     438:	ea4f 2cdc 	mov.w	ip, ip, lsr #11
     43c:	fb04 110e 	mla	r1, r4, lr, r1
     440:	f3c0 4005 	ubfx	r0, r0, #16, #6
     444:	fb04 990c 	mla	r9, r4, ip, r9
     448:	fb02 a101 	mla	r1, r2, r1, sl
     44c:	fb02 3309 	mla	r3, r2, r9, r3
     450:	f3c1 4104 	ubfx	r1, r1, #16, #5
     454:	141b      	asrs	r3, r3, #16
     456:	ea41 1140 	orr.w	r1, r1, r0, lsl #5
     45a:	ea41 21c3 	orr.w	r1, r1, r3, lsl #11
     45e:	9b03      	ldr	r3, [sp, #12]
     460:	429d      	cmp	r5, r3
     462:	f826 1f02 	strh.w	r1, [r6, #2]!
     466:	d194      	bne.n	392 <spanBilinearRef(unsigned short*, unsigned short const*, unsigned short const*, unsigned short const*, unsigned short const*, unsigned long)+0x2a>
     468:	b005      	add	sp, #20
     46a:	e8bd 8ff0 	ldmia.w	sp!, {r4, r5, r6, r7, r8, r9, sl, fp, pc}
     46e:	bf00      	nop
     470:	200028a8 	.word	0x200028a8
     474:	200030b8 	.word	0x200030b8

00000478 <printResult(char const*, char const*, unsigned long, unsigned long, unsigned long, unsigned long, unsigned long, unsigned long, unsigned long, char const*) [clone .constprop.1]>:
     478:	e92d 4ff0 	stmdb	sp!, {r4, r5, r6, r7, r8, r9, sl, fp, lr}
     47c:	4683      	mov	fp, r0
     47e:	b083      	sub	sp, #12
     480:	460c      	mov	r4, r1
     482:	4836      	ldr	r0, [pc, #216]	; (55c <printResult(char const*, char const*, unsigned long, unsigned long, unsigned long, unsigned long, unsigned long, unsigned long, unsigned long, char const*) [clone .constprop.1]+0xe4>)
     484:	2107      	movs	r1, #7
     486:	461d      	mov	r5, r3
     488:	9201      	str	r2, [sp, #4]
     48a:	f8dd a030 	ldr.w	sl, [sp, #48]	; 0x30
     48e:	e9dd 980d 	ldrd	r9, r8, [sp, #52]	; 0x34
     492:	e9dd 760f 	ldrd	r7, r6, [sp, #60]	; 0x3c
     496:	f007 fba9 	bl	7bec <usb_serial_write>
     49a:	4658      	mov	r0, fp
     49c:	f009 f8f0 	bl	9680 <strlen>
     4a0:	4601      	mov	r1, r0
     4a2:	4658      	mov	r0, fp
     4a4:	f007 fba2 	bl	7bec <usb_serial_write>
     4a8:	2109      	movs	r1, #9
     4aa:	482d      	ldr	r0, [pc, #180]	; (560 <printResult(char const*, char const*, unsigned long, unsigned long, unsigned long, unsigned long, unsigned long, unsigned long, unsigned long, char const*) [clone .constprop.1]+0xe8>)
     4ac:	f007 fb9e 	bl	7bec <usb_serial_write>
     4b0:	4620      	mov	r0, r4
     4b2:	f009 f8e5 	bl	9680 <strlen>
     4b6:	4601      	mov	r1, r0
     4b8:	4620      	mov	r0, r4
     4ba:	4c2a      	ldr	r4, [pc, #168]	; (564 <printResult(char const*, char const*, unsigned long, unsigned long, unsigned long, unsigned long, unsigned long, unsigned long, unsigned long, char const*) [clone .constprop.1]+0xec>)
     4bc:	f007 fb96 	bl	7bec <usb_serial_write>
     4c0:	2109      	movs	r1, #9
     4c2:	4829      	ldr	r0, [pc, #164]	; (568 <printResult(char const*, char const*, unsigned long, unsigned long, unsigned long, unsigned long, unsigned long, unsigned long, unsigned long, char const*) [clone .constprop.1]+0xf0>)
     4c4:	f007 fb92 	bl	7bec <usb_serial_write>
     4c8:	9a01      	ldr	r2, [sp, #4]
     4ca:	2300      	movs	r3, #0
     4cc:	4620      	mov	r0, r4
     4ce:	4611      	mov	r1, r2
     4d0:	220a      	movs	r2, #10
     4d2:	f005 ff11 	bl	62f8 <Print::printNumber(unsigned long, unsigned char, unsigned char)>
     4d6:	210c      	movs	r1, #12
     4d8:	4824      	ldr	r0, [pc, #144]	; (56c <printResult(char const*, char const*, unsigned long, unsigned long, unsigned long, unsigned long, unsigned long, unsigned long, unsigned long, char const*) [clone .constprop.1]+0xf4>)
     4da:	f007 fb87 	bl	7bec <usb_serial_write>
     4de:	4629      	mov	r1, r5
     4e0:	2300      	movs	r3, #0
     4e2:	220a      	movs	r2, #10
     4e4:	4620      	mov	r0, r4
     4e6:	f005 ff07 	bl	62f8 <Print::printNumber(unsigned long, unsigned char, unsigned char)>
     4ea:	2109      	movs	r1, #9
     4ec:	4820      	ldr	r0, [pc, #128]	; (570 <printResult(char const*, char const*, unsigned long, unsigned long, unsigned long, unsigned long, unsigned long, unsigned long, unsigned long, char const*) [clone .constprop.1]+0xf8>)
     4ee:	f007 fb7d 	bl	7bec <usb_serial_write>
     4f2:	4651      	mov	r1, sl
     4f4:	2300      	movs	r3, #0
     4f6:	220a      	movs	r2, #10
     4f8:	4620      	mov	r0, r4
     4fa:	f005 fefd 	bl	62f8 <Print::printNumber(unsigned long, unsigned char, unsigned char)>
     4fe:	2108      	movs	r1, #8
     500:	481c      	ldr	r0, [pc, #112]	; (574 <printResult(char const*, char const*, unsigned long, unsigned long, unsigned long, unsigned long, unsigned long, unsigned long, unsigned long, char const*) [clone .constprop.1]+0xfc>)
     502:	f007 fb73 	bl	7bec <usb_serial_write>
     506:	4649      	mov	r1, r9
     508:	2300      	movs	r3, #0
     50a:	220a      	movs	r2, #10
     50c:	4620      	mov	r0, r4
     50e:	f005 fef3 	bl	62f8 <Print::printNumber(unsigned long, unsigned char, unsigned char)>
     512:	210c      	movs	r1, #12
     514:	4818      	ldr	r0, [pc, #96]	; (578 <printResult(char const*, char const*, unsigned long, unsigned long, unsigned long, unsigned long, unsigned long, unsigned long, unsigned long, char const*) [clone .constprop.1]+0x100>)
     516:	f007 fb69 	bl	7bec <usb_serial_write>
     51a:	2300      	movs	r3, #0
     51c:	4641      	mov	r1, r8
     51e:	220a      	movs	r2, #10
     520:	4620      	mov	r0, r4
     522:	f005 fee9 	bl	62f8 <Print::printNumber(unsigned long, unsigned char, unsigned char)>
     526:	2107      	movs	r1, #7
     528:	4814      	ldr	r0, [pc, #80]	; (57c <printResult(char const*, char const*, unsigned long, unsigned long, unsigned long, unsigned long, unsigned long, unsigned long, unsigned long, char const*) [clone .constprop.1]+0x104>)
     52a:	f007 fb5f 	bl	7bec <usb_serial_write>
     52e:	2300      	movs	r3, #0
     530:	220a      	movs	r2, #10
     532:	4639      	mov	r1, r7
     534:	4620      	mov	r0, r4
     536:	f005 fedf 	bl	62f8 <Print::printNumber(unsigned long, unsigned char, unsigned char)>
     53a:	210c      	movs	r1, #12
     53c:	4810      	ldr	r0, [pc, #64]	; (580 <printResult(char const*, char const*, unsigned long, unsigned long, unsigned long, unsigned long, unsigned long, unsigned long, unsigned long, char const*) [clone .constprop.1]+0x108>)
     53e:	f007 fb55 	bl	7bec <usb_serial_write>
     542:	2300      	movs	r3, #0
     544:	2210      	movs	r2, #16
     546:	4631      	mov	r1, r6
     548:	4620      	mov	r0, r4
     54a:	f005 fed5 	bl	62f8 <Print::printNumber(unsigned long, unsigned char, unsigned char)>
     54e:	4620      	mov	r0, r4
     550:	b003      	add	sp, #12
     552:	e8bd 4ff0 	ldmia.w	sp!, {r4, r5, r6, r7, r8, r9, sl, fp, lr}
     556:	f005 beb3 	b.w	62c0 <Print::println()>
     55a:	bf00      	nop
     55c:	20000424 	.word	0x20000424
     560:	2000042c 	.word	0x2000042c
     564:	20000ca0 	.word	0x20000ca0
     568:	20000438 	.word	0x20000438
     56c:	20000444 	.word	0x20000444
     570:	20000454 	.word	0x20000454
     574:	20000460 	.word	0x20000460
     578:	2000046c 	.word	0x2000046c
     57c:	2000047c 	.word	0x2000047c
     580:	20000484 	.word	0x20000484

00000584 <void runBilinear<BilinearTwoStage>(char const*) [clone .constprop.0]>:
     584:	e92d 4ff0 	stmdb	sp!, {r4, r5, r6, r7, r8, r9, sl, fp, lr}
     588:	4bc7      	ldr	r3, [pc, #796]	; (8a8 <void runBilinear<BilinearTwoStage>(char const*) [clone .constprop.0]+0x324>)
     58a:	b095      	sub	sp, #84	; 0x54
     58c:	4ac7      	ldr	r2, [pc, #796]	; (8ac <void runBilinear<BilinearTwoStage>(char const*) [clone .constprop.0]+0x328>)
     58e:	9313      	str	r3, [sp, #76]	; 0x4c
     590:	49c7      	ldr	r1, [pc, #796]	; (8b0 <void runBilinear<BilinearTwoStage>(char const*) [clone .constprop.0]+0x32c>)
     592:	9212      	str	r2, [sp, #72]	; 0x48
     594:	9109      	str	r1, [sp, #36]	; 0x24
     596:	e9cd 2307 	strd	r2, r3, [sp, #28]
     59a:	4bc6      	ldr	r3, [pc, #792]	; (8b4 <void runBilinear<BilinearTwoStage>(char const*) [clone .constprop.0]+0x330>)
     59c:	930a      	str	r3, [sp, #40]	; 0x28
     59e:	4bc6      	ldr	r3, [pc, #792]	; (8b8 <void runBilinear<BilinearTwoStage>(char const*) [clone .constprop.0]+0x334>)
     5a0:	930b      	str	r3, [sp, #44]	; 0x2c
     5a2:	4bc6      	ldr	r3, [pc, #792]	; (8bc <void runBilinear<BilinearTwoStage>(char const*) [clone .constprop.0]+0x338>)
     5a4:	930c      	str	r3, [sp, #48]	; 0x30
     5a6:	4bc6      	ldr	r3, [pc, #792]	; (8c0 <void runBilinear<BilinearTwoStage>(char const*) [clone .constprop.0]+0x33c>)
     5a8:	930d      	str	r3, [sp, #52]	; 0x34
     5aa:	4bc6      	ldr	r3, [pc, #792]	; (8c4 <void runBilinear<BilinearTwoStage>(char const*) [clone .constprop.0]+0x340>)
     5ac:	9306      	str	r3, [sp, #24]
     5ae:	9b0a      	ldr	r3, [sp, #40]	; 0x28
     5b0:	9a0c      	ldr	r2, [sp, #48]	; 0x30
     5b2:	ecb3 7a01 	vldmia	r3!, {s14}
     5b6:	9906      	ldr	r1, [sp, #24]
     5b8:	930a      	str	r3, [sp, #40]	; 0x28
     5ba:	eef0 6a47 	vmov.f32	s13, s14
     5be:	9b09      	ldr	r3, [sp, #36]	; 0x24
     5c0:	f831 8f02 	ldrh.w	r8, [r1, #2]!
     5c4:	ecf3 7a01 	vldmia	r3!, {s15}
     5c8:	eefe 6acc 	vcvt.s32.f32	s13, s13, #8
     5cc:	9106      	str	r1, [sp, #24]
     5ce:	9309      	str	r3, [sp, #36]	; 0x24
     5d0:	eeb0 7a67 	vmov.f32	s14, s15
     5d4:	9b0b      	ldr	r3, [sp, #44]	; 0x2c
     5d6:	ee16 6a90 	vmov	r6, s13
     5da:	f833 7f02 	ldrh.w	r7, [r3, #2]!
     5de:	f5c6 7e80 	rsb	lr, r6, #256	; 0x100
     5e2:	eebe 7acc 	vcvt.s32.f32	s14, s14, #8
     5e6:	930b      	str	r3, [sp, #44]	; 0x2c
     5e8:	f3c7 1045 	ubfx	r0, r7, #5, #6
     5ec:	9b0d      	ldr	r3, [sp, #52]	; 0x34
     5ee:	f3c7 1a45 	ubfx	sl, r7, #5, #6
     5f2:	fb06 f000 	mul.w	r0, r6, r0
     5f6:	ee17 5a10 	vmov	r5, s14
     5fa:	f833 4f02 	ldrh.w	r4, [r3, #2]!
     5fe:	fb05 fa0a 	mul.w	sl, r5, sl
     602:	930d      	str	r3, [sp, #52]	; 0x34
     604:	ea4f 2cd4 	mov.w	ip, r4, lsr #11
     608:	f832 3f02 	ldrh.w	r3, [r2, #2]!
     60c:	f3c4 1945 	ubfx	r9, r4, #5, #6
     610:	fb06 fc0c 	mul.w	ip, r6, ip
     614:	f3c3 1b45 	ubfx	fp, r3, #5, #6
     618:	920c      	str	r2, [sp, #48]	; 0x30
     61a:	0afa      	lsrs	r2, r7, #11
     61c:	fb06 f909 	mul.w	r9, r6, r9
     620:	0ad9      	lsrs	r1, r3, #11
     622:	fb0e 000b 	mla	r0, lr, fp, r0
     626:	fb06 f202 	mul.w	r2, r6, r2
     62a:	ea4f 2bd8 	mov.w	fp, r8, lsr #11
     62e:	1200      	asrs	r0, r0, #8
     630:	fb0e 2101 	mla	r1, lr, r1, r2
     634:	f007 021f 	and.w	r2, r7, #31
     638:	fb0e cc0b 	mla	ip, lr, fp, ip
     63c:	fb05 f202 	mul.w	r2, r5, r2
     640:	1209      	asrs	r1, r1, #8
     642:	ea4f 2b2c 	mov.w	fp, ip, asr #8
     646:	f007 0c1f 	and.w	ip, r7, #31
     64a:	9210      	str	r2, [sp, #64]	; 0x40
     64c:	0aff      	lsrs	r7, r7, #11
     64e:	fb06 f20c 	mul.w	r2, r6, ip
     652:	f5c5 7c80 	rsb	ip, r5, #256	; 0x100
     656:	fb05 f101 	mul.w	r1, r5, r1
     65a:	9211      	str	r2, [sp, #68]	; 0x44
     65c:	fb0c 110b 	mla	r1, ip, fp, r1
     660:	f3c3 1b45 	ubfx	fp, r3, #5, #6
     664:	fb05 f000 	mul.w	r0, r5, r0
     668:	fb05 f20b 	mul.w	r2, r5, fp
     66c:	f3c4 1b45 	ubfx	fp, r4, #5, #6
     670:	f3c1 2104 	ubfx	r1, r1, #8, #5
     674:	fb05 f707 	mul.w	r7, r5, r7
     678:	fb0c aa0b 	mla	sl, ip, fp, sl
     67c:	920e      	str	r2, [sp, #56]	; 0x38
     67e:	02c9      	lsls	r1, r1, #11
     680:	fb06 fb0a 	mul.w	fp, r6, sl
     684:	f003 0a1f 	and.w	sl, r3, #31
     688:	9a10      	ldr	r2, [sp, #64]	; 0x40
     68a:	fb05 fa0a 	mul.w	sl, r5, sl
     68e:	f8cd a03c 	str.w	sl, [sp, #60]	; 0x3c
     692:	f004 0a1f 	and.w	sl, r4, #31
     696:	fb0c 220a 	mla	r2, ip, sl, r2
     69a:	f3c8 1a45 	ubfx	sl, r8, #5, #6
     69e:	fb0e 990a 	mla	r9, lr, sl, r9
     6a2:	fb06 f202 	mul.w	r2, r6, r2
     6a6:	ea4f 2929 	mov.w	r9, r9, asr #8
     6aa:	9210      	str	r2, [sp, #64]	; 0x40
     6ac:	fb0c 0009 	mla	r0, ip, r9, r0
     6b0:	9a0f      	ldr	r2, [sp, #60]	; 0x3c
     6b2:	f3c0 2005 	ubfx	r0, r0, #8, #6
     6b6:	ea41 1040 	orr.w	r0, r1, r0, lsl #5
     6ba:	f004 011f 	and.w	r1, r4, #31
     6be:	0ae4      	lsrs	r4, r4, #11
     6c0:	fb06 f101 	mul.w	r1, r6, r1
     6c4:	fb0c 7404 	mla	r4, ip, r4, r7
     6c8:	9f11      	ldr	r7, [sp, #68]	; 0x44
     6ca:	fb06 f404 	mul.w	r4, r6, r4
     6ce:	f003 061f 	and.w	r6, r3, #31
     6d2:	0adb      	lsrs	r3, r3, #11
     6d4:	fb0e 7606 	mla	r6, lr, r6, r7
     6d8:	9f0e      	ldr	r7, [sp, #56]	; 0x38
     6da:	fb05 f303 	mul.w	r3, r5, r3
     6de:	1236      	asrs	r6, r6, #8
     6e0:	fb05 f606 	mul.w	r6, r5, r6
     6e4:	fb0c 750a 	mla	r5, ip, sl, r7
     6e8:	f008 071f 	and.w	r7, r8, #31
     6ec:	fb0c 2707 	mla	r7, ip, r7, r2
     6f0:	9a10      	ldr	r2, [sp, #64]	; 0x40
     6f2:	fb0e b505 	mla	r5, lr, r5, fp
     6f6:	fb0e 2207 	mla	r2, lr, r7, r2
     6fa:	f3c5 4505 	ubfx	r5, r5, #16, #6
     6fe:	f3c2 4204 	ubfx	r2, r2, #16, #5
     702:	ea42 1245 	orr.w	r2, r2, r5, lsl #5
     706:	f008 051f 	and.w	r5, r8, #31
     70a:	ea4f 28d8 	mov.w	r8, r8, lsr #11
     70e:	fb0e 1505 	mla	r5, lr, r5, r1
     712:	fb0c 3308 	mla	r3, ip, r8, r3
     716:	122d      	asrs	r5, r5, #8
     718:	fb0e 4303 	mla	r3, lr, r3, r4
     71c:	fb0c 6605 	mla	r6, ip, r5, r6
     720:	141b      	asrs	r3, r3, #16
     722:	ea42 22c3 	orr.w	r2, r2, r3, lsl #11
     726:	9b08      	ldr	r3, [sp, #32]
     728:	f823 2f02 	strh.w	r2, [r3, #2]!
     72c:	9308      	str	r3, [sp, #32]
     72e:	f3c6 2304 	ubfx	r3, r6, #8, #5
     732:	4318      	orrs	r0, r3
     734:	9b07      	ldr	r3, [sp, #28]
     736:	f823 0f02 	strh.w	r0, [r3, #2]!
     73a:	9906      	ldr	r1, [sp, #24]
     73c:	9307      	str	r3, [sp, #28]
     73e:	4b62      	ldr	r3, [pc, #392]	; (8c8 <void runBilinear<BilinearTwoStage>(char const*) [clone .constprop.0]+0x344>)
     740:	428b      	cmp	r3, r1
     742:	f47f af34 	bne.w	5ae <void runBilinear<BilinearTwoStage>(char const*) [clone .constprop.0]+0x2a>
     746:	4a61      	ldr	r2, [pc, #388]	; (8cc <void runBilinear<BilinearTwoStage>(char const*) [clone .constprop.0]+0x348>)
     748:	2000      	movs	r0, #0
     74a:	9b12      	ldr	r3, [sp, #72]	; 0x48
     74c:	9913      	ldr	r1, [sp, #76]	; 0x4c
     74e:	f831 4f02 	ldrh.w	r4, [r1, #2]!
     752:	f833 5f02 	ldrh.w	r5, [r3, #2]!
     756:	42a5      	cmp	r5, r4
     758:	bf18      	it	ne
     75a:	3001      	addne	r0, #1
     75c:	428a      	cmp	r2, r1
     75e:	d1f6      	bne.n	74e <void runBilinear<BilinearTwoStage>(char const*) [clone .constprop.0]+0x1ca>
     760:	4b5b      	ldr	r3, [pc, #364]	; (8d0 <void runBilinear<BilinearTwoStage>(char const*) [clone .constprop.0]+0x34c>)
     762:	2400      	movs	r4, #0
     764:	900a      	str	r0, [sp, #40]	; 0x28
     766:	685b      	ldr	r3, [r3, #4]
     768:	4627      	mov	r7, r4
     76a:	930b      	str	r3, [sp, #44]	; 0x2c
     76c:	f005 fe6c 	bl	6448 <micros>
     770:	2380      	movs	r3, #128	; 0x80
     772:	900c      	str	r0, [sp, #48]	; 0x30
     774:	9309      	str	r3, [sp, #36]	; 0x24
     776:	4b4e      	ldr	r3, [pc, #312]	; (8b0 <void runBilinear<BilinearTwoStage>(char const*) [clone .constprop.0]+0x32c>)
     778:	f8df a140 	ldr.w	sl, [pc, #320]	; 8bc <void runBilinear<BilinearTwoStage>(char const*) [clone .constprop.0]+0x338>
     77c:	9307      	str	r3, [sp, #28]
     77e:	4b4d      	ldr	r3, [pc, #308]	; (8b4 <void runBilinear<BilinearTwoStage>(char const*) [clone .constprop.0]+0x330>)
     780:	f8df 913c 	ldr.w	r9, [pc, #316]	; 8c0 <void runBilinear<BilinearTwoStage>(char const*) [clone .constprop.0]+0x33c>
     784:	9306      	str	r3, [sp, #24]
     786:	f8df 813c 	ldr.w	r8, [pc, #316]	; 8c4 <void runBilinear<BilinearTwoStage>(char const*) [clone .constprop.0]+0x340>
     78a:	4b4b      	ldr	r3, [pc, #300]	; (8b8 <void runBilinear<BilinearTwoStage>(char const*) [clone .constprop.0]+0x334>)
     78c:	9308      	str	r3, [sp, #32]
     78e:	9b06      	ldr	r3, [sp, #24]
     790:	eb07 1747 	add.w	r7, r7, r7, lsl #5
     794:	f83a 2f02 	ldrh.w	r2, [sl, #2]!
     798:	ecb3 7a01 	vldmia	r3!, {s14}
     79c:	f839 1f02 	ldrh.w	r1, [r9, #2]!
     7a0:	ea4f 2ed2 	mov.w	lr, r2, lsr #11
     7a4:	9306      	str	r3, [sp, #24]
     7a6:	eef0 6a47 	vmov.f32	s13, s14
     7aa:	9b07      	ldr	r3, [sp, #28]
     7ac:	0acd      	lsrs	r5, r1, #11
     7ae:	f838 0f02 	ldrh.w	r0, [r8, #2]!
     7b2:	ecf3 7a01 	vldmia	r3!, {s15}
     7b6:	eefe 6acc 	vcvt.s32.f32	s13, s13, #8
     7ba:	9307      	str	r3, [sp, #28]
     7bc:	eeb0 7a67 	vmov.f32	s14, s15
     7c0:	9b08      	ldr	r3, [sp, #32]
     7c2:	ee16 4a90 	vmov	r4, s13
     7c6:	f833 6f02 	ldrh.w	r6, [r3, #2]!
     7ca:	f5c4 7c80 	rsb	ip, r4, #256	; 0x100
     7ce:	fb04 f505 	mul.w	r5, r4, r5
     7d2:	eebe 7acc 	vcvt.s32.f32	s14, s14, #8
     7d6:	9308      	str	r3, [sp, #32]
     7d8:	0af3      	lsrs	r3, r6, #11
     7da:	f3c6 1b45 	ubfx	fp, r6, #5, #6
     7de:	f006 061f 	and.w	r6, r6, #31
     7e2:	fb04 f303 	mul.w	r3, r4, r3
     7e6:	fb04 f606 	mul.w	r6, r4, r6
     7ea:	fb0c 330e 	mla	r3, ip, lr, r3
     7ee:	f3c1 1e45 	ubfx	lr, r1, #5, #6
     7f2:	f001 011f 	and.w	r1, r1, #31
     7f6:	fb04 fb0b 	mul.w	fp, r4, fp
     7fa:	fb04 fe0e 	mul.w	lr, r4, lr
     7fe:	121b      	asrs	r3, r3, #8
     800:	fb01 f404 	mul.w	r4, r1, r4
     804:	f3c2 1145 	ubfx	r1, r2, #5, #6
     808:	f002 021f 	and.w	r2, r2, #31
     80c:	fb0c b101 	mla	r1, ip, r1, fp
     810:	fb0c 6202 	mla	r2, ip, r2, r6
     814:	0ac6      	lsrs	r6, r0, #11
     816:	1209      	asrs	r1, r1, #8
     818:	fb0c 5506 	mla	r5, ip, r6, r5
     81c:	1212      	asrs	r2, r2, #8
     81e:	ee17 6a10 	vmov	r6, s14
     822:	122d      	asrs	r5, r5, #8
     824:	fb06 f303 	mul.w	r3, r6, r3
     828:	fb06 f101 	mul.w	r1, r6, r1
     82c:	fb06 f202 	mul.w	r2, r6, r2
     830:	f5c6 7680 	rsb	r6, r6, #256	; 0x100
     834:	fb06 3305 	mla	r3, r6, r5, r3
     838:	f3c0 1545 	ubfx	r5, r0, #5, #6
     83c:	f000 001f 	and.w	r0, r0, #31
     840:	fb0c e505 	mla	r5, ip, r5, lr
     844:	f3c3 2304 	ubfx	r3, r3, #8, #5
     848:	fb0c 4000 	mla	r0, ip, r0, r4
     84c:	122d      	asrs	r5, r5, #8
     84e:	1200      	asrs	r0, r0, #8
     850:	fb06 1105 	mla	r1, r6, r5, r1
     854:	02db      	lsls	r3, r3, #11
     856:	fb06 2200 	mla	r2, r6, r0, r2
     85a:	f3c1 2105 	ubfx	r1, r1, #8, #6
     85e:	f3c2 2204 	ubfx	r2, r2, #8, #5
     862:	ea43 1341 	orr.w	r3, r3, r1, lsl #5
     866:	4313      	orrs	r3, r2
     868:	405f      	eors	r7, r3
     86a:	4b17      	ldr	r3, [pc, #92]	; (8c8 <void runBilinear<BilinearTwoStage>(char const*) [clone .constprop.0]+0x344>)
     86c:	4598      	cmp	r8, r3
     86e:	d18e      	bne.n	78e <void runBilinear<BilinearTwoStage>(char const*) [clone .constprop.0]+0x20a>
     870:	9b09      	ldr	r3, [sp, #36]	; 0x24
     872:	3b01      	subs	r3, #1
     874:	9309      	str	r3, [sp, #36]	; 0x24
     876:	f47f af7e 	bne.w	776 <void runBilinear<BilinearTwoStage>(char const*) [clone .constprop.0]+0x1f2>
     87a:	f005 fde5 	bl	6448 <micros>
     87e:	9b0c      	ldr	r3, [sp, #48]	; 0x30
     880:	4a13      	ldr	r2, [pc, #76]	; (8d0 <void runBilinear<BilinearTwoStage>(char const*) [clone .constprop.0]+0x34c>)
     882:	463c      	mov	r4, r7
     884:	1ac0      	subs	r0, r0, r3
     886:	4b13      	ldr	r3, [pc, #76]	; (8d4 <void runBilinear<BilinearTwoStage>(char const*) [clone .constprop.0]+0x350>)
     888:	6855      	ldr	r5, [r2, #4]
     88a:	9a0b      	ldr	r2, [sp, #44]	; 0x2c
     88c:	4e12      	ldr	r6, [pc, #72]	; (8d8 <void runBilinear<BilinearTwoStage>(char const*) [clone .constprop.0]+0x354>)
     88e:	1aad      	subs	r5, r5, r2
     890:	681a      	ldr	r2, [r3, #0]
     892:	4912      	ldr	r1, [pc, #72]	; (8dc <void runBilinear<BilinearTwoStage>(char const*) [clone .constprop.0]+0x358>)
     894:	4054      	eors	r4, r2
     896:	601c      	str	r4, [r3, #0]
     898:	9b0a      	ldr	r3, [sp, #40]	; 0x28
     89a:	4c11      	ldr	r4, [pc, #68]	; (8e0 <void runBilinear<BilinearTwoStage>(char const*) [clone .constprop.0]+0x35c>)
     89c:	fab3 f283 	clz	r2, r3
     8a0:	9b12      	ldr	r3, [sp, #72]	; 0x48
     8a2:	0952      	lsrs	r2, r2, #5
     8a4:	e01e      	b.n	8e4 <void runBilinear<BilinearTwoStage>(char const*) [clone .constprop.0]+0x360>
     8a6:	bf00      	nop
     8a8:	2000651e 	.word	0x2000651e
     8ac:	20006116 	.word	0x20006116
     8b0:	200030b8 	.word	0x200030b8
     8b4:	200028a8 	.word	0x200028a8
     8b8:	2000249e 	.word	0x2000249e
     8bc:	20002096 	.word	0x20002096
     8c0:	20001c8e 	.word	0x20001c8e
     8c4:	20001886 	.word	0x20001886
     8c8:	20001c86 	.word	0x20001c86
     8cc:	2000691e 	.word	0x2000691e
     8d0:	e0001000 	.word	0xe0001000
     8d4:	20007138 	.word	0x20007138
     8d8:	20006516 	.word	0x20006516
     8dc:	811c9dc5 	.word	0x811c9dc5
     8e0:	01000193 	.word	0x01000193
     8e4:	f833 7f02 	ldrh.w	r7, [r3, #2]!
     8e8:	4079      	eors	r1, r7
     8ea:	429e      	cmp	r6, r3
     8ec:	fb04 f101 	mul.w	r1, r4, r1
     8f0:	d1f8      	bne.n	8e4 <void runBilinear<BilinearTwoStage>(char const*) [clone .constprop.0]+0x360>
     8f2:	f44f 7400 	mov.w	r4, #512	; 0x200
     8f6:	9104      	str	r1, [sp, #16]
     8f8:	9000      	str	r0, [sp, #0]
     8fa:	9403      	str	r4, [sp, #12]
     8fc:	2480      	movs	r4, #128	; 0x80
     8fe:	9b0a      	ldr	r3, [sp, #40]	; 0x28
     900:	4904      	ldr	r1, [pc, #16]	; (914 <void runBilinear<BilinearTwoStage>(char const*) [clone .constprop.0]+0x390>)
     902:	4805      	ldr	r0, [pc, #20]	; (918 <void runBilinear<BilinearTwoStage>(char const*) [clone .constprop.0]+0x394>)
     904:	9501      	str	r5, [sp, #4]
     906:	9402      	str	r4, [sp, #8]
     908:	f7ff fdb6 	bl	478 <printResult(char const*, char const*, unsigned long, unsigned long, unsigned long, unsigned long, unsigned long, unsigned long, unsigned long, char const*) [clone .constprop.1]>
     90c:	b015      	add	sp, #84	; 0x54
     90e:	e8bd 8ff0 	ldmia.w	sp!, {r4, r5, r6, r7, r8, r9, sl, fp, pc}
     912:	bf00      	nop
     914:	200003c8 	.word	0x200003c8
     918:	200003dc 	.word	0x200003dc

0000091c <void runBilinear<BilinearScalar>(char const*) [clone .constprop.0]>:
     91c:	e92d 4ff0 	stmdb	sp!, {r4, r5, r6, r7, r8, r9, sl, fp, lr}
     920:	4bc7      	ldr	r3, [pc, #796]	; (c40 <void runBilinear<BilinearScalar>(char const*) [clone .constprop.0]+0x324>)
     922:	b097      	sub	sp, #92	; 0x5c
     924:	4ac7      	ldr	r2, [pc, #796]	; (c44 <void runBilinear<BilinearScalar>(char const*) [clone .constprop.0]+0x328>)
     926:	9315      	str	r3, [sp, #84]	; 0x54
     928:	49c7      	ldr	r1, [pc, #796]	; (c48 <void runBilinear<BilinearScalar>(char const*) [clone .constprop.0]+0x32c>)
     92a:	9214      	str	r2, [sp, #80]	; 0x50
     92c:	910a      	str	r1, [sp, #40]	; 0x28
     92e:	e9cd 2308 	strd	r2, r3, [sp, #32]
     932:	4bc6      	ldr	r3, [pc, #792]	; (c4c <void runBilinear<BilinearScalar>(char const*) [clone .constprop.0]+0x330>)
     934:	930b      	str	r3, [sp, #44]	; 0x2c
     936:	4bc6      	ldr	r3, [pc, #792]	; (c50 <void runBilinear<BilinearScalar>(char const*) [clone .constprop.0]+0x334>)
     938:	930c      	str	r3, [sp, #48]	; 0x30
     93a:	4bc6      	ldr	r3, [pc, #792]	; (c54 <void runBilinear<BilinearScalar>(char const*) [clone .constprop.0]+0x338>)
     93c:	930d      	str	r3, [sp, #52]	; 0x34
     93e:	4bc6      	ldr	r3, [pc, #792]	; (c58 <void runBilinear<BilinearScalar>(char const*) [clone .constprop.0]+0x33c>)
     940:	930e      	str	r3, [sp, #56]	; 0x38
     942:	4bc6      	ldr	r3, [pc, #792]	; (c5c <void runBilinear<BilinearScalar>(char const*) [clone .constprop.0]+0x340>)
     944:	9307      	str	r3, [sp, #28]
     946:	9b0a      	ldr	r3, [sp, #40]	; 0x28
     948:	9a0e      	ldr	r2, [sp, #56]	; 0x38
     94a:	ecb3 7a01 	vldmia	r3!, {s14}
     94e:	930a      	str	r3, [sp, #40]	; 0x28
     950:	eef0 6a47 	vmov.f32	s13, s14
     954:	9b0b      	ldr	r3, [sp, #44]	; 0x2c
     956:	ecf3 7a01 	vldmia	r3!, {s15}
     95a:	eefe 6acc 	vcvt.s32.f32	s13, s13, #8
     95e:	930b      	str	r3, [sp, #44]	; 0x2c
     960:	eeb0 7a67 	vmov.f32	s14, s15
     964:	9b0c      	ldr	r3, [sp, #48]	; 0x30
     966:	ee16 1a90 	vmov	r1, s13
     96a:	f833 ef02 	ldrh.w	lr, [r3, #2]!
     96e:	f5c1 7480 	rsb	r4, r1, #256	; 0x100
     972:	eebe 7acc 	vcvt.s32.f32	s14, s14, #8
     976:	930c      	str	r3, [sp, #48]	; 0x30
     978:	ea4f 27de 	mov.w	r7, lr, lsr #11
     97c:	f832 3f02 	ldrh.w	r3, [r2, #2]!
     980:	f3ce 1645 	ubfx	r6, lr, #5, #6
     984:	fb01 f707 	mul.w	r7, r1, r7
     988:	920e      	str	r2, [sp, #56]	; 0x38
     98a:	f003 0b1f 	and.w	fp, r3, #31
     98e:	9a0d      	ldr	r2, [sp, #52]	; 0x34
     990:	0add      	lsrs	r5, r3, #11
     992:	fb01 f606 	mul.w	r6, r1, r6
     996:	f832 0f02 	ldrh.w	r0, [r2, #2]!
     99a:	fb04 7505 	mla	r5, r4, r5, r7
     99e:	ee17 7a10 	vmov	r7, s14
     9a2:	920d      	str	r2, [sp, #52]	; 0x34
     9a4:	f3c0 1845 	ubfx	r8, r0, #5, #6
     9a8:	9a07      	ldr	r2, [sp, #28]
     9aa:	fb07 f505 	mul.w	r5, r7, r5
     9ae:	ea4f 2ad0 	mov.w	sl, r0, lsr #11
     9b2:	f832 cf02 	ldrh.w	ip, [r2, #2]!
     9b6:	fb01 fa0a 	mul.w	sl, r1, sl
     9ba:	9207      	str	r2, [sp, #28]
     9bc:	f00e 021f 	and.w	r2, lr, #31
     9c0:	9512      	str	r5, [sp, #72]	; 0x48
     9c2:	ea4f 29dc 	mov.w	r9, ip, lsr #11
     9c6:	fb01 f202 	mul.w	r2, r1, r2
     9ca:	fb01 f508 	mul.w	r5, r1, r8
     9ce:	f3c3 1845 	ubfx	r8, r3, #5, #6
     9d2:	fb04 220b 	mla	r2, r4, fp, r2
     9d6:	ea4f 2bde 	mov.w	fp, lr, lsr #11
     9da:	f00e 0e1f 	and.w	lr, lr, #31
     9de:	fb04 a909 	mla	r9, r4, r9, sl
     9e2:	950f      	str	r5, [sp, #60]	; 0x3c
     9e4:	fb01 fe0e 	mul.w	lr, r1, lr
     9e8:	9d12      	ldr	r5, [sp, #72]	; 0x48
     9ea:	fb04 6608 	mla	r6, r4, r8, r6
     9ee:	f000 081f 	and.w	r8, r0, #31
     9f2:	f8cd e04c 	str.w	lr, [sp, #76]	; 0x4c
     9f6:	f3c0 1e45 	ubfx	lr, r0, #5, #6
     9fa:	fb07 f606 	mul.w	r6, r7, r6
     9fe:	fb01 fe0e 	mul.w	lr, r1, lr
     a02:	9611      	str	r6, [sp, #68]	; 0x44
     a04:	f8cd e040 	str.w	lr, [sp, #64]	; 0x40
     a08:	f5c7 7e80 	rsb	lr, r7, #256	; 0x100
     a0c:	fb01 f808 	mul.w	r8, r1, r8
     a10:	fb0e 5509 	mla	r5, lr, r9, r5
     a14:	f3cc 1945 	ubfx	r9, ip, #5, #6
     a18:	fb07 f202 	mul.w	r2, r7, r2
     a1c:	f3c5 4504 	ubfx	r5, r5, #16, #5
     a20:	fb01 fb0b 	mul.w	fp, r1, fp
     a24:	ea4f 2ac5 	mov.w	sl, r5, lsl #11
     a28:	9d0f      	ldr	r5, [sp, #60]	; 0x3c
     a2a:	fb04 5909 	mla	r9, r4, r9, r5
     a2e:	9d13      	ldr	r5, [sp, #76]	; 0x4c
     a30:	fb0e 6609 	mla	r6, lr, r9, r6
     a34:	f00c 091f 	and.w	r9, ip, #31
     a38:	fb04 8809 	mla	r8, r4, r9, r8
     a3c:	f3c6 4605 	ubfx	r6, r6, #16, #6
     a40:	fb0e 2208 	mla	r2, lr, r8, r2
     a44:	f3c2 4204 	ubfx	r2, r2, #16, #5
     a48:	ea42 1246 	orr.w	r2, r2, r6, lsl #5
     a4c:	0ac6      	lsrs	r6, r0, #11
     a4e:	fb01 f606 	mul.w	r6, r1, r6
     a52:	0ad9      	lsrs	r1, r3, #11
     a54:	f003 031f 	and.w	r3, r3, #31
     a58:	fb04 b101 	mla	r1, r4, r1, fp
     a5c:	fb04 5303 	mla	r3, r4, r3, r5
     a60:	9d10      	ldr	r5, [sp, #64]	; 0x40
     a62:	fb07 f101 	mul.w	r1, r7, r1
     a66:	fb07 f303 	mul.w	r3, r7, r3
     a6a:	f3cc 1745 	ubfx	r7, ip, #5, #6
     a6e:	fb04 5707 	mla	r7, r4, r7, r5
     a72:	9d11      	ldr	r5, [sp, #68]	; 0x44
     a74:	fb0e 3308 	mla	r3, lr, r8, r3
     a78:	fb0e 5707 	mla	r7, lr, r7, r5
     a7c:	f3c3 4304 	ubfx	r3, r3, #16, #5
     a80:	f3c7 4705 	ubfx	r7, r7, #16, #6
     a84:	ea4a 1547 	orr.w	r5, sl, r7, lsl #5
     a88:	ea4f 27dc 	mov.w	r7, ip, lsr #11
     a8c:	431d      	orrs	r5, r3
     a8e:	9b08      	ldr	r3, [sp, #32]
     a90:	fb04 6607 	mla	r6, r4, r7, r6
     a94:	fb0e 1606 	mla	r6, lr, r6, r1
     a98:	9909      	ldr	r1, [sp, #36]	; 0x24
     a9a:	1436      	asrs	r6, r6, #16
     a9c:	ea42 22c6 	orr.w	r2, r2, r6, lsl #11
     aa0:	f821 2f02 	strh.w	r2, [r1, #2]!
     aa4:	9109      	str	r1, [sp, #36]	; 0x24
     aa6:	f823 5f02 	strh.w	r5, [r3, #2]!
     aaa:	9a07      	ldr	r2, [sp, #28]
     aac:	9308      	str	r3, [sp, #32]
     aae:	4b6c      	ldr	r3, [pc, #432]	; (c60 <void runBilinear<BilinearScalar>(char const*) [clone .constprop.0]+0x344>)
     ab0:	4293      	cmp	r3, r2
     ab2:	f47f af48 	bne.w	946 <void runBilinear<BilinearScalar>(char const*) [clone .constprop.0]+0x2a>
     ab6:	4a6b      	ldr	r2, [pc, #428]	; (c64 <void runBilinear<BilinearScalar>(char const*) [clone .constprop.0]+0x348>)
     ab8:	2000      	movs	r0, #0
     aba:	9b14      	ldr	r3, [sp, #80]	; 0x50
     abc:	9915      	ldr	r1, [sp, #84]	; 0x54
     abe:	f831 4f02 	ldrh.w	r4, [r1, #2]!
     ac2:	f833 5f02 	ldrh.w	r5, [r3, #2]!
     ac6:	42a5      	cmp	r5, r4
     ac8:	bf18      	it	ne
     aca:	3001      	addne	r0, #1
     acc:	428a      	cmp	r2, r1
     ace:	d1f6      	bne.n	abe <void runBilinear<BilinearScalar>(char const*) [clone .constprop.0]+0x1a2>
     ad0:	4b65      	ldr	r3, [pc, #404]	; (c68 <void runBilinear<BilinearScalar>(char const*) [clone .constprop.0]+0x34c>)
     ad2:	f04f 0b00 	mov.w	fp, #0
     ad6:	900c      	str	r0, [sp, #48]	; 0x30
     ad8:	685b      	ldr	r3, [r3, #4]
     ada:	930d      	str	r3, [sp, #52]	; 0x34
     adc:	f005 fcb4 	bl	6448 <micros>
     ae0:	2380      	movs	r3, #128	; 0x80
     ae2:	46de      	mov	lr, fp
     ae4:	900e      	str	r0, [sp, #56]	; 0x38
     ae6:	930b      	str	r3, [sp, #44]	; 0x2c
     ae8:	4b57      	ldr	r3, [pc, #348]	; (c48 <void runBilinear<BilinearScalar>(char const*) [clone .constprop.0]+0x32c>)
     aea:	f8df a168 	ldr.w	sl, [pc, #360]	; c54 <void runBilinear<BilinearScalar>(char const*) [clone .constprop.0]+0x338>
     aee:	9309      	str	r3, [sp, #36]	; 0x24
     af0:	4b56      	ldr	r3, [pc, #344]	; (c4c <void runBilinear<BilinearScalar>(char const*) [clone .constprop.0]+0x330>)
     af2:	f8df 9168 	ldr.w	r9, [pc, #360]	; c5c <void runBilinear<BilinearScalar>(char const*) [clone .constprop.0]+0x340>
     af6:	9307      	str	r3, [sp, #28]
     af8:	4b55      	ldr	r3, [pc, #340]	; (c50 <void runBilinear<BilinearScalar>(char const*) [clone .constprop.0]+0x334>)
     afa:	930a      	str	r3, [sp, #40]	; 0x28
     afc:	4b56      	ldr	r3, [pc, #344]	; (c58 <void runBilinear<BilinearScalar>(char const*) [clone .constprop.0]+0x33c>)
     afe:	9308      	str	r3, [sp, #32]
     b00:	9b09      	ldr	r3, [sp, #36]	; 0x24
     b02:	eb0e 1e4e 	add.w	lr, lr, lr, lsl #5
     b06:	f83a 4f02 	ldrh.w	r4, [sl, #2]!
     b0a:	ecb3 7a01 	vldmia	r3!, {s14}
     b0e:	ea4f 2cd4 	mov.w	ip, r4, lsr #11
     b12:	f3c4 1045 	ubfx	r0, r4, #5, #6
     b16:	9309      	str	r3, [sp, #36]	; 0x24
     b18:	eef0 6a47 	vmov.f32	s13, s14
     b1c:	9b07      	ldr	r3, [sp, #28]
     b1e:	f004 041f 	and.w	r4, r4, #31
     b22:	f839 7f02 	ldrh.w	r7, [r9, #2]!
     b26:	ecf3 7a01 	vldmia	r3!, {s15}
     b2a:	eefe 6acc 	vcvt.s32.f32	s13, s13, #8
     b2e:	9307      	str	r3, [sp, #28]
     b30:	eeb0 7a67 	vmov.f32	s14, s15
     b34:	9b0a      	ldr	r3, [sp, #40]	; 0x28
     b36:	ee16 ba90 	vmov	fp, s13
     b3a:	f833 5f02 	ldrh.w	r5, [r3, #2]!
     b3e:	eebe 7acc 	vcvt.s32.f32	s14, s14, #8
     b42:	f5cb 7680 	rsb	r6, fp, #256	; 0x100
     b46:	fb0b fc0c 	mul.w	ip, fp, ip
     b4a:	930a      	str	r3, [sp, #40]	; 0x28
     b4c:	0ae9      	lsrs	r1, r5, #11
     b4e:	9b08      	ldr	r3, [sp, #32]
     b50:	f3c5 1845 	ubfx	r8, r5, #5, #6
     b54:	f005 051f 	and.w	r5, r5, #31
     b58:	fb0b f101 	mul.w	r1, fp, r1
     b5c:	f833 2f02 	ldrh.w	r2, [r3, #2]!
     b60:	fb0b f808 	mul.w	r8, fp, r8
     b64:	fb0b f505 	mul.w	r5, fp, r5
     b68:	fb0b f000 	mul.w	r0, fp, r0
     b6c:	fb0b f404 	mul.w	r4, fp, r4
     b70:	f3c2 1b45 	ubfx	fp, r2, #5, #6
     b74:	9308      	str	r3, [sp, #32]
     b76:	0ad3      	lsrs	r3, r2, #11
     b78:	f002 021f 	and.w	r2, r2, #31
     b7c:	fb06 8b0b 	mla	fp, r6, fp, r8
     b80:	fb06 1303 	mla	r3, r6, r3, r1
     b84:	ee17 1a10 	vmov	r1, s14
     b88:	fb06 5202 	mla	r2, r6, r2, r5
     b8c:	0afd      	lsrs	r5, r7, #11
     b8e:	fb01 f303 	mul.w	r3, r1, r3
     b92:	fb01 fb0b 	mul.w	fp, r1, fp
     b96:	fb01 f202 	mul.w	r2, r1, r2
     b9a:	f5c1 7180 	rsb	r1, r1, #256	; 0x100
     b9e:	fb06 cc05 	mla	ip, r6, r5, ip
     ba2:	f3c7 1545 	ubfx	r5, r7, #5, #6
     ba6:	f007 071f 	and.w	r7, r7, #31
     baa:	fb01 330c 	mla	r3, r1, ip, r3
     bae:	fb06 0005 	mla	r0, r6, r5, r0
     bb2:	f3c3 4304 	ubfx	r3, r3, #16, #5
     bb6:	fb06 4407 	mla	r4, r6, r7, r4
     bba:	fb01 b000 	mla	r0, r1, r0, fp
     bbe:	02db      	lsls	r3, r3, #11
     bc0:	fb01 2204 	mla	r2, r1, r4, r2
     bc4:	f3c0 4005 	ubfx	r0, r0, #16, #6
     bc8:	f3c2 4204 	ubfx	r2, r2, #16, #5
     bcc:	ea43 1340 	orr.w	r3, r3, r0, lsl #5
     bd0:	4313      	orrs	r3, r2
     bd2:	ea83 0e0e 	eor.w	lr, r3, lr
     bd6:	4b22      	ldr	r3, [pc, #136]	; (c60 <void runBilinear<BilinearScalar>(char const*) [clone .constprop.0]+0x344>)
     bd8:	4599      	cmp	r9, r3
     bda:	d191      	bne.n	b00 <void runBilinear<BilinearScalar>(char const*) [clone .constprop.0]+0x1e4>
     bdc:	9b0b      	ldr	r3, [sp, #44]	; 0x2c
     bde:	3b01      	subs	r3, #1
     be0:	930b      	str	r3, [sp, #44]	; 0x2c
     be2:	d181      	bne.n	ae8 <void runBilinear<BilinearScalar>(char const*) [clone .constprop.0]+0x1cc>
     be4:	46f3      	mov	fp, lr
     be6:	f005 fc2f 	bl	6448 <micros>
     bea:	9b0e      	ldr	r3, [sp, #56]	; 0x38
     bec:	4a1f      	ldr	r2, [pc, #124]	; (c6c <void runBilinear<BilinearScalar>(char const*) [clone .constprop.0]+0x350>)
     bee:	1ac0      	subs	r0, r0, r3
     bf0:	4b1d      	ldr	r3, [pc, #116]	; (c68 <void runBilinear<BilinearScalar>(char const*) [clone .constprop.0]+0x34c>)
     bf2:	4e1f      	ldr	r6, [pc, #124]	; (c70 <void runBilinear<BilinearScalar>(char const*) [clone .constprop.0]+0x354>)
     bf4:	685c      	ldr	r4, [r3, #4]
     bf6:	9b0d      	ldr	r3, [sp, #52]	; 0x34
     bf8:	491e      	ldr	r1, [pc, #120]	; (c74 <void runBilinear<BilinearScalar>(char const*) [clone .constprop.0]+0x358>)
     bfa:	1ae4      	subs	r4, r4, r3
     bfc:	6813      	ldr	r3, [r2, #0]
     bfe:	4d1e      	ldr	r5, [pc, #120]	; (c78 <void runBilinear<BilinearScalar>(char const*) [clone .constprop.0]+0x35c>)
     c00:	ea8b 0303 	eor.w	r3, fp, r3
     c04:	6013      	str	r3, [r2, #0]
     c06:	9b0c      	ldr	r3, [sp, #48]	; 0x30
     c08:	fab3 f283 	clz	r2, r3
     c0c:	9b14      	ldr	r3, [sp, #80]	; 0x50
     c0e:	0952      	lsrs	r2, r2, #5
     c10:	f833 7f02 	ldrh.w	r7, [r3, #2]!
     c14:	4079      	eors	r1, r7
     c16:	429e      	cmp	r6, r3
     c18:	fb05 f101 	mul.w	r1, r5, r1
     c1c:	d1f8      	bne.n	c10 <void runBilinear<BilinearScalar>(char const*) [clone .constprop.0]+0x2f4>
     c1e:	9401      	str	r4, [sp, #4]
     c20:	f44f 7500 	mov.w	r5, #512	; 0x200
     c24:	2480      	movs	r4, #128	; 0x80
     c26:	9104      	str	r1, [sp, #16]
     c28:	9000      	str	r0, [sp, #0]
     c2a:	9b0c      	ldr	r3, [sp, #48]	; 0x30
     c2c:	4913      	ldr	r1, [pc, #76]	; (c7c <void runBilinear<BilinearScalar>(char const*) [clone .constprop.0]+0x360>)
     c2e:	4814      	ldr	r0, [pc, #80]	; (c80 <void runBilinear<BilinearScalar>(char const*) [clone .constprop.0]+0x364>)
     c30:	9503      	str	r5, [sp, #12]
     c32:	9402      	str	r4, [sp, #8]
     c34:	f7ff fc20 	bl	478 <printResult(char const*, char const*, unsigned long, unsigned long, unsigned long, unsigned long, unsigned long, unsigned long, unsigned long, char const*) [clone .constprop.1]>
     c38:	b017      	add	sp, #92	; 0x5c
     c3a:	e8bd 8ff0 	ldmia.w	sp!, {r4, r5, r6, r7, r8, r9, sl, fp, pc}
     c3e:	bf00      	nop
     c40:	2000651e 	.word	0x2000651e
     c44:	20006116 	.word	0x20006116
     c48:	200030b8 	.word	0x200030b8
     c4c:	200028a8 	.word	0x200028a8
     c50:	2000249e 	.word	0x2000249e
     c54:	20002096 	.word	0x20002096
     c58:	20001c8e 	.word	0x20001c8e
     c5c:	20001886 	.word	0x20001886
     c60:	20001c86 	.word	0x20001c86
     c64:	2000691e 	.word	0x2000691e
     c68:	e0001000 	.word	0xe0001000
     c6c:	20007138 	.word	0x20007138
     c70:	20006516 	.word	0x20006516
     c74:	811c9dc5 	.word	0x811c9dc5
     c78:	01000193 	.word	0x01000193
     c7c:	200003b8 	.word	0x200003b8
     c80:	200003dc 	.word	0x200003dc

00000c84 <printResult(char const*, char const*, unsigned long, unsigned long, unsigned long, unsigned long, unsigned long, unsigned long, unsigned long, char const*) [clone .constprop.0]>:
     c84:	e92d 4ff8 	stmdb	sp!, {r3, r4, r5, r6, r7, r8, r9, sl, fp, lr}
     c88:	4605      	mov	r5, r0
     c8a:	460c      	mov	r4, r1
     c8c:	4834      	ldr	r0, [pc, #208]	; (d60 <printResult(char const*, char const*, unsigned long, unsigned long, unsigned long, unsigned long, unsigned long, unsigned long, unsigned long, char const*) [clone .constprop.0]+0xdc>)
     c8e:	2107      	movs	r1, #7
     c90:	4693      	mov	fp, r2
     c92:	461e      	mov	r6, r3
     c94:	f8dd a028 	ldr.w	sl, [sp, #40]	; 0x28
     c98:	9f0d      	ldr	r7, [sp, #52]	; 0x34
     c9a:	e9dd 980b 	ldrd	r9, r8, [sp, #44]	; 0x2c
     c9e:	f006 ffa5 	bl	7bec <usb_serial_write>
     ca2:	4628      	mov	r0, r5
     ca4:	f008 fcec 	bl	9680 <strlen>
     ca8:	4601      	mov	r1, r0
     caa:	4628      	mov	r0, r5
     cac:	f006 ff9e 	bl	7bec <usb_serial_write>
     cb0:	2109      	movs	r1, #9
     cb2:	482c      	ldr	r0, [pc, #176]	; (d64 <printResult(char const*, char const*, unsigned long, unsigned long, unsigned long, unsigned long, unsigned long, unsigned long, unsigned long, char const*) [clone .constprop.0]+0xe0>)
     cb4:	f006 ff9a 	bl	7bec <usb_serial_write>
     cb8:	4620      	mov	r0, r4
     cba:	f008 fce1 	bl	9680 <strlen>
     cbe:	4601      	mov	r1, r0
     cc0:	4620      	mov	r0, r4
     cc2:	4c29      	ldr	r4, [pc, #164]	; (d68 <printResult(char const*, char const*, unsigned long, unsigned long, unsigned long, unsigned long, unsigned long, unsigned long, unsigned long, char const*) [clone .constprop.0]+0xe4>)
     cc4:	f006 ff92 	bl	7bec <usb_serial_write>
     cc8:	2109      	movs	r1, #9
     cca:	4828      	ldr	r0, [pc, #160]	; (d6c <printResult(char const*, char const*, unsigned long, unsigned long, unsigned long, unsigned long, unsigned long, unsigned long, unsigned long, char const*) [clone .constprop.0]+0xe8>)
     ccc:	f006 ff8e 	bl	7bec <usb_serial_write>
     cd0:	4659      	mov	r1, fp
     cd2:	2300      	movs	r3, #0
     cd4:	220a      	movs	r2, #10
     cd6:	4620      	mov	r0, r4
     cd8:	f005 fb0e 	bl	62f8 <Print::printNumber(unsigned long, unsigned char, unsigned char)>
     cdc:	210c      	movs	r1, #12
     cde:	4824      	ldr	r0, [pc, #144]	; (d70 <printResult(char const*, char const*, unsigned long, unsigned long, unsigned long, unsigned long, unsigned long, unsigned long, unsigned long, char const*) [clone .constprop.0]+0xec>)
     ce0:	f006 ff84 	bl	7bec <usb_serial_write>
     ce4:	4631      	mov	r1, r6
     ce6:	2300      	movs	r3, #0
     ce8:	220a      	movs	r2, #10
     cea:	4620      	mov	r0, r4
     cec:	f005 fb04 	bl	62f8 <Print::printNumber(unsigned long, unsigned char, unsigned char)>
     cf0:	2109      	movs	r1, #9
     cf2:	4820      	ldr	r0, [pc, #128]	; (d74 <printResult(char const*, char const*, unsigned long, unsigned long, unsigned long, unsigned long, unsigned long, unsigned long, unsigned long, char const*) [clone .constprop.0]+0xf0>)
     cf4:	f006 ff7a 	bl	7bec <usb_serial_write>
     cf8:	4651      	mov	r1, sl
     cfa:	2300      	movs	r3, #0
     cfc:	220a      	movs	r2, #10
     cfe:	4620      	mov	r0, r4
     d00:	f005 fafa 	bl	62f8 <Print::printNumber(unsigned long, unsigned char, unsigned char)>
     d04:	2108      	movs	r1, #8
     d06:	481c      	ldr	r0, [pc, #112]	; (d78 <printResult(char const*, char const*, unsigned long, unsigned long, unsigned long, unsigned long, unsigned long, unsigned long, unsigned long, char const*) [clone .constprop.0]+0xf4>)
     d08:	f006 ff70 	bl	7bec <usb_serial_write>
     d0c:	2300      	movs	r3, #0
     d0e:	4649      	mov	r1, r9
     d10:	220a      	movs	r2, #10
     d12:	4620      	mov	r0, r4
     d14:	f005 faf0 	bl	62f8 <Print::printNumber(unsigned long, unsigned char, unsigned char)>
     d18:	210c      	movs	r1, #12
     d1a:	4818      	ldr	r0, [pc, #96]	; (d7c <printResult(char const*, char const*, unsigned long, unsigned long, unsigned long, unsigned long, unsigned long, unsigned long, unsigned long, char const*) [clone .constprop.0]+0xf8>)
     d1c:	f006 ff66 	bl	7bec <usb_serial_write>
     d20:	2300      	movs	r3, #0
     d22:	220a      	movs	r2, #10
     d24:	f44f 7100 	mov.w	r1, #512	; 0x200
     d28:	4620      	mov	r0, r4
     d2a:	f005 fae5 	bl	62f8 <Print::printNumber(unsigned long, unsigned char, unsigned char)>
     d2e:	2107      	movs	r1, #7
     d30:	4813      	ldr	r0, [pc, #76]	; (d80 <printResult(char const*, char const*, unsigned long, unsigned long, unsigned long, unsigned long, unsigned long, unsigned long, unsigned long, char const*) [clone .constprop.0]+0xfc>)
     d32:	f006 ff5b 	bl	7bec <usb_serial_write>
     d36:	2300      	movs	r3, #0
     d38:	220a      	movs	r2, #10
     d3a:	4641      	mov	r1, r8
     d3c:	4620      	mov	r0, r4
     d3e:	f005 fadb 	bl	62f8 <Print::printNumber(unsigned long, unsigned char, unsigned char)>
     d42:	210c      	movs	r1, #12
     d44:	480f      	ldr	r0, [pc, #60]	; (d84 <printResult(char const*, char const*, unsigned long, unsigned long, unsigned long, unsigned long, unsigned long, unsigned long, unsigned long, char const*) [clone .constprop.0]+0x100>)
     d46:	f006 ff51 	bl	7bec <usb_serial_write>
     d4a:	2300      	movs	r3, #0
     d4c:	4639      	mov	r1, r7
     d4e:	4620      	mov	r0, r4
     d50:	2210      	movs	r2, #16
     d52:	f005 fad1 	bl	62f8 <Print::printNumber(unsigned long, unsigned char, unsigned char)>
     d56:	4620      	mov	r0, r4
     d58:	e8bd 4ff8 	ldmia.w	sp!, {r3, r4, r5, r6, r7, r8, r9, sl, fp, lr}
     d5c:	f005 bab0 	b.w	62c0 <Print::println()>
     d60:	20000424 	.word	0x20000424
     d64:	2000042c 	.word	0x2000042c
     d68:	20000ca0 	.word	0x20000ca0
     d6c:	20000438 	.word	0x20000438
     d70:	20000444 	.word	0x20000444
     d74:	20000454 	.word	0x20000454
     d78:	20000460 	.word	0x20000460
     d7c:	2000046c 	.word	0x2000046c
     d80:	2000047c 	.word	0x2000047c
     d84:	20000484 	.word	0x20000484

00000d88 <void runMean2<Mean2Packed>(char const*)>:
     d88:	e92d 4ff0 	stmdb	sp!, {r4, r5, r6, r7, r8, r9, sl, fp, lr}
     d8c:	4e3e      	ldr	r6, [pc, #248]	; (e88 <void runMean2<Mean2Packed>(char const*)+0x100>)
     d8e:	4601      	mov	r1, r0
     d90:	4f3e      	ldr	r7, [pc, #248]	; (e8c <void runMean2<Mean2Packed>(char const*)+0x104>)
     d92:	b089      	sub	sp, #36	; 0x24
     d94:	f8df e114 	ldr.w	lr, [pc, #276]	; eac <void runMean2<Mean2Packed>(char const*)+0x124>
     d98:	f506 6580 	add.w	r5, r6, #1024	; 0x400
     d9c:	f8df 8110 	ldr.w	r8, [pc, #272]	; eb0 <void runMean2<Mean2Packed>(char const*)+0x128>
     da0:	4638      	mov	r0, r7
     da2:	46f4      	mov	ip, lr
     da4:	4632      	mov	r2, r6
     da6:	4644      	mov	r4, r8
     da8:	f647 39ef 	movw	r9, #31727	; 0x7bef
     dac:	f832 af02 	ldrh.w	sl, [r2, #2]!
     db0:	f830 bf02 	ldrh.w	fp, [r0, #2]!
     db4:	4295      	cmp	r5, r2
     db6:	ea8a 030b 	eor.w	r3, sl, fp
     dba:	ea0a 0a0b 	and.w	sl, sl, fp
     dbe:	ea09 0353 	and.w	r3, r9, r3, lsr #1
     dc2:	4453      	add	r3, sl
     dc4:	b29b      	uxth	r3, r3
     dc6:	f82c 3f02 	strh.w	r3, [ip, #2]!
     dca:	f824 3f02 	strh.w	r3, [r4, #2]!
     dce:	d1ed      	bne.n	dac <void runMean2<Mean2Packed>(char const*)+0x24>
     dd0:	4a2f      	ldr	r2, [pc, #188]	; (e90 <void runMean2<Mean2Packed>(char const*)+0x108>)
     dd2:	4643      	mov	r3, r8
     dd4:	f04f 0900 	mov.w	r9, #0
     dd8:	f83e 0f02 	ldrh.w	r0, [lr, #2]!
     ddc:	f833 4f02 	ldrh.w	r4, [r3, #2]!
     de0:	4284      	cmp	r4, r0
     de2:	bf18      	it	ne
     de4:	f109 0901 	addne.w	r9, r9, #1
     de8:	4572      	cmp	r2, lr
     dea:	d1f5      	bne.n	dd8 <void runMean2<Mean2Packed>(char const*)+0x50>
     dec:	4b29      	ldr	r3, [pc, #164]	; (e94 <void runMean2<Mean2Packed>(char const*)+0x10c>)
     dee:	f44f 7a00 	mov.w	sl, #512	; 0x200
     df2:	9107      	str	r1, [sp, #28]
     df4:	f04f 0b00 	mov.w	fp, #0
     df8:	685b      	ldr	r3, [r3, #4]
     dfa:	9306      	str	r3, [sp, #24]
     dfc:	f005 fb24 	bl	6448 <micros>
     e00:	9907      	ldr	r1, [sp, #28]
     e02:	9005      	str	r0, [sp, #20]
     e04:	f647 30ef 	movw	r0, #31727	; 0x7bef
     e08:	463c      	mov	r4, r7
     e0a:	4632      	mov	r2, r6
     e0c:	f832 cf02 	ldrh.w	ip, [r2, #2]!
     e10:	eb0b 1b4b 	add.w	fp, fp, fp, lsl #5
     e14:	f834 ef02 	ldrh.w	lr, [r4, #2]!
     e18:	4295      	cmp	r5, r2
     e1a:	ea8c 030e 	eor.w	r3, ip, lr
     e1e:	ea0c 0c0e 	and.w	ip, ip, lr
     e22:	ea00 0353 	and.w	r3, r0, r3, lsr #1
     e26:	4463      	add	r3, ip
     e28:	b29b      	uxth	r3, r3
     e2a:	ea83 0b0b 	eor.w	fp, r3, fp
     e2e:	d1ed      	bne.n	e0c <void runMean2<Mean2Packed>(char const*)+0x84>
     e30:	f1ba 0a01 	subs.w	sl, sl, #1
     e34:	d1e8      	bne.n	e08 <void runMean2<Mean2Packed>(char const*)+0x80>
     e36:	9107      	str	r1, [sp, #28]
     e38:	f005 fb06 	bl	6448 <micros>
     e3c:	9b05      	ldr	r3, [sp, #20]
     e3e:	4a16      	ldr	r2, [pc, #88]	; (e98 <void runMean2<Mean2Packed>(char const*)+0x110>)
     e40:	1ac5      	subs	r5, r0, r3
     e42:	4b14      	ldr	r3, [pc, #80]	; (e94 <void runMean2<Mean2Packed>(char const*)+0x10c>)
     e44:	4f15      	ldr	r7, [pc, #84]	; (e9c <void runMean2<Mean2Packed>(char const*)+0x114>)
     e46:	6858      	ldr	r0, [r3, #4]
     e48:	9b06      	ldr	r3, [sp, #24]
     e4a:	4e15      	ldr	r6, [pc, #84]	; (ea0 <void runMean2<Mean2Packed>(char const*)+0x118>)
     e4c:	1ac0      	subs	r0, r0, r3
     e4e:	6813      	ldr	r3, [r2, #0]
     e50:	9907      	ldr	r1, [sp, #28]
     e52:	ea83 030b 	eor.w	r3, r3, fp
     e56:	6013      	str	r3, [r2, #0]
     e58:	fab9 f289 	clz	r2, r9
     e5c:	4b11      	ldr	r3, [pc, #68]	; (ea4 <void runMean2<Mean2Packed>(char const*)+0x11c>)
     e5e:	0952      	lsrs	r2, r2, #5
     e60:	f838 4f02 	ldrh.w	r4, [r8, #2]!
     e64:	4063      	eors	r3, r4
     e66:	4547      	cmp	r7, r8
     e68:	fb06 f303 	mul.w	r3, r6, r3
     e6c:	d1f8      	bne.n	e60 <void runMean2<Mean2Packed>(char const*)+0xd8>
     e6e:	f44f 7400 	mov.w	r4, #512	; 0x200
     e72:	9303      	str	r3, [sp, #12]
     e74:	9001      	str	r0, [sp, #4]
     e76:	464b      	mov	r3, r9
     e78:	480b      	ldr	r0, [pc, #44]	; (ea8 <void runMean2<Mean2Packed>(char const*)+0x120>)
     e7a:	9500      	str	r5, [sp, #0]
     e7c:	9402      	str	r4, [sp, #8]
     e7e:	f7ff ff01 	bl	c84 <printResult(char const*, char const*, unsigned long, unsigned long, unsigned long, unsigned long, unsigned long, unsigned long, unsigned long, char const*) [clone .constprop.0]>
     e82:	b009      	add	sp, #36	; 0x24
     e84:	e8bd 8ff0 	ldmia.w	sp!, {r4, r5, r6, r7, r8, r9, sl, fp, pc}
     e88:	20001886 	.word	0x20001886
     e8c:	20001c8e 	.word	0x20001c8e
     e90:	2000691e 	.word	0x2000691e
     e94:	e0001000 	.word	0xe0001000
     e98:	20007138 	.word	0x20007138
     e9c:	20006516 	.word	0x20006516
     ea0:	01000193 	.word	0x01000193
     ea4:	811c9dc5 	.word	0x811c9dc5
     ea8:	20000418 	.word	0x20000418
     eac:	2000651e 	.word	0x2000651e
     eb0:	20006116 	.word	0x20006116

00000eb4 <void runBlendRandom<BlendPacked>(char const*)>:
     eb4:	e92d 4ff0 	stmdb	sp!, {r4, r5, r6, r7, r8, r9, sl, fp, lr}
     eb8:	4b52      	ldr	r3, [pc, #328]	; (1004 <void runBlendRandom<BlendPacked>(char const*)+0x150>)
     eba:	4e53      	ldr	r6, [pc, #332]	; (1008 <void runBlendRandom<BlendPacked>(char const*)+0x154>)
     ebc:	f8df 8170 	ldr.w	r8, [pc, #368]	; 1030 <void runBlendRandom<BlendPacked>(char const*)+0x17c>
     ec0:	461d      	mov	r5, r3
     ec2:	4f52      	ldr	r7, [pc, #328]	; (100c <void runBlendRandom<BlendPacked>(char const*)+0x158>)
     ec4:	f506 6480 	add.w	r4, r6, #1024	; 0x400
     ec8:	f8df b168 	ldr.w	fp, [pc, #360]	; 1034 <void runBlendRandom<BlendPacked>(char const*)+0x180>
     ecc:	46c6      	mov	lr, r8
     ece:	46b9      	mov	r9, r7
     ed0:	46b4      	mov	ip, r6
     ed2:	46da      	mov	sl, fp
     ed4:	ed2d 8b02 	vpush	{d8}
     ed8:	ee08 0a10 	vmov	s16, r0
     edc:	b089      	sub	sp, #36	; 0x24
     ede:	484c      	ldr	r0, [pc, #304]	; (1010 <void runBlendRandom<BlendPacked>(char const*)+0x15c>)
     ee0:	9304      	str	r3, [sp, #16]
     ee2:	f83c 3f02 	ldrh.w	r3, [ip, #2]!
     ee6:	f83e 2f02 	ldrh.w	r2, [lr, #2]!
     eea:	ea43 4303 	orr.w	r3, r3, r3, lsl #16
     eee:	f859 1f04 	ldr.w	r1, [r9, #4]!
     ef2:	ea42 4202 	orr.w	r2, r2, r2, lsl #16
     ef6:	4564      	cmp	r4, ip
     ef8:	ea03 0300 	and.w	r3, r3, r0
     efc:	ea4f 01d1 	mov.w	r1, r1, lsr #3
     f00:	ea02 0200 	and.w	r2, r2, r0
     f04:	eba2 0203 	sub.w	r2, r2, r3
     f08:	fb01 f202 	mul.w	r2, r1, r2
     f0c:	eb03 1352 	add.w	r3, r3, r2, lsr #5
     f10:	ea03 0300 	and.w	r3, r3, r0
     f14:	ea43 4313 	orr.w	r3, r3, r3, lsr #16
     f18:	b29b      	uxth	r3, r3
     f1a:	f82a 3f02 	strh.w	r3, [sl, #2]!
     f1e:	f825 3f02 	strh.w	r3, [r5, #2]!
     f22:	d1de      	bne.n	ee2 <void runBlendRandom<BlendPacked>(char const*)+0x2e>
     f24:	4a3b      	ldr	r2, [pc, #236]	; (1014 <void runBlendRandom<BlendPacked>(char const*)+0x160>)
     f26:	2100      	movs	r1, #0
     f28:	9b04      	ldr	r3, [sp, #16]
     f2a:	f83b 0f02 	ldrh.w	r0, [fp, #2]!
     f2e:	f833 5f02 	ldrh.w	r5, [r3, #2]!
     f32:	4285      	cmp	r5, r0
     f34:	bf18      	it	ne
     f36:	3101      	addne	r1, #1
     f38:	455a      	cmp	r2, fp
     f3a:	d1f6      	bne.n	f2a <void runBlendRandom<BlendPacked>(char const*)+0x76>
     f3c:	4b36      	ldr	r3, [pc, #216]	; (1018 <void runBlendRandom<BlendPacked>(char const*)+0x164>)
     f3e:	f04f 0b00 	mov.w	fp, #0
     f42:	9105      	str	r1, [sp, #20]
     f44:	f44f 7a00 	mov.w	sl, #512	; 0x200
     f48:	685b      	ldr	r3, [r3, #4]
     f4a:	9307      	str	r3, [sp, #28]
     f4c:	f005 fa7c 	bl	6448 <micros>
     f50:	f8df c0bc 	ldr.w	ip, [pc, #188]	; 1010 <void runBlendRandom<BlendPacked>(char const*)+0x15c>
     f54:	465a      	mov	r2, fp
     f56:	9006      	str	r0, [sp, #24]
     f58:	463d      	mov	r5, r7
     f5a:	4640      	mov	r0, r8
     f5c:	4631      	mov	r1, r6
     f5e:	f831 3f02 	ldrh.w	r3, [r1, #2]!
     f62:	eb02 1242 	add.w	r2, r2, r2, lsl #5
     f66:	f830 ef02 	ldrh.w	lr, [r0, #2]!
     f6a:	ea43 4303 	orr.w	r3, r3, r3, lsl #16
     f6e:	f855 9f04 	ldr.w	r9, [r5, #4]!
     f72:	ea4e 4e0e 	orr.w	lr, lr, lr, lsl #16
     f76:	42a1      	cmp	r1, r4
     f78:	ea03 030c 	and.w	r3, r3, ip
     f7c:	ea4f 09d9 	mov.w	r9, r9, lsr #3
     f80:	ea0e 0e0c 	and.w	lr, lr, ip
     f84:	ebae 0e03 	sub.w	lr, lr, r3
     f88:	fb09 fe0e 	mul.w	lr, r9, lr
     f8c:	eb03 135e 	add.w	r3, r3, lr, lsr #5
     f90:	ea03 030c 	and.w	r3, r3, ip
     f94:	ea43 4313 	orr.w	r3, r3, r3, lsr #16
     f98:	b29b      	uxth	r3, r3
     f9a:	ea82 0203 	eor.w	r2, r2, r3
     f9e:	d1de      	bne.n	f5e <void runBlendRandom<BlendPacked>(char const*)+0xaa>
     fa0:	f1ba 0a01 	subs.w	sl, sl, #1
     fa4:	d1d8      	bne.n	f58 <void runBlendRandom<BlendPacked>(char const*)+0xa4>
     fa6:	4693      	mov	fp, r2
     fa8:	f005 fa4e 	bl	6448 <micros>
     fac:	9b06      	ldr	r3, [sp, #24]
     fae:	4a1b      	ldr	r2, [pc, #108]	; (101c <void runBlendRandom<BlendPacked>(char const*)+0x168>)
     fb0:	1ac4      	subs	r4, r0, r3
     fb2:	4b19      	ldr	r3, [pc, #100]	; (1018 <void runBlendRandom<BlendPacked>(char const*)+0x164>)
     fb4:	4e1a      	ldr	r6, [pc, #104]	; (1020 <void runBlendRandom<BlendPacked>(char const*)+0x16c>)
     fb6:	6858      	ldr	r0, [r3, #4]
     fb8:	9b07      	ldr	r3, [sp, #28]
     fba:	4d1a      	ldr	r5, [pc, #104]	; (1024 <void runBlendRandom<BlendPacked>(char const*)+0x170>)
     fbc:	1ac0      	subs	r0, r0, r3
     fbe:	6813      	ldr	r3, [r2, #0]
     fc0:	9904      	ldr	r1, [sp, #16]
     fc2:	ea83 030b 	eor.w	r3, r3, fp
     fc6:	6013      	str	r3, [r2, #0]
     fc8:	9b05      	ldr	r3, [sp, #20]
     fca:	fab3 f283 	clz	r2, r3
     fce:	4b16      	ldr	r3, [pc, #88]	; (1028 <void runBlendRandom<BlendPacked>(char const*)+0x174>)
     fd0:	0952      	lsrs	r2, r2, #5
     fd2:	f831 7f02 	ldrh.w	r7, [r1, #2]!
     fd6:	407b      	eors	r3, r7
     fd8:	428e      	cmp	r6, r1
     fda:	fb05 f303 	mul.w	r3, r5, r3
     fde:	d1f8      	bne.n	fd2 <void runBlendRandom<BlendPacked>(char const*)+0x11e>
     fe0:	9400      	str	r4, [sp, #0]
     fe2:	f44f 7400 	mov.w	r4, #512	; 0x200
     fe6:	9303      	str	r3, [sp, #12]
     fe8:	ee18 1a10 	vmov	r1, s16
     fec:	9001      	str	r0, [sp, #4]
     fee:	9b05      	ldr	r3, [sp, #20]
     ff0:	480e      	ldr	r0, [pc, #56]	; (102c <void runBlendRandom<BlendPacked>(char const*)+0x178>)
     ff2:	9402      	str	r4, [sp, #8]
     ff4:	f7ff fe46 	bl	c84 <printResult(char const*, char const*, unsigned long, unsigned long, unsigned long, unsigned long, unsigned long, unsigned long, unsigned long, char const*) [clone .constprop.0]>
     ff8:	b009      	add	sp, #36	; 0x24
     ffa:	ecbd 8b02 	vpop	{d8}
     ffe:	e8bd 8ff0 	ldmia.w	sp!, {r4, r5, r6, r7, r8, r9, sl, fp, pc}
    1002:	bf00      	nop
    1004:	20006116 	.word	0x20006116
    1008:	20001886 	.word	0x20001886
    100c:	20007138 	.word	0x20007138
    1010:	07e0f81f 	.word	0x07e0f81f
    1014:	2000691e 	.word	0x2000691e
    1018:	e0001000 	.word	0xe0001000
    101c:	20007138 	.word	0x20007138
    1020:	20006516 	.word	0x20006516
    1024:	01000193 	.word	0x01000193
    1028:	811c9dc5 	.word	0x811c9dc5
    102c:	20000400 	.word	0x20000400
    1030:	20001c8e 	.word	0x20001c8e
    1034:	2000651e 	.word	0x2000651e

00001038 <void runBlendFixed<BlendPacked>(char const*, unsigned long)>:
    1038:	e92d 4ff0 	stmdb	sp!, {r4, r5, r6, r7, r8, r9, sl, fp, lr}
    103c:	f8df c15c 	ldr.w	ip, [pc, #348]	; 119c <void runBlendFixed<BlendPacked>(char const*, unsigned long)+0x164>
    1040:	4688      	mov	r8, r1
    1042:	f8df a15c 	ldr.w	sl, [pc, #348]	; 11a0 <void runBlendFixed<BlendPacked>(char const*, unsigned long)+0x168>
    1046:	08cd      	lsrs	r5, r1, #3
    1048:	f8df b158 	ldr.w	fp, [pc, #344]	; 11a4 <void runBlendFixed<BlendPacked>(char const*, unsigned long)+0x16c>
    104c:	46e6      	mov	lr, ip
    104e:	4e4a      	ldr	r6, [pc, #296]	; (1178 <void runBlendFixed<BlendPacked>(char const*, unsigned long)+0x140>)
    1050:	f50a 6980 	add.w	r9, sl, #1024	; 0x400
    1054:	465c      	mov	r4, fp
    1056:	4949      	ldr	r1, [pc, #292]	; (117c <void runBlendFixed<BlendPacked>(char const*, unsigned long)+0x144>)
    1058:	4637      	mov	r7, r6
    105a:	ed2d 8b02 	vpush	{d8}
    105e:	ee08 0a10 	vmov	s16, r0
    1062:	b08f      	sub	sp, #60	; 0x3c
    1064:	4650      	mov	r0, sl
    1066:	f830 3f02 	ldrh.w	r3, [r0, #2]!
    106a:	f834 2f02 	ldrh.w	r2, [r4, #2]!
    106e:	ea43 4303 	orr.w	r3, r3, r3, lsl #16
    1072:	4581      	cmp	r9, r0
    1074:	ea42 4202 	orr.w	r2, r2, r2, lsl #16
    1078:	ea03 0301 	and.w	r3, r3, r1
    107c:	ea02 0201 	and.w	r2, r2, r1
    1080:	eba2 0203 	sub.w	r2, r2, r3
    1084:	fb05 f202 	mul.w	r2, r5, r2
    1088:	eb03 1352 	add.w	r3, r3, r2, lsr #5
    108c:	ea03 0301 	and.w	r3, r3, r1
    1090:	ea43 4313 	orr.w	r3, r3, r3, lsr #16
    1094:	b29b      	uxth	r3, r3
    1096:	f82e 3f02 	strh.w	r3, [lr, #2]!
    109a:	f827 3f02 	strh.w	r3, [r7, #2]!
    109e:	d1e2      	bne.n	1066 <void runBlendFixed<BlendPacked>(char const*, unsigned long)+0x2e>
    10a0:	4a37      	ldr	r2, [pc, #220]	; (1180 <void runBlendFixed<BlendPacked>(char const*, unsigned long)+0x148>)
    10a2:	4633      	mov	r3, r6
    10a4:	2700      	movs	r7, #0
    10a6:	f83c 1f02 	ldrh.w	r1, [ip, #2]!
    10aa:	f833 0f02 	ldrh.w	r0, [r3, #2]!
    10ae:	4288      	cmp	r0, r1
    10b0:	bf18      	it	ne
    10b2:	3701      	addne	r7, #1
    10b4:	4562      	cmp	r2, ip
    10b6:	d1f6      	bne.n	10a6 <void runBlendFixed<BlendPacked>(char const*, unsigned long)+0x6e>
    10b8:	4b32      	ldr	r3, [pc, #200]	; (1184 <void runBlendFixed<BlendPacked>(char const*, unsigned long)+0x14c>)
    10ba:	2400      	movs	r4, #0
    10bc:	685b      	ldr	r3, [r3, #4]
    10be:	9305      	str	r3, [sp, #20]
    10c0:	f005 f9c2 	bl	6448 <micros>
    10c4:	f44f 7e00 	mov.w	lr, #512	; 0x200
    10c8:	9004      	str	r0, [sp, #16]
    10ca:	4622      	mov	r2, r4
    10cc:	482b      	ldr	r0, [pc, #172]	; (117c <void runBlendFixed<BlendPacked>(char const*, unsigned long)+0x144>)
    10ce:	46dc      	mov	ip, fp
    10d0:	4651      	mov	r1, sl
    10d2:	f831 3f02 	ldrh.w	r3, [r1, #2]!
    10d6:	eb02 1242 	add.w	r2, r2, r2, lsl #5
    10da:	f83c 4f02 	ldrh.w	r4, [ip, #2]!
    10de:	ea43 4303 	orr.w	r3, r3, r3, lsl #16
    10e2:	4549      	cmp	r1, r9
    10e4:	ea44 4404 	orr.w	r4, r4, r4, lsl #16
    10e8:	ea03 0300 	and.w	r3, r3, r0
    10ec:	ea04 0400 	and.w	r4, r4, r0
    10f0:	eba4 0403 	sub.w	r4, r4, r3
    10f4:	fb05 f404 	mul.w	r4, r5, r4
    10f8:	eb03 1354 	add.w	r3, r3, r4, lsr #5
    10fc:	ea03 0300 	and.w	r3, r3, r0
    1100:	ea43 4313 	orr.w	r3, r3, r3, lsr #16
    1104:	b29b      	uxth	r3, r3
    1106:	ea82 0203 	eor.w	r2, r2, r3
    110a:	d1e2      	bne.n	10d2 <void runBlendFixed<BlendPacked>(char const*, unsigned long)+0x9a>
    110c:	f1be 0e01 	subs.w	lr, lr, #1
    1110:	d1dd      	bne.n	10ce <void runBlendFixed<BlendPacked>(char const*, unsigned long)+0x96>
    1112:	4614      	mov	r4, r2
    1114:	f005 f998 	bl	6448 <micros>
    1118:	9b04      	ldr	r3, [sp, #16]
    111a:	4a1a      	ldr	r2, [pc, #104]	; (1184 <void runBlendFixed<BlendPacked>(char const*, unsigned long)+0x14c>)
    111c:	491a      	ldr	r1, [pc, #104]	; (1188 <void runBlendFixed<BlendPacked>(char const*, unsigned long)+0x150>)
    111e:	1ac5      	subs	r5, r0, r3
    1120:	6852      	ldr	r2, [r2, #4]
    1122:	4643      	mov	r3, r8
    1124:	9805      	ldr	r0, [sp, #20]
    1126:	eba2 0900 	sub.w	r9, r2, r0
    112a:	680a      	ldr	r2, [r1, #0]
    112c:	a806      	add	r0, sp, #24
    112e:	4062      	eors	r2, r4
    1130:	4c16      	ldr	r4, [pc, #88]	; (118c <void runBlendFixed<BlendPacked>(char const*, unsigned long)+0x154>)
    1132:	600a      	str	r2, [r1, #0]
    1134:	2120      	movs	r1, #32
    1136:	4a16      	ldr	r2, [pc, #88]	; (1190 <void runBlendFixed<BlendPacked>(char const*, unsigned long)+0x158>)
    1138:	f008 f86e 	bl	9218 <snprintf>
    113c:	fab7 f287 	clz	r2, r7
    1140:	4b14      	ldr	r3, [pc, #80]	; (1194 <void runBlendFixed<BlendPacked>(char const*, unsigned long)+0x15c>)
    1142:	0952      	lsrs	r2, r2, #5
    1144:	4814      	ldr	r0, [pc, #80]	; (1198 <void runBlendFixed<BlendPacked>(char const*, unsigned long)+0x160>)
    1146:	f836 1f02 	ldrh.w	r1, [r6, #2]!
    114a:	404b      	eors	r3, r1
    114c:	42b4      	cmp	r4, r6
    114e:	fb00 f303 	mul.w	r3, r0, r3
    1152:	d1f8      	bne.n	1146 <void runBlendFixed<BlendPacked>(char const*, unsigned long)+0x10e>
    1154:	f44f 7400 	mov.w	r4, #512	; 0x200
    1158:	9303      	str	r3, [sp, #12]
    115a:	ee18 1a10 	vmov	r1, s16
    115e:	463b      	mov	r3, r7
    1160:	a806      	add	r0, sp, #24
    1162:	f8cd 9004 	str.w	r9, [sp, #4]
    1166:	9500      	str	r5, [sp, #0]
    1168:	9402      	str	r4, [sp, #8]
    116a:	f7ff fd8b 	bl	c84 <printResult(char const*, char const*, unsigned long, unsigned long, unsigned long, unsigned long, unsigned long, unsigned long, unsigned long, char const*) [clone .constprop.0]>
    116e:	b00f      	add	sp, #60	; 0x3c
    1170:	ecbd 8b02 	vpop	{d8}
    1174:	e8bd 8ff0 	ldmia.w	sp!, {r4, r5, r6, r7, r8, r9, sl, fp, pc}
    1178:	20006116 	.word	0x20006116
    117c:	07e0f81f 	.word	0x07e0f81f
    1180:	2000691e 	.word	0x2000691e
    1184:	e0001000 	.word	0xe0001000
    1188:	20007138 	.word	0x20007138
    118c:	20006516 	.word	0x20006516
    1190:	200003f0 	.word	0x200003f0
    1194:	811c9dc5 	.word	0x811c9dc5
    1198:	01000193 	.word	0x01000193
    119c:	2000651e 	.word	0x2000651e
    11a0:	20001886 	.word	0x20001886
    11a4:	20001c8e 	.word	0x20001c8e

000011a8 <runCoreKernels()>:
    11a8:	e92d 4ff0 	stmdb	sp!, {r4, r5, r6, r7, r8, r9, sl, fp, lr}
    11ac:	ed2d 8b02 	vpush	{d8}
    11b0:	b0a5      	sub	sp, #148	; 0x94
    11b2:	4dd6      	ldr	r5, [pc, #856]	; (150c <runCoreKernels()+0x364>)
    11b4:	f8df a394 	ldr.w	sl, [pc, #916]	; 154c <runCoreKernels()+0x3a4>
    11b8:	ab1a      	add	r3, sp, #104	; 0x68
    11ba:	ac1b      	add	r4, sp, #108	; 0x6c
    11bc:	4ed4      	ldr	r6, [pc, #848]	; (1510 <runCoreKernels()+0x368>)
    11be:	9309      	str	r3, [sp, #36]	; 0x24
    11c0:	cd0f      	ldmia	r5!, {r0, r1, r2, r3}
    11c2:	c40f      	stmia	r4!, {r0, r1, r2, r3}
    11c4:	cd0f      	ldmia	r5!, {r0, r1, r2, r3}
    11c6:	c40f      	stmia	r4!, {r0, r1, r2, r3}
    11c8:	682b      	ldr	r3, [r5, #0]
    11ca:	6023      	str	r3, [r4, #0]
    11cc:	9b09      	ldr	r3, [sp, #36]	; 0x24
    11ce:	48d1      	ldr	r0, [pc, #836]	; (1514 <runCoreKernels()+0x36c>)
    11d0:	f853 2f04 	ldr.w	r2, [r3, #4]!
    11d4:	f8df 8378 	ldr.w	r8, [pc, #888]	; 1550 <runCoreKernels()+0x3a8>
    11d8:	4614      	mov	r4, r2
    11da:	4611      	mov	r1, r2
    11dc:	ee08 2a10 	vmov	s16, r2
    11e0:	9309      	str	r3, [sp, #36]	; 0x24
    11e2:	f7ff ff29 	bl	1038 <void runBlendFixed<BlendPacked>(char const*, unsigned long)>
    11e6:	4621      	mov	r1, r4
    11e8:	48cb      	ldr	r0, [pc, #812]	; (1518 <runCoreKernels()+0x370>)
    11ea:	08e4      	lsrs	r4, r4, #3
    11ec:	f7ff ff24 	bl	1038 <void runBlendFixed<BlendPacked>(char const*, unsigned long)>
    11f0:	4bca      	ldr	r3, [pc, #808]	; (151c <runCoreKernels()+0x374>)
    11f2:	4acb      	ldr	r2, [pc, #812]	; (1520 <runCoreKernels()+0x378>)
    11f4:	f1c4 0720 	rsb	r7, r4, #32
    11f8:	f8df c330 	ldr.w	ip, [pc, #816]	; 152c <runCoreKernels()+0x384>
    11fc:	4699      	mov	r9, r3
    11fe:	4696      	mov	lr, r2
    1200:	9308      	str	r3, [sp, #32]
    1202:	9207      	str	r2, [sp, #28]
    1204:	f83c 1f02 	ldrh.w	r1, [ip, #2]!
    1208:	f838 3f02 	ldrh.w	r3, [r8, #2]!
    120c:	ea41 4201 	orr.w	r2, r1, r1, lsl #16
    1210:	45e2      	cmp	sl, ip
    1212:	ea43 4003 	orr.w	r0, r3, r3, lsl #16
    1216:	ea02 0206 	and.w	r2, r2, r6
    121a:	ea4f 25d3 	mov.w	r5, r3, lsr #11
    121e:	ea00 0006 	and.w	r0, r0, r6
    1222:	fb04 f505 	mul.w	r5, r4, r5
    1226:	eba0 0002 	sub.w	r0, r0, r2
    122a:	fb04 f000 	mul.w	r0, r4, r0
    122e:	eb02 1250 	add.w	r2, r2, r0, lsr #5
    1232:	f3c3 1045 	ubfx	r0, r3, #5, #6
    1236:	f003 031f 	and.w	r3, r3, #31
    123a:	ea02 0206 	and.w	r2, r2, r6
    123e:	fb04 f000 	mul.w	r0, r4, r0
    1242:	ea42 4212 	orr.w	r2, r2, r2, lsr #16
    1246:	f829 2f02 	strh.w	r2, [r9, #2]!
    124a:	fb04 f203 	mul.w	r2, r4, r3
    124e:	f3c1 1345 	ubfx	r3, r1, #5, #6
    1252:	fb07 0303 	mla	r3, r7, r3, r0
    1256:	f403 60fc 	and.w	r0, r3, #2016	; 0x7e0
    125a:	ea4f 23d1 	mov.w	r3, r1, lsr #11
    125e:	fb07 5503 	mla	r5, r7, r3, r5
    1262:	f001 031f 	and.w	r3, r1, #31
    1266:	fb07 2203 	mla	r2, r7, r3, r2
    126a:	f3c5 1344 	ubfx	r3, r5, #5, #5
    126e:	f3c2 1244 	ubfx	r2, r2, #5, #5
    1272:	ea40 23c3 	orr.w	r3, r0, r3, lsl #11
    1276:	ea43 0302 	orr.w	r3, r3, r2
    127a:	f82e 3f02 	strh.w	r3, [lr, #2]!
    127e:	d1c1      	bne.n	1204 <runCoreKernels()+0x5c>
    1280:	e9dd 2307 	ldrd	r2, r3, [sp, #28]
    1284:	f04f 0b00 	mov.w	fp, #0
    1288:	f833 1f02 	ldrh.w	r1, [r3, #2]!
    128c:	f832 0f02 	ldrh.w	r0, [r2, #2]!
    1290:	4288      	cmp	r0, r1
    1292:	49a4      	ldr	r1, [pc, #656]	; (1524 <runCoreKernels()+0x37c>)
    1294:	bf18      	it	ne
    1296:	f10b 0b01 	addne.w	fp, fp, #1
    129a:	4299      	cmp	r1, r3
    129c:	d1f4      	bne.n	1288 <runCoreKernels()+0xe0>
    129e:	4ba2      	ldr	r3, [pc, #648]	; (1528 <runCoreKernels()+0x380>)
    12a0:	f04f 0900 	mov.w	r9, #0
    12a4:	f44f 7500 	mov.w	r5, #512	; 0x200
    12a8:	685b      	ldr	r3, [r3, #4]
    12aa:	930a      	str	r3, [sp, #40]	; 0x28
    12ac:	f005 f8cc 	bl	6448 <micros>
    12b0:	4649      	mov	r1, r9
    12b2:	900b      	str	r0, [sp, #44]	; 0x2c
    12b4:	f8df c298 	ldr.w	ip, [pc, #664]	; 1550 <runCoreKernels()+0x3a8>
    12b8:	489c      	ldr	r0, [pc, #624]	; (152c <runCoreKernels()+0x384>)
    12ba:	f83c 2f02 	ldrh.w	r2, [ip, #2]!
    12be:	eb01 1141 	add.w	r1, r1, r1, lsl #5
    12c2:	f830 8f02 	ldrh.w	r8, [r0, #2]!
    12c6:	f3c2 1345 	ubfx	r3, r2, #5, #6
    12ca:	ea4f 2ed2 	mov.w	lr, r2, lsr #11
    12ce:	f3c8 1945 	ubfx	r9, r8, #5, #6
    12d2:	f002 021f 	and.w	r2, r2, #31
    12d6:	fb04 f303 	mul.w	r3, r4, r3
    12da:	4582      	cmp	sl, r0
    12dc:	fb04 fe0e 	mul.w	lr, r4, lr
    12e0:	fb07 3309 	mla	r3, r7, r9, r3
    12e4:	ea4f 29d8 	mov.w	r9, r8, lsr #11
    12e8:	fb04 f202 	mul.w	r2, r4, r2
    12ec:	f008 081f 	and.w	r8, r8, #31
    12f0:	fb07 ee09 	mla	lr, r7, r9, lr
    12f4:	f403 63fc 	and.w	r3, r3, #2016	; 0x7e0
    12f8:	fb07 2208 	mla	r2, r7, r8, r2
    12fc:	f3ce 1e44 	ubfx	lr, lr, #5, #5
    1300:	f3c2 1244 	ubfx	r2, r2, #5, #5
    1304:	ea43 23ce 	orr.w	r3, r3, lr, lsl #11
    1308:	ea43 0302 	orr.w	r3, r3, r2
    130c:	ea81 0103 	eor.w	r1, r1, r3
    1310:	d1d3      	bne.n	12ba <runCoreKernels()+0x112>
    1312:	3d01      	subs	r5, #1
    1314:	d1ce      	bne.n	12b4 <runCoreKernels()+0x10c>
    1316:	4689      	mov	r9, r1
    1318:	f005 f896 	bl	6448 <micros>
    131c:	9b0b      	ldr	r3, [sp, #44]	; 0x2c
    131e:	2120      	movs	r1, #32
    1320:	4a83      	ldr	r2, [pc, #524]	; (1530 <runCoreKernels()+0x388>)
    1322:	eba0 0803 	sub.w	r8, r0, r3
    1326:	4b80      	ldr	r3, [pc, #512]	; (1528 <runCoreKernels()+0x380>)
    1328:	a813      	add	r0, sp, #76	; 0x4c
    132a:	685f      	ldr	r7, [r3, #4]
    132c:	9b0a      	ldr	r3, [sp, #40]	; 0x28
    132e:	1aff      	subs	r7, r7, r3
    1330:	6813      	ldr	r3, [r2, #0]
    1332:	ea89 0303 	eor.w	r3, r9, r3
    1336:	6013      	str	r3, [r2, #0]
    1338:	ee18 3a10 	vmov	r3, s16
    133c:	4a7d      	ldr	r2, [pc, #500]	; (1534 <runCoreKernels()+0x38c>)
    133e:	f007 ff6b 	bl	9218 <snprintf>
    1342:	fabb f28b 	clz	r2, fp
    1346:	9807      	ldr	r0, [sp, #28]
    1348:	0952      	lsrs	r2, r2, #5
    134a:	4b7b      	ldr	r3, [pc, #492]	; (1538 <runCoreKernels()+0x390>)
    134c:	f8df c1f4 	ldr.w	ip, [pc, #500]	; 1544 <runCoreKernels()+0x39c>
    1350:	f830 1f02 	ldrh.w	r1, [r0, #2]!
    1354:	404b      	eors	r3, r1
    1356:	4979      	ldr	r1, [pc, #484]	; (153c <runCoreKernels()+0x394>)
    1358:	4281      	cmp	r1, r0
    135a:	fb0c f303 	mul.w	r3, ip, r3
    135e:	d1f7      	bne.n	1350 <runCoreKernels()+0x1a8>
    1360:	f44f 7100 	mov.w	r1, #512	; 0x200
    1364:	9303      	str	r3, [sp, #12]
    1366:	a813      	add	r0, sp, #76	; 0x4c
    1368:	465b      	mov	r3, fp
    136a:	9102      	str	r1, [sp, #8]
    136c:	4974      	ldr	r1, [pc, #464]	; (1540 <runCoreKernels()+0x398>)
    136e:	e9cd 8700 	strd	r8, r7, [sp]
    1372:	f7ff fc87 	bl	c84 <printResult(char const*, char const*, unsigned long, unsigned long, unsigned long, unsigned long, unsigned long, unsigned long, unsigned long, char const*) [clone .constprop.0]>
    1376:	f8df 81d8 	ldr.w	r8, [pc, #472]	; 1550 <runCoreKernels()+0x3a8>
    137a:	f8df c1b0 	ldr.w	ip, [pc, #432]	; 152c <runCoreKernels()+0x384>
    137e:	e9dd b907 	ldrd	fp, r9, [sp, #28]
    1382:	f838 1f02 	ldrh.w	r1, [r8, #2]!
    1386:	f83c 2f02 	ldrh.w	r2, [ip, #2]!
    138a:	0acb      	lsrs	r3, r1, #11
    138c:	f3c2 1745 	ubfx	r7, r2, #5, #6
    1390:	f002 0e1f 	and.w	lr, r2, #31
    1394:	eba3 23d2 	sub.w	r3, r3, r2, lsr #11
    1398:	45e2      	cmp	sl, ip
    139a:	ea42 4002 	orr.w	r0, r2, r2, lsl #16
    139e:	fb04 f303 	mul.w	r3, r4, r3
    13a2:	ea00 0006 	and.w	r0, r0, r6
    13a6:	ea4f 1363 	mov.w	r3, r3, asr #5
    13aa:	eb03 23d2 	add.w	r3, r3, r2, lsr #11
    13ae:	ea41 4201 	orr.w	r2, r1, r1, lsl #16
    13b2:	f003 031f 	and.w	r3, r3, #31
    13b6:	ea02 0206 	and.w	r2, r2, r6
    13ba:	ea4f 23c3 	mov.w	r3, r3, lsl #11
    13be:	eba2 0200 	sub.w	r2, r2, r0
    13c2:	fb04 f202 	mul.w	r2, r4, r2
    13c6:	eb00 1052 	add.w	r0, r0, r2, lsr #5
    13ca:	f001 021f 	and.w	r2, r1, #31
    13ce:	ea00 0006 	and.w	r0, r0, r6
    13d2:	eba2 020e 	sub.w	r2, r2, lr
    13d6:	ea40 4010 	orr.w	r0, r0, r0, lsr #16
    13da:	fb04 f202 	mul.w	r2, r4, r2
    13de:	f829 0f02 	strh.w	r0, [r9, #2]!
    13e2:	f3c1 1045 	ubfx	r0, r1, #5, #6
    13e6:	eb0e 1262 	add.w	r2, lr, r2, asr #5
    13ea:	eba0 0107 	sub.w	r1, r0, r7
    13ee:	f002 021f 	and.w	r2, r2, #31
    13f2:	fb04 f101 	mul.w	r1, r4, r1
    13f6:	eb07 1161 	add.w	r1, r7, r1, asr #5
    13fa:	f001 013f 	and.w	r1, r1, #63	; 0x3f
    13fe:	ea43 1341 	orr.w	r3, r3, r1, lsl #5
    1402:	ea43 0302 	orr.w	r3, r3, r2
    1406:	f82b 3f02 	strh.w	r3, [fp, #2]!
    140a:	d1ba      	bne.n	1382 <runCoreKernels()+0x1da>
    140c:	e9dd 2307 	ldrd	r2, r3, [sp, #28]
    1410:	f04f 0900 	mov.w	r9, #0
    1414:	f833 1f02 	ldrh.w	r1, [r3, #2]!
    1418:	f832 0f02 	ldrh.w	r0, [r2, #2]!
    141c:	4288      	cmp	r0, r1
    141e:	4941      	ldr	r1, [pc, #260]	; (1524 <runCoreKernels()+0x37c>)
    1420:	bf18      	it	ne
    1422:	f109 0901 	addne.w	r9, r9, #1
    1426:	4299      	cmp	r1, r3
    1428:	d1f4      	bne.n	1414 <runCoreKernels()+0x26c>
    142a:	4b3f      	ldr	r3, [pc, #252]	; (1528 <runCoreKernels()+0x380>)
    142c:	f44f 7700 	mov.w	r7, #512	; 0x200
    1430:	685b      	ldr	r3, [r3, #4]
    1432:	930a      	str	r3, [sp, #40]	; 0x28
    1434:	f005 f808 	bl	6448 <micros>
    1438:	4683      	mov	fp, r0
    143a:	4628      	mov	r0, r5
    143c:	f8df e110 	ldr.w	lr, [pc, #272]	; 1550 <runCoreKernels()+0x3a8>
    1440:	f8df c0e8 	ldr.w	ip, [pc, #232]	; 152c <runCoreKernels()+0x384>
    1444:	f83e 1f02 	ldrh.w	r1, [lr, #2]!
    1448:	eb00 1040 	add.w	r0, r0, r0, lsl #5
    144c:	f83c 2f02 	ldrh.w	r2, [ip, #2]!
    1450:	0acb      	lsrs	r3, r1, #11
    1452:	f3c1 1845 	ubfx	r8, r1, #5, #6
    1456:	f001 011f 	and.w	r1, r1, #31
    145a:	45e2      	cmp	sl, ip
    145c:	eba3 23d2 	sub.w	r3, r3, r2, lsr #11
    1460:	fb04 f303 	mul.w	r3, r4, r3
    1464:	ea4f 1363 	mov.w	r3, r3, asr #5
    1468:	eb03 23d2 	add.w	r3, r3, r2, lsr #11
    146c:	f003 031f 	and.w	r3, r3, #31
    1470:	ea4f 25c3 	mov.w	r5, r3, lsl #11
    1474:	f3c2 1345 	ubfx	r3, r2, #5, #6
    1478:	f002 021f 	and.w	r2, r2, #31
    147c:	eba8 0803 	sub.w	r8, r8, r3
    1480:	eba1 0102 	sub.w	r1, r1, r2
    1484:	fb04 f808 	mul.w	r8, r4, r8
    1488:	fb04 f101 	mul.w	r1, r4, r1
    148c:	eb03 1868 	add.w	r8, r3, r8, asr #5
    1490:	eb02 1361 	add.w	r3, r2, r1, asr #5
    1494:	f008 023f 	and.w	r2, r8, #63	; 0x3f
    1498:	f003 031f 	and.w	r3, r3, #31
    149c:	ea45 1242 	orr.w	r2, r5, r2, lsl #5
    14a0:	ea43 0302 	orr.w	r3, r3, r2
    14a4:	ea80 0003 	eor.w	r0, r0, r3
    14a8:	d1cc      	bne.n	1444 <runCoreKernels()+0x29c>
    14aa:	3f01      	subs	r7, #1
    14ac:	d1c6      	bne.n	143c <runCoreKernels()+0x294>
    14ae:	4605      	mov	r5, r0
    14b0:	f004 ffca 	bl	6448 <micros>
    14b4:	4a1c      	ldr	r2, [pc, #112]	; (1528 <runCoreKernels()+0x380>)
    14b6:	ee18 3a10 	vmov	r3, s16
    14ba:	491d      	ldr	r1, [pc, #116]	; (1530 <runCoreKernels()+0x388>)
    14bc:	eba0 080b 	sub.w	r8, r0, fp
    14c0:	6854      	ldr	r4, [r2, #4]
    14c2:	a813      	add	r0, sp, #76	; 0x4c
    14c4:	9a0a      	ldr	r2, [sp, #40]	; 0x28
    14c6:	1aa4      	subs	r4, r4, r2
    14c8:	680a      	ldr	r2, [r1, #0]
    14ca:	4055      	eors	r5, r2
    14cc:	4a19      	ldr	r2, [pc, #100]	; (1534 <runCoreKernels()+0x38c>)
    14ce:	600d      	str	r5, [r1, #0]
    14d0:	2120      	movs	r1, #32
    14d2:	f007 fea1 	bl	9218 <snprintf>
    14d6:	fab9 f289 	clz	r2, r9
    14da:	9807      	ldr	r0, [sp, #28]
    14dc:	0952      	lsrs	r2, r2, #5
    14de:	4b16      	ldr	r3, [pc, #88]	; (1538 <runCoreKernels()+0x390>)
    14e0:	4d18      	ldr	r5, [pc, #96]	; (1544 <runCoreKernels()+0x39c>)
    14e2:	f830 1f02 	ldrh.w	r1, [r0, #2]!
    14e6:	404b      	eors	r3, r1
    14e8:	4914      	ldr	r1, [pc, #80]	; (153c <runCoreKernels()+0x394>)
    14ea:	4281      	cmp	r1, r0
    14ec:	fb05 f303 	mul.w	r3, r5, r3
    14f0:	d1f7      	bne.n	14e2 <runCoreKernels()+0x33a>
    14f2:	f44f 7100 	mov.w	r1, #512	; 0x200
    14f6:	9303      	str	r3, [sp, #12]
    14f8:	a813      	add	r0, sp, #76	; 0x4c
    14fa:	464b      	mov	r3, r9
    14fc:	9102      	str	r1, [sp, #8]
    14fe:	4912      	ldr	r1, [pc, #72]	; (1548 <runCoreKernels()+0x3a0>)
    1500:	e9cd 8400 	strd	r8, r4, [sp]
    1504:	f7ff fbbe 	bl	c84 <printResult(char const*, char const*, unsigned long, unsigned long, unsigned long, unsigned long, unsigned long, unsigned long, unsigned long, char const*) [clone .constprop.0]>
    1508:	e024      	b.n	1554 <runCoreKernels()+0x3ac>
    150a:	bf00      	nop
    150c:	20000370 	.word	0x20000370
    1510:	07e0f81f 	.word	0x07e0f81f
    1514:	20000494 	.word	0x20000494
    1518:	200004a0 	.word	0x200004a0
    151c:	2000651e 	.word	0x2000651e
    1520:	20006116 	.word	0x20006116
    1524:	2000691e 	.word	0x2000691e
    1528:	e0001000 	.word	0xe0001000
    152c:	20001886 	.word	0x20001886
    1530:	20007138 	.word	0x20007138
    1534:	200003f0 	.word	0x200003f0
    1538:	811c9dc5 	.word	0x811c9dc5
    153c:	20006516 	.word	0x20006516
    1540:	200004ac 	.word	0x200004ac
    1544:	01000193 	.word	0x01000193
    1548:	200004bc 	.word	0x200004bc
    154c:	20001c86 	.word	0x20001c86
    1550:	20001c8e 	.word	0x20001c8e
    1554:	aa23      	add	r2, sp, #140	; 0x8c
    1556:	9b09      	ldr	r3, [sp, #36]	; 0x24
    1558:	429a      	cmp	r2, r3
    155a:	f47f ae37 	bne.w	11cc <runCoreKernels()+0x24>
    155e:	48cf      	ldr	r0, [pc, #828]	; (189c <runCoreKernels()+0x6f4>)
    1560:	f7ff fca8 	bl	eb4 <void runBlendRandom<BlendPacked>(char const*)>
    1564:	48ce      	ldr	r0, [pc, #824]	; (18a0 <runCoreKernels()+0x6f8>)
    1566:	f7ff fca5 	bl	eb4 <void runBlendRandom<BlendPacked>(char const*)>
    156a:	f8df 9364 	ldr.w	r9, [pc, #868]	; 18d0 <runCoreKernels()+0x728>
    156e:	f8df b340 	ldr.w	fp, [pc, #832]	; 18b0 <runCoreKernels()+0x708>
    1572:	4ecc      	ldr	r6, [pc, #816]	; (18a4 <runCoreKernels()+0x6fc>)
    1574:	f8df c35c 	ldr.w	ip, [pc, #860]	; 18d4 <runCoreKernels()+0x72c>
    1578:	e9dd e807 	ldrd	lr, r8, [sp, #28]
    157c:	f836 0f02 	ldrh.w	r0, [r6, #2]!
    1580:	f83b 3f02 	ldrh.w	r3, [fp, #2]!
    1584:	ea40 4100 	orr.w	r1, r0, r0, lsl #16
    1588:	f859 2f04 	ldr.w	r2, [r9, #4]!
    158c:	ea43 4403 	orr.w	r4, r3, r3, lsl #16
    1590:	f3c0 1545 	ubfx	r5, r0, #5, #6
    1594:	ea01 010c 	and.w	r1, r1, ip
    1598:	08d2      	lsrs	r2, r2, #3
    159a:	ea04 040c 	and.w	r4, r4, ip
    159e:	45b2      	cmp	sl, r6
    15a0:	eba4 0401 	sub.w	r4, r4, r1
    15a4:	fb02 f404 	mul.w	r4, r2, r4
    15a8:	eb01 1154 	add.w	r1, r1, r4, lsr #5
    15ac:	ea4f 24d3 	mov.w	r4, r3, lsr #11
    15b0:	ea01 010c 	and.w	r1, r1, ip
    15b4:	fb02 f404 	mul.w	r4, r2, r4
    15b8:	ea41 4111 	orr.w	r1, r1, r1, lsr #16
    15bc:	f828 1f02 	strh.w	r1, [r8, #2]!
    15c0:	f3c3 1145 	ubfx	r1, r3, #5, #6
    15c4:	f003 031f 	and.w	r3, r3, #31
    15c8:	fb02 f101 	mul.w	r1, r2, r1
    15cc:	fb02 f303 	mul.w	r3, r2, r3
    15d0:	f1c2 0220 	rsb	r2, r2, #32
    15d4:	fb02 1105 	mla	r1, r2, r5, r1
    15d8:	ea4f 25d0 	mov.w	r5, r0, lsr #11
    15dc:	f000 001f 	and.w	r0, r0, #31
    15e0:	fb02 4405 	mla	r4, r2, r5, r4
    15e4:	f401 61fc 	and.w	r1, r1, #2016	; 0x7e0
    15e8:	fb02 3200 	mla	r2, r2, r0, r3
    15ec:	f3c4 1444 	ubfx	r4, r4, #5, #5
    15f0:	f3c2 1244 	ubfx	r2, r2, #5, #5
    15f4:	ea41 23c4 	orr.w	r3, r1, r4, lsl #11
    15f8:	ea43 0302 	orr.w	r3, r3, r2
    15fc:	f82e 3f02 	strh.w	r3, [lr, #2]!
    1600:	d1bc      	bne.n	157c <runCoreKernels()+0x3d4>
    1602:	e9dd 2307 	ldrd	r2, r3, [sp, #28]
    1606:	f04f 0900 	mov.w	r9, #0
    160a:	f833 1f02 	ldrh.w	r1, [r3, #2]!
    160e:	f832 0f02 	ldrh.w	r0, [r2, #2]!
    1612:	4288      	cmp	r0, r1
    1614:	49a4      	ldr	r1, [pc, #656]	; (18a8 <runCoreKernels()+0x700>)
    1616:	bf18      	it	ne
    1618:	f109 0901 	addne.w	r9, r9, #1
    161c:	4299      	cmp	r1, r3
    161e:	d1f4      	bne.n	160a <runCoreKernels()+0x462>
    1620:	4ba2      	ldr	r3, [pc, #648]	; (18ac <runCoreKernels()+0x704>)
    1622:	f44f 7400 	mov.w	r4, #512	; 0x200
    1626:	685b      	ldr	r3, [r3, #4]
    1628:	9309      	str	r3, [sp, #36]	; 0x24
    162a:	f004 ff0d 	bl	6448 <micros>
    162e:	4683      	mov	fp, r0
    1630:	4638      	mov	r0, r7
    1632:	f8df c29c 	ldr.w	ip, [pc, #668]	; 18d0 <runCoreKernels()+0x728>
    1636:	4e9e      	ldr	r6, [pc, #632]	; (18b0 <runCoreKernels()+0x708>)
    1638:	4d9a      	ldr	r5, [pc, #616]	; (18a4 <runCoreKernels()+0x6fc>)
    163a:	f836 7f02 	ldrh.w	r7, [r6, #2]!
    163e:	eb00 1040 	add.w	r0, r0, r0, lsl #5
    1642:	f85c 3f04 	ldr.w	r3, [ip, #4]!
    1646:	f835 ef02 	ldrh.w	lr, [r5, #2]!
    164a:	f3c7 1245 	ubfx	r2, r7, #5, #6
    164e:	08db      	lsrs	r3, r3, #3
    1650:	0af9      	lsrs	r1, r7, #11
    1652:	f007 071f 	and.w	r7, r7, #31
    1656:	f3ce 1845 	ubfx	r8, lr, #5, #6
    165a:	fb03 f202 	mul.w	r2, r3, r2
    165e:	fb03 f101 	mul.w	r1, r3, r1
    1662:	45aa      	cmp	sl, r5
    1664:	fb03 f707 	mul.w	r7, r3, r7
    1668:	f1c3 0320 	rsb	r3, r3, #32
    166c:	fb03 2208 	mla	r2, r3, r8, r2
    1670:	ea4f 28de 	mov.w	r8, lr, lsr #11
    1674:	f00e 0e1f 	and.w	lr, lr, #31
    1678:	fb03 1108 	mla	r1, r3, r8, r1
    167c:	f402 62fc 	and.w	r2, r2, #2016	; 0x7e0
    1680:	fb03 770e 	mla	r7, r3, lr, r7
    1684:	f3c1 1144 	ubfx	r1, r1, #5, #5
    1688:	ea42 23c1 	orr.w	r3, r2, r1, lsl #11
    168c:	f3c7 1244 	ubfx	r2, r7, #5, #5
    1690:	ea43 0302 	orr.w	r3, r3, r2
    1694:	ea80 0003 	eor.w	r0, r0, r3
    1698:	d1cf      	bne.n	163a <runCoreKernels()+0x492>
    169a:	3c01      	subs	r4, #1
    169c:	d1c9      	bne.n	1632 <runCoreKernels()+0x48a>
    169e:	4607      	mov	r7, r0
    16a0:	f004 fed2 	bl	6448 <micros>
    16a4:	4b81      	ldr	r3, [pc, #516]	; (18ac <runCoreKernels()+0x704>)
    16a6:	eba0 0b0b 	sub.w	fp, r0, fp
    16aa:	4a82      	ldr	r2, [pc, #520]	; (18b4 <runCoreKernels()+0x70c>)
    16ac:	685e      	ldr	r6, [r3, #4]
    16ae:	9b09      	ldr	r3, [sp, #36]	; 0x24
    16b0:	9907      	ldr	r1, [sp, #28]
    16b2:	1af6      	subs	r6, r6, r3
    16b4:	6813      	ldr	r3, [r2, #0]
    16b6:	4d80      	ldr	r5, [pc, #512]	; (18b8 <runCoreKernels()+0x710>)
    16b8:	405f      	eors	r7, r3
    16ba:	4b80      	ldr	r3, [pc, #512]	; (18bc <runCoreKernels()+0x714>)
    16bc:	6017      	str	r7, [r2, #0]
    16be:	fab9 f289 	clz	r2, r9
    16c2:	0952      	lsrs	r2, r2, #5
    16c4:	f831 0f02 	ldrh.w	r0, [r1, #2]!
    16c8:	4058      	eors	r0, r3
    16ca:	fb05 f300 	mul.w	r3, r5, r0
    16ce:	487c      	ldr	r0, [pc, #496]	; (18c0 <runCoreKernels()+0x718>)
    16d0:	4288      	cmp	r0, r1
    16d2:	d1f7      	bne.n	16c4 <runCoreKernels()+0x51c>
    16d4:	f44f 7100 	mov.w	r1, #512	; 0x200
    16d8:	9303      	str	r3, [sp, #12]
    16da:	487a      	ldr	r0, [pc, #488]	; (18c4 <runCoreKernels()+0x71c>)
    16dc:	464b      	mov	r3, r9
    16de:	9102      	str	r1, [sp, #8]
    16e0:	4979      	ldr	r1, [pc, #484]	; (18c8 <runCoreKernels()+0x720>)
    16e2:	e9cd b600 	strd	fp, r6, [sp]
    16e6:	f7ff facd 	bl	c84 <printResult(char const*, char const*, unsigned long, unsigned long, unsigned long, unsigned long, unsigned long, unsigned long, unsigned long, char const*) [clone .constprop.0]>
    16ea:	f8df b1e4 	ldr.w	fp, [pc, #484]	; 18d0 <runCoreKernels()+0x728>
    16ee:	4b70      	ldr	r3, [pc, #448]	; (18b0 <runCoreKernels()+0x708>)
    16f0:	f8df c1b0 	ldr.w	ip, [pc, #432]	; 18a4 <runCoreKernels()+0x6fc>
    16f4:	f8df e1dc 	ldr.w	lr, [pc, #476]	; 18d4 <runCoreKernels()+0x72c>
    16f8:	9309      	str	r3, [sp, #36]	; 0x24
    16fa:	e9dd 8907 	ldrd	r8, r9, [sp, #28]
    16fe:	9b09      	ldr	r3, [sp, #36]	; 0x24
    1700:	f83c 2f02 	ldrh.w	r2, [ip, #2]!
    1704:	f833 1f02 	ldrh.w	r1, [r3, #2]!
    1708:	ea42 4002 	orr.w	r0, r2, r2, lsl #16
    170c:	f85b 7f04 	ldr.w	r7, [fp, #4]!
    1710:	ea41 4501 	orr.w	r5, r1, r1, lsl #16
    1714:	9309      	str	r3, [sp, #36]	; 0x24
    1716:	ea00 000e 	and.w	r0, r0, lr
    171a:	08ff      	lsrs	r7, r7, #3
    171c:	ea05 050e 	and.w	r5, r5, lr
    1720:	0acb      	lsrs	r3, r1, #11
    1722:	f3c2 1645 	ubfx	r6, r2, #5, #6
    1726:	45e2      	cmp	sl, ip
    1728:	eba5 0500 	sub.w	r5, r5, r0
    172c:	eba3 23d2 	sub.w	r3, r3, r2, lsr #11
    1730:	fb07 f505 	mul.w	r5, r7, r5
    1734:	fb07 f303 	mul.w	r3, r7, r3
    1738:	eb00 1055 	add.w	r0, r0, r5, lsr #5
    173c:	ea4f 1363 	mov.w	r3, r3, asr #5
    1740:	ea00 000e 	and.w	r0, r0, lr
    1744:	eb03 23d2 	add.w	r3, r3, r2, lsr #11
    1748:	f002 021f 	and.w	r2, r2, #31
    174c:	ea40 4010 	orr.w	r0, r0, r0, lsr #16
    1750:	f003 031f 	and.w	r3, r3, #31
    1754:	f829 0f02 	strh.w	r0, [r9, #2]!
    1758:	f3c1 1045 	ubfx	r0, r1, #5, #6
    175c:	f001 011f 	and.w	r1, r1, #31
    1760:	ea4f 23c3 	mov.w	r3, r3, lsl #11
    1764:	eba0 0006 	sub.w	r0, r0, r6
    1768:	eba1 0102 	sub.w	r1, r1, r2
    176c:	fb07 f000 	mul.w	r0, r7, r0
    1770:	fb07 f501 	mul.w	r5, r7, r1
    1774:	eb06 1160 	add.w	r1, r6, r0, asr #5
    1778:	eb02 1265 	add.w	r2, r2, r5, asr #5
    177c:	f001 013f 	and.w	r1, r1, #63	; 0x3f
    1780:	f002 021f 	and.w	r2, r2, #31
    1784:	ea43 1341 	orr.w	r3, r3, r1, lsl #5
    1788:	ea43 0302 	orr.w	r3, r3, r2
    178c:	f828 3f02 	strh.w	r3, [r8, #2]!
    1790:	d1b5      	bne.n	16fe <runCoreKernels()+0x556>
    1792:	e9dd 2307 	ldrd	r2, r3, [sp, #28]
    1796:	f04f 0900 	mov.w	r9, #0
    179a:	f833 1f02 	ldrh.w	r1, [r3, #2]!
    179e:	f832 0f02 	ldrh.w	r0, [r2, #2]!
    17a2:	4288      	cmp	r0, r1
    17a4:	4940      	ldr	r1, [pc, #256]	; (18a8 <runCoreKernels()+0x700>)
    17a6:	bf18      	it	ne
    17a8:	f109 0901 	addne.w	r9, r9, #1
    17ac:	4299      	cmp	r1, r3
    17ae:	d1f4      	bne.n	179a <runCoreKernels()+0x5f2>
    17b0:	4b3e      	ldr	r3, [pc, #248]	; (18ac <runCoreKernels()+0x704>)
    17b2:	f44f 7500 	mov.w	r5, #512	; 0x200
    17b6:	685b      	ldr	r3, [r3, #4]
    17b8:	9309      	str	r3, [sp, #36]	; 0x24
    17ba:	f004 fe45 	bl	6448 <micros>
    17be:	4683      	mov	fp, r0
    17c0:	f8df c10c 	ldr.w	ip, [pc, #268]	; 18d0 <runCoreKernels()+0x728>
    17c4:	4f3a      	ldr	r7, [pc, #232]	; (18b0 <runCoreKernels()+0x708>)
    17c6:	4e37      	ldr	r6, [pc, #220]	; (18a4 <runCoreKernels()+0x6fc>)
    17c8:	f837 1f02 	ldrh.w	r1, [r7, #2]!
    17cc:	eb04 1444 	add.w	r4, r4, r4, lsl #5
    17d0:	f836 2f02 	ldrh.w	r2, [r6, #2]!
    17d4:	0acb      	lsrs	r3, r1, #11
    17d6:	f85c 0f04 	ldr.w	r0, [ip, #4]!
    17da:	f3c2 1e45 	ubfx	lr, r2, #5, #6
    17de:	f3c1 1845 	ubfx	r8, r1, #5, #6
    17e2:	08c0      	lsrs	r0, r0, #3
    17e4:	f001 011f 	and.w	r1, r1, #31
    17e8:	eba3 23d2 	sub.w	r3, r3, r2, lsr #11
    17ec:	eba8 080e 	sub.w	r8, r8, lr
    17f0:	45b2      	cmp	sl, r6
    17f2:	fb00 f303 	mul.w	r3, r0, r3
    17f6:	fb00 f808 	mul.w	r8, r0, r8
    17fa:	ea4f 1363 	mov.w	r3, r3, asr #5
    17fe:	eb03 23d2 	add.w	r3, r3, r2, lsr #11
    1802:	f002 021f 	and.w	r2, r2, #31
    1806:	eba1 0102 	sub.w	r1, r1, r2
    180a:	f003 031f 	and.w	r3, r3, #31
    180e:	fb01 f000 	mul.w	r0, r1, r0
    1812:	eb0e 1168 	add.w	r1, lr, r8, asr #5
    1816:	ea4f 23c3 	mov.w	r3, r3, lsl #11
    181a:	eb02 1260 	add.w	r2, r2, r0, asr #5
    181e:	f001 013f 	and.w	r1, r1, #63	; 0x3f
    1822:	f002 021f 	and.w	r2, r2, #31
    1826:	ea43 1341 	orr.w	r3, r3, r1, lsl #5
    182a:	ea43 0302 	orr.w	r3, r3, r2
    182e:	ea84 0403 	eor.w	r4, r4, r3
    1832:	d1c9      	bne.n	17c8 <runCoreKernels()+0x620>
    1834:	3d01      	subs	r5, #1
    1836:	d1c3      	bne.n	17c0 <runCoreKernels()+0x618>
    1838:	f004 fe06 	bl	6448 <micros>
    183c:	4b1b      	ldr	r3, [pc, #108]	; (18ac <runCoreKernels()+0x704>)
    183e:	4a1d      	ldr	r2, [pc, #116]	; (18b4 <runCoreKernels()+0x70c>)
    1840:	eba0 070b 	sub.w	r7, r0, fp
    1844:	685e      	ldr	r6, [r3, #4]
    1846:	9b09      	ldr	r3, [sp, #36]	; 0x24
    1848:	9907      	ldr	r1, [sp, #28]
    184a:	1af6      	subs	r6, r6, r3
    184c:	6813      	ldr	r3, [r2, #0]
    184e:	405c      	eors	r4, r3
    1850:	4b1a      	ldr	r3, [pc, #104]	; (18bc <runCoreKernels()+0x714>)
    1852:	6014      	str	r4, [r2, #0]
    1854:	fab9 f289 	clz	r2, r9
    1858:	4c17      	ldr	r4, [pc, #92]	; (18b8 <runCoreKernels()+0x710>)
    185a:	0952      	lsrs	r2, r2, #5
    185c:	f831 0f02 	ldrh.w	r0, [r1, #2]!
    1860:	4058      	eors	r0, r3
    1862:	fb04 f300 	mul.w	r3, r4, r0
    1866:	4816      	ldr	r0, [pc, #88]	; (18c0 <runCoreKernels()+0x718>)
    1868:	4288      	cmp	r0, r1
    186a:	d1f7      	bne.n	185c <runCoreKernels()+0x6b4>
    186c:	f44f 7100 	mov.w	r1, #512	; 0x200
    1870:	9303      	str	r3, [sp, #12]
    1872:	4814      	ldr	r0, [pc, #80]	; (18c4 <runCoreKernels()+0x71c>)
    1874:	464b      	mov	r3, r9
    1876:	9102      	str	r1, [sp, #8]
    1878:	4914      	ldr	r1, [pc, #80]	; (18cc <runCoreKernels()+0x724>)
    187a:	f8df 805c 	ldr.w	r8, [pc, #92]	; 18d8 <runCoreKernels()+0x730>
    187e:	f8df 905c 	ldr.w	r9, [pc, #92]	; 18dc <runCoreKernels()+0x734>
    1882:	f8df b05c 	ldr.w	fp, [pc, #92]	; 18e0 <runCoreKernels()+0x738>
    1886:	e9cd 7600 	strd	r7, r6, [sp]
    188a:	f7ff f9fb 	bl	c84 <printResult(char const*, char const*, unsigned long, unsigned long, unsigned long, unsigned long, unsigned long, unsigned long, unsigned long, char const*) [clone .constprop.0]>
    188e:	4f05      	ldr	r7, [pc, #20]	; (18a4 <runCoreKernels()+0x6fc>)
    1890:	e9dd ce07 	ldrd	ip, lr, [sp, #28]
    1894:	e9cd 9809 	strd	r9, r8, [sp, #36]	; 0x24
    1898:	e024      	b.n	18e4 <runCoreKernels()+0x73c>
    189a:	bf00      	nop
    189c:	20000494 	.word	0x20000494
    18a0:	200004a0 	.word	0x200004a0
    18a4:	20001886 	.word	0x20001886
    18a8:	2000691e 	.word	0x2000691e
    18ac:	e0001000 	.word	0xe0001000
    18b0:	20001c8e 	.word	0x20001c8e
    18b4:	20007138 	.word	0x20007138
    18b8:	01000193 	.word	0x01000193
    18bc:	811c9dc5 	.word	0x811c9dc5
    18c0:	20006516 	.word	0x20006516
    18c4:	20000400 	.word	0x20000400
    18c8:	200004ac 	.word	0x200004ac
    18cc:	200004bc 	.word	0x200004bc
    18d0:	20007138 	.word	0x20007138
    18d4:	07e0f81f 	.word	0x07e0f81f
    18d8:	20005904 	.word	0x20005904
    18dc:	200050f4 	.word	0x200050f4
    18e0:	200048e4 	.word	0x200048e4
    18e4:	9a09      	ldr	r2, [sp, #36]	; 0x24
    18e6:	f837 3f02 	ldrh.w	r3, [r7, #2]!
    18ea:	f852 0f04 	ldr.w	r0, [r2, #4]!
    18ee:	f85b 6f04 	ldr.w	r6, [fp, #4]!
    18f2:	f003 011f 	and.w	r1, r3, #31
    18f6:	9209      	str	r2, [sp, #36]	; 0x24
    18f8:	45ba      	cmp	sl, r7
    18fa:	9a0a      	ldr	r2, [sp, #40]	; 0x28
    18fc:	fb06 f101 	mul.w	r1, r6, r1
    1900:	f852 4f04 	ldr.w	r4, [r2, #4]!
    1904:	f3c1 2104 	ubfx	r1, r1, #8, #5
    1908:	920a      	str	r2, [sp, #40]	; 0x28
    190a:	f3c3 1245 	ubfx	r2, r3, #5, #6
    190e:	fb00 f202 	mul.w	r2, r0, r2
    1912:	ea4f 20d3 	mov.w	r0, r3, lsr #11
    1916:	f3c2 2205 	ubfx	r2, r2, #8, #6
    191a:	fb04 f000 	mul.w	r0, r4, r0
    191e:	ea41 1142 	orr.w	r1, r1, r2, lsl #5
    1922:	ea4f 2020 	mov.w	r0, r0, asr #8
    1926:	ea41 21c0 	orr.w	r1, r1, r0, lsl #11
    192a:	f82e 1f02 	strh.w	r1, [lr, #2]!
    192e:	f82c 1f02 	strh.w	r1, [ip, #2]!
    1932:	d1d7      	bne.n	18e4 <runCoreKernels()+0x73c>
    1934:	e9dd 2307 	ldrd	r2, r3, [sp, #28]
    1938:	f04f 0b00 	mov.w	fp, #0
    193c:	f833 1f02 	ldrh.w	r1, [r3, #2]!
    1940:	f832 0f02 	ldrh.w	r0, [r2, #2]!
    1944:	4288      	cmp	r0, r1
    1946:	49cd      	ldr	r1, [pc, #820]	; (1c7c <runCoreKernels()+0xad4>)
    1948:	bf18      	it	ne
    194a:	f10b 0b01 	addne.w	fp, fp, #1
    194e:	4299      	cmp	r1, r3
    1950:	d1f4      	bne.n	193c <runCoreKernels()+0x794>
    1952:	4bcb      	ldr	r3, [pc, #812]	; (1c80 <runCoreKernels()+0xad8>)
    1954:	f44f 7400 	mov.w	r4, #512	; 0x200
    1958:	685b      	ldr	r3, [r3, #4]
    195a:	9309      	str	r3, [sp, #36]	; 0x24
    195c:	f004 fd74 	bl	6448 <micros>
    1960:	4629      	mov	r1, r5
    1962:	900a      	str	r0, [sp, #40]	; 0x28
    1964:	f8df c338 	ldr.w	ip, [pc, #824]	; 1ca0 <runCoreKernels()+0xaf8>
    1968:	464f      	mov	r7, r9
    196a:	4646      	mov	r6, r8
    196c:	48c5      	ldr	r0, [pc, #788]	; (1c84 <runCoreKernels()+0xadc>)
    196e:	f830 2f02 	ldrh.w	r2, [r0, #2]!
    1972:	eb01 1141 	add.w	r1, r1, r1, lsl #5
    1976:	f857 3f04 	ldr.w	r3, [r7, #4]!
    197a:	f3c2 1545 	ubfx	r5, r2, #5, #6
    197e:	f85c ef04 	ldr.w	lr, [ip, #4]!
    1982:	4582      	cmp	sl, r0
    1984:	fb03 f505 	mul.w	r5, r3, r5
    1988:	f002 031f 	and.w	r3, r2, #31
    198c:	ea4f 22d2 	mov.w	r2, r2, lsr #11
    1990:	fb0e f303 	mul.w	r3, lr, r3
    1994:	f3c5 2505 	ubfx	r5, r5, #8, #6
    1998:	f3c3 2304 	ubfx	r3, r3, #8, #5
    199c:	ea43 1345 	orr.w	r3, r3, r5, lsl #5
    19a0:	f856 5f04 	ldr.w	r5, [r6, #4]!
    19a4:	fb05 f202 	mul.w	r2, r5, r2
    19a8:	ea4f 2222 	mov.w	r2, r2, asr #8
    19ac:	ea43 23c2 	orr.w	r3, r3, r2, lsl #11
    19b0:	b29b      	uxth	r3, r3
    19b2:	ea81 0103 	eor.w	r1, r1, r3
    19b6:	d1da      	bne.n	196e <runCoreKernels()+0x7c6>
    19b8:	3c01      	subs	r4, #1
    19ba:	d1d3      	bne.n	1964 <runCoreKernels()+0x7bc>
    19bc:	460d      	mov	r5, r1
    19be:	f004 fd43 	bl	6448 <micros>
    19c2:	9b0a      	ldr	r3, [sp, #40]	; 0x28
    19c4:	4ab0      	ldr	r2, [pc, #704]	; (1c88 <runCoreKernels()+0xae0>)
    19c6:	1ac7      	subs	r7, r0, r3
    19c8:	4bad      	ldr	r3, [pc, #692]	; (1c80 <runCoreKernels()+0xad8>)
    19ca:	9807      	ldr	r0, [sp, #28]
    19cc:	685e      	ldr	r6, [r3, #4]
    19ce:	9b09      	ldr	r3, [sp, #36]	; 0x24
    19d0:	1af6      	subs	r6, r6, r3
    19d2:	6813      	ldr	r3, [r2, #0]
    19d4:	405d      	eors	r5, r3
    19d6:	4bad      	ldr	r3, [pc, #692]	; (1c8c <runCoreKernels()+0xae4>)
    19d8:	6015      	str	r5, [r2, #0]
    19da:	fabb f28b 	clz	r2, fp
    19de:	4dac      	ldr	r5, [pc, #688]	; (1c90 <runCoreKernels()+0xae8>)
    19e0:	0952      	lsrs	r2, r2, #5
    19e2:	f830 1f02 	ldrh.w	r1, [r0, #2]!
    19e6:	404b      	eors	r3, r1
    19e8:	49aa      	ldr	r1, [pc, #680]	; (1c94 <runCoreKernels()+0xaec>)
    19ea:	4281      	cmp	r1, r0
    19ec:	fb05 f303 	mul.w	r3, r5, r3
    19f0:	d1f7      	bne.n	19e2 <runCoreKernels()+0x83a>
    19f2:	f44f 7100 	mov.w	r1, #512	; 0x200
    19f6:	9303      	str	r3, [sp, #12]
    19f8:	48a7      	ldr	r0, [pc, #668]	; (1c98 <runCoreKernels()+0xaf0>)
    19fa:	465b      	mov	r3, fp
    19fc:	9102      	str	r1, [sp, #8]
    19fe:	49a7      	ldr	r1, [pc, #668]	; (1c9c <runCoreKernels()+0xaf4>)
    1a00:	e9cd 7600 	strd	r7, r6, [sp]
    1a04:	f7ff f93e 	bl	c84 <printResult(char const*, char const*, unsigned long, unsigned long, unsigned long, unsigned long, unsigned long, unsigned long, unsigned long, char const*) [clone .constprop.0]>
    1a08:	4ba5      	ldr	r3, [pc, #660]	; (1ca0 <runCoreKernels()+0xaf8>)
    1a0a:	f8df c278 	ldr.w	ip, [pc, #632]	; 1c84 <runCoreKernels()+0xadc>
    1a0e:	f8cd 802c 	str.w	r8, [sp, #44]	; 0x2c
    1a12:	e9dd eb07 	ldrd	lr, fp, [sp, #28]
    1a16:	e9cd 3909 	strd	r3, r9, [sp, #36]	; 0x24
    1a1a:	9a0b      	ldr	r2, [sp, #44]	; 0x2c
    1a1c:	f83c 3f02 	ldrh.w	r3, [ip, #2]!
    1a20:	f852 6f04 	ldr.w	r6, [r2, #4]!
    1a24:	f003 011f 	and.w	r1, r3, #31
    1a28:	0ad8      	lsrs	r0, r3, #11
    1a2a:	920b      	str	r2, [sp, #44]	; 0x2c
    1a2c:	45e2      	cmp	sl, ip
    1a2e:	9a0a      	ldr	r2, [sp, #40]	; 0x28
    1a30:	fb06 f000 	mul.w	r0, r6, r0
    1a34:	f852 7f04 	ldr.w	r7, [r2, #4]!
    1a38:	f3c0 2004 	ubfx	r0, r0, #8, #5
    1a3c:	920a      	str	r2, [sp, #40]	; 0x28
    1a3e:	ea4f 20c0 	mov.w	r0, r0, lsl #11
    1a42:	9a09      	ldr	r2, [sp, #36]	; 0x24
    1a44:	f852 5f04 	ldr.w	r5, [r2, #4]!
    1a48:	9209      	str	r2, [sp, #36]	; 0x24
    1a4a:	f3c3 1245 	ubfx	r2, r3, #5, #6
    1a4e:	fb05 f101 	mul.w	r1, r5, r1
    1a52:	fb07 f202 	mul.w	r2, r7, r2
    1a56:	f3c1 2104 	ubfx	r1, r1, #8, #5
    1a5a:	f3c2 2205 	ubfx	r2, r2, #8, #6
    1a5e:	ea41 1142 	orr.w	r1, r1, r2, lsl #5
    1a62:	f3c3 1245 	ubfx	r2, r3, #5, #6
    1a66:	fb07 f202 	mul.w	r2, r7, r2
    1a6a:	f3c2 2205 	ubfx	r2, r2, #8, #6
    1a6e:	ea40 1242 	orr.w	r2, r0, r2, lsl #5
    1a72:	ea4f 20d3 	mov.w	r0, r3, lsr #11
    1a76:	f003 031f 	and.w	r3, r3, #31
    1a7a:	fb06 f000 	mul.w	r0, r6, r0
    1a7e:	fb05 f303 	mul.w	r3, r5, r3
    1a82:	ea4f 2020 	mov.w	r0, r0, asr #8
    1a86:	f3c3 2304 	ubfx	r3, r3, #8, #5
    1a8a:	ea41 21c0 	orr.w	r1, r1, r0, lsl #11
    1a8e:	ea42 0203 	orr.w	r2, r2, r3
    1a92:	f82b 1f02 	strh.w	r1, [fp, #2]!
    1a96:	f82e 2f02 	strh.w	r2, [lr, #2]!
    1a9a:	d1be      	bne.n	1a1a <runCoreKernels()+0x872>
    1a9c:	e9dd 2307 	ldrd	r2, r3, [sp, #28]
    1aa0:	f04f 0b00 	mov.w	fp, #0
    1aa4:	f833 1f02 	ldrh.w	r1, [r3, #2]!
    1aa8:	f832 0f02 	ldrh.w	r0, [r2, #2]!
    1aac:	4288      	cmp	r0, r1
    1aae:	4973      	ldr	r1, [pc, #460]	; (1c7c <runCoreKernels()+0xad4>)
    1ab0:	bf18      	it	ne
    1ab2:	f10b 0b01 	addne.w	fp, fp, #1
    1ab6:	4299      	cmp	r1, r3
    1ab8:	d1f4      	bne.n	1aa4 <runCoreKernels()+0x8fc>
    1aba:	4b71      	ldr	r3, [pc, #452]	; (1c80 <runCoreKernels()+0xad8>)
    1abc:	f44f 7500 	mov.w	r5, #512	; 0x200
    1ac0:	685b      	ldr	r3, [r3, #4]
    1ac2:	9309      	str	r3, [sp, #36]	; 0x24
    1ac4:	f004 fcc0 	bl	6448 <micros>
    1ac8:	4621      	mov	r1, r4
    1aca:	900a      	str	r0, [sp, #40]	; 0x28
    1acc:	f8df c1d0 	ldr.w	ip, [pc, #464]	; 1ca0 <runCoreKernels()+0xaf8>
    1ad0:	464f      	mov	r7, r9
    1ad2:	4646      	mov	r6, r8
    1ad4:	486b      	ldr	r0, [pc, #428]	; (1c84 <runCoreKernels()+0xadc>)
    1ad6:	f830 3f02 	ldrh.w	r3, [r0, #2]!
    1ada:	eb01 1141 	add.w	r1, r1, r1, lsl #5
    1ade:	f856 2f04 	ldr.w	r2, [r6, #4]!
    1ae2:	0adc      	lsrs	r4, r3, #11
    1ae4:	f857 ef04 	ldr.w	lr, [r7, #4]!
    1ae8:	4550      	cmp	r0, sl
    1aea:	fb02 f404 	mul.w	r4, r2, r4
    1aee:	f3c3 1245 	ubfx	r2, r3, #5, #6
    1af2:	f003 031f 	and.w	r3, r3, #31
    1af6:	f3c4 2404 	ubfx	r4, r4, #8, #5
    1afa:	fb0e f202 	mul.w	r2, lr, r2
    1afe:	ea4f 24c4 	mov.w	r4, r4, lsl #11
    1b02:	f3c2 2205 	ubfx	r2, r2, #8, #6
    1b06:	ea44 1242 	orr.w	r2, r4, r2, lsl #5
    1b0a:	f85c 4f04 	ldr.w	r4, [ip, #4]!
    1b0e:	fb04 f303 	mul.w	r3, r4, r3
    1b12:	f3c3 2304 	ubfx	r3, r3, #8, #5
    1b16:	ea43 0302 	orr.w	r3, r3, r2
    1b1a:	ea81 0103 	eor.w	r1, r1, r3
    1b1e:	d1da      	bne.n	1ad6 <runCoreKernels()+0x92e>
    1b20:	3d01      	subs	r5, #1
    1b22:	d1d3      	bne.n	1acc <runCoreKernels()+0x924>
    1b24:	460c      	mov	r4, r1
    1b26:	f004 fc8f 	bl	6448 <micros>
    1b2a:	9b0a      	ldr	r3, [sp, #40]	; 0x28
    1b2c:	4a56      	ldr	r2, [pc, #344]	; (1c88 <runCoreKernels()+0xae0>)
    1b2e:	1ac7      	subs	r7, r0, r3
    1b30:	4b53      	ldr	r3, [pc, #332]	; (1c80 <runCoreKernels()+0xad8>)
    1b32:	9807      	ldr	r0, [sp, #28]
    1b34:	685e      	ldr	r6, [r3, #4]
    1b36:	9b09      	ldr	r3, [sp, #36]	; 0x24
    1b38:	1af6      	subs	r6, r6, r3
    1b3a:	6813      	ldr	r3, [r2, #0]
    1b3c:	405c      	eors	r4, r3
    1b3e:	4b53      	ldr	r3, [pc, #332]	; (1c8c <runCoreKernels()+0xae4>)
    1b40:	6014      	str	r4, [r2, #0]
    1b42:	fabb f28b 	clz	r2, fp
    1b46:	4c52      	ldr	r4, [pc, #328]	; (1c90 <runCoreKernels()+0xae8>)
    1b48:	0952      	lsrs	r2, r2, #5
    1b4a:	f830 1f02 	ldrh.w	r1, [r0, #2]!
    1b4e:	404b      	eors	r3, r1
    1b50:	4950      	ldr	r1, [pc, #320]	; (1c94 <runCoreKernels()+0xaec>)
    1b52:	4288      	cmp	r0, r1
    1b54:	fb04 f303 	mul.w	r3, r4, r3
    1b58:	d1f7      	bne.n	1b4a <runCoreKernels()+0x9a2>
    1b5a:	f44f 7100 	mov.w	r1, #512	; 0x200
    1b5e:	9303      	str	r3, [sp, #12]
    1b60:	484d      	ldr	r0, [pc, #308]	; (1c98 <runCoreKernels()+0xaf0>)
    1b62:	465b      	mov	r3, fp
    1b64:	9102      	str	r1, [sp, #8]
    1b66:	494f      	ldr	r1, [pc, #316]	; (1ca4 <runCoreKernels()+0xafc>)
    1b68:	f8df b134 	ldr.w	fp, [pc, #308]	; 1ca0 <runCoreKernels()+0xaf8>
    1b6c:	e9cd 7600 	strd	r7, r6, [sp]
    1b70:	f7ff f888 	bl	c84 <printResult(char const*, char const*, unsigned long, unsigned long, unsigned long, unsigned long, unsigned long, unsigned long, unsigned long, char const*) [clone .constprop.0]>
    1b74:	4f43      	ldr	r7, [pc, #268]	; (1c84 <runCoreKernels()+0xadc>)
    1b76:	e9dd ce07 	ldrd	ip, lr, [sp, #28]
    1b7a:	e9cd 8909 	strd	r8, r9, [sp, #36]	; 0x24
    1b7e:	9a0a      	ldr	r2, [sp, #40]	; 0x28
    1b80:	f837 3f02 	ldrh.w	r3, [r7, #2]!
    1b84:	f852 0f04 	ldr.w	r0, [r2, #4]!
    1b88:	f85b 6f04 	ldr.w	r6, [fp, #4]!
    1b8c:	f003 011f 	and.w	r1, r3, #31
    1b90:	920a      	str	r2, [sp, #40]	; 0x28
    1b92:	45ba      	cmp	sl, r7
    1b94:	9a09      	ldr	r2, [sp, #36]	; 0x24
    1b96:	fb06 f101 	mul.w	r1, r6, r1
    1b9a:	f852 4f04 	ldr.w	r4, [r2, #4]!
    1b9e:	f3c1 2104 	ubfx	r1, r1, #8, #5
    1ba2:	9209      	str	r2, [sp, #36]	; 0x24
    1ba4:	f3c3 1245 	ubfx	r2, r3, #5, #6
    1ba8:	fb00 f202 	mul.w	r2, r0, r2
    1bac:	ea4f 20d3 	mov.w	r0, r3, lsr #11
    1bb0:	f3c2 2205 	ubfx	r2, r2, #8, #6
    1bb4:	fb04 f000 	mul.w	r0, r4, r0
    1bb8:	ea41 1142 	orr.w	r1, r1, r2, lsl #5
    1bbc:	ea4f 2020 	mov.w	r0, r0, asr #8
    1bc0:	ea41 21c0 	orr.w	r1, r1, r0, lsl #11
    1bc4:	f82e 1f02 	strh.w	r1, [lr, #2]!
    1bc8:	f82c 1f02 	strh.w	r1, [ip, #2]!
    1bcc:	d1d7      	bne.n	1b7e <runCoreKernels()+0x9d6>
    1bce:	e9dd 2307 	ldrd	r2, r3, [sp, #28]
    1bd2:	f04f 0b00 	mov.w	fp, #0
    1bd6:	f833 1f02 	ldrh.w	r1, [r3, #2]!
    1bda:	f832 0f02 	ldrh.w	r0, [r2, #2]!
    1bde:	4288      	cmp	r0, r1
    1be0:	4926      	ldr	r1, [pc, #152]	; (1c7c <runCoreKernels()+0xad4>)
    1be2:	bf18      	it	ne
    1be4:	f10b 0b01 	addne.w	fp, fp, #1
    1be8:	4299      	cmp	r1, r3
    1bea:	d1f4      	bne.n	1bd6 <runCoreKernels()+0xa2e>
    1bec:	4b24      	ldr	r3, [pc, #144]	; (1c80 <runCoreKernels()+0xad8>)
    1bee:	f44f 7400 	mov.w	r4, #512	; 0x200
    1bf2:	685b      	ldr	r3, [r3, #4]
    1bf4:	9309      	str	r3, [sp, #36]	; 0x24
    1bf6:	f004 fc27 	bl	6448 <micros>
    1bfa:	4629      	mov	r1, r5
    1bfc:	900a      	str	r0, [sp, #40]	; 0x28
    1bfe:	f8df c0a0 	ldr.w	ip, [pc, #160]	; 1ca0 <runCoreKernels()+0xaf8>
    1c02:	464f      	mov	r7, r9
    1c04:	4646      	mov	r6, r8
    1c06:	481f      	ldr	r0, [pc, #124]	; (1c84 <runCoreKernels()+0xadc>)
    1c08:	f830 2f02 	ldrh.w	r2, [r0, #2]!
    1c0c:	eb01 1141 	add.w	r1, r1, r1, lsl #5
    1c10:	f857 3f04 	ldr.w	r3, [r7, #4]!
    1c14:	f3c2 1545 	ubfx	r5, r2, #5, #6
    1c18:	f85c ef04 	ldr.w	lr, [ip, #4]!
    1c1c:	4582      	cmp	sl, r0
    1c1e:	fb03 f505 	mul.w	r5, r3, r5
    1c22:	f002 031f 	and.w	r3, r2, #31
    1c26:	ea4f 22d2 	mov.w	r2, r2, lsr #11
    1c2a:	fb0e f303 	mul.w	r3, lr, r3
    1c2e:	f3c5 2505 	ubfx	r5, r5, #8, #6
    1c32:	f3c3 2304 	ubfx	r3, r3, #8, #5
    1c36:	ea43 1345 	orr.w	r3, r3, r5, lsl #5
    1c3a:	f856 5f04 	ldr.w	r5, [r6, #4]!
    1c3e:	fb05 f202 	mul.w	r2, r5, r2
    1c42:	ea4f 2222 	mov.w	r2, r2, asr #8
    1c46:	ea43 23c2 	orr.w	r3, r3, r2, lsl #11
    1c4a:	b29b      	uxth	r3, r3
    1c4c:	ea81 0103 	eor.w	r1, r1, r3
    1c50:	d1da      	bne.n	1c08 <runCoreKernels()+0xa60>
    1c52:	3c01      	subs	r4, #1
    1c54:	d1d3      	bne.n	1bfe <runCoreKernels()+0xa56>
    1c56:	460d      	mov	r5, r1
    1c58:	f004 fbf6 	bl	6448 <micros>
    1c5c:	9b0a      	ldr	r3, [sp, #40]	; 0x28
    1c5e:	4a0a      	ldr	r2, [pc, #40]	; (1c88 <runCoreKernels()+0xae0>)
    1c60:	1ac7      	subs	r7, r0, r3
    1c62:	4b07      	ldr	r3, [pc, #28]	; (1c80 <runCoreKernels()+0xad8>)
    1c64:	9807      	ldr	r0, [sp, #28]
    1c66:	685e      	ldr	r6, [r3, #4]
    1c68:	9b09      	ldr	r3, [sp, #36]	; 0x24
    1c6a:	1af6      	subs	r6, r6, r3
    1c6c:	6813      	ldr	r3, [r2, #0]
    1c6e:	405d      	eors	r5, r3
    1c70:	4b06      	ldr	r3, [pc, #24]	; (1c8c <runCoreKernels()+0xae4>)
    1c72:	6015      	str	r5, [r2, #0]
    1c74:	fabb f28b 	clz	r2, fp
    1c78:	e016      	b.n	1ca8 <runCoreKernels()+0xb00>
    1c7a:	bf00      	nop
    1c7c:	2000691e 	.word	0x2000691e
    1c80:	e0001000 	.word	0xe0001000
    1c84:	20001886 	.word	0x20001886
    1c88:	20007138 	.word	0x20007138
    1c8c:	811c9dc5 	.word	0x811c9dc5
    1c90:	01000193 	.word	0x01000193
    1c94:	20006516 	.word	0x20006516
    1c98:	200004c8 	.word	0x200004c8
    1c9c:	20000494 	.word	0x20000494
    1ca0:	200048e4 	.word	0x200048e4
    1ca4:	200004d4 	.word	0x200004d4
    1ca8:	4dca      	ldr	r5, [pc, #808]	; (1fd4 <runCoreKernels()+0xe2c>)
    1caa:	0952      	lsrs	r2, r2, #5
    1cac:	f830 1f02 	ldrh.w	r1, [r0, #2]!
    1cb0:	404b      	eors	r3, r1
    1cb2:	49c9      	ldr	r1, [pc, #804]	; (1fd8 <runCoreKernels()+0xe30>)
    1cb4:	4281      	cmp	r1, r0
    1cb6:	fb05 f303 	mul.w	r3, r5, r3
    1cba:	d1f7      	bne.n	1cac <runCoreKernels()+0xb04>
    1cbc:	f44f 7100 	mov.w	r1, #512	; 0x200
    1cc0:	9303      	str	r3, [sp, #12]
    1cc2:	48c6      	ldr	r0, [pc, #792]	; (1fdc <runCoreKernels()+0xe34>)
    1cc4:	465b      	mov	r3, fp
    1cc6:	9102      	str	r1, [sp, #8]
    1cc8:	49c5      	ldr	r1, [pc, #788]	; (1fe0 <runCoreKernels()+0xe38>)
    1cca:	e9cd 7600 	strd	r7, r6, [sp]
    1cce:	f7fe ffd9 	bl	c84 <printResult(char const*, char const*, unsigned long, unsigned long, unsigned long, unsigned long, unsigned long, unsigned long, unsigned long, char const*) [clone .constprop.0]>
    1cd2:	4bc4      	ldr	r3, [pc, #784]	; (1fe4 <runCoreKernels()+0xe3c>)
    1cd4:	f8df c318 	ldr.w	ip, [pc, #792]	; 1ff0 <runCoreKernels()+0xe48>
    1cd8:	f8cd 8024 	str.w	r8, [sp, #36]	; 0x24
    1cdc:	e9dd eb07 	ldrd	lr, fp, [sp, #28]
    1ce0:	e9cd 930a 	strd	r9, r3, [sp, #40]	; 0x28
    1ce4:	9a09      	ldr	r2, [sp, #36]	; 0x24
    1ce6:	f83c 3f02 	ldrh.w	r3, [ip, #2]!
    1cea:	f852 6f04 	ldr.w	r6, [r2, #4]!
    1cee:	f003 011f 	and.w	r1, r3, #31
    1cf2:	0ad8      	lsrs	r0, r3, #11
    1cf4:	9209      	str	r2, [sp, #36]	; 0x24
    1cf6:	45e2      	cmp	sl, ip
    1cf8:	9a0a      	ldr	r2, [sp, #40]	; 0x28
    1cfa:	fb06 f000 	mul.w	r0, r6, r0
    1cfe:	f852 7f04 	ldr.w	r7, [r2, #4]!
    1d02:	f3c0 2004 	ubfx	r0, r0, #8, #5
    1d06:	920a      	str	r2, [sp, #40]	; 0x28
    1d08:	ea4f 20c0 	mov.w	r0, r0, lsl #11
    1d0c:	9a0b      	ldr	r2, [sp, #44]	; 0x2c
    1d0e:	f852 5f04 	ldr.w	r5, [r2, #4]!
    1d12:	920b      	str	r2, [sp, #44]	; 0x2c
    1d14:	f3c3 1245 	ubfx	r2, r3, #5, #6
    1d18:	fb05 f101 	mul.w	r1, r5, r1
    1d1c:	fb07 f202 	mul.w	r2, r7, r2
    1d20:	f3c1 2104 	ubfx	r1, r1, #8, #5
    1d24:	f3c2 2205 	ubfx	r2, r2, #8, #6
    1d28:	ea41 1142 	orr.w	r1, r1, r2, lsl #5
    1d2c:	f3c3 1245 	ubfx	r2, r3, #5, #6
    1d30:	fb07 f202 	mul.w	r2, r7, r2
    1d34:	f3c2 2205 	ubfx	r2, r2, #8, #6
    1d38:	ea40 1242 	orr.w	r2, r0, r2, lsl #5
    1d3c:	ea4f 20d3 	mov.w	r0, r3, lsr #11
    1d40:	f003 031f 	and.w	r3, r3, #31
    1d44:	fb06 f000 	mul.w	r0, r6, r0
    1d48:	fb05 f303 	mul.w	r3, r5, r3
    1d4c:	ea4f 2020 	mov.w	r0, r0, asr #8
    1d50:	f3c3 2304 	ubfx	r3, r3, #8, #5
    1d54:	ea41 21c0 	orr.w	r1, r1, r0, lsl #11
    1d58:	ea42 0203 	orr.w	r2, r2, r3
    1d5c:	f82b 1f02 	strh.w	r1, [fp, #2]!
    1d60:	f82e 2f02 	strh.w	r2, [lr, #2]!
    1d64:	d1be      	bne.n	1ce4 <runCoreKernels()+0xb3c>
    1d66:	e9dd 2307 	ldrd	r2, r3, [sp, #28]
    1d6a:	f04f 0b00 	mov.w	fp, #0
    1d6e:	f833 1f02 	ldrh.w	r1, [r3, #2]!
    1d72:	f832 0f02 	ldrh.w	r0, [r2, #2]!
    1d76:	4288      	cmp	r0, r1
    1d78:	499b      	ldr	r1, [pc, #620]	; (1fe8 <runCoreKernels()+0xe40>)
    1d7a:	bf18      	it	ne
    1d7c:	f10b 0b01 	addne.w	fp, fp, #1
    1d80:	4299      	cmp	r1, r3
    1d82:	d1f4      	bne.n	1d6e <runCoreKernels()+0xbc6>
    1d84:	4b99      	ldr	r3, [pc, #612]	; (1fec <runCoreKernels()+0xe44>)
    1d86:	f44f 7500 	mov.w	r5, #512	; 0x200
    1d8a:	685b      	ldr	r3, [r3, #4]
    1d8c:	9309      	str	r3, [sp, #36]	; 0x24
    1d8e:	f004 fb5b 	bl	6448 <micros>
    1d92:	4621      	mov	r1, r4
    1d94:	900a      	str	r0, [sp, #40]	; 0x28
    1d96:	f8df c24c 	ldr.w	ip, [pc, #588]	; 1fe4 <runCoreKernels()+0xe3c>
    1d9a:	464f      	mov	r7, r9
    1d9c:	4646      	mov	r6, r8
    1d9e:	4894      	ldr	r0, [pc, #592]	; (1ff0 <runCoreKernels()+0xe48>)
    1da0:	f830 3f02 	ldrh.w	r3, [r0, #2]!
    1da4:	eb01 1141 	add.w	r1, r1, r1, lsl #5
    1da8:	f856 2f04 	ldr.w	r2, [r6, #4]!
    1dac:	0adc      	lsrs	r4, r3, #11
    1dae:	f857 ef04 	ldr.w	lr, [r7, #4]!
    1db2:	4582      	cmp	sl, r0
    1db4:	fb02 f404 	mul.w	r4, r2, r4
    1db8:	f3c3 1245 	ubfx	r2, r3, #5, #6
    1dbc:	f003 031f 	and.w	r3, r3, #31
    1dc0:	f3c4 2404 	ubfx	r4, r4, #8, #5
    1dc4:	fb0e f202 	mul.w	r2, lr, r2
    1dc8:	ea4f 24c4 	mov.w	r4, r4, lsl #11
    1dcc:	f3c2 2205 	ubfx	r2, r2, #8, #6
    1dd0:	ea44 1242 	orr.w	r2, r4, r2, lsl #5
    1dd4:	f85c 4f04 	ldr.w	r4, [ip, #4]!
    1dd8:	fb04 f303 	mul.w	r3, r4, r3
    1ddc:	f3c3 2304 	ubfx	r3, r3, #8, #5
    1de0:	ea43 0302 	orr.w	r3, r3, r2
    1de4:	ea81 0103 	eor.w	r1, r1, r3
    1de8:	d1da      	bne.n	1da0 <runCoreKernels()+0xbf8>
    1dea:	3d01      	subs	r5, #1
    1dec:	d1d3      	bne.n	1d96 <runCoreKernels()+0xbee>
    1dee:	460c      	mov	r4, r1
    1df0:	f004 fb2a 	bl	6448 <micros>
    1df4:	9b0a      	ldr	r3, [sp, #40]	; 0x28
    1df6:	4a7f      	ldr	r2, [pc, #508]	; (1ff4 <runCoreKernels()+0xe4c>)
    1df8:	1ac7      	subs	r7, r0, r3
    1dfa:	4b7c      	ldr	r3, [pc, #496]	; (1fec <runCoreKernels()+0xe44>)
    1dfc:	9807      	ldr	r0, [sp, #28]
    1dfe:	685e      	ldr	r6, [r3, #4]
    1e00:	9b09      	ldr	r3, [sp, #36]	; 0x24
    1e02:	1af6      	subs	r6, r6, r3
    1e04:	6813      	ldr	r3, [r2, #0]
    1e06:	405c      	eors	r4, r3
    1e08:	4b7b      	ldr	r3, [pc, #492]	; (1ff8 <runCoreKernels()+0xe50>)
    1e0a:	6014      	str	r4, [r2, #0]
    1e0c:	fabb f28b 	clz	r2, fp
    1e10:	4c70      	ldr	r4, [pc, #448]	; (1fd4 <runCoreKernels()+0xe2c>)
    1e12:	0952      	lsrs	r2, r2, #5
    1e14:	f830 1f02 	ldrh.w	r1, [r0, #2]!
    1e18:	404b      	eors	r3, r1
    1e1a:	496f      	ldr	r1, [pc, #444]	; (1fd8 <runCoreKernels()+0xe30>)
    1e1c:	4281      	cmp	r1, r0
    1e1e:	fb04 f303 	mul.w	r3, r4, r3
    1e22:	d1f7      	bne.n	1e14 <runCoreKernels()+0xc6c>
    1e24:	f44f 7100 	mov.w	r1, #512	; 0x200
    1e28:	486c      	ldr	r0, [pc, #432]	; (1fdc <runCoreKernels()+0xe34>)
    1e2a:	9303      	str	r3, [sp, #12]
    1e2c:	465b      	mov	r3, fp
    1e2e:	9102      	str	r1, [sp, #8]
    1e30:	f647 38ef 	movw	r8, #31727	; 0x7bef
    1e34:	4971      	ldr	r1, [pc, #452]	; (1ffc <runCoreKernels()+0xe54>)
    1e36:	4c6e      	ldr	r4, [pc, #440]	; (1ff0 <runCoreKernels()+0xe48>)
    1e38:	e9cd 7600 	strd	r7, r6, [sp]
    1e3c:	f7fe ff22 	bl	c84 <printResult(char const*, char const*, unsigned long, unsigned long, unsigned long, unsigned long, unsigned long, unsigned long, unsigned long, char const*) [clone .constprop.0]>
    1e40:	4867      	ldr	r0, [pc, #412]	; (1fe0 <runCoreKernels()+0xe38>)
    1e42:	f7fe ffa1 	bl	d88 <void runMean2<Mean2Packed>(char const*)>
    1e46:	486e      	ldr	r0, [pc, #440]	; (2000 <runCoreKernels()+0xe58>)
    1e48:	f7fe ff9e 	bl	d88 <void runMean2<Mean2Packed>(char const*)>
    1e4c:	f8df e1b4 	ldr.w	lr, [pc, #436]	; 2004 <runCoreKernels()+0xe5c>
    1e50:	e9dd 7c07 	ldrd	r7, ip, [sp, #28]
    1e54:	f83e 2f02 	ldrh.w	r2, [lr, #2]!
    1e58:	f834 1f02 	ldrh.w	r1, [r4, #2]!
    1e5c:	0ad3      	lsrs	r3, r2, #11
    1e5e:	f3c2 1645 	ubfx	r6, r2, #5, #6
    1e62:	f3c1 1045 	ubfx	r0, r1, #5, #6
    1e66:	45a2      	cmp	sl, r4
    1e68:	eb03 23d1 	add.w	r3, r3, r1, lsr #11
    1e6c:	4430      	add	r0, r6
    1e6e:	ea81 0602 	eor.w	r6, r1, r2
    1e72:	ea4f 0363 	mov.w	r3, r3, asr #1
    1e76:	ea4f 0060 	mov.w	r0, r0, asr #1
    1e7a:	ea4f 23c3 	mov.w	r3, r3, lsl #11
    1e7e:	ea08 0656 	and.w	r6, r8, r6, lsr #1
    1e82:	ea43 1340 	orr.w	r3, r3, r0, lsl #5
    1e86:	f001 001f 	and.w	r0, r1, #31
    1e8a:	ea01 0102 	and.w	r1, r1, r2
    1e8e:	f002 021f 	and.w	r2, r2, #31
    1e92:	4410      	add	r0, r2
    1e94:	4431      	add	r1, r6
    1e96:	ea43 0350 	orr.w	r3, r3, r0, lsr #1
    1e9a:	f82c 1f02 	strh.w	r1, [ip, #2]!
    1e9e:	f827 3f02 	strh.w	r3, [r7, #2]!
    1ea2:	d1d7      	bne.n	1e54 <runCoreKernels()+0xcac>
    1ea4:	e9dd 2307 	ldrd	r2, r3, [sp, #28]
    1ea8:	f04f 0800 	mov.w	r8, #0
    1eac:	f833 1f02 	ldrh.w	r1, [r3, #2]!
    1eb0:	f832 0f02 	ldrh.w	r0, [r2, #2]!
    1eb4:	4288      	cmp	r0, r1
    1eb6:	494c      	ldr	r1, [pc, #304]	; (1fe8 <runCoreKernels()+0xe40>)
    1eb8:	bf18      	it	ne
    1eba:	f108 0801 	addne.w	r8, r8, #1
    1ebe:	4299      	cmp	r1, r3
    1ec0:	d1f4      	bne.n	1eac <runCoreKernels()+0xd04>
    1ec2:	4b4a      	ldr	r3, [pc, #296]	; (1fec <runCoreKernels()+0xe44>)
    1ec4:	f44f 7600 	mov.w	r6, #512	; 0x200
    1ec8:	f8d3 b004 	ldr.w	fp, [r3, #4]
    1ecc:	f004 fabc 	bl	6448 <micros>
    1ed0:	4629      	mov	r1, r5
    1ed2:	4681      	mov	r9, r0
    1ed4:	4c4b      	ldr	r4, [pc, #300]	; (2004 <runCoreKernels()+0xe5c>)
    1ed6:	4846      	ldr	r0, [pc, #280]	; (1ff0 <runCoreKernels()+0xe48>)
    1ed8:	f834 7f02 	ldrh.w	r7, [r4, #2]!
    1edc:	eb01 1141 	add.w	r1, r1, r1, lsl #5
    1ee0:	f830 2f02 	ldrh.w	r2, [r0, #2]!
    1ee4:	0afb      	lsrs	r3, r7, #11
    1ee6:	f3c2 1545 	ubfx	r5, r2, #5, #6
    1eea:	f002 0c1f 	and.w	ip, r2, #31
    1eee:	eb03 23d2 	add.w	r3, r3, r2, lsr #11
    1ef2:	f3c7 1245 	ubfx	r2, r7, #5, #6
    1ef6:	f007 071f 	and.w	r7, r7, #31
    1efa:	4582      	cmp	sl, r0
    1efc:	442a      	add	r2, r5
    1efe:	ea4f 0363 	mov.w	r3, r3, asr #1
    1f02:	eb0c 0507 	add.w	r5, ip, r7
    1f06:	ea4f 23c3 	mov.w	r3, r3, lsl #11
    1f0a:	ea4f 0262 	mov.w	r2, r2, asr #1
    1f0e:	ea43 1342 	orr.w	r3, r3, r2, lsl #5
    1f12:	ea43 0355 	orr.w	r3, r3, r5, lsr #1
    1f16:	b29b      	uxth	r3, r3
    1f18:	ea81 0103 	eor.w	r1, r1, r3
    1f1c:	d1dc      	bne.n	1ed8 <runCoreKernels()+0xd30>
    1f1e:	3e01      	subs	r6, #1
    1f20:	d1d8      	bne.n	1ed4 <runCoreKernels()+0xd2c>
    1f22:	460d      	mov	r5, r1
    1f24:	f004 fa90 	bl	6448 <micros>
    1f28:	4a32      	ldr	r2, [pc, #200]	; (1ff4 <runCoreKernels()+0xe4c>)
    1f2a:	eba0 0909 	sub.w	r9, r0, r9
    1f2e:	4b2f      	ldr	r3, [pc, #188]	; (1fec <runCoreKernels()+0xe44>)
    1f30:	9807      	ldr	r0, [sp, #28]
    1f32:	685f      	ldr	r7, [r3, #4]
    1f34:	6813      	ldr	r3, [r2, #0]
    1f36:	eba7 070b 	sub.w	r7, r7, fp
    1f3a:	4c26      	ldr	r4, [pc, #152]	; (1fd4 <runCoreKernels()+0xe2c>)
    1f3c:	405d      	eors	r5, r3
    1f3e:	4b2e      	ldr	r3, [pc, #184]	; (1ff8 <runCoreKernels()+0xe50>)
    1f40:	6015      	str	r5, [r2, #0]
    1f42:	fab8 f288 	clz	r2, r8
    1f46:	0952      	lsrs	r2, r2, #5
    1f48:	f830 1f02 	ldrh.w	r1, [r0, #2]!
    1f4c:	404b      	eors	r3, r1
    1f4e:	4922      	ldr	r1, [pc, #136]	; (1fd8 <runCoreKernels()+0xe30>)
    1f50:	4281      	cmp	r1, r0
    1f52:	fb04 f303 	mul.w	r3, r4, r3
    1f56:	d1f7      	bne.n	1f48 <runCoreKernels()+0xda0>
    1f58:	f44f 7100 	mov.w	r1, #512	; 0x200
    1f5c:	9303      	str	r3, [sp, #12]
    1f5e:	482a      	ldr	r0, [pc, #168]	; (2008 <runCoreKernels()+0xe60>)
    1f60:	4643      	mov	r3, r8
    1f62:	9102      	str	r1, [sp, #8]
    1f64:	4929      	ldr	r1, [pc, #164]	; (200c <runCoreKernels()+0xe64>)
    1f66:	e9cd 9700 	strd	r9, r7, [sp]
    1f6a:	f7fe fe8b 	bl	c84 <printResult(char const*, char const*, unsigned long, unsigned long, unsigned long, unsigned long, unsigned long, unsigned long, unsigned long, char const*) [clone .constprop.0]>
    1f6e:	f8df c094 	ldr.w	ip, [pc, #148]	; 2004 <runCoreKernels()+0xe5c>
    1f72:	491f      	ldr	r1, [pc, #124]	; (1ff0 <runCoreKernels()+0xe48>)
    1f74:	f647 3eef 	movw	lr, #31727	; 0x7bef
    1f78:	e9dd 4707 	ldrd	r4, r7, [sp, #28]
    1f7c:	f831 3f02 	ldrh.w	r3, [r1, #2]!
    1f80:	f83c 0f02 	ldrh.w	r0, [ip, #2]!
    1f84:	ea83 0200 	eor.w	r2, r3, r0
    1f88:	ea03 0500 	and.w	r5, r3, r0
    1f8c:	ea0e 0252 	and.w	r2, lr, r2, lsr #1
    1f90:	442a      	add	r2, r5
    1f92:	f827 2f02 	strh.w	r2, [r7, #2]!
    1f96:	fa93 f360 	uhadd16	r3, r3, r0
    1f9a:	458a      	cmp	sl, r1
    1f9c:	f824 3f02 	strh.w	r3, [r4, #2]!
    1fa0:	d1ec      	bne.n	1f7c <runCoreKernels()+0xdd4>
    1fa2:	e9dd 2307 	ldrd	r2, r3, [sp, #28]
    1fa6:	2500      	movs	r5, #0
    1fa8:	f833 1f02 	ldrh.w	r1, [r3, #2]!
    1fac:	f832 0f02 	ldrh.w	r0, [r2, #2]!
    1fb0:	4288      	cmp	r0, r1
    1fb2:	490d      	ldr	r1, [pc, #52]	; (1fe8 <runCoreKernels()+0xe40>)
    1fb4:	bf18      	it	ne
    1fb6:	3501      	addne	r5, #1
    1fb8:	4299      	cmp	r1, r3
    1fba:	d1f5      	bne.n	1fa8 <runCoreKernels()+0xe00>
    1fbc:	4b0b      	ldr	r3, [pc, #44]	; (1fec <runCoreKernels()+0xe44>)
    1fbe:	f44f 7400 	mov.w	r4, #512	; 0x200
    1fc2:	f8d3 8004 	ldr.w	r8, [r3, #4]
    1fc6:	f004 fa3f 	bl	6448 <micros>
    1fca:	4607      	mov	r7, r0
    1fcc:	490d      	ldr	r1, [pc, #52]	; (2004 <runCoreKernels()+0xe5c>)
    1fce:	4a08      	ldr	r2, [pc, #32]	; (1ff0 <runCoreKernels()+0xe48>)
    1fd0:	e01e      	b.n	2010 <runCoreKernels()+0xe68>
    1fd2:	bf00      	nop
    1fd4:	01000193 	.word	0x01000193
    1fd8:	20006516 	.word	0x20006516
    1fdc:	200004e0 	.word	0x200004e0
    1fe0:	20000494 	.word	0x20000494
    1fe4:	200048e4 	.word	0x200048e4
    1fe8:	2000691e 	.word	0x2000691e
    1fec:	e0001000 	.word	0xe0001000
    1ff0:	20001886 	.word	0x20001886
    1ff4:	20007138 	.word	0x20007138
    1ff8:	811c9dc5 	.word	0x811c9dc5
    1ffc:	200004d4 	.word	0x200004d4
    2000:	200004f0 	.word	0x200004f0
    2004:	20001c8e 	.word	0x20001c8e
    2008:	20000418 	.word	0x20000418
    200c:	200003b8 	.word	0x200003b8
    2010:	eb06 1646 	add.w	r6, r6, r6, lsl #5
    2014:	f832 3f02 	ldrh.w	r3, [r2, #2]!
    2018:	f831 0f02 	ldrh.w	r0, [r1, #2]!
    201c:	fa93 f360 	uhadd16	r3, r3, r0
    2020:	b29b      	uxth	r3, r3
    2022:	4592      	cmp	sl, r2
    2024:	ea86 0603 	eor.w	r6, r6, r3
    2028:	d1f2      	bne.n	2010 <runCoreKernels()+0xe68>
    202a:	3c01      	subs	r4, #1
    202c:	d1ce      	bne.n	1fcc <runCoreKernels()+0xe24>
    202e:	f004 fa0b 	bl	6448 <micros>
    2032:	4ab7      	ldr	r2, [pc, #732]	; (2310 <runCoreKernels()+0x1168>)
    2034:	4bb7      	ldr	r3, [pc, #732]	; (2314 <runCoreKernels()+0x116c>)
    2036:	eba0 0c07 	sub.w	ip, r0, r7
    203a:	9807      	ldr	r0, [sp, #28]
    203c:	685f      	ldr	r7, [r3, #4]
    203e:	6813      	ldr	r3, [r2, #0]
    2040:	eba7 0708 	sub.w	r7, r7, r8
    2044:	405e      	eors	r6, r3
    2046:	4bb4      	ldr	r3, [pc, #720]	; (2318 <runCoreKernels()+0x1170>)
    2048:	6016      	str	r6, [r2, #0]
    204a:	fab5 f285 	clz	r2, r5
    204e:	4eb3      	ldr	r6, [pc, #716]	; (231c <runCoreKernels()+0x1174>)
    2050:	0952      	lsrs	r2, r2, #5
    2052:	f830 1f02 	ldrh.w	r1, [r0, #2]!
    2056:	404b      	eors	r3, r1
    2058:	49b1      	ldr	r1, [pc, #708]	; (2320 <runCoreKernels()+0x1178>)
    205a:	4281      	cmp	r1, r0
    205c:	fb06 f303 	mul.w	r3, r6, r3
    2060:	d1f7      	bne.n	2052 <runCoreKernels()+0xeaa>
    2062:	f44f 7100 	mov.w	r1, #512	; 0x200
    2066:	9303      	str	r3, [sp, #12]
    2068:	48ae      	ldr	r0, [pc, #696]	; (2324 <runCoreKernels()+0x117c>)
    206a:	462b      	mov	r3, r5
    206c:	9102      	str	r1, [sp, #8]
    206e:	49ae      	ldr	r1, [pc, #696]	; (2328 <runCoreKernels()+0x1180>)
    2070:	f8df 82c0 	ldr.w	r8, [pc, #704]	; 2334 <runCoreKernels()+0x118c>
    2074:	f8df 92c0 	ldr.w	r9, [pc, #704]	; 2338 <runCoreKernels()+0x1190>
    2078:	f8df b2c0 	ldr.w	fp, [pc, #704]	; 233c <runCoreKernels()+0x1194>
    207c:	4dab      	ldr	r5, [pc, #684]	; (232c <runCoreKernels()+0x1184>)
    207e:	e9cd c700 	strd	ip, r7, [sp]
    2082:	e9dd 6707 	ldrd	r6, r7, [sp, #28]
    2086:	f7fe fdfd 	bl	c84 <printResult(char const*, char const*, unsigned long, unsigned long, unsigned long, unsigned long, unsigned long, unsigned long, unsigned long, char const*) [clone .constprop.0]>
    208a:	f835 0f02 	ldrh.w	r0, [r5, #2]!
    208e:	f838 3f02 	ldrh.w	r3, [r8, #2]!
    2092:	f839 2f02 	ldrh.w	r2, [r9, #2]!
    2096:	f83b 1f02 	ldrh.w	r1, [fp, #2]!
    209a:	f7fd ffe5 	bl	68 <refMean4(unsigned short, unsigned short, unsigned short, unsigned short)>
    209e:	45aa      	cmp	sl, r5
    20a0:	f827 0f02 	strh.w	r0, [r7, #2]!
    20a4:	f826 0f02 	strh.w	r0, [r6, #2]!
    20a8:	d1ef      	bne.n	208a <runCoreKernels()+0xee2>
    20aa:	e9dd 2307 	ldrd	r2, r3, [sp, #28]
    20ae:	f04f 0b00 	mov.w	fp, #0
    20b2:	f833 1f02 	ldrh.w	r1, [r3, #2]!
    20b6:	f832 0f02 	ldrh.w	r0, [r2, #2]!
    20ba:	4288      	cmp	r0, r1
    20bc:	499c      	ldr	r1, [pc, #624]	; (2330 <runCoreKernels()+0x1188>)
    20be:	bf18      	it	ne
    20c0:	f10b 0b01 	addne.w	fp, fp, #1
    20c4:	4299      	cmp	r1, r3
    20c6:	d1f4      	bne.n	20b2 <runCoreKernels()+0xf0a>
    20c8:	4b92      	ldr	r3, [pc, #584]	; (2314 <runCoreKernels()+0x116c>)
    20ca:	f44f 7500 	mov.w	r5, #512	; 0x200
    20ce:	685b      	ldr	r3, [r3, #4]
    20d0:	9309      	str	r3, [sp, #36]	; 0x24
    20d2:	f004 f9b9 	bl	6448 <micros>
    20d6:	4622      	mov	r2, r4
    20d8:	900a      	str	r0, [sp, #40]	; 0x28
    20da:	4f96      	ldr	r7, [pc, #600]	; (2334 <runCoreKernels()+0x118c>)
    20dc:	4e96      	ldr	r6, [pc, #600]	; (2338 <runCoreKernels()+0x1190>)
    20de:	4897      	ldr	r0, [pc, #604]	; (233c <runCoreKernels()+0x1194>)
    20e0:	4992      	ldr	r1, [pc, #584]	; (232c <runCoreKernels()+0x1184>)
    20e2:	f831 3f02 	ldrh.w	r3, [r1, #2]!
    20e6:	eb02 1242 	add.w	r2, r2, r2, lsl #5
    20ea:	f830 ef02 	ldrh.w	lr, [r0, #2]!
    20ee:	f003 091f 	and.w	r9, r3, #31
    20f2:	f836 8f02 	ldrh.w	r8, [r6, #2]!
    20f6:	f00e 0c1f 	and.w	ip, lr, #31
    20fa:	f3ce 1445 	ubfx	r4, lr, #5, #6
    20fe:	458a      	cmp	sl, r1
    2100:	44e1      	add	r9, ip
    2102:	f3c3 1c45 	ubfx	ip, r3, #5, #6
    2106:	44a4      	add	ip, r4
    2108:	f3c3 24c4 	ubfx	r4, r3, #11, #5
    210c:	f008 031f 	and.w	r3, r8, #31
    2110:	eb04 24de 	add.w	r4, r4, lr, lsr #11
    2114:	f837 ef02 	ldrh.w	lr, [r7, #2]!
    2118:	444b      	add	r3, r9
    211a:	eb04 24d8 	add.w	r4, r4, r8, lsr #11
    211e:	f3c8 1845 	ubfx	r8, r8, #5, #6
    2122:	eb04 24de 	add.w	r4, r4, lr, lsr #11
    2126:	44c4      	add	ip, r8
    2128:	f3ce 1845 	ubfx	r8, lr, #5, #6
    212c:	f00e 0e1f 	and.w	lr, lr, #31
    2130:	ea4f 04a4 	mov.w	r4, r4, asr #2
    2134:	44c4      	add	ip, r8
    2136:	4473      	add	r3, lr
    2138:	ea4f 0cac 	mov.w	ip, ip, asr #2
    213c:	ea4f 03a3 	mov.w	r3, r3, asr #2
    2140:	ea43 134c 	orr.w	r3, r3, ip, lsl #5
    2144:	ea43 23c4 	orr.w	r3, r3, r4, lsl #11
    2148:	b29b      	uxth	r3, r3
    214a:	ea82 0203 	eor.w	r2, r2, r3
    214e:	d1c8      	bne.n	20e2 <runCoreKernels()+0xf3a>
    2150:	3d01      	subs	r5, #1
    2152:	d1c2      	bne.n	20da <runCoreKernels()+0xf32>
    2154:	4614      	mov	r4, r2
    2156:	f004 f977 	bl	6448 <micros>
    215a:	9b0a      	ldr	r3, [sp, #40]	; 0x28
    215c:	4a6c      	ldr	r2, [pc, #432]	; (2310 <runCoreKernels()+0x1168>)
    215e:	1ac7      	subs	r7, r0, r3
    2160:	4b6c      	ldr	r3, [pc, #432]	; (2314 <runCoreKernels()+0x116c>)
    2162:	9807      	ldr	r0, [sp, #28]
    2164:	685e      	ldr	r6, [r3, #4]
    2166:	9b09      	ldr	r3, [sp, #36]	; 0x24
    2168:	1af6      	subs	r6, r6, r3
    216a:	6813      	ldr	r3, [r2, #0]
    216c:	405c      	eors	r4, r3
    216e:	4b6a      	ldr	r3, [pc, #424]	; (2318 <runCoreKernels()+0x1170>)
    2170:	6014      	str	r4, [r2, #0]
    2172:	fabb f28b 	clz	r2, fp
    2176:	4c69      	ldr	r4, [pc, #420]	; (231c <runCoreKernels()+0x1174>)
    2178:	0952      	lsrs	r2, r2, #5
    217a:	f830 1f02 	ldrh.w	r1, [r0, #2]!
    217e:	404b      	eors	r3, r1
    2180:	4967      	ldr	r1, [pc, #412]	; (2320 <runCoreKernels()+0x1178>)
    2182:	4281      	cmp	r1, r0
    2184:	fb04 f303 	mul.w	r3, r4, r3
    2188:	d1f7      	bne.n	217a <runCoreKernels()+0xfd2>
    218a:	f44f 7100 	mov.w	r1, #512	; 0x200
    218e:	9303      	str	r3, [sp, #12]
    2190:	465b      	mov	r3, fp
    2192:	f8df b1a4 	ldr.w	fp, [pc, #420]	; 2338 <runCoreKernels()+0x1190>
    2196:	9102      	str	r1, [sp, #8]
    2198:	4966      	ldr	r1, [pc, #408]	; (2334 <runCoreKernels()+0x118c>)
    219a:	4869      	ldr	r0, [pc, #420]	; (2340 <runCoreKernels()+0x1198>)
    219c:	910a      	str	r1, [sp, #40]	; 0x28
    219e:	4967      	ldr	r1, [pc, #412]	; (233c <runCoreKernels()+0x1194>)
    21a0:	e9cd 7600 	strd	r7, r6, [sp]
    21a4:	4f61      	ldr	r7, [pc, #388]	; (232c <runCoreKernels()+0x1184>)
    21a6:	4e67      	ldr	r6, [pc, #412]	; (2344 <runCoreKernels()+0x119c>)
    21a8:	9109      	str	r1, [sp, #36]	; 0x24
    21aa:	4967      	ldr	r1, [pc, #412]	; (2348 <runCoreKernels()+0x11a0>)
    21ac:	e9dd 8907 	ldrd	r8, r9, [sp, #28]
    21b0:	f7fe fd68 	bl	c84 <printResult(char const*, char const*, unsigned long, unsigned long, unsigned long, unsigned long, unsigned long, unsigned long, unsigned long, char const*) [clone .constprop.0]>
    21b4:	e9cd b50b 	strd	fp, r5, [sp, #44]	; 0x2c
    21b8:	9b09      	ldr	r3, [sp, #36]	; 0x24
    21ba:	f837 4f02 	ldrh.w	r4, [r7, #2]!
    21be:	f833 1f02 	ldrh.w	r1, [r3, #2]!
    21c2:	4620      	mov	r0, r4
    21c4:	ea44 4404 	orr.w	r4, r4, r4, lsl #16
    21c8:	9309      	str	r3, [sp, #36]	; 0x24
    21ca:	9b0b      	ldr	r3, [sp, #44]	; 0x2c
    21cc:	4034      	ands	r4, r6
    21ce:	910d      	str	r1, [sp, #52]	; 0x34
    21d0:	f833 bf02 	ldrh.w	fp, [r3, #2]!
    21d4:	930b      	str	r3, [sp, #44]	; 0x2c
    21d6:	465a      	mov	r2, fp
    21d8:	9b0a      	ldr	r3, [sp, #40]	; 0x28
    21da:	ea4b 4b0b 	orr.w	fp, fp, fp, lsl #16
    21de:	f833 5f02 	ldrh.w	r5, [r3, #2]!
    21e2:	ea0b 0b06 	and.w	fp, fp, r6
    21e6:	930a      	str	r3, [sp, #40]	; 0x28
    21e8:	462b      	mov	r3, r5
    21ea:	f7fd ff3d 	bl	68 <refMean4(unsigned short, unsigned short, unsigned short, unsigned short)>
    21ee:	990d      	ldr	r1, [sp, #52]	; 0x34
    21f0:	ea45 4505 	orr.w	r5, r5, r5, lsl #16
    21f4:	45ba      	cmp	sl, r7
    21f6:	ea41 4101 	orr.w	r1, r1, r1, lsl #16
    21fa:	f829 0f02 	strh.w	r0, [r9, #2]!
    21fe:	ea05 0206 	and.w	r2, r5, r6
    2202:	ea01 0106 	and.w	r1, r1, r6
    2206:	440c      	add	r4, r1
    2208:	eb04 030b 	add.w	r3, r4, fp
    220c:	4413      	add	r3, r2
    220e:	ea06 0393 	and.w	r3, r6, r3, lsr #2
    2212:	ea43 4313 	orr.w	r3, r3, r3, lsr #16
    2216:	f828 3f02 	strh.w	r3, [r8, #2]!
    221a:	d1cd      	bne.n	21b8 <runCoreKernels()+0x1010>
    221c:	9d0c      	ldr	r5, [sp, #48]	; 0x30
    221e:	f04f 0900 	mov.w	r9, #0
    2222:	e9dd 2307 	ldrd	r2, r3, [sp, #28]
    2226:	f833 1f02 	ldrh.w	r1, [r3, #2]!
    222a:	f832 0f02 	ldrh.w	r0, [r2, #2]!
    222e:	4288      	cmp	r0, r1
    2230:	493f      	ldr	r1, [pc, #252]	; (2330 <runCoreKernels()+0x1188>)
    2232:	bf18      	it	ne
    2234:	f109 0901 	addne.w	r9, r9, #1
    2238:	4299      	cmp	r1, r3
    223a:	d1f4      	bne.n	2226 <runCoreKernels()+0x107e>
    223c:	4b35      	ldr	r3, [pc, #212]	; (2314 <runCoreKernels()+0x116c>)
    223e:	f44f 7800 	mov.w	r8, #512	; 0x200
    2242:	685b      	ldr	r3, [r3, #4]
    2244:	9309      	str	r3, [sp, #36]	; 0x24
    2246:	f004 f8ff 	bl	6448 <micros>
    224a:	4a3e      	ldr	r2, [pc, #248]	; (2344 <runCoreKernels()+0x119c>)
    224c:	4683      	mov	fp, r0
    224e:	4629      	mov	r1, r5
    2250:	4f38      	ldr	r7, [pc, #224]	; (2334 <runCoreKernels()+0x118c>)
    2252:	4e39      	ldr	r6, [pc, #228]	; (2338 <runCoreKernels()+0x1190>)
    2254:	4c39      	ldr	r4, [pc, #228]	; (233c <runCoreKernels()+0x1194>)
    2256:	4835      	ldr	r0, [pc, #212]	; (232c <runCoreKernels()+0x1184>)
    2258:	f830 3f02 	ldrh.w	r3, [r0, #2]!
    225c:	eb01 1141 	add.w	r1, r1, r1, lsl #5
    2260:	f834 5f02 	ldrh.w	r5, [r4, #2]!
    2264:	ea43 4303 	orr.w	r3, r3, r3, lsl #16
    2268:	4582      	cmp	sl, r0
    226a:	ea45 4505 	orr.w	r5, r5, r5, lsl #16
    226e:	ea03 0302 	and.w	r3, r3, r2
    2272:	ea05 0502 	and.w	r5, r5, r2
    2276:	442b      	add	r3, r5
    2278:	f836 5f02 	ldrh.w	r5, [r6, #2]!
    227c:	ea45 4505 	orr.w	r5, r5, r5, lsl #16
    2280:	ea05 0502 	and.w	r5, r5, r2
    2284:	442b      	add	r3, r5
    2286:	f837 5f02 	ldrh.w	r5, [r7, #2]!
    228a:	ea45 4505 	orr.w	r5, r5, r5, lsl #16
    228e:	ea05 0502 	and.w	r5, r5, r2
    2292:	442b      	add	r3, r5
    2294:	ea02 0393 	and.w	r3, r2, r3, lsr #2
    2298:	ea43 4313 	orr.w	r3, r3, r3, lsr #16
    229c:	b29b      	uxth	r3, r3
    229e:	ea81 0103 	eor.w	r1, r1, r3
    22a2:	d1d9      	bne.n	2258 <runCoreKernels()+0x10b0>
    22a4:	f1b8 0801 	subs.w	r8, r8, #1
    22a8:	d1d2      	bne.n	2250 <runCoreKernels()+0x10a8>
    22aa:	460d      	mov	r5, r1
    22ac:	f004 f8cc 	bl	6448 <micros>
    22b0:	4b18      	ldr	r3, [pc, #96]	; (2314 <runCoreKernels()+0x116c>)
    22b2:	eba0 070b 	sub.w	r7, r0, fp
    22b6:	4a16      	ldr	r2, [pc, #88]	; (2310 <runCoreKernels()+0x1168>)
    22b8:	685e      	ldr	r6, [r3, #4]
    22ba:	9b09      	ldr	r3, [sp, #36]	; 0x24
    22bc:	9807      	ldr	r0, [sp, #28]
    22be:	1af6      	subs	r6, r6, r3
    22c0:	6813      	ldr	r3, [r2, #0]
    22c2:	4c16      	ldr	r4, [pc, #88]	; (231c <runCoreKernels()+0x1174>)
    22c4:	405d      	eors	r5, r3
    22c6:	4b14      	ldr	r3, [pc, #80]	; (2318 <runCoreKernels()+0x1170>)
    22c8:	6015      	str	r5, [r2, #0]
    22ca:	fab9 f289 	clz	r2, r9
    22ce:	0952      	lsrs	r2, r2, #5
    22d0:	f830 1f02 	ldrh.w	r1, [r0, #2]!
    22d4:	404b      	eors	r3, r1
    22d6:	4912      	ldr	r1, [pc, #72]	; (2320 <runCoreKernels()+0x1178>)
    22d8:	4281      	cmp	r1, r0
    22da:	fb04 f303 	mul.w	r3, r4, r3
    22de:	d1f7      	bne.n	22d0 <runCoreKernels()+0x1128>
    22e0:	f44f 7100 	mov.w	r1, #512	; 0x200
    22e4:	9303      	str	r3, [sp, #12]
    22e6:	4816      	ldr	r0, [pc, #88]	; (2340 <runCoreKernels()+0x1198>)
    22e8:	464b      	mov	r3, r9
    22ea:	9102      	str	r1, [sp, #8]
    22ec:	4917      	ldr	r1, [pc, #92]	; (234c <runCoreKernels()+0x11a4>)
    22ee:	f8df 903c 	ldr.w	r9, [pc, #60]	; 232c <runCoreKernels()+0x1184>
    22f2:	e9cd 7600 	strd	r7, r6, [sp]
    22f6:	f7fe fcc5 	bl	c84 <printResult(char const*, char const*, unsigned long, unsigned long, unsigned long, unsigned long, unsigned long, unsigned long, unsigned long, char const*) [clone .constprop.0]>
    22fa:	4a0e      	ldr	r2, [pc, #56]	; (2334 <runCoreKernels()+0x118c>)
    22fc:	e9dd 3b07 	ldrd	r3, fp, [sp, #28]
    2300:	920b      	str	r2, [sp, #44]	; 0x2c
    2302:	4a0d      	ldr	r2, [pc, #52]	; (2338 <runCoreKernels()+0x1190>)
    2304:	469c      	mov	ip, r3
    2306:	920a      	str	r2, [sp, #40]	; 0x28
    2308:	4a0c      	ldr	r2, [pc, #48]	; (233c <runCoreKernels()+0x1194>)
    230a:	9209      	str	r2, [sp, #36]	; 0x24
    230c:	e020      	b.n	2350 <runCoreKernels()+0x11a8>
    230e:	bf00      	nop
    2310:	20007138 	.word	0x20007138
    2314:	e0001000 	.word	0xe0001000
    2318:	811c9dc5 	.word	0x811c9dc5
    231c:	01000193 	.word	0x01000193
    2320:	20006516 	.word	0x20006516
    2324:	20000418 	.word	0x20000418
    2328:	20000500 	.word	0x20000500
    232c:	20001886 	.word	0x20001886
    2330:	2000691e 	.word	0x2000691e
    2334:	2000249e 	.word	0x2000249e
    2338:	20002096 	.word	0x20002096
    233c:	20001c8e 	.word	0x20001c8e
    2340:	20000514 	.word	0x20000514
    2344:	07e0f81f 	.word	0x07e0f81f
    2348:	20000494 	.word	0x20000494
    234c:	20000520 	.word	0x20000520
    2350:	9b09      	ldr	r3, [sp, #36]	; 0x24
    2352:	f839 1f02 	ldrh.w	r1, [r9, #2]!
    2356:	f833 0f02 	ldrh.w	r0, [r3, #2]!
    235a:	f001 0e1f 	and.w	lr, r1, #31
    235e:	f3c1 1745 	ubfx	r7, r1, #5, #6
    2362:	9309      	str	r3, [sp, #36]	; 0x24
    2364:	f000 041f 	and.w	r4, r0, #31
    2368:	9b0a      	ldr	r3, [sp, #40]	; 0x28
    236a:	45ca      	cmp	sl, r9
    236c:	44a6      	add	lr, r4
    236e:	f3c0 1445 	ubfx	r4, r0, #5, #6
    2372:	f833 2f02 	ldrh.w	r2, [r3, #2]!
    2376:	4427      	add	r7, r4
    2378:	ea4f 24d0 	mov.w	r4, r0, lsr #11
    237c:	930a      	str	r3, [sp, #40]	; 0x28
    237e:	9b0b      	ldr	r3, [sp, #44]	; 0x2c
    2380:	eb04 24d1 	add.w	r4, r4, r1, lsr #11
    2384:	f833 5f02 	ldrh.w	r5, [r3, #2]!
    2388:	eb04 24d2 	add.w	r4, r4, r2, lsr #11
    238c:	930b      	str	r3, [sp, #44]	; 0x2c
    238e:	ea4f 23d0 	mov.w	r3, r0, lsr #11
    2392:	f005 061f 	and.w	r6, r5, #31
    2396:	f3c5 1045 	ubfx	r0, r5, #5, #6
    239a:	eb03 23d1 	add.w	r3, r3, r1, lsr #11
    239e:	f002 011f 	and.w	r1, r2, #31
    23a2:	eb04 24d5 	add.w	r4, r4, r5, lsr #11
    23a6:	4471      	add	r1, lr
    23a8:	eb03 23d2 	add.w	r3, r3, r2, lsr #11
    23ac:	f3c2 1e45 	ubfx	lr, r2, #5, #6
    23b0:	ea4f 04a4 	mov.w	r4, r4, asr #2
    23b4:	eb03 23d5 	add.w	r3, r3, r5, lsr #11
    23b8:	460a      	mov	r2, r1
    23ba:	44be      	add	lr, r7
    23bc:	4431      	add	r1, r6
    23be:	ea4f 03a3 	mov.w	r3, r3, asr #2
    23c2:	4432      	add	r2, r6
    23c4:	4470      	add	r0, lr
    23c6:	ea4f 01a1 	mov.w	r1, r1, asr #2
    23ca:	ea4f 23c3 	mov.w	r3, r3, lsl #11
    23ce:	ea4f 00a0 	mov.w	r0, r0, asr #2
    23d2:	ea41 1140 	orr.w	r1, r1, r0, lsl #5
    23d6:	ea43 1340 	orr.w	r3, r3, r0, lsl #5
    23da:	ea41 21c4 	orr.w	r1, r1, r4, lsl #11
    23de:	ea43 0392 	orr.w	r3, r3, r2, lsr #2
    23e2:	f82b 1f02 	strh.w	r1, [fp, #2]!
    23e6:	f82c 3f02 	strh.w	r3, [ip, #2]!
    23ea:	d1b1      	bne.n	2350 <runCoreKernels()+0x11a8>
    23ec:	e9dd 2307 	ldrd	r2, r3, [sp, #28]
    23f0:	f04f 0b00 	mov.w	fp, #0
    23f4:	f833 1f02 	ldrh.w	r1, [r3, #2]!
    23f8:	f832 0f02 	ldrh.w	r0, [r2, #2]!
    23fc:	4288      	cmp	r0, r1
    23fe:	49c0      	ldr	r1, [pc, #768]	; (2700 <runCoreKernels()+0x1558>)
    2400:	bf18      	it	ne
    2402:	f10b 0b01 	addne.w	fp, fp, #1
    2406:	4299      	cmp	r1, r3
    2408:	d1f4      	bne.n	23f4 <runCoreKernels()+0x124c>
    240a:	4bbe      	ldr	r3, [pc, #760]	; (2704 <runCoreKernels()+0x155c>)
    240c:	f44f 7400 	mov.w	r4, #512	; 0x200
    2410:	685b      	ldr	r3, [r3, #4]
    2412:	9309      	str	r3, [sp, #36]	; 0x24
    2414:	f004 f818 	bl	6448 <micros>
    2418:	4641      	mov	r1, r8
    241a:	900a      	str	r0, [sp, #40]	; 0x28
    241c:	4fba      	ldr	r7, [pc, #744]	; (2708 <runCoreKernels()+0x1560>)
    241e:	4ebb      	ldr	r6, [pc, #748]	; (270c <runCoreKernels()+0x1564>)
    2420:	4dbb      	ldr	r5, [pc, #748]	; (2710 <runCoreKernels()+0x1568>)
    2422:	48bc      	ldr	r0, [pc, #752]	; (2714 <runCoreKernels()+0x156c>)
    2424:	f835 cf02 	ldrh.w	ip, [r5, #2]!
    2428:	eb01 1141 	add.w	r1, r1, r1, lsl #5
    242c:	f830 8f02 	ldrh.w	r8, [r0, #2]!
    2430:	ea4f 22dc 	mov.w	r2, ip, lsr #11
    2434:	f836 3f02 	ldrh.w	r3, [r6, #2]!
    2438:	f3cc 1945 	ubfx	r9, ip, #5, #6
    243c:	f3c8 1e45 	ubfx	lr, r8, #5, #6
    2440:	eb02 22d8 	add.w	r2, r2, r8, lsr #11
    2444:	f00c 0c1f 	and.w	ip, ip, #31
    2448:	f008 081f 	and.w	r8, r8, #31
    244c:	44ce      	add	lr, r9
    244e:	eb02 22d3 	add.w	r2, r2, r3, lsr #11
    2452:	f3c3 1945 	ubfx	r9, r3, #5, #6
    2456:	44e0      	add	r8, ip
    2458:	f837 cf02 	ldrh.w	ip, [r7, #2]!
    245c:	44f1      	add	r9, lr
    245e:	f003 0e1f 	and.w	lr, r3, #31
    2462:	eb02 22dc 	add.w	r2, r2, ip, lsr #11
    2466:	f3cc 1345 	ubfx	r3, ip, #5, #6
    246a:	44c6      	add	lr, r8
    246c:	f00c 0c1f 	and.w	ip, ip, #31
    2470:	1092      	asrs	r2, r2, #2
    2472:	444b      	add	r3, r9
    2474:	44f4      	add	ip, lr
    2476:	4582      	cmp	sl, r0
    2478:	ea4f 22c2 	mov.w	r2, r2, lsl #11
    247c:	ea4f 03a3 	mov.w	r3, r3, asr #2
    2480:	ea42 1343 	orr.w	r3, r2, r3, lsl #5
    2484:	ea43 039c 	orr.w	r3, r3, ip, lsr #2
    2488:	b29b      	uxth	r3, r3
    248a:	ea81 0103 	eor.w	r1, r1, r3
    248e:	d1c9      	bne.n	2424 <runCoreKernels()+0x127c>
    2490:	3c01      	subs	r4, #1
    2492:	d1c3      	bne.n	241c <runCoreKernels()+0x1274>
    2494:	4688      	mov	r8, r1
    2496:	f003 ffd7 	bl	6448 <micros>
    249a:	9b0a      	ldr	r3, [sp, #40]	; 0x28
    249c:	4a9e      	ldr	r2, [pc, #632]	; (2718 <runCoreKernels()+0x1570>)
    249e:	1ac7      	subs	r7, r0, r3
    24a0:	4b98      	ldr	r3, [pc, #608]	; (2704 <runCoreKernels()+0x155c>)
    24a2:	9807      	ldr	r0, [sp, #28]
    24a4:	685e      	ldr	r6, [r3, #4]
    24a6:	9b09      	ldr	r3, [sp, #36]	; 0x24
    24a8:	4d9c      	ldr	r5, [pc, #624]	; (271c <runCoreKernels()+0x1574>)
    24aa:	1af6      	subs	r6, r6, r3
    24ac:	6813      	ldr	r3, [r2, #0]
    24ae:	ea88 0303 	eor.w	r3, r8, r3
    24b2:	6013      	str	r3, [r2, #0]
    24b4:	fabb f28b 	clz	r2, fp
    24b8:	4b99      	ldr	r3, [pc, #612]	; (2720 <runCoreKernels()+0x1578>)
    24ba:	0952      	lsrs	r2, r2, #5
    24bc:	f830 1f02 	ldrh.w	r1, [r0, #2]!
    24c0:	404b      	eors	r3, r1
    24c2:	4998      	ldr	r1, [pc, #608]	; (2724 <runCoreKernels()+0x157c>)
    24c4:	4281      	cmp	r1, r0
    24c6:	fb05 f303 	mul.w	r3, r5, r3
    24ca:	d1f7      	bne.n	24bc <runCoreKernels()+0x1314>
    24cc:	f44f 7100 	mov.w	r1, #512	; 0x200
    24d0:	9303      	str	r3, [sp, #12]
    24d2:	465b      	mov	r3, fp
    24d4:	f8df b234 	ldr.w	fp, [pc, #564]	; 270c <runCoreKernels()+0x1564>
    24d8:	9102      	str	r1, [sp, #8]
    24da:	498b      	ldr	r1, [pc, #556]	; (2708 <runCoreKernels()+0x1560>)
    24dc:	4892      	ldr	r0, [pc, #584]	; (2728 <runCoreKernels()+0x1580>)
    24de:	910a      	str	r1, [sp, #40]	; 0x28
    24e0:	498b      	ldr	r1, [pc, #556]	; (2710 <runCoreKernels()+0x1568>)
    24e2:	e9cd 7600 	strd	r7, r6, [sp]
    24e6:	4e8b      	ldr	r6, [pc, #556]	; (2714 <runCoreKernels()+0x156c>)
    24e8:	f647 37ef 	movw	r7, #31727	; 0x7bef
    24ec:	9109      	str	r1, [sp, #36]	; 0x24
    24ee:	498f      	ldr	r1, [pc, #572]	; (272c <runCoreKernels()+0x1584>)
    24f0:	e9dd 8907 	ldrd	r8, r9, [sp, #28]
    24f4:	f7fe fbc6 	bl	c84 <printResult(char const*, char const*, unsigned long, unsigned long, unsigned long, unsigned long, unsigned long, unsigned long, unsigned long, char const*) [clone .constprop.0]>
    24f8:	e9cd b40b 	strd	fp, r4, [sp, #44]	; 0x2c
    24fc:	9b09      	ldr	r3, [sp, #36]	; 0x24
    24fe:	f836 5f02 	ldrh.w	r5, [r6, #2]!
    2502:	f833 1f02 	ldrh.w	r1, [r3, #2]!
    2506:	4628      	mov	r0, r5
    2508:	9309      	str	r3, [sp, #36]	; 0x24
    250a:	9b0b      	ldr	r3, [sp, #44]	; 0x2c
    250c:	910d      	str	r1, [sp, #52]	; 0x34
    250e:	f833 4f02 	ldrh.w	r4, [r3, #2]!
    2512:	930b      	str	r3, [sp, #44]	; 0x2c
    2514:	4622      	mov	r2, r4
    2516:	9b0a      	ldr	r3, [sp, #40]	; 0x28
    2518:	f833 bf02 	ldrh.w	fp, [r3, #2]!
    251c:	930a      	str	r3, [sp, #40]	; 0x28
    251e:	465b      	mov	r3, fp
    2520:	f7fd fda2 	bl	68 <refMean4(unsigned short, unsigned short, unsigned short, unsigned short)>
    2524:	990d      	ldr	r1, [sp, #52]	; 0x34
    2526:	ea84 020b 	eor.w	r2, r4, fp
    252a:	ea04 040b 	and.w	r4, r4, fp
    252e:	ea85 0301 	eor.w	r3, r5, r1
    2532:	400d      	ands	r5, r1
    2534:	ea07 0252 	and.w	r2, r7, r2, lsr #1
    2538:	45b2      	cmp	sl, r6
    253a:	ea07 0353 	and.w	r3, r7, r3, lsr #1
    253e:	f829 0f02 	strh.w	r0, [r9, #2]!
    2542:	4422      	add	r2, r4
    2544:	442b      	add	r3, r5
    2546:	b292      	uxth	r2, r2
    2548:	b29b      	uxth	r3, r3
    254a:	ea83 0102 	eor.w	r1, r3, r2
    254e:	ea02 0203 	and.w	r2, r2, r3
    2552:	ea07 0351 	and.w	r3, r7, r1, lsr #1
    2556:	4413      	add	r3, r2
    2558:	f828 3f02 	strh.w	r3, [r8, #2]!
    255c:	d1ce      	bne.n	24fc <runCoreKernels()+0x1354>
    255e:	9c0c      	ldr	r4, [sp, #48]	; 0x30
    2560:	f04f 0b00 	mov.w	fp, #0
    2564:	e9dd 2307 	ldrd	r2, r3, [sp, #28]
    2568:	f833 1f02 	ldrh.w	r1, [r3, #2]!
    256c:	f832 0f02 	ldrh.w	r0, [r2, #2]!
    2570:	4288      	cmp	r0, r1
    2572:	4963      	ldr	r1, [pc, #396]	; (2700 <runCoreKernels()+0x1558>)
    2574:	bf18      	it	ne
    2576:	f10b 0b01 	addne.w	fp, fp, #1
    257a:	4299      	cmp	r1, r3
    257c:	d1f4      	bne.n	2568 <runCoreKernels()+0x13c0>
    257e:	4b61      	ldr	r3, [pc, #388]	; (2704 <runCoreKernels()+0x155c>)
    2580:	f44f 7600 	mov.w	r6, #512	; 0x200
    2584:	685b      	ldr	r3, [r3, #4]
    2586:	9309      	str	r3, [sp, #36]	; 0x24
    2588:	f003 ff5e 	bl	6448 <micros>
    258c:	4621      	mov	r1, r4
    258e:	900a      	str	r0, [sp, #40]	; 0x28
    2590:	f647 30ef 	movw	r0, #31727	; 0x7bef
    2594:	f8df e170 	ldr.w	lr, [pc, #368]	; 2708 <runCoreKernels()+0x1560>
    2598:	f8df c170 	ldr.w	ip, [pc, #368]	; 270c <runCoreKernels()+0x1564>
    259c:	4f5c      	ldr	r7, [pc, #368]	; (2710 <runCoreKernels()+0x1568>)
    259e:	4d5d      	ldr	r5, [pc, #372]	; (2714 <runCoreKernels()+0x156c>)
    25a0:	f835 2f02 	ldrh.w	r2, [r5, #2]!
    25a4:	eb01 1141 	add.w	r1, r1, r1, lsl #5
    25a8:	f837 9f02 	ldrh.w	r9, [r7, #2]!
    25ac:	f83c 4f02 	ldrh.w	r4, [ip, #2]!
    25b0:	45aa      	cmp	sl, r5
    25b2:	ea82 0309 	eor.w	r3, r2, r9
    25b6:	f83e 8f02 	ldrh.w	r8, [lr, #2]!
    25ba:	ea02 0209 	and.w	r2, r2, r9
    25be:	ea00 0353 	and.w	r3, r0, r3, lsr #1
    25c2:	4413      	add	r3, r2
    25c4:	ea84 0208 	eor.w	r2, r4, r8
    25c8:	ea04 0408 	and.w	r4, r4, r8
    25cc:	ea00 0252 	and.w	r2, r0, r2, lsr #1
    25d0:	b29b      	uxth	r3, r3
    25d2:	4422      	add	r2, r4
    25d4:	b292      	uxth	r2, r2
    25d6:	ea83 0402 	eor.w	r4, r3, r2
    25da:	ea02 0203 	and.w	r2, r2, r3
    25de:	ea00 0354 	and.w	r3, r0, r4, lsr #1
    25e2:	4413      	add	r3, r2
    25e4:	b29b      	uxth	r3, r3
    25e6:	ea81 0103 	eor.w	r1, r1, r3
    25ea:	d1d9      	bne.n	25a0 <runCoreKernels()+0x13f8>
    25ec:	3e01      	subs	r6, #1
    25ee:	d1d1      	bne.n	2594 <runCoreKernels()+0x13ec>
    25f0:	460c      	mov	r4, r1
    25f2:	f003 ff29 	bl	6448 <micros>
    25f6:	9b0a      	ldr	r3, [sp, #40]	; 0x28
    25f8:	4a47      	ldr	r2, [pc, #284]	; (2718 <runCoreKernels()+0x1570>)
    25fa:	1ac7      	subs	r7, r0, r3
    25fc:	4b41      	ldr	r3, [pc, #260]	; (2704 <runCoreKernels()+0x155c>)
    25fe:	9807      	ldr	r0, [sp, #28]
    2600:	685d      	ldr	r5, [r3, #4]
    2602:	9b09      	ldr	r3, [sp, #36]	; 0x24
    2604:	1aed      	subs	r5, r5, r3
    2606:	6813      	ldr	r3, [r2, #0]
    2608:	405c      	eors	r4, r3
    260a:	4b45      	ldr	r3, [pc, #276]	; (2720 <runCoreKernels()+0x1578>)
    260c:	6014      	str	r4, [r2, #0]
    260e:	fabb f28b 	clz	r2, fp
    2612:	4c42      	ldr	r4, [pc, #264]	; (271c <runCoreKernels()+0x1574>)
    2614:	0952      	lsrs	r2, r2, #5
    2616:	f830 1f02 	ldrh.w	r1, [r0, #2]!
    261a:	404b      	eors	r3, r1
    261c:	4941      	ldr	r1, [pc, #260]	; (2724 <runCoreKernels()+0x157c>)
    261e:	4281      	cmp	r1, r0
    2620:	fb04 f303 	mul.w	r3, r4, r3
    2624:	d1f7      	bne.n	2616 <runCoreKernels()+0x146e>
    2626:	f44f 7100 	mov.w	r1, #512	; 0x200
    262a:	9303      	str	r3, [sp, #12]
    262c:	483e      	ldr	r0, [pc, #248]	; (2728 <runCoreKernels()+0x1580>)
    262e:	465b      	mov	r3, fp
    2630:	9102      	str	r1, [sp, #8]
    2632:	493f      	ldr	r1, [pc, #252]	; (2730 <runCoreKernels()+0x1588>)
    2634:	f8df b0d4 	ldr.w	fp, [pc, #212]	; 270c <runCoreKernels()+0x1564>
    2638:	e9cd 7500 	strd	r7, r5, [sp]
    263c:	f7fe fb22 	bl	c84 <printResult(char const*, char const*, unsigned long, unsigned long, unsigned long, unsigned long, unsigned long, unsigned long, unsigned long, char const*) [clone .constprop.0]>
    2640:	4b31      	ldr	r3, [pc, #196]	; (2708 <runCoreKernels()+0x1560>)
    2642:	f8df e0d0 	ldr.w	lr, [pc, #208]	; 2714 <runCoreKernels()+0x156c>
    2646:	930a      	str	r3, [sp, #40]	; 0x28
    2648:	4b31      	ldr	r3, [pc, #196]	; (2710 <runCoreKernels()+0x1568>)
    264a:	e9dd 8907 	ldrd	r8, r9, [sp, #28]
    264e:	9309      	str	r3, [sp, #36]	; 0x24
    2650:	9b09      	ldr	r3, [sp, #36]	; 0x24
    2652:	f83e 1f02 	ldrh.w	r1, [lr, #2]!
    2656:	f833 7f02 	ldrh.w	r7, [r3, #2]!
    265a:	f83b 4f02 	ldrh.w	r4, [fp, #2]!
    265e:	f3c1 1c45 	ubfx	ip, r1, #5, #6
    2662:	9309      	str	r3, [sp, #36]	; 0x24
    2664:	f007 021f 	and.w	r2, r7, #31
    2668:	9b0a      	ldr	r3, [sp, #40]	; 0x28
    266a:	f004 001f 	and.w	r0, r4, #31
    266e:	f833 5f02 	ldrh.w	r5, [r3, #2]!
    2672:	930a      	str	r3, [sp, #40]	; 0x28
    2674:	f001 031f 	and.w	r3, r1, #31
    2678:	4413      	add	r3, r2
    267a:	f3c7 1245 	ubfx	r2, r7, #5, #6
    267e:	4403      	add	r3, r0
    2680:	4494      	add	ip, r2
    2682:	f3c4 1045 	ubfx	r0, r4, #5, #6
    2686:	0afa      	lsrs	r2, r7, #11
    2688:	4460      	add	r0, ip
    268a:	f3c5 1c45 	ubfx	ip, r5, #5, #6
    268e:	eb02 22d1 	add.w	r2, r2, r1, lsr #11
    2692:	4460      	add	r0, ip
    2694:	f005 0c1f 	and.w	ip, r5, #31
    2698:	eb02 22d4 	add.w	r2, r2, r4, lsr #11
    269c:	4463      	add	r3, ip
    269e:	1080      	asrs	r0, r0, #2
    26a0:	eb02 22d5 	add.w	r2, r2, r5, lsr #11
    26a4:	109b      	asrs	r3, r3, #2
    26a6:	1092      	asrs	r2, r2, #2
    26a8:	ea43 1340 	orr.w	r3, r3, r0, lsl #5
    26ac:	ea43 23c2 	orr.w	r3, r3, r2, lsl #11
    26b0:	f829 3f02 	strh.w	r3, [r9, #2]!
    26b4:	fa91 f367 	uhadd16	r3, r1, r7
    26b8:	fa94 f465 	uhadd16	r4, r4, r5
    26bc:	fa93 f364 	uhadd16	r3, r3, r4
    26c0:	45f2      	cmp	sl, lr
    26c2:	f828 3f02 	strh.w	r3, [r8, #2]!
    26c6:	d1c3      	bne.n	2650 <runCoreKernels()+0x14a8>
    26c8:	e9dd 2307 	ldrd	r2, r3, [sp, #28]
    26cc:	f04f 0800 	mov.w	r8, #0
    26d0:	f833 1f02 	ldrh.w	r1, [r3, #2]!
    26d4:	f832 0f02 	ldrh.w	r0, [r2, #2]!
    26d8:	4288      	cmp	r0, r1
    26da:	4909      	ldr	r1, [pc, #36]	; (2700 <runCoreKernels()+0x1558>)
    26dc:	bf18      	it	ne
    26de:	f108 0801 	addne.w	r8, r8, #1
    26e2:	4299      	cmp	r1, r3
    26e4:	d1f4      	bne.n	26d0 <runCoreKernels()+0x1528>
    26e6:	4b07      	ldr	r3, [pc, #28]	; (2704 <runCoreKernels()+0x155c>)
    26e8:	f44f 7500 	mov.w	r5, #512	; 0x200
    26ec:	f8d3 b004 	ldr.w	fp, [r3, #4]
    26f0:	f003 feaa 	bl	6448 <micros>
    26f4:	4681      	mov	r9, r0
    26f6:	4c04      	ldr	r4, [pc, #16]	; (2708 <runCoreKernels()+0x1560>)
    26f8:	4804      	ldr	r0, [pc, #16]	; (270c <runCoreKernels()+0x1564>)
    26fa:	4905      	ldr	r1, [pc, #20]	; (2710 <runCoreKernels()+0x1568>)
    26fc:	4a05      	ldr	r2, [pc, #20]	; (2714 <runCoreKernels()+0x156c>)
    26fe:	e019      	b.n	2734 <runCoreKernels()+0x158c>
    2700:	2000691e 	.word	0x2000691e
    2704:	e0001000 	.word	0xe0001000
    2708:	2000249e 	.word	0x2000249e
    270c:	20002096 	.word	0x20002096
    2710:	20001c8e 	.word	0x20001c8e
    2714:	20001886 	.word	0x20001886
    2718:	20007138 	.word	0x20007138
    271c:	01000193 	.word	0x01000193
    2720:	811c9dc5 	.word	0x811c9dc5
    2724:	20006516 	.word	0x20006516
    2728:	20000514 	.word	0x20000514
    272c:	200003b8 	.word	0x200003b8
    2730:	20000530 	.word	0x20000530
    2734:	eb06 1646 	add.w	r6, r6, r6, lsl #5
    2738:	f832 3f02 	ldrh.w	r3, [r2, #2]!
    273c:	f831 7f02 	ldrh.w	r7, [r1, #2]!
    2740:	fa93 f367 	uhadd16	r3, r3, r7
    2744:	f830 7f02 	ldrh.w	r7, [r0, #2]!
    2748:	f834 cf02 	ldrh.w	ip, [r4, #2]!
    274c:	fa97 f76c 	uhadd16	r7, r7, ip
    2750:	fa93 f367 	uhadd16	r3, r3, r7
    2754:	b29b      	uxth	r3, r3
    2756:	4592      	cmp	sl, r2
    2758:	ea86 0603 	eor.w	r6, r6, r3
    275c:	d1ea      	bne.n	2734 <runCoreKernels()+0x158c>
    275e:	3d01      	subs	r5, #1
    2760:	d1c9      	bne.n	26f6 <runCoreKernels()+0x154e>
    2762:	f003 fe71 	bl	6448 <micros>
    2766:	4ac9      	ldr	r2, [pc, #804]	; (2a8c <runCoreKernels()+0x18e4>)
    2768:	4bc9      	ldr	r3, [pc, #804]	; (2a90 <runCoreKernels()+0x18e8>)
    276a:	eba0 0909 	sub.w	r9, r0, r9
    276e:	4cc9      	ldr	r4, [pc, #804]	; (2a94 <runCoreKernels()+0x18ec>)
    2770:	685f      	ldr	r7, [r3, #4]
    2772:	6813      	ldr	r3, [r2, #0]
    2774:	eba7 070b 	sub.w	r7, r7, fp
    2778:	9807      	ldr	r0, [sp, #28]
    277a:	405e      	eors	r6, r3
    277c:	4bc6      	ldr	r3, [pc, #792]	; (2a98 <runCoreKernels()+0x18f0>)
    277e:	6016      	str	r6, [r2, #0]
    2780:	fab8 f288 	clz	r2, r8
    2784:	0952      	lsrs	r2, r2, #5
    2786:	f830 1f02 	ldrh.w	r1, [r0, #2]!
    278a:	404b      	eors	r3, r1
    278c:	49c3      	ldr	r1, [pc, #780]	; (2a9c <runCoreKernels()+0x18f4>)
    278e:	4281      	cmp	r1, r0
    2790:	fb04 f303 	mul.w	r3, r4, r3
    2794:	d1f7      	bne.n	2786 <runCoreKernels()+0x15de>
    2796:	f44f 7100 	mov.w	r1, #512	; 0x200
    279a:	9303      	str	r3, [sp, #12]
    279c:	48c0      	ldr	r0, [pc, #768]	; (2aa0 <runCoreKernels()+0x18f8>)
    279e:	4643      	mov	r3, r8
    27a0:	9102      	str	r1, [sp, #8]
    27a2:	49c0      	ldr	r1, [pc, #768]	; (2aa4 <runCoreKernels()+0x18fc>)
    27a4:	f8df 8320 	ldr.w	r8, [pc, #800]	; 2ac8 <runCoreKernels()+0x1920>
    27a8:	f8df b30c 	ldr.w	fp, [pc, #780]	; 2ab8 <runCoreKernels()+0x1910>
    27ac:	4ebe      	ldr	r6, [pc, #760]	; (2aa8 <runCoreKernels()+0x1900>)
    27ae:	4cbf      	ldr	r4, [pc, #764]	; (2aac <runCoreKernels()+0x1904>)
    27b0:	e9cd 9700 	strd	r9, r7, [sp]
    27b4:	f7fe fa66 	bl	c84 <printResult(char const*, char const*, unsigned long, unsigned long, unsigned long, unsigned long, unsigned long, unsigned long, unsigned long, char const*) [clone .constprop.0]>
    27b8:	f8df 9308 	ldr.w	r9, [pc, #776]	; 2ac4 <runCoreKernels()+0x191c>
    27bc:	4bbc      	ldr	r3, [pc, #752]	; (2ab0 <runCoreKernels()+0x1908>)
    27be:	f8df e30c 	ldr.w	lr, [pc, #780]	; 2acc <runCoreKernels()+0x1924>
    27c2:	9309      	str	r3, [sp, #36]	; 0x24
    27c4:	e9dd 7c07 	ldrd	r7, ip, [sp, #28]
    27c8:	f85b 2f04 	ldr.w	r2, [fp, #4]!
    27cc:	f859 0f04 	ldr.w	r0, [r9, #4]!
    27d0:	f85e 3f04 	ldr.w	r3, [lr, #4]!
    27d4:	0152      	lsls	r2, r2, #5
    27d6:	9909      	ldr	r1, [sp, #36]	; 0x24
    27d8:	0140      	lsls	r0, r0, #5
    27da:	fb92 f2f3 	sdiv	r2, r2, r3
    27de:	fb90 f0f3 	sdiv	r0, r0, r3
    27e2:	f831 3f02 	ldrh.w	r3, [r1, #2]!
    27e6:	ea43 4303 	orr.w	r3, r3, r3, lsl #16
    27ea:	9109      	str	r1, [sp, #36]	; 0x24
    27ec:	ea03 0104 	and.w	r1, r3, r4
    27f0:	f836 3f02 	ldrh.w	r3, [r6, #2]!
    27f4:	ea43 4303 	orr.w	r3, r3, r3, lsl #16
    27f8:	fb00 f101 	mul.w	r1, r0, r1
    27fc:	45b2      	cmp	sl, r6
    27fe:	ea03 0304 	and.w	r3, r3, r4
    2802:	fb02 1303 	mla	r3, r2, r3, r1
    2806:	f1c2 0220 	rsb	r2, r2, #32
    280a:	eba2 0100 	sub.w	r1, r2, r0
    280e:	f838 2f02 	ldrh.w	r2, [r8, #2]!
    2812:	ea42 4202 	orr.w	r2, r2, r2, lsl #16
    2816:	ea02 0204 	and.w	r2, r2, r4
    281a:	fb01 3302 	mla	r3, r1, r2, r3
    281e:	ea04 1353 	and.w	r3, r4, r3, lsr #5
    2822:	ea43 4313 	orr.w	r3, r3, r3, lsr #16
    2826:	b29b      	uxth	r3, r3
    2828:	f82c 3f02 	strh.w	r3, [ip, #2]!
    282c:	f827 3f02 	strh.w	r3, [r7, #2]!
    2830:	d1ca      	bne.n	27c8 <runCoreKernels()+0x1620>
    2832:	e9dd 2307 	ldrd	r2, r3, [sp, #28]
    2836:	2100      	movs	r1, #0
    2838:	f833 0f02 	ldrh.w	r0, [r3, #2]!
    283c:	f832 4f02 	ldrh.w	r4, [r2, #2]!
    2840:	4284      	cmp	r4, r0
    2842:	489c      	ldr	r0, [pc, #624]	; (2ab4 <runCoreKernels()+0x190c>)
    2844:	bf18      	it	ne
    2846:	3101      	addne	r1, #1
    2848:	4298      	cmp	r0, r3
    284a:	d1f5      	bne.n	2838 <runCoreKernels()+0x1690>
    284c:	4b90      	ldr	r3, [pc, #576]	; (2a90 <runCoreKernels()+0x18e8>)
    284e:	f44f 7400 	mov.w	r4, #512	; 0x200
    2852:	9109      	str	r1, [sp, #36]	; 0x24
    2854:	685b      	ldr	r3, [r3, #4]
    2856:	4e95      	ldr	r6, [pc, #596]	; (2aac <runCoreKernels()+0x1904>)
    2858:	930a      	str	r3, [sp, #40]	; 0x28
    285a:	f003 fdf5 	bl	6448 <micros>
    285e:	462a      	mov	r2, r5
    2860:	900b      	str	r0, [sp, #44]	; 0x2c
    2862:	f8df 8268 	ldr.w	r8, [pc, #616]	; 2acc <runCoreKernels()+0x1924>
    2866:	f8df e260 	ldr.w	lr, [pc, #608]	; 2ac8 <runCoreKernels()+0x1920>
    286a:	f8df c258 	ldr.w	ip, [pc, #600]	; 2ac4 <runCoreKernels()+0x191c>
    286e:	4f90      	ldr	r7, [pc, #576]	; (2ab0 <runCoreKernels()+0x1908>)
    2870:	4891      	ldr	r0, [pc, #580]	; (2ab8 <runCoreKernels()+0x1910>)
    2872:	498d      	ldr	r1, [pc, #564]	; (2aa8 <runCoreKernels()+0x1900>)
    2874:	f85c 3f04 	ldr.w	r3, [ip, #4]!
    2878:	eb02 1242 	add.w	r2, r2, r2, lsl #5
    287c:	f850 5f04 	ldr.w	r5, [r0, #4]!
    2880:	ea4f 1943 	mov.w	r9, r3, lsl #5
    2884:	f858 3f04 	ldr.w	r3, [r8, #4]!
    2888:	016d      	lsls	r5, r5, #5
    288a:	f831 bf02 	ldrh.w	fp, [r1, #2]!
    288e:	fb99 f9f3 	sdiv	r9, r9, r3
    2892:	fb95 f5f3 	sdiv	r5, r5, r3
    2896:	f837 3f02 	ldrh.w	r3, [r7, #2]!
    289a:	ea4b 4b0b 	orr.w	fp, fp, fp, lsl #16
    289e:	458a      	cmp	sl, r1
    28a0:	ea43 4303 	orr.w	r3, r3, r3, lsl #16
    28a4:	ea0b 0b06 	and.w	fp, fp, r6
    28a8:	ea03 0306 	and.w	r3, r3, r6
    28ac:	fb09 f303 	mul.w	r3, r9, r3
    28b0:	fb05 330b 	mla	r3, r5, fp, r3
    28b4:	f1c5 0520 	rsb	r5, r5, #32
    28b8:	eba5 0509 	sub.w	r5, r5, r9
    28bc:	f83e 9f02 	ldrh.w	r9, [lr, #2]!
    28c0:	ea49 4909 	orr.w	r9, r9, r9, lsl #16
    28c4:	ea09 0906 	and.w	r9, r9, r6
    28c8:	fb05 3309 	mla	r3, r5, r9, r3
    28cc:	ea06 1353 	and.w	r3, r6, r3, lsr #5
    28d0:	ea43 4313 	orr.w	r3, r3, r3, lsr #16
    28d4:	b29b      	uxth	r3, r3
    28d6:	ea82 0203 	eor.w	r2, r2, r3
    28da:	d1cb      	bne.n	2874 <runCoreKernels()+0x16cc>
    28dc:	3c01      	subs	r4, #1
    28de:	d1c0      	bne.n	2862 <runCoreKernels()+0x16ba>
    28e0:	4615      	mov	r5, r2
    28e2:	f003 fdb1 	bl	6448 <micros>
    28e6:	9b0b      	ldr	r3, [sp, #44]	; 0x2c
    28e8:	4a68      	ldr	r2, [pc, #416]	; (2a8c <runCoreKernels()+0x18e4>)
    28ea:	1ac7      	subs	r7, r0, r3
    28ec:	4b68      	ldr	r3, [pc, #416]	; (2a90 <runCoreKernels()+0x18e8>)
    28ee:	9807      	ldr	r0, [sp, #28]
    28f0:	685e      	ldr	r6, [r3, #4]
    28f2:	9b0a      	ldr	r3, [sp, #40]	; 0x28
    28f4:	1af6      	subs	r6, r6, r3
    28f6:	6813      	ldr	r3, [r2, #0]
    28f8:	405d      	eors	r5, r3
    28fa:	9b09      	ldr	r3, [sp, #36]	; 0x24
    28fc:	6015      	str	r5, [r2, #0]
    28fe:	fab3 f283 	clz	r2, r3
    2902:	4d64      	ldr	r5, [pc, #400]	; (2a94 <runCoreKernels()+0x18ec>)
    2904:	0952      	lsrs	r2, r2, #5
    2906:	4b64      	ldr	r3, [pc, #400]	; (2a98 <runCoreKernels()+0x18f0>)
    2908:	f830 1f02 	ldrh.w	r1, [r0, #2]!
    290c:	404b      	eors	r3, r1
    290e:	4963      	ldr	r1, [pc, #396]	; (2a9c <runCoreKernels()+0x18f4>)
    2910:	4281      	cmp	r1, r0
    2912:	fb05 f303 	mul.w	r3, r5, r3
    2916:	d1f7      	bne.n	2908 <runCoreKernels()+0x1760>
    2918:	f44f 7100 	mov.w	r1, #512	; 0x200
    291c:	9303      	str	r3, [sp, #12]
    291e:	4867      	ldr	r0, [pc, #412]	; (2abc <runCoreKernels()+0x1914>)
    2920:	9b09      	ldr	r3, [sp, #36]	; 0x24
    2922:	9102      	str	r1, [sp, #8]
    2924:	4966      	ldr	r1, [pc, #408]	; (2ac0 <runCoreKernels()+0x1918>)
    2926:	f8df 81a0 	ldr.w	r8, [pc, #416]	; 2ac8 <runCoreKernels()+0x1920>
    292a:	f8df 9198 	ldr.w	r9, [pc, #408]	; 2ac4 <runCoreKernels()+0x191c>
    292e:	f8df b188 	ldr.w	fp, [pc, #392]	; 2ab8 <runCoreKernels()+0x1910>
    2932:	4d5e      	ldr	r5, [pc, #376]	; (2aac <runCoreKernels()+0x1904>)
    2934:	e9cd 7600 	strd	r7, r6, [sp]
    2938:	f7fe f9a4 	bl	c84 <printResult(char const*, char const*, unsigned long, unsigned long, unsigned long, unsigned long, unsigned long, unsigned long, unsigned long, char const*) [clone .constprop.0]>
    293c:	4e5a      	ldr	r6, [pc, #360]	; (2aa8 <runCoreKernels()+0x1900>)
    293e:	4b5c      	ldr	r3, [pc, #368]	; (2ab0 <runCoreKernels()+0x1908>)
    2940:	f8df e188 	ldr.w	lr, [pc, #392]	; 2acc <runCoreKernels()+0x1924>
    2944:	9309      	str	r3, [sp, #36]	; 0x24
    2946:	e9dd 7c07 	ldrd	r7, ip, [sp, #28]
    294a:	f85b 2f04 	ldr.w	r2, [fp, #4]!
    294e:	f859 0f04 	ldr.w	r0, [r9, #4]!
    2952:	f85e 3f04 	ldr.w	r3, [lr, #4]!
    2956:	0152      	lsls	r2, r2, #5
    2958:	9909      	ldr	r1, [sp, #36]	; 0x24
    295a:	0140      	lsls	r0, r0, #5
    295c:	fb92 f2f3 	sdiv	r2, r2, r3
    2960:	fb90 f0f3 	sdiv	r0, r0, r3
    2964:	f831 3f02 	ldrh.w	r3, [r1, #2]!
    2968:	ea43 4303 	orr.w	r3, r3, r3, lsl #16
    296c:	9109      	str	r1, [sp, #36]	; 0x24
    296e:	ea03 0105 	and.w	r1, r3, r5
    2972:	f836 3f02 	ldrh.w	r3, [r6, #2]!
    2976:	ea43 4303 	orr.w	r3, r3, r3, lsl #16
    297a:	fb00 f101 	mul.w	r1, r0, r1
    297e:	45b2      	cmp	sl, r6
    2980:	ea03 0305 	and.w	r3, r3, r5
    2984:	fb02 1303 	mla	r3, r2, r3, r1
    2988:	f1c2 0220 	rsb	r2, r2, #32
    298c:	eba2 0100 	sub.w	r1, r2, r0
    2990:	f838 2f02 	ldrh.w	r2, [r8, #2]!
    2994:	ea42 4202 	orr.w	r2, r2, r2, lsl #16
    2998:	ea02 0205 	and.w	r2, r2, r5
    299c:	fb01 3302 	mla	r3, r1, r2, r3
    29a0:	ea05 1353 	and.w	r3, r5, r3, lsr #5
    29a4:	ea43 4313 	orr.w	r3, r3, r3, lsr #16
    29a8:	b29b      	uxth	r3, r3
    29aa:	f82c 3f02 	strh.w	r3, [ip, #2]!
    29ae:	f827 3f02 	strh.w	r3, [r7, #2]!
    29b2:	d1ca      	bne.n	294a <runCoreKernels()+0x17a2>
    29b4:	e9dd 2307 	ldrd	r2, r3, [sp, #28]
    29b8:	2100      	movs	r1, #0
    29ba:	f833 0f02 	ldrh.w	r0, [r3, #2]!
    29be:	f832 5f02 	ldrh.w	r5, [r2, #2]!
    29c2:	4285      	cmp	r5, r0
    29c4:	483b      	ldr	r0, [pc, #236]	; (2ab4 <runCoreKernels()+0x190c>)
    29c6:	bf18      	it	ne
    29c8:	3101      	addne	r1, #1
    29ca:	4283      	cmp	r3, r0
    29cc:	d1f5      	bne.n	29ba <runCoreKernels()+0x1812>
    29ce:	4b30      	ldr	r3, [pc, #192]	; (2a90 <runCoreKernels()+0x18e8>)
    29d0:	f44f 7b00 	mov.w	fp, #512	; 0x200
    29d4:	9109      	str	r1, [sp, #36]	; 0x24
    29d6:	685b      	ldr	r3, [r3, #4]
    29d8:	4d34      	ldr	r5, [pc, #208]	; (2aac <runCoreKernels()+0x1904>)
    29da:	930a      	str	r3, [sp, #40]	; 0x28
    29dc:	f003 fd34 	bl	6448 <micros>
    29e0:	4622      	mov	r2, r4
    29e2:	900b      	str	r0, [sp, #44]	; 0x2c
    29e4:	f8df e0e4 	ldr.w	lr, [pc, #228]	; 2acc <runCoreKernels()+0x1924>
    29e8:	f8df c0dc 	ldr.w	ip, [pc, #220]	; 2ac8 <runCoreKernels()+0x1920>
    29ec:	4f35      	ldr	r7, [pc, #212]	; (2ac4 <runCoreKernels()+0x191c>)
    29ee:	4e30      	ldr	r6, [pc, #192]	; (2ab0 <runCoreKernels()+0x1908>)
    29f0:	4831      	ldr	r0, [pc, #196]	; (2ab8 <runCoreKernels()+0x1910>)
    29f2:	492d      	ldr	r1, [pc, #180]	; (2aa8 <runCoreKernels()+0x1900>)
    29f4:	f857 3f04 	ldr.w	r3, [r7, #4]!
    29f8:	eb02 1242 	add.w	r2, r2, r2, lsl #5
    29fc:	f850 4f04 	ldr.w	r4, [r0, #4]!
    2a00:	ea4f 1843 	mov.w	r8, r3, lsl #5
    2a04:	f85e 3f04 	ldr.w	r3, [lr, #4]!
    2a08:	0164      	lsls	r4, r4, #5
    2a0a:	f831 9f02 	ldrh.w	r9, [r1, #2]!
    2a0e:	fb98 f8f3 	sdiv	r8, r8, r3
    2a12:	fb94 f4f3 	sdiv	r4, r4, r3
    2a16:	f836 3f02 	ldrh.w	r3, [r6, #2]!
    2a1a:	ea49 4909 	orr.w	r9, r9, r9, lsl #16
    2a1e:	4551      	cmp	r1, sl
    2a20:	ea43 4303 	orr.w	r3, r3, r3, lsl #16
    2a24:	ea09 0905 	and.w	r9, r9, r5
    2a28:	ea03 0305 	and.w	r3, r3, r5
    2a2c:	fb08 f303 	mul.w	r3, r8, r3
    2a30:	fb04 3309 	mla	r3, r4, r9, r3
    2a34:	f1c4 0420 	rsb	r4, r4, #32
    2a38:	eba4 0408 	sub.w	r4, r4, r8
    2a3c:	f83c 8f02 	ldrh.w	r8, [ip, #2]!
    2a40:	ea48 4808 	orr.w	r8, r8, r8, lsl #16
    2a44:	ea08 0805 	and.w	r8, r8, r5
    2a48:	fb04 3308 	mla	r3, r4, r8, r3
    2a4c:	ea05 1353 	and.w	r3, r5, r3, lsr #5
    2a50:	ea43 4313 	orr.w	r3, r3, r3, lsr #16
    2a54:	b29b      	uxth	r3, r3
    2a56:	ea82 0203 	eor.w	r2, r2, r3
    2a5a:	d1cb      	bne.n	29f4 <runCoreKernels()+0x184c>
    2a5c:	f1bb 0b01 	subs.w	fp, fp, #1
    2a60:	d1c0      	bne.n	29e4 <runCoreKernels()+0x183c>
    2a62:	4614      	mov	r4, r2
    2a64:	f003 fcf0 	bl	6448 <micros>
    2a68:	9b0b      	ldr	r3, [sp, #44]	; 0x2c
    2a6a:	4a08      	ldr	r2, [pc, #32]	; (2a8c <runCoreKernels()+0x18e4>)
    2a6c:	1ac6      	subs	r6, r0, r3
    2a6e:	4b08      	ldr	r3, [pc, #32]	; (2a90 <runCoreKernels()+0x18e8>)
    2a70:	9807      	ldr	r0, [sp, #28]
    2a72:	685d      	ldr	r5, [r3, #4]
    2a74:	9b0a      	ldr	r3, [sp, #40]	; 0x28
    2a76:	1aed      	subs	r5, r5, r3
    2a78:	6813      	ldr	r3, [r2, #0]
    2a7a:	405c      	eors	r4, r3
    2a7c:	9b09      	ldr	r3, [sp, #36]	; 0x24
    2a7e:	6014      	str	r4, [r2, #0]
    2a80:	fab3 f283 	clz	r2, r3
    2a84:	4c03      	ldr	r4, [pc, #12]	; (2a94 <runCoreKernels()+0x18ec>)
    2a86:	0952      	lsrs	r2, r2, #5
    2a88:	4b03      	ldr	r3, [pc, #12]	; (2a98 <runCoreKernels()+0x18f0>)
    2a8a:	e021      	b.n	2ad0 <runCoreKernels()+0x1928>
    2a8c:	20007138 	.word	0x20007138
    2a90:	e0001000 	.word	0xe0001000
    2a94:	01000193 	.word	0x01000193
    2a98:	811c9dc5 	.word	0x811c9dc5
    2a9c:	20006516 	.word	0x20006516
    2aa0:	20000514 	.word	0x20000514
    2aa4:	20000540 	.word	0x20000540
    2aa8:	20001886 	.word	0x20001886
    2aac:	07e0f81f 	.word	0x07e0f81f
    2ab0:	20001c8e 	.word	0x20001c8e
    2ab4:	2000691e 	.word	0x2000691e
    2ab8:	200038c4 	.word	0x200038c4
    2abc:	2000055c 	.word	0x2000055c
    2ac0:	20000494 	.word	0x20000494
    2ac4:	200040d4 	.word	0x200040d4
    2ac8:	20002096 	.word	0x20002096
    2acc:	20006924 	.word	0x20006924
    2ad0:	f830 1f02 	ldrh.w	r1, [r0, #2]!
    2ad4:	404b      	eors	r3, r1
    2ad6:	49ba      	ldr	r1, [pc, #744]	; (2dc0 <runCoreKernels()+0x1c18>)
    2ad8:	4288      	cmp	r0, r1
    2ada:	fb04 f303 	mul.w	r3, r4, r3
    2ade:	d1f7      	bne.n	2ad0 <runCoreKernels()+0x1928>
    2ae0:	f44f 7100 	mov.w	r1, #512	; 0x200
    2ae4:	9303      	str	r3, [sp, #12]
    2ae6:	48b7      	ldr	r0, [pc, #732]	; (2dc4 <runCoreKernels()+0x1c1c>)
    2ae8:	9b09      	ldr	r3, [sp, #36]	; 0x24
    2aea:	9102      	str	r1, [sp, #8]
    2aec:	49b6      	ldr	r1, [pc, #728]	; (2dc8 <runCoreKernels()+0x1c20>)
    2aee:	f8df 8304 	ldr.w	r8, [pc, #772]	; 2df4 <runCoreKernels()+0x1c4c>
    2af2:	e9cd 6500 	strd	r6, r5, [sp]
    2af6:	f7fe f8c5 	bl	c84 <printResult(char const*, char const*, unsigned long, unsigned long, unsigned long, unsigned long, unsigned long, unsigned long, unsigned long, char const*) [clone .constprop.0]>
    2afa:	f8df e30c 	ldr.w	lr, [pc, #780]	; 2e08 <runCoreKernels()+0x1c60>
    2afe:	e9dd 9307 	ldrd	r9, r3, [sp, #28]
    2b02:	930d      	str	r3, [sp, #52]	; 0x34
    2b04:	4bb1      	ldr	r3, [pc, #708]	; (2dcc <runCoreKernels()+0x1c24>)
    2b06:	930c      	str	r3, [sp, #48]	; 0x30
    2b08:	4bb1      	ldr	r3, [pc, #708]	; (2dd0 <runCoreKernels()+0x1c28>)
    2b0a:	930b      	str	r3, [sp, #44]	; 0x2c
    2b0c:	4bb1      	ldr	r3, [pc, #708]	; (2dd4 <runCoreKernels()+0x1c2c>)
    2b0e:	930e      	str	r3, [sp, #56]	; 0x38
    2b10:	4bb1      	ldr	r3, [pc, #708]	; (2dd8 <runCoreKernels()+0x1c30>)
    2b12:	930a      	str	r3, [sp, #40]	; 0x28
    2b14:	4bb1      	ldr	r3, [pc, #708]	; (2ddc <runCoreKernels()+0x1c34>)
    2b16:	9309      	str	r3, [sp, #36]	; 0x24
    2b18:	9b09      	ldr	r3, [sp, #36]	; 0x24
    2b1a:	990c      	ldr	r1, [sp, #48]	; 0x30
    2b1c:	f853 5f04 	ldr.w	r5, [r3, #4]!
    2b20:	f838 0f02 	ldrh.w	r0, [r8, #2]!
    2b24:	9309      	str	r3, [sp, #36]	; 0x24
    2b26:	016d      	lsls	r5, r5, #5
    2b28:	9b0e      	ldr	r3, [sp, #56]	; 0x38
    2b2a:	45c2      	cmp	sl, r8
    2b2c:	f853 2f04 	ldr.w	r2, [r3, #4]!
    2b30:	ea4f 1242 	mov.w	r2, r2, lsl #5
    2b34:	930e      	str	r3, [sp, #56]	; 0x38
    2b36:	f851 3f04 	ldr.w	r3, [r1, #4]!
    2b3a:	fb92 f2f3 	sdiv	r2, r2, r3
    2b3e:	fb95 f5f3 	sdiv	r5, r5, r3
    2b42:	9b0a      	ldr	r3, [sp, #40]	; 0x28
    2b44:	f1c5 0620 	rsb	r6, r5, #32
    2b48:	910c      	str	r1, [sp, #48]	; 0x30
    2b4a:	f833 4f02 	ldrh.w	r4, [r3, #2]!
    2b4e:	eba6 0602 	sub.w	r6, r6, r2
    2b52:	930a      	str	r3, [sp, #40]	; 0x28
    2b54:	f3c4 1c45 	ubfx	ip, r4, #5, #6
    2b58:	9b0b      	ldr	r3, [sp, #44]	; 0x2c
    2b5a:	ea4f 27d4 	mov.w	r7, r4, lsr #11
    2b5e:	fb02 fc0c 	mul.w	ip, r2, ip
    2b62:	f833 1f02 	ldrh.w	r1, [r3, #2]!
    2b66:	fb02 f707 	mul.w	r7, r2, r7
    2b6a:	930b      	str	r3, [sp, #44]	; 0x2c
    2b6c:	ea44 4304 	orr.w	r3, r4, r4, lsl #16
    2b70:	f004 041f 	and.w	r4, r4, #31
    2b74:	ea03 030e 	and.w	r3, r3, lr
    2b78:	fb02 f404 	mul.w	r4, r2, r4
    2b7c:	fb02 f303 	mul.w	r3, r2, r3
    2b80:	ea40 4200 	orr.w	r2, r0, r0, lsl #16
    2b84:	ea02 020e 	and.w	r2, r2, lr
    2b88:	fb05 3302 	mla	r3, r5, r2, r3
    2b8c:	f3c0 1245 	ubfx	r2, r0, #5, #6
    2b90:	fb05 c202 	mla	r2, r5, r2, ip
    2b94:	ea4f 2cd0 	mov.w	ip, r0, lsr #11
    2b98:	f000 001f 	and.w	r0, r0, #31
    2b9c:	fb05 7c0c 	mla	ip, r5, ip, r7
    2ba0:	fb05 4000 	mla	r0, r5, r0, r4
    2ba4:	ea41 4401 	orr.w	r4, r1, r1, lsl #16
    2ba8:	ea04 040e 	and.w	r4, r4, lr
    2bac:	fb06 3304 	mla	r3, r6, r4, r3
    2bb0:	9c0d      	ldr	r4, [sp, #52]	; 0x34
    2bb2:	ea0e 1353 	and.w	r3, lr, r3, lsr #5
    2bb6:	ea43 4313 	orr.w	r3, r3, r3, lsr #16
    2bba:	f824 3f02 	strh.w	r3, [r4, #2]!
    2bbe:	f3c1 1345 	ubfx	r3, r1, #5, #6
    2bc2:	940d      	str	r4, [sp, #52]	; 0x34
    2bc4:	fb06 2303 	mla	r3, r6, r3, r2
    2bc8:	ea4f 22d1 	mov.w	r2, r1, lsr #11
    2bcc:	f001 011f 	and.w	r1, r1, #31
    2bd0:	fb06 c202 	mla	r2, r6, r2, ip
    2bd4:	f403 63fc 	and.w	r3, r3, #2016	; 0x7e0
    2bd8:	fb06 0101 	mla	r1, r6, r1, r0
    2bdc:	f3c2 1244 	ubfx	r2, r2, #5, #5
    2be0:	f3c1 1144 	ubfx	r1, r1, #5, #5
    2be4:	ea43 23c2 	orr.w	r3, r3, r2, lsl #11
    2be8:	ea43 0301 	orr.w	r3, r3, r1
    2bec:	f829 3f02 	strh.w	r3, [r9, #2]!
    2bf0:	d192      	bne.n	2b18 <runCoreKernels()+0x1970>
    2bf2:	e9dd 2307 	ldrd	r2, r3, [sp, #28]
    2bf6:	2100      	movs	r1, #0
    2bf8:	f833 0f02 	ldrh.w	r0, [r3, #2]!
    2bfc:	f832 4f02 	ldrh.w	r4, [r2, #2]!
    2c00:	4284      	cmp	r4, r0
    2c02:	4877      	ldr	r0, [pc, #476]	; (2de0 <runCoreKernels()+0x1c38>)
    2c04:	bf18      	it	ne
    2c06:	3101      	addne	r1, #1
    2c08:	4298      	cmp	r0, r3
    2c0a:	d1f5      	bne.n	2bf8 <runCoreKernels()+0x1a50>
    2c0c:	4b75      	ldr	r3, [pc, #468]	; (2de4 <runCoreKernels()+0x1c3c>)
    2c0e:	f44f 7600 	mov.w	r6, #512	; 0x200
    2c12:	910c      	str	r1, [sp, #48]	; 0x30
    2c14:	685b      	ldr	r3, [r3, #4]
    2c16:	930d      	str	r3, [sp, #52]	; 0x34
    2c18:	f003 fc16 	bl	6448 <micros>
    2c1c:	960b      	str	r6, [sp, #44]	; 0x2c
    2c1e:	465e      	mov	r6, fp
    2c20:	900e      	str	r0, [sp, #56]	; 0x38
    2c22:	4b6d      	ldr	r3, [pc, #436]	; (2dd8 <runCoreKernels()+0x1c30>)
    2c24:	f8df 91a4 	ldr.w	r9, [pc, #420]	; 2dcc <runCoreKernels()+0x1c24>
    2c28:	930a      	str	r3, [sp, #40]	; 0x28
    2c2a:	f8df 81a4 	ldr.w	r8, [pc, #420]	; 2dd0 <runCoreKernels()+0x1c28>
    2c2e:	4b6b      	ldr	r3, [pc, #428]	; (2ddc <runCoreKernels()+0x1c34>)
    2c30:	f8df e1a0 	ldr.w	lr, [pc, #416]	; 2dd4 <runCoreKernels()+0x1c2c>
    2c34:	f8df c1bc 	ldr.w	ip, [pc, #444]	; 2df4 <runCoreKernels()+0x1c4c>
    2c38:	9309      	str	r3, [sp, #36]	; 0x24
    2c3a:	9b09      	ldr	r3, [sp, #36]	; 0x24
    2c3c:	eb06 1646 	add.w	r6, r6, r6, lsl #5
    2c40:	f859 2f04 	ldr.w	r2, [r9, #4]!
    2c44:	f853 1f04 	ldr.w	r1, [r3, #4]!
    2c48:	f838 4f02 	ldrh.w	r4, [r8, #2]!
    2c4c:	9309      	str	r3, [sp, #36]	; 0x24
    2c4e:	0149      	lsls	r1, r1, #5
    2c50:	f85e 3f04 	ldr.w	r3, [lr, #4]!
    2c54:	015b      	lsls	r3, r3, #5
    2c56:	fb91 f1f2 	sdiv	r1, r1, r2
    2c5a:	fb93 f3f2 	sdiv	r3, r3, r2
    2c5e:	9a0a      	ldr	r2, [sp, #40]	; 0x28
    2c60:	f1c1 0520 	rsb	r5, r1, #32
    2c64:	f832 0f02 	ldrh.w	r0, [r2, #2]!
    2c68:	1aed      	subs	r5, r5, r3
    2c6a:	f3c0 1b45 	ubfx	fp, r0, #5, #6
    2c6e:	0ac7      	lsrs	r7, r0, #11
    2c70:	920a      	str	r2, [sp, #40]	; 0x28
    2c72:	f000 001f 	and.w	r0, r0, #31
    2c76:	f83c 2f02 	ldrh.w	r2, [ip, #2]!
    2c7a:	fb03 fb0b 	mul.w	fp, r3, fp
    2c7e:	fb03 f707 	mul.w	r7, r3, r7
    2c82:	fb03 f000 	mul.w	r0, r3, r0
    2c86:	f3c2 1345 	ubfx	r3, r2, #5, #6
    2c8a:	45d4      	cmp	ip, sl
    2c8c:	fb01 b303 	mla	r3, r1, r3, fp
    2c90:	ea4f 2bd2 	mov.w	fp, r2, lsr #11
    2c94:	f002 021f 	and.w	r2, r2, #31
    2c98:	fb01 7b0b 	mla	fp, r1, fp, r7
    2c9c:	fb01 0202 	mla	r2, r1, r2, r0
    2ca0:	f3c4 1145 	ubfx	r1, r4, #5, #6
    2ca4:	fb05 3301 	mla	r3, r5, r1, r3
    2ca8:	ea4f 21d4 	mov.w	r1, r4, lsr #11
    2cac:	f004 041f 	and.w	r4, r4, #31
    2cb0:	fb05 b101 	mla	r1, r5, r1, fp
    2cb4:	f403 63fc 	and.w	r3, r3, #2016	; 0x7e0
    2cb8:	fb05 2204 	mla	r2, r5, r4, r2
    2cbc:	f3c1 1144 	ubfx	r1, r1, #5, #5
    2cc0:	f3c2 1244 	ubfx	r2, r2, #5, #5
    2cc4:	ea43 23c1 	orr.w	r3, r3, r1, lsl #11
    2cc8:	ea43 0302 	orr.w	r3, r3, r2
    2ccc:	ea86 0603 	eor.w	r6, r6, r3
    2cd0:	d1b3      	bne.n	2c3a <runCoreKernels()+0x1a92>
    2cd2:	9b0b      	ldr	r3, [sp, #44]	; 0x2c
    2cd4:	3b01      	subs	r3, #1
    2cd6:	930b      	str	r3, [sp, #44]	; 0x2c
    2cd8:	d1a3      	bne.n	2c22 <runCoreKernels()+0x1a7a>
    2cda:	46b3      	mov	fp, r6
    2cdc:	9e0b      	ldr	r6, [sp, #44]	; 0x2c
    2cde:	f003 fbb3 	bl	6448 <micros>
    2ce2:	9b0e      	ldr	r3, [sp, #56]	; 0x38
    2ce4:	4a40      	ldr	r2, [pc, #256]	; (2de8 <runCoreKernels()+0x1c40>)
    2ce6:	1ac7      	subs	r7, r0, r3
    2ce8:	4b3e      	ldr	r3, [pc, #248]	; (2de4 <runCoreKernels()+0x1c3c>)
    2cea:	9807      	ldr	r0, [sp, #28]
    2cec:	685d      	ldr	r5, [r3, #4]
    2cee:	9b0d      	ldr	r3, [sp, #52]	; 0x34
    2cf0:	4c3e      	ldr	r4, [pc, #248]	; (2dec <runCoreKernels()+0x1c44>)
    2cf2:	1aed      	subs	r5, r5, r3
    2cf4:	6813      	ldr	r3, [r2, #0]
    2cf6:	ea8b 0303 	eor.w	r3, fp, r3
    2cfa:	6013      	str	r3, [r2, #0]
    2cfc:	9b0c      	ldr	r3, [sp, #48]	; 0x30
    2cfe:	fab3 f283 	clz	r2, r3
    2d02:	4b3b      	ldr	r3, [pc, #236]	; (2df0 <runCoreKernels()+0x1c48>)
    2d04:	0952      	lsrs	r2, r2, #5
    2d06:	f830 1f02 	ldrh.w	r1, [r0, #2]!
    2d0a:	404b      	eors	r3, r1
    2d0c:	492c      	ldr	r1, [pc, #176]	; (2dc0 <runCoreKernels()+0x1c18>)
    2d0e:	4288      	cmp	r0, r1
    2d10:	fb04 f303 	mul.w	r3, r4, r3
    2d14:	d1f7      	bne.n	2d06 <runCoreKernels()+0x1b5e>
    2d16:	f44f 7100 	mov.w	r1, #512	; 0x200
    2d1a:	9303      	str	r3, [sp, #12]
    2d1c:	4829      	ldr	r0, [pc, #164]	; (2dc4 <runCoreKernels()+0x1c1c>)
    2d1e:	9102      	str	r1, [sp, #8]
    2d20:	9b0c      	ldr	r3, [sp, #48]	; 0x30
    2d22:	f8df 80dc 	ldr.w	r8, [pc, #220]	; 2e00 <runCoreKernels()+0x1c58>
    2d26:	f8df 90dc 	ldr.w	r9, [pc, #220]	; 2e04 <runCoreKernels()+0x1c5c>
    2d2a:	f8df b0ac 	ldr.w	fp, [pc, #172]	; 2dd8 <runCoreKernels()+0x1c30>
    2d2e:	4c31      	ldr	r4, [pc, #196]	; (2df4 <runCoreKernels()+0x1c4c>)
    2d30:	e9cd 7500 	strd	r7, r5, [sp]
    2d34:	e9dd 5107 	ldrd	r5, r1, [sp, #28]
    2d38:	4f2f      	ldr	r7, [pc, #188]	; (2df8 <runCoreKernels()+0x1c50>)
    2d3a:	9109      	str	r1, [sp, #36]	; 0x24
    2d3c:	4924      	ldr	r1, [pc, #144]	; (2dd0 <runCoreKernels()+0x1c28>)
    2d3e:	910a      	str	r1, [sp, #40]	; 0x28
    2d40:	492e      	ldr	r1, [pc, #184]	; (2dfc <runCoreKernels()+0x1c54>)
    2d42:	f7fd ff9f 	bl	c84 <printResult(char const*, char const*, unsigned long, unsigned long, unsigned long, unsigned long, unsigned long, unsigned long, unsigned long, char const*) [clone .constprop.0]>
    2d46:	990a      	ldr	r1, [sp, #40]	; 0x28
    2d48:	f834 0f02 	ldrh.w	r0, [r4, #2]!
    2d4c:	f831 2f02 	ldrh.w	r2, [r1, #2]!
    2d50:	f839 3f02 	ldrh.w	r3, [r9, #2]!
    2d54:	910a      	str	r1, [sp, #40]	; 0x28
    2d56:	ecf7 0a01 	vldmia	r7!, {s1}
    2d5a:	ecb8 0a01 	vldmia	r8!, {s0}
    2d5e:	f83b 1f02 	ldrh.w	r1, [fp, #2]!
    2d62:	f7fd f9a9 	bl	b8 <refBilinear(unsigned short, unsigned short, unsigned short, unsigned short, float, float)>
    2d66:	9b09      	ldr	r3, [sp, #36]	; 0x24
    2d68:	4554      	cmp	r4, sl
    2d6a:	f825 0f02 	strh.w	r0, [r5, #2]!
    2d6e:	f823 0f02 	strh.w	r0, [r3, #2]!
    2d72:	9309      	str	r3, [sp, #36]	; 0x24
    2d74:	d1e7      	bne.n	2d46 <runCoreKernels()+0x1b9e>
    2d76:	e9dd 2307 	ldrd	r2, r3, [sp, #28]
    2d7a:	2100      	movs	r1, #0
    2d7c:	f833 0f02 	ldrh.w	r0, [r3, #2]!
    2d80:	f832 4f02 	ldrh.w	r4, [r2, #2]!
    2d84:	4284      	cmp	r4, r0
    2d86:	4816      	ldr	r0, [pc, #88]	; (2de0 <runCoreKernels()+0x1c38>)
    2d88:	bf18      	it	ne
    2d8a:	3101      	addne	r1, #1
    2d8c:	4283      	cmp	r3, r0
    2d8e:	d1f5      	bne.n	2d7c <runCoreKernels()+0x1bd4>
    2d90:	4b14      	ldr	r3, [pc, #80]	; (2de4 <runCoreKernels()+0x1c3c>)
    2d92:	4637      	mov	r7, r6
    2d94:	910e      	str	r1, [sp, #56]	; 0x38
    2d96:	685b      	ldr	r3, [r3, #4]
    2d98:	930f      	str	r3, [sp, #60]	; 0x3c
    2d9a:	f003 fb55 	bl	6448 <micros>
    2d9e:	2380      	movs	r3, #128	; 0x80
    2da0:	9010      	str	r0, [sp, #64]	; 0x40
    2da2:	930d      	str	r3, [sp, #52]	; 0x34
    2da4:	4b16      	ldr	r3, [pc, #88]	; (2e00 <runCoreKernels()+0x1c58>)
    2da6:	f8df e050 	ldr.w	lr, [pc, #80]	; 2df8 <runCoreKernels()+0x1c50>
    2daa:	930c      	str	r3, [sp, #48]	; 0x30
    2dac:	4b15      	ldr	r3, [pc, #84]	; (2e04 <runCoreKernels()+0x1c5c>)
    2dae:	f8df c044 	ldr.w	ip, [pc, #68]	; 2df4 <runCoreKernels()+0x1c4c>
    2db2:	930b      	str	r3, [sp, #44]	; 0x2c
    2db4:	4b06      	ldr	r3, [pc, #24]	; (2dd0 <runCoreKernels()+0x1c28>)
    2db6:	930a      	str	r3, [sp, #40]	; 0x28
    2db8:	4b07      	ldr	r3, [pc, #28]	; (2dd8 <runCoreKernels()+0x1c30>)
    2dba:	9309      	str	r3, [sp, #36]	; 0x24
    2dbc:	e026      	b.n	2e0c <runCoreKernels()+0x1c64>
    2dbe:	bf00      	nop
    2dc0:	20006516 	.word	0x20006516
    2dc4:	2000055c 	.word	0x2000055c
    2dc8:	200004a0 	.word	0x200004a0
    2dcc:	20006924 	.word	0x20006924
    2dd0:	20002096 	.word	0x20002096
    2dd4:	200040d4 	.word	0x200040d4
    2dd8:	20001c8e 	.word	0x20001c8e
    2ddc:	200038c4 	.word	0x200038c4
    2de0:	2000691e 	.word	0x2000691e
    2de4:	e0001000 	.word	0xe0001000
    2de8:	20007138 	.word	0x20007138
    2dec:	01000193 	.word	0x01000193
    2df0:	811c9dc5 	.word	0x811c9dc5
    2df4:	20001886 	.word	0x20001886
    2df8:	200030b8 	.word	0x200030b8
    2dfc:	200003b8 	.word	0x200003b8
    2e00:	200028a8 	.word	0x200028a8
    2e04:	2000249e 	.word	0x2000249e
    2e08:	07e0f81f 	.word	0x07e0f81f
    2e0c:	9b0c      	ldr	r3, [sp, #48]	; 0x30
    2e0e:	eb07 1747 	add.w	r7, r7, r7, lsl #5
    2e12:	ecbe 7a01 	vldmia	lr!, {s14}
    2e16:	ecf3 7a01 	vldmia	r3!, {s15}
    2e1a:	eef0 6a47 	vmov.f32	s13, s14
    2e1e:	f83c 5f02 	ldrh.w	r5, [ip, #2]!
    2e22:	930c      	str	r3, [sp, #48]	; 0x30
    2e24:	eeb0 7a67 	vmov.f32	s14, s15
    2e28:	9b0b      	ldr	r3, [sp, #44]	; 0x2c
    2e2a:	45e2      	cmp	sl, ip
    2e2c:	eefe 6acc 	vcvt.s32.f32	s13, s13, #8
    2e30:	f833 2f02 	ldrh.w	r2, [r3, #2]!
    2e34:	eebe 7acc 	vcvt.s32.f32	s14, s14, #8
    2e38:	930b      	str	r3, [sp, #44]	; 0x2c
    2e3a:	ee16 1a90 	vmov	r1, s13
    2e3e:	9b09      	ldr	r3, [sp, #36]	; 0x24
    2e40:	f3c2 1045 	ubfx	r0, r2, #5, #6
    2e44:	f5c1 7480 	rsb	r4, r1, #256	; 0x100
    2e48:	f002 091f 	and.w	r9, r2, #31
    2e4c:	f833 bf02 	ldrh.w	fp, [r3, #2]!
    2e50:	fb01 f000 	mul.w	r0, r1, r0
    2e54:	ea4f 22d2 	mov.w	r2, r2, lsr #11
    2e58:	fb01 f909 	mul.w	r9, r1, r9
    2e5c:	9309      	str	r3, [sp, #36]	; 0x24
    2e5e:	9b0a      	ldr	r3, [sp, #40]	; 0x28
    2e60:	fb01 f202 	mul.w	r2, r1, r2
    2e64:	f833 8f02 	ldrh.w	r8, [r3, #2]!
    2e68:	930a      	str	r3, [sp, #40]	; 0x28
    2e6a:	f3cb 1345 	ubfx	r3, fp, #5, #6
    2e6e:	f3c8 1645 	ubfx	r6, r8, #5, #6
    2e72:	fb04 0003 	mla	r0, r4, r3, r0
    2e76:	f008 031f 	and.w	r3, r8, #31
    2e7a:	ea4f 28d8 	mov.w	r8, r8, lsr #11
    2e7e:	fb01 f606 	mul.w	r6, r1, r6
    2e82:	fb01 f303 	mul.w	r3, r1, r3
    2e86:	fb01 f808 	mul.w	r8, r1, r8
    2e8a:	f00b 011f 	and.w	r1, fp, #31
    2e8e:	ea4f 2bdb 	mov.w	fp, fp, lsr #11
    2e92:	fb04 9901 	mla	r9, r4, r1, r9
    2e96:	ee17 1a10 	vmov	r1, s14
    2e9a:	fb04 220b 	mla	r2, r4, fp, r2
    2e9e:	f3c5 1b45 	ubfx	fp, r5, #5, #6
    2ea2:	fb01 f000 	mul.w	r0, r1, r0
    2ea6:	fb01 f909 	mul.w	r9, r1, r9
    2eaa:	fb01 f202 	mul.w	r2, r1, r2
    2eae:	f5c1 7180 	rsb	r1, r1, #256	; 0x100
    2eb2:	fb04 660b 	mla	r6, r4, fp, r6
    2eb6:	fb01 0006 	mla	r0, r1, r6, r0
    2eba:	f005 061f 	and.w	r6, r5, #31
    2ebe:	ea4f 25d5 	mov.w	r5, r5, lsr #11
    2ec2:	fb04 3306 	mla	r3, r4, r6, r3
    2ec6:	f3c0 4005 	ubfx	r0, r0, #16, #6
    2eca:	fb04 8805 	mla	r8, r4, r5, r8
    2ece:	fb01 9303 	mla	r3, r1, r3, r9
    2ed2:	fb01 2208 	mla	r2, r1, r8, r2
    2ed6:	f3c3 4304 	ubfx	r3, r3, #16, #5
    2eda:	ea4f 4222 	mov.w	r2, r2, asr #16
    2ede:	ea43 1340 	orr.w	r3, r3, r0, lsl #5
    2ee2:	ea43 23c2 	orr.w	r3, r3, r2, lsl #11
    2ee6:	b29b      	uxth	r3, r3
    2ee8:	ea87 0703 	eor.w	r7, r7, r3
    2eec:	d18e      	bne.n	2e0c <runCoreKernels()+0x1c64>
    2eee:	9b0d      	ldr	r3, [sp, #52]	; 0x34
    2ef0:	3b01      	subs	r3, #1
    2ef2:	930d      	str	r3, [sp, #52]	; 0x34
    2ef4:	f47f af56 	bne.w	2da4 <runCoreKernels()+0x1bfc>
    2ef8:	f003 faa6 	bl	6448 <micros>
    2efc:	9b10      	ldr	r3, [sp, #64]	; 0x40
    2efe:	4acb      	ldr	r2, [pc, #812]	; (322c <runCoreKernels()+0x2084>)
    2f00:	1ac0      	subs	r0, r0, r3
    2f02:	4bcb      	ldr	r3, [pc, #812]	; (3230 <runCoreKernels()+0x2088>)
    2f04:	9d07      	ldr	r5, [sp, #28]
    2f06:	685c      	ldr	r4, [r3, #4]
    2f08:	9b0f      	ldr	r3, [sp, #60]	; 0x3c
    2f0a:	4eca      	ldr	r6, [pc, #808]	; (3234 <runCoreKernels()+0x208c>)
    2f0c:	1ae4      	subs	r4, r4, r3
    2f0e:	6813      	ldr	r3, [r2, #0]
    2f10:	407b      	eors	r3, r7
    2f12:	6013      	str	r3, [r2, #0]
    2f14:	9b0e      	ldr	r3, [sp, #56]	; 0x38
    2f16:	fab3 f283 	clz	r2, r3
    2f1a:	4bc7      	ldr	r3, [pc, #796]	; (3238 <runCoreKernels()+0x2090>)
    2f1c:	0952      	lsrs	r2, r2, #5
    2f1e:	f835 1f02 	ldrh.w	r1, [r5, #2]!
    2f22:	404b      	eors	r3, r1
    2f24:	49c5      	ldr	r1, [pc, #788]	; (323c <runCoreKernels()+0x2094>)
    2f26:	428d      	cmp	r5, r1
    2f28:	fb06 f303 	mul.w	r3, r6, r3
    2f2c:	d1f7      	bne.n	2f1e <runCoreKernels()+0x1d76>
    2f2e:	2180      	movs	r1, #128	; 0x80
    2f30:	4ec3      	ldr	r6, [pc, #780]	; (3240 <runCoreKernels()+0x2098>)
    2f32:	9304      	str	r3, [sp, #16]
    2f34:	9b0e      	ldr	r3, [sp, #56]	; 0x38
    2f36:	f506 55c0 	add.w	r5, r6, #6144	; 0x1800
    2f3a:	e9cd 0400 	strd	r0, r4, [sp]
    2f3e:	f44f 7400 	mov.w	r4, #512	; 0x200
    2f42:	48c0      	ldr	r0, [pc, #768]	; (3244 <runCoreKernels()+0x209c>)
    2f44:	e9cd 1402 	strd	r1, r4, [sp, #8]
    2f48:	49bf      	ldr	r1, [pc, #764]	; (3248 <runCoreKernels()+0x20a0>)
    2f4a:	f7fd fa95 	bl	478 <printResult(char const*, char const*, unsigned long, unsigned long, unsigned long, unsigned long, unsigned long, unsigned long, unsigned long, char const*) [clone .constprop.1]>
    2f4e:	f7fd fce5 	bl	91c <void runBilinear<BilinearScalar>(char const*) [clone .constprop.0]>
    2f52:	f7fd fb17 	bl	584 <void runBilinear<BilinearTwoStage>(char const*) [clone .constprop.0]>
    2f56:	eeb3 6a0f 	vmov.f32	s12, #63	; 0x41f80000  31.0
    2f5a:	eddf 5abc 	vldr	s11, [pc, #752]	; 324c <runCoreKernels()+0x20a4>
    2f5e:	4632      	mov	r2, r6
    2f60:	f8bd 4044 	ldrh.w	r4, [sp, #68]	; 0x44
    2f64:	f8bd 7046 	ldrh.w	r7, [sp, #70]	; 0x46
    2f68:	e9dd 0107 	ldrd	r0, r1, [sp, #28]
    2f6c:	edd2 6a02 	vldr	s13, [r2, #8]
    2f70:	4613      	mov	r3, r2
    2f72:	ed92 7a01 	vldr	s14, [r2, #4]
    2f76:	320c      	adds	r2, #12
    2f78:	ee66 6a86 	vmul.f32	s13, s13, s12
    2f7c:	edd3 7a00 	vldr	s15, [r3]
    2f80:	ee27 7a25 	vmul.f32	s14, s14, s11
    2f84:	42aa      	cmp	r2, r5
    2f86:	ee67 7a86 	vmul.f32	s15, s15, s12
    2f8a:	eefc 6ae6 	vcvt.u32.f32	s13, s13
    2f8e:	eebc 7ac7 	vcvt.u32.f32	s14, s14
    2f92:	eefc 7ae7 	vcvt.u32.f32	s15, s15
    2f96:	ee16 3a90 	vmov	r3, s13
    2f9a:	f003 031f 	and.w	r3, r3, #31
    2f9e:	f363 0404 	bfi	r4, r3, #0, #5
    2fa2:	f363 0704 	bfi	r7, r3, #0, #5
    2fa6:	ee17 3a10 	vmov	r3, s14
    2faa:	f003 033f 	and.w	r3, r3, #63	; 0x3f
    2fae:	f363 144a 	bfi	r4, r3, #5, #6
    2fb2:	f363 174a 	bfi	r7, r3, #5, #6
    2fb6:	ee17 3a90 	vmov	r3, s15
    2fba:	f003 031f 	and.w	r3, r3, #31
    2fbe:	f363 24cf 	bfi	r4, r3, #11, #5
    2fc2:	f363 27cf 	bfi	r7, r3, #11, #5
    2fc6:	f821 4f02 	strh.w	r4, [r1, #2]!
    2fca:	f820 7f02 	strh.w	r7, [r0, #2]!
    2fce:	d1cd      	bne.n	2f6c <runCoreKernels()+0x1dc4>
    2fd0:	e9dd 2307 	ldrd	r2, r3, [sp, #28]
    2fd4:	f04f 0800 	mov.w	r8, #0
    2fd8:	f833 1f02 	ldrh.w	r1, [r3, #2]!
    2fdc:	f832 0f02 	ldrh.w	r0, [r2, #2]!
    2fe0:	4288      	cmp	r0, r1
    2fe2:	499b      	ldr	r1, [pc, #620]	; (3250 <runCoreKernels()+0x20a8>)
    2fe4:	bf18      	it	ne
    2fe6:	f108 0801 	addne.w	r8, r8, #1
    2fea:	428b      	cmp	r3, r1
    2fec:	d1f4      	bne.n	2fd8 <runCoreKernels()+0x1e30>
    2fee:	4b90      	ldr	r3, [pc, #576]	; (3230 <runCoreKernels()+0x2088>)
    2ff0:	2480      	movs	r4, #128	; 0x80
    2ff2:	685f      	ldr	r7, [r3, #4]
    2ff4:	f003 fa28 	bl	6448 <micros>
    2ff8:	eeb3 6a0f 	vmov.f32	s12, #63	; 0x41f80000  31.0
    2ffc:	eddf 5a93 	vldr	s11, [pc, #588]	; 324c <runCoreKernels()+0x20a4>
    3000:	4681      	mov	r9, r0
    3002:	990d      	ldr	r1, [sp, #52]	; 0x34
    3004:	4632      	mov	r2, r6
    3006:	ed92 7a01 	vldr	s14, [r2, #4]
    300a:	4613      	mov	r3, r2
    300c:	edd2 7a02 	vldr	s15, [r2, #8]
    3010:	320c      	adds	r2, #12
    3012:	ee27 7a25 	vmul.f32	s14, s14, s11
    3016:	edd3 6a00 	vldr	s13, [r3]
    301a:	ee67 7a86 	vmul.f32	s15, s15, s12
    301e:	eb01 1141 	add.w	r1, r1, r1, lsl #5
    3022:	ee66 6a86 	vmul.f32	s13, s13, s12
    3026:	42aa      	cmp	r2, r5
    3028:	eebc 7ac7 	vcvt.u32.f32	s14, s14
    302c:	eefc 7ae7 	vcvt.u32.f32	s15, s15
    3030:	eefc 6ae6 	vcvt.u32.f32	s13, s13
    3034:	ee17 3a10 	vmov	r3, s14
    3038:	ee17 0a90 	vmov	r0, s15
    303c:	ea4f 1343 	mov.w	r3, r3, lsl #5
    3040:	f000 001f 	and.w	r0, r0, #31
    3044:	f403 63fc 	and.w	r3, r3, #2016	; 0x7e0
    3048:	ea43 0300 	orr.w	r3, r3, r0
    304c:	ee16 0a90 	vmov	r0, s13
    3050:	ea43 23c0 	orr.w	r3, r3, r0, lsl #11
    3054:	b29b      	uxth	r3, r3
    3056:	ea81 0103 	eor.w	r1, r1, r3
    305a:	d1d4      	bne.n	3006 <runCoreKernels()+0x1e5e>
    305c:	3c01      	subs	r4, #1
    305e:	d1d1      	bne.n	3004 <runCoreKernels()+0x1e5c>
    3060:	468a      	mov	sl, r1
    3062:	f003 f9f1 	bl	6448 <micros>
    3066:	4b72      	ldr	r3, [pc, #456]	; (3230 <runCoreKernels()+0x2088>)
    3068:	eba0 0009 	sub.w	r0, r0, r9
    306c:	4651      	mov	r1, sl
    306e:	f8dd c01c 	ldr.w	ip, [sp, #28]
    3072:	685b      	ldr	r3, [r3, #4]
    3074:	f8df e1bc 	ldr.w	lr, [pc, #444]	; 3234 <runCoreKernels()+0x208c>
    3078:	1bdb      	subs	r3, r3, r7
    307a:	4f6c      	ldr	r7, [pc, #432]	; (322c <runCoreKernels()+0x2084>)
    307c:	683a      	ldr	r2, [r7, #0]
    307e:	4051      	eors	r1, r2
    3080:	fab8 f288 	clz	r2, r8
    3084:	6039      	str	r1, [r7, #0]
    3086:	0952      	lsrs	r2, r2, #5
    3088:	496b      	ldr	r1, [pc, #428]	; (3238 <runCoreKernels()+0x2090>)
    308a:	f83c 7f02 	ldrh.w	r7, [ip, #2]!
    308e:	4079      	eors	r1, r7
    3090:	4f6a      	ldr	r7, [pc, #424]	; (323c <runCoreKernels()+0x2094>)
    3092:	45bc      	cmp	ip, r7
    3094:	fb0e f101 	mul.w	r1, lr, r1
    3098:	d1f7      	bne.n	308a <runCoreKernels()+0x1ee2>
    309a:	9104      	str	r1, [sp, #16]
    309c:	2180      	movs	r1, #128	; 0x80
    309e:	e9cd 0300 	strd	r0, r3, [sp]
    30a2:	f44f 7000 	mov.w	r0, #512	; 0x200
    30a6:	4643      	mov	r3, r8
    30a8:	e9cd 1002 	strd	r1, r0, [sp, #8]
    30ac:	4966      	ldr	r1, [pc, #408]	; (3248 <runCoreKernels()+0x20a0>)
    30ae:	4869      	ldr	r0, [pc, #420]	; (3254 <runCoreKernels()+0x20ac>)
    30b0:	f7fd f9e2 	bl	478 <printResult(char const*, char const*, unsigned long, unsigned long, unsigned long, unsigned long, unsigned long, unsigned long, unsigned long, char const*) [clone .constprop.1]>
    30b4:	eeb3 6a0f 	vmov.f32	s12, #63	; 0x41f80000  31.0
    30b8:	eddf 5a64 	vldr	s11, [pc, #400]	; 324c <runCoreKernels()+0x20a4>
    30bc:	4a60      	ldr	r2, [pc, #384]	; (3240 <runCoreKernels()+0x2098>)
    30be:	e9dd 0107 	ldrd	r0, r1, [sp, #28]
    30c2:	edd2 7a01 	vldr	s15, [r2, #4]
    30c6:	4613      	mov	r3, r2
    30c8:	ed92 7a02 	vldr	s14, [r2, #8]
    30cc:	320c      	adds	r2, #12
    30ce:	ee67 7aa5 	vmul.f32	s15, s15, s11
    30d2:	edd3 6a00 	vldr	s13, [r3]
    30d6:	ee27 7a06 	vmul.f32	s14, s14, s12
    30da:	4295      	cmp	r5, r2
    30dc:	ee66 6a86 	vmul.f32	s13, s13, s12
    30e0:	eebc 5ae7 	vcvt.u32.f32	s10, s15
    30e4:	eefd 7ae7 	vcvt.s32.f32	s15, s15
    30e8:	ee15 7a10 	vmov	r7, s10
    30ec:	eebc 5ac7 	vcvt.u32.f32	s10, s14
    30f0:	ea4f 1747 	mov.w	r7, r7, lsl #5
    30f4:	ee15 3a10 	vmov	r3, s10
    30f8:	eebc 5ae6 	vcvt.u32.f32	s10, s13
    30fc:	f407 67fc 	and.w	r7, r7, #2016	; 0x7e0
    3100:	eefd 6ae6 	vcvt.s32.f32	s13, s13
    3104:	f003 031f 	and.w	r3, r3, #31
    3108:	ea47 0703 	orr.w	r7, r7, r3
    310c:	ee15 3a10 	vmov	r3, s10
    3110:	ea47 27c3 	orr.w	r7, r7, r3, lsl #11
    3114:	ee17 3a90 	vmov	r3, s15
    3118:	eefd 7ac7 	vcvt.s32.f32	s15, s14
    311c:	f003 033f 	and.w	r3, r3, #63	; 0x3f
    3120:	f821 7f02 	strh.w	r7, [r1, #2]!
    3124:	ee16 7a90 	vmov	r7, s13
    3128:	ea4f 1343 	mov.w	r3, r3, lsl #5
    312c:	f007 071f 	and.w	r7, r7, #31
    3130:	ea43 23c7 	orr.w	r3, r3, r7, lsl #11
    3134:	ee17 7a90 	vmov	r7, s15
    3138:	f007 071f 	and.w	r7, r7, #31
    313c:	ea43 0307 	orr.w	r3, r3, r7
    3140:	f820 3f02 	strh.w	r3, [r0, #2]!
    3144:	d1bd      	bne.n	30c2 <runCoreKernels()+0x1f1a>
    3146:	9b07      	ldr	r3, [sp, #28]
    3148:	f04f 0800 	mov.w	r8, #0
    314c:	9a08      	ldr	r2, [sp, #32]
    314e:	f832 1f02 	ldrh.w	r1, [r2, #2]!
    3152:	f833 0f02 	ldrh.w	r0, [r3, #2]!
    3156:	4288      	cmp	r0, r1
    3158:	493d      	ldr	r1, [pc, #244]	; (3250 <runCoreKernels()+0x20a8>)
    315a:	bf18      	it	ne
    315c:	f108 0801 	addne.w	r8, r8, #1
    3160:	428a      	cmp	r2, r1
    3162:	d1f4      	bne.n	314e <runCoreKernels()+0x1fa6>
    3164:	4b32      	ldr	r3, [pc, #200]	; (3230 <runCoreKernels()+0x2088>)
    3166:	685f      	ldr	r7, [r3, #4]
    3168:	f003 f96e 	bl	6448 <micros>
    316c:	eeb3 6a0f 	vmov.f32	s12, #63	; 0x41f80000  31.0
    3170:	eddf 5a36 	vldr	s11, [pc, #216]	; 324c <runCoreKernels()+0x20a4>
    3174:	4681      	mov	r9, r0
    3176:	2180      	movs	r1, #128	; 0x80
    3178:	4632      	mov	r2, r6
    317a:	edd2 7a01 	vldr	s15, [r2, #4]
    317e:	320c      	adds	r2, #12
    3180:	ed52 6a03 	vldr	s13, [r2, #-12]
    3184:	eb04 1444 	add.w	r4, r4, r4, lsl #5
    3188:	ee67 7aa5 	vmul.f32	s15, s15, s11
    318c:	ed12 7a01 	vldr	s14, [r2, #-4]
    3190:	ee66 6a86 	vmul.f32	s13, s13, s12
    3194:	42aa      	cmp	r2, r5
    3196:	ee27 7a06 	vmul.f32	s14, s14, s12
    319a:	eefd 7ae7 	vcvt.s32.f32	s15, s15
    319e:	ee17 3a90 	vmov	r3, s15
    31a2:	eefd 7ae6 	vcvt.s32.f32	s15, s13
    31a6:	f003 033f 	and.w	r3, r3, #63	; 0x3f
    31aa:	ee17 0a90 	vmov	r0, s15
    31ae:	eefd 7ac7 	vcvt.s32.f32	s15, s14
    31b2:	ea4f 1343 	mov.w	r3, r3, lsl #5
    31b6:	f000 001f 	and.w	r0, r0, #31
    31ba:	ea43 23c0 	orr.w	r3, r3, r0, lsl #11
    31be:	ee17 0a90 	vmov	r0, s15
    31c2:	f000 001f 	and.w	r0, r0, #31
    31c6:	ea43 0300 	orr.w	r3, r3, r0
    31ca:	ea84 0403 	eor.w	r4, r4, r3
    31ce:	d1d4      	bne.n	317a <runCoreKernels()+0x1fd2>
    31d0:	3901      	subs	r1, #1
    31d2:	d1d1      	bne.n	3178 <runCoreKernels()+0x1fd0>
    31d4:	f003 f938 	bl	6448 <micros>
    31d8:	4a14      	ldr	r2, [pc, #80]	; (322c <runCoreKernels()+0x2084>)
    31da:	4b15      	ldr	r3, [pc, #84]	; (3230 <runCoreKernels()+0x2088>)
    31dc:	eba0 0009 	sub.w	r0, r0, r9
    31e0:	4915      	ldr	r1, [pc, #84]	; (3238 <runCoreKernels()+0x2090>)
    31e2:	685d      	ldr	r5, [r3, #4]
    31e4:	6813      	ldr	r3, [r2, #0]
    31e6:	1bed      	subs	r5, r5, r7
    31e8:	405c      	eors	r4, r3
    31ea:	9b07      	ldr	r3, [sp, #28]
    31ec:	6014      	str	r4, [r2, #0]
    31ee:	fab8 f288 	clz	r2, r8
    31f2:	4c10      	ldr	r4, [pc, #64]	; (3234 <runCoreKernels()+0x208c>)
    31f4:	0952      	lsrs	r2, r2, #5
    31f6:	f833 6f02 	ldrh.w	r6, [r3, #2]!
    31fa:	4071      	eors	r1, r6
    31fc:	4e0f      	ldr	r6, [pc, #60]	; (323c <runCoreKernels()+0x2094>)
    31fe:	42b3      	cmp	r3, r6
    3200:	fb04 f101 	mul.w	r1, r4, r1
    3204:	d1f7      	bne.n	31f6 <runCoreKernels()+0x204e>
    3206:	f44f 7400 	mov.w	r4, #512	; 0x200
    320a:	9104      	str	r1, [sp, #16]
    320c:	9000      	str	r0, [sp, #0]
    320e:	4643      	mov	r3, r8
    3210:	9403      	str	r4, [sp, #12]
    3212:	2480      	movs	r4, #128	; 0x80
    3214:	4910      	ldr	r1, [pc, #64]	; (3258 <runCoreKernels()+0x20b0>)
    3216:	480f      	ldr	r0, [pc, #60]	; (3254 <runCoreKernels()+0x20ac>)
    3218:	9501      	str	r5, [sp, #4]
    321a:	9402      	str	r4, [sp, #8]
    321c:	f7fd f92c 	bl	478 <printResult(char const*, char const*, unsigned long, unsigned long, unsigned long, unsigned long, unsigned long, unsigned long, unsigned long, char const*) [clone .constprop.1]>
    3220:	b025      	add	sp, #148	; 0x94
    3222:	ecbd 8b02 	vpop	{d8}
    3226:	e8bd 8ff0 	ldmia.w	sp!, {r4, r5, r6, r7, r8, r9, sl, fp, pc}
    322a:	bf00      	nop
    322c:	20007138 	.word	0x20007138
    3230:	e0001000 	.word	0xe0001000
    3234:	01000193 	.word	0x01000193
    3238:	811c9dc5 	.word	0x811c9dc5
    323c:	20006516 	.word	0x20006516
    3240:	2000794c 	.word	0x2000794c
    3244:	200003dc 	.word	0x200003dc
    3248:	20000494 	.word	0x20000494
    324c:	427c0000 	.word	0x427c0000
    3250:	2000691e 	.word	0x2000691e
    3254:	20000570 	.word	0x20000570
    3258:	20000580 	.word	0x20000580
    325c:	00000000 	.word	0x00000000

00003260 <runSpanKernels()>:
    3260:	e92d 4ff0 	stmdb	sp!, {r4, r5, r6, r7, r8, r9, sl, fp, lr}
    3264:	ed2d 8b06 	vpush	{d8-d10}
    3268:	b0c7      	sub	sp, #284	; 0x11c
    326a:	4dc1      	ldr	r5, [pc, #772]	; (3570 <runSpanKernels()+0x310>)
    326c:	ab30      	add	r3, sp, #192	; 0xc0
    326e:	ac31      	add	r4, sp, #196	; 0xc4
    3270:	9325      	str	r3, [sp, #148]	; 0x94
    3272:	cd0f      	ldmia	r5!, {r0, r1, r2, r3}
    3274:	c40f      	stmia	r4!, {r0, r1, r2, r3}
    3276:	cd0f      	ldmia	r5!, {r0, r1, r2, r3}
    3278:	ed9f 8bbb 	vldr	d8, [pc, #748]	; 3568 <runSpanKernels()+0x308>
    327c:	c40f      	stmia	r4!, {r0, r1, r2, r3}
    327e:	682b      	ldr	r3, [r5, #0]
    3280:	6023      	str	r3, [r4, #0]
    3282:	9b25      	ldr	r3, [sp, #148]	; 0x94
    3284:	f853 8f04 	ldr.w	r8, [r3, #4]!
    3288:	9325      	str	r3, [sp, #148]	; 0x94
    328a:	ea4f 0358 	mov.w	r3, r8, lsr #1
    328e:	f1a8 0202 	sub.w	r2, r8, #2
    3292:	f1b8 0f01 	cmp.w	r8, #1
    3296:	ea4f 0383 	mov.w	r3, r3, lsl #2
    329a:	9227      	str	r2, [sp, #156]	; 0x9c
    329c:	ea4f 0048 	mov.w	r0, r8, lsl #1
    32a0:	931e      	str	r3, [sp, #120]	; 0x78
    32a2:	f022 0301 	bic.w	r3, r2, #1
    32a6:	ee0a 0a10 	vmov	s20, r0
    32aa:	f103 0102 	add.w	r1, r3, #2
    32ae:	ea4f 0352 	mov.w	r3, r2, lsr #1
    32b2:	f103 0201 	add.w	r2, r3, #1
    32b6:	f028 0301 	bic.w	r3, r8, #1
    32ba:	9120      	str	r1, [sp, #128]	; 0x80
    32bc:	bf98      	it	ls
    32be:	2100      	movls	r1, #0
    32c0:	9322      	str	r3, [sp, #136]	; 0x88
    32c2:	2302      	movs	r3, #2
    32c4:	004c      	lsls	r4, r1, #1
    32c6:	9216      	str	r2, [sp, #88]	; 0x58
    32c8:	9329      	str	r3, [sp, #164]	; 0xa4
    32ca:	eba8 0301 	sub.w	r3, r8, r1
    32ce:	9124      	str	r1, [sp, #144]	; 0x90
    32d0:	3101      	adds	r1, #1
    32d2:	005b      	lsls	r3, r3, #1
    32d4:	942e      	str	r4, [sp, #184]	; 0xb8
    32d6:	9115      	str	r1, [sp, #84]	; 0x54
    32d8:	1ca1      	adds	r1, r4, #2
    32da:	ee09 3a90 	vmov	s19, r3
    32de:	0853      	lsrs	r3, r2, #1
    32e0:	912d      	str	r1, [sp, #180]	; 0xb4
    32e2:	00db      	lsls	r3, r3, #3
    32e4:	9321      	str	r3, [sp, #132]	; 0x84
    32e6:	f022 0301 	bic.w	r3, r2, #1
    32ea:	0092      	lsls	r2, r2, #2
    32ec:	9328      	str	r3, [sp, #160]	; 0xa0
    32ee:	009b      	lsls	r3, r3, #2
    32f0:	ee0a 2a90 	vmov	s21, r2
    32f4:	931f      	str	r3, [sp, #124]	; 0x7c
    32f6:	2300      	movs	r3, #0
    32f8:	931a      	str	r3, [sp, #104]	; 0x68
    32fa:	1e83      	subs	r3, r0, #2
    32fc:	932a      	str	r3, [sp, #168]	; 0xa8
    32fe:	9a1a      	ldr	r2, [sp, #104]	; 0x68
    3300:	499c      	ldr	r1, [pc, #624]	; (3574 <runSpanKernels()+0x314>)
    3302:	489d      	ldr	r0, [pc, #628]	; (3578 <runSpanKernels()+0x318>)
    3304:	0053      	lsls	r3, r2, #1
    3306:	eb01 0942 	add.w	r9, r1, r2, lsl #1
    330a:	eb00 0242 	add.w	r2, r0, r2, lsl #1
    330e:	931c      	str	r3, [sp, #112]	; 0x70
    3310:	920d      	str	r2, [sp, #52]	; 0x34
    3312:	f1b8 0f00 	cmp.w	r8, #0
    3316:	f002 82b7 	beq.w	5888 <runSpanKernels()+0x2628>
    331a:	ee1a 4a10 	vmov	r4, s20
    331e:	1e9a      	subs	r2, r3, #2
    3320:	f647 3cef 	movw	ip, #31727	; 0x7bef
    3324:	190f      	adds	r7, r1, r4
    3326:	1884      	adds	r4, r0, r2
    3328:	4649      	mov	r1, r9
    332a:	921d      	str	r2, [sp, #116]	; 0x74
    332c:	441f      	add	r7, r3
    332e:	4b93      	ldr	r3, [pc, #588]	; (357c <runSpanKernels()+0x31c>)
    3330:	4625      	mov	r5, r4
    3332:	189e      	adds	r6, r3, r2
    3334:	f831 0b02 	ldrh.w	r0, [r1], #2
    3338:	f835 2f02 	ldrh.w	r2, [r5, #2]!
    333c:	428f      	cmp	r7, r1
    333e:	ea80 0302 	eor.w	r3, r0, r2
    3342:	ea02 0200 	and.w	r2, r2, r0
    3346:	ea0c 0353 	and.w	r3, ip, r3, lsr #1
    334a:	4413      	add	r3, r2
    334c:	f826 3f02 	strh.w	r3, [r6, #2]!
    3350:	d1f0      	bne.n	3334 <runSpanKernels()+0xd4>
    3352:	4b8b      	ldr	r3, [pc, #556]	; (3580 <runSpanKernels()+0x320>)
    3354:	f1a9 0102 	sub.w	r1, r9, #2
    3358:	9a1c      	ldr	r2, [sp, #112]	; 0x70
    335a:	f647 36ef 	movw	r6, #31727	; 0x7bef
    335e:	eb03 0a02 	add.w	sl, r3, r2
    3362:	9b2a      	ldr	r3, [sp, #168]	; 0xa8
    3364:	f1aa 0502 	sub.w	r5, sl, #2
    3368:	eb09 0703 	add.w	r7, r9, r3
    336c:	f831 0f02 	ldrh.w	r0, [r1, #2]!
    3370:	f834 2f02 	ldrh.w	r2, [r4, #2]!
    3374:	428f      	cmp	r7, r1
    3376:	ea80 0302 	eor.w	r3, r0, r2
    337a:	ea02 0200 	and.w	r2, r2, r0
    337e:	ea06 0353 	and.w	r3, r6, r3, lsr #1
    3382:	4413      	add	r3, r2
    3384:	f825 3f02 	strh.w	r3, [r5, #2]!
    3388:	d1f0      	bne.n	336c <runSpanKernels()+0x10c>
    338a:	4b7c      	ldr	r3, [pc, #496]	; (357c <runSpanKernels()+0x31c>)
    338c:	ee1a 2a10 	vmov	r2, s20
    3390:	991d      	ldr	r1, [sp, #116]	; 0x74
    3392:	f04f 0b00 	mov.w	fp, #0
    3396:	189c      	adds	r4, r3, r2
    3398:	9a1c      	ldr	r2, [sp, #112]	; 0x70
    339a:	4414      	add	r4, r2
    339c:	4413      	add	r3, r2
    339e:	4a78      	ldr	r2, [pc, #480]	; (3580 <runSpanKernels()+0x320>)
    33a0:	440a      	add	r2, r1
    33a2:	f833 1b02 	ldrh.w	r1, [r3], #2
    33a6:	f832 0f02 	ldrh.w	r0, [r2, #2]!
    33aa:	4288      	cmp	r0, r1
    33ac:	bf18      	it	ne
    33ae:	f10b 0b01 	addne.w	fp, fp, #1
    33b2:	429c      	cmp	r4, r3
    33b4:	d1f5      	bne.n	33a2 <runSpanKernels()+0x142>
    33b6:	fabb f38b 	clz	r3, fp
    33ba:	095b      	lsrs	r3, r3, #5
    33bc:	9309      	str	r3, [sp, #36]	; 0x24
    33be:	4b71      	ldr	r3, [pc, #452]	; (3584 <runSpanKernels()+0x324>)
    33c0:	f44f 7400 	mov.w	r4, #512	; 0x200
    33c4:	2500      	movs	r5, #0
    33c6:	4647      	mov	r7, r8
    33c8:	685b      	ldr	r3, [r3, #4]
    33ca:	930a      	str	r3, [sp, #40]	; 0x28
    33cc:	f003 f83c 	bl	6448 <micros>
    33d0:	9b1a      	ldr	r3, [sp, #104]	; 0x68
    33d2:	f647 3eef 	movw	lr, #31727	; 0x7bef
    33d6:	4a6a      	ldr	r2, [pc, #424]	; (3580 <runSpanKernels()+0x320>)
    33d8:	4443      	add	r3, r8
    33da:	f8cd b030 	str.w	fp, [sp, #48]	; 0x30
    33de:	f8df c1b4 	ldr.w	ip, [pc, #436]	; 3594 <runSpanKernels()+0x334>
    33e2:	eb02 0343 	add.w	r3, r2, r3, lsl #1
    33e6:	f8dd b034 	ldr.w	fp, [sp, #52]	; 0x34
    33ea:	900b      	str	r0, [sp, #44]	; 0x2c
    33ec:	9308      	str	r3, [sp, #32]
    33ee:	9b2a      	ldr	r3, [sp, #168]	; 0xa8
    33f0:	f8cd a0bc 	str.w	sl, [sp, #188]	; 0xbc
    33f4:	444b      	add	r3, r9
    33f6:	9307      	str	r3, [sp, #28]
    33f8:	2f00      	cmp	r7, #0
    33fa:	f002 81eb 	beq.w	57d4 <runSpanKernels()+0x2574>
    33fe:	f1a9 0202 	sub.w	r2, r9, #2
    3402:	f1ab 0602 	sub.w	r6, fp, #2
    3406:	f1aa 0002 	sub.w	r0, sl, #2
    340a:	f832 1f02 	ldrh.w	r1, [r2, #2]!
    340e:	f836 8f02 	ldrh.w	r8, [r6, #2]!
    3412:	ea81 0308 	eor.w	r3, r1, r8
    3416:	ea01 0108 	and.w	r1, r1, r8
    341a:	ea0e 0353 	and.w	r3, lr, r3, lsr #1
    341e:	440b      	add	r3, r1
    3420:	f820 3f02 	strh.w	r3, [r0, #2]!
    3424:	9b07      	ldr	r3, [sp, #28]
    3426:	4293      	cmp	r3, r2
    3428:	d1ef      	bne.n	340a <runSpanKernels()+0x1aa>
    342a:	4652      	mov	r2, sl
    342c:	4b56      	ldr	r3, [pc, #344]	; (3588 <runSpanKernels()+0x328>)
    342e:	f832 1b02 	ldrh.w	r1, [r2], #2
    3432:	404b      	eors	r3, r1
    3434:	9908      	ldr	r1, [sp, #32]
    3436:	4291      	cmp	r1, r2
    3438:	fb0c f303 	mul.w	r3, ip, r3
    343c:	d1f7      	bne.n	342e <runSpanKernels()+0x1ce>
    343e:	3c01      	subs	r4, #1
    3440:	ea85 0503 	eor.w	r5, r5, r3
    3444:	d1d8      	bne.n	33f8 <runSpanKernels()+0x198>
    3446:	f8dd b030 	ldr.w	fp, [sp, #48]	; 0x30
    344a:	f002 fffd 	bl	6448 <micros>
    344e:	9b0b      	ldr	r3, [sp, #44]	; 0x2c
    3450:	46b8      	mov	r8, r7
    3452:	4a4e      	ldr	r2, [pc, #312]	; (358c <runSpanKernels()+0x32c>)
    3454:	2130      	movs	r1, #48	; 0x30
    3456:	1ac7      	subs	r7, r0, r3
    3458:	4b4a      	ldr	r3, [pc, #296]	; (3584 <runSpanKernels()+0x324>)
    345a:	a83a      	add	r0, sp, #232	; 0xe8
    345c:	685e      	ldr	r6, [r3, #4]
    345e:	9b0a      	ldr	r3, [sp, #40]	; 0x28
    3460:	1af6      	subs	r6, r6, r3
    3462:	9b1a      	ldr	r3, [sp, #104]	; 0x68
    3464:	9300      	str	r3, [sp, #0]
    3466:	6813      	ldr	r3, [r2, #0]
    3468:	405d      	eors	r5, r3
