
D:\Programmation\tgx\validation\performance\builds\teensy41_texcoord_eq_teensy41_run5_full_lengths\TextureCoordEquivalenceBench.ino.elf:     file format elf32-littlearm


Disassembly of section .text.code:

60001400 <memory_copy>:
60001400:	4282      	cmp	r2, r0
60001402:	d005      	beq.n	60001410 <memory_copy+0x10>
60001404:	f851 3b04 	ldr.w	r3, [r1], #4
60001408:	f840 3b04 	str.w	r3, [r0], #4
6000140c:	4282      	cmp	r2, r0
6000140e:	d8f9      	bhi.n	60001404 <memory_copy+0x4>
60001410:	4770      	bx	lr
60001412:	bf00      	nop

60001414 <memory_clear.constprop.0>:
60001414:	4a04      	ldr	r2, [pc, #16]	; (60001428 <memory_clear.constprop.0+0x14>)
60001416:	4905      	ldr	r1, [pc, #20]	; (6000142c <memory_clear.constprop.0+0x18>)
60001418:	f04f 0300 	mov.w	r3, #0
6000141c:	f842 3b04 	str.w	r3, [r2], #4
60001420:	4291      	cmp	r1, r2
60001422:	d8fb      	bhi.n	6000141c <memory_clear.constprop.0+0x8>
60001424:	4770      	bx	lr
60001426:	bf00      	nop
60001428:	20000ec0 	.word	0x20000ec0
6000142c:	200037e0 	.word	0x200037e0

60001430 <ResetHandler2>:
60001430:	b580      	push	{r7, lr}
60001432:	f3bf 8f4f 	dsb	sy
60001436:	f000 f94b 	bl	600016d0 <startup_default_early_hook>
6000143a:	4c54      	ldr	r4, [pc, #336]	; (6000158c <ResetHandler2+0x15c>)
6000143c:	4b54      	ldr	r3, [pc, #336]	; (60001590 <ResetHandler2+0x160>)
6000143e:	2008      	movs	r0, #8
60001440:	4954      	ldr	r1, [pc, #336]	; (60001594 <ResetHandler2+0x164>)
60001442:	f8c3 0154 	str.w	r0, [r3, #340]	; 0x154
60001446:	4a54      	ldr	r2, [pc, #336]	; (60001598 <ResetHandler2+0x168>)
60001448:	f8c3 1100 	str.w	r1, [r3, #256]	; 0x100
6000144c:	4853      	ldr	r0, [pc, #332]	; (6000159c <ResetHandler2+0x16c>)
6000144e:	f8c3 40f0 	str.w	r4, [r3, #240]	; 0xf0
60001452:	4953      	ldr	r1, [pc, #332]	; (600015a0 <ResetHandler2+0x170>)
60001454:	f7ff ffd4 	bl	60001400 <memory_copy>
60001458:	4a52      	ldr	r2, [pc, #328]	; (600015a4 <ResetHandler2+0x174>)
6000145a:	4953      	ldr	r1, [pc, #332]	; (600015a8 <ResetHandler2+0x178>)
6000145c:	4853      	ldr	r0, [pc, #332]	; (600015ac <ResetHandler2+0x17c>)
6000145e:	f7ff ffcf 	bl	60001400 <memory_copy>
60001462:	4c53      	ldr	r4, [pc, #332]	; (600015b0 <ResetHandler2+0x180>)
60001464:	f7ff ffd6 	bl	60001414 <memory_clear.constprop.0>
60001468:	f44f 0070 	mov.w	r0, #15728640	; 0xf00000
6000146c:	f04f 21e0 	mov.w	r1, #3758153728	; 0xe000e000
60001470:	2300      	movs	r3, #0
60001472:	4a50      	ldr	r2, [pc, #320]	; (600015b4 <ResetHandler2+0x184>)
60001474:	f8c1 0d88 	str.w	r0, [r1, #3464]	; 0xd88
60001478:	f844 2023 	str.w	r2, [r4, r3, lsl #2]
6000147c:	3301      	adds	r3, #1
6000147e:	2bb0      	cmp	r3, #176	; 0xb0
60001480:	d1fa      	bne.n	60001478 <ResetHandler2+0x48>
60001482:	4b4d      	ldr	r3, [pc, #308]	; (600015b8 <ResetHandler2+0x188>)
60001484:	2180      	movs	r1, #128	; 0x80
60001486:	4a4d      	ldr	r2, [pc, #308]	; (600015bc <ResetHandler2+0x18c>)
60001488:	f803 1b01 	strb.w	r1, [r3], #1
6000148c:	4293      	cmp	r3, r2
6000148e:	d1fb      	bne.n	60001488 <ResetHandler2+0x58>
60001490:	f04f 25e0 	mov.w	r5, #3758153728	; 0xe000e000
60001494:	4f4a      	ldr	r7, [pc, #296]	; (600015c0 <ResetHandler2+0x190>)
60001496:	4a4b      	ldr	r2, [pc, #300]	; (600015c4 <ResetHandler2+0x194>)
60001498:	f04f 31ff 	mov.w	r1, #4294967295
6000149c:	f8c5 4d08 	str.w	r4, [r5, #3336]	; 0xd08
600014a0:	2600      	movs	r6, #0
600014a2:	f8d5 3d24 	ldr.w	r3, [r5, #3364]	; 0xd24
600014a6:	f443 23e0 	orr.w	r3, r3, #458752	; 0x70000
600014aa:	f8c5 3d24 	str.w	r3, [r5, #3364]	; 0xd24
600014ae:	69fb      	ldr	r3, [r7, #28]
600014b0:	f023 037f 	bic.w	r3, r3, #127	; 0x7f
600014b4:	f043 0340 	orr.w	r3, r3, #64	; 0x40
600014b8:	61fb      	str	r3, [r7, #28]
600014ba:	6a7b      	ldr	r3, [r7, #36]	; 0x24
600014bc:	f023 037f 	bic.w	r3, r3, #127	; 0x7f
600014c0:	f043 0340 	orr.w	r3, r3, #64	; 0x40
600014c4:	627b      	str	r3, [r7, #36]	; 0x24
600014c6:	6691      	str	r1, [r2, #104]	; 0x68
600014c8:	66d1      	str	r1, [r2, #108]	; 0x6c
600014ca:	6711      	str	r1, [r2, #112]	; 0x70
600014cc:	6751      	str	r1, [r2, #116]	; 0x74
600014ce:	f000 f907 	bl	600016e0 <configure_cache>
600014d2:	4b3d      	ldr	r3, [pc, #244]	; (600015c8 <ResetHandler2+0x198>)
600014d4:	2263      	movs	r2, #99	; 0x63
600014d6:	493d      	ldr	r1, [pc, #244]	; (600015cc <ResetHandler2+0x19c>)
600014d8:	63a3      	str	r3, [r4, #56]	; 0x38
600014da:	4b3d      	ldr	r3, [pc, #244]	; (600015d0 <ResetHandler2+0x1a0>)
600014dc:	63e3      	str	r3, [r4, #60]	; 0x3c
600014de:	2303      	movs	r3, #3
600014e0:	616a      	str	r2, [r5, #20]
600014e2:	4a3c      	ldr	r2, [pc, #240]	; (600015d4 <ResetHandler2+0x1a4>)
600014e4:	61ae      	str	r6, [r5, #24]
600014e6:	612b      	str	r3, [r5, #16]
600014e8:	f8c5 2d20 	str.w	r2, [r5, #3360]	; 0xd20
600014ec:	f8d5 2dfc 	ldr.w	r2, [r5, #3580]	; 0xdfc
600014f0:	4b39      	ldr	r3, [pc, #228]	; (600015d8 <ResetHandler2+0x1a8>)
600014f2:	f042 7280 	orr.w	r2, r2, #16777216	; 0x1000000
600014f6:	f8c5 2dfc 	str.w	r2, [r5, #3580]	; 0xdfc
600014fa:	681a      	ldr	r2, [r3, #0]
600014fc:	f042 0201 	orr.w	r2, r2, #1
60001500:	601a      	str	r2, [r3, #0]
60001502:	685b      	ldr	r3, [r3, #4]
60001504:	600b      	str	r3, [r1, #0]
60001506:	f000 faaf 	bl	60001a68 <usb_pll_start>
6000150a:	4834      	ldr	r0, [pc, #208]	; (600015dc <ResetHandler2+0x1ac>)
6000150c:	f000 fc50 	bl	60001db0 <__set_arm_clock_veneer>
60001510:	6ef9      	ldr	r1, [r7, #108]	; 0x6c
60001512:	4b33      	ldr	r3, [pc, #204]	; (600015e0 <ResetHandler2+0x1b0>)
60001514:	4a33      	ldr	r2, [pc, #204]	; (600015e4 <ResetHandler2+0x1b4>)
60001516:	f441 5140 	orr.w	r1, r1, #12288	; 0x3000
6000151a:	66f9      	str	r1, [r7, #108]	; 0x6c
6000151c:	601e      	str	r6, [r3, #0]
6000151e:	f8c3 6108 	str.w	r6, [r3, #264]	; 0x108
60001522:	f8c3 6118 	str.w	r6, [r3, #280]	; 0x118
60001526:	f8c3 6128 	str.w	r6, [r3, #296]	; 0x128
6000152a:	f8c3 6138 	str.w	r6, [r3, #312]	; 0x138
6000152e:	6b93      	ldr	r3, [r2, #56]	; 0x38
60001530:	07db      	lsls	r3, r3, #31
60001532:	d408      	bmi.n	60001546 <ResetHandler2+0x116>
60001534:	f642 6315 	movw	r3, #11797	; 0x2e15
60001538:	492b      	ldr	r1, [pc, #172]	; (600015e8 <ResetHandler2+0x1b8>)
6000153a:	6551      	str	r1, [r2, #84]	; 0x54
6000153c:	6513      	str	r3, [r2, #80]	; 0x50
6000153e:	6b93      	ldr	r3, [r2, #56]	; 0x38
60001540:	f043 0301 	orr.w	r3, r3, #1
60001544:	6393      	str	r3, [r2, #56]	; 0x38
60001546:	4a27      	ldr	r2, [pc, #156]	; (600015e4 <ResetHandler2+0x1b4>)
60001548:	4c28      	ldr	r4, [pc, #160]	; (600015ec <ResetHandler2+0x1bc>)
6000154a:	6893      	ldr	r3, [r2, #8]
6000154c:	f043 1301 	orr.w	r3, r3, #65537	; 0x10001
60001550:	6093      	str	r3, [r2, #8]
60001552:	f000 f94f 	bl	600017f4 <configure_external_ram>
60001556:	f000 fbeb 	bl	60001d30 <analog_init>
6000155a:	f000 fc31 	bl	60001dc0 <__pwm_init_veneer>
6000155e:	f000 fab1 	bl	60001ac4 <tempmon_init>
60001562:	f000 f8b7 	bl	600016d4 <startup_default_middle_hook>
60001566:	6823      	ldr	r3, [r4, #0]
60001568:	2b13      	cmp	r3, #19
6000156a:	d9fc      	bls.n	60001566 <ResetHandler2+0x136>
6000156c:	f000 fb42 	bl	60001bf4 <usb_init>
60001570:	6823      	ldr	r3, [r4, #0]
60001572:	f5b3 7f96 	cmp.w	r3, #300	; 0x12c
60001576:	d3fb      	bcc.n	60001570 <ResetHandler2+0x140>
60001578:	f000 f8b0 	bl	600016dc <startup_debug_reset>
6000157c:	f000 f8ac 	bl	600016d8 <startup_default_late_hook>
60001580:	f000 fc0e 	bl	60001da0 <____libc_init_array_veneer>
60001584:	f000 fc08 	bl	60001d98 <__main_veneer>
60001588:	bf30      	wfi
6000158a:	e7fd      	b.n	60001588 <ResetHandler2+0x158>
6000158c:	13110d0c 	.word	0x13110d0c
60001590:	400d8000 	.word	0x400d8000
60001594:	2018101b 	.word	0x2018101b
60001598:	00005670 	.word	0x00005670
6000159c:	00000000 	.word	0x00000000
600015a0:	60001edc 	.word	0x60001edc
600015a4:	20000ec0 	.word	0x20000ec0
600015a8:	60007550 	.word	0x60007550
600015ac:	20000000 	.word	0x20000000
600015b0:	20000c00 	.word	0x20000c00
600015b4:	000031b9 	.word	0x000031b9
600015b8:	e000e400 	.word	0xe000e400
600015bc:	e000e4a0 	.word	0xe000e4a0
600015c0:	400fc000 	.word	0x400fc000
600015c4:	400ac000 	.word	0x400ac000
600015c8:	000048e5 	.word	0x000048e5
600015cc:	20003778 	.word	0x20003778
600015d0:	00004931 	.word	0x00004931
600015d4:	20200000 	.word	0x20200000
600015d8:	e0001000 	.word	0xe0001000
600015dc:	23c34600 	.word	0x23c34600
600015e0:	40084000 	.word	0x40084000
600015e4:	400d4000 	.word	0x400d4000
600015e8:	56c00000 	.word	0x56c00000
600015ec:	2000377c 	.word	0x2000377c

600015f0 <ResetHandler>:
600015f0:	4b05      	ldr	r3, [pc, #20]	; (60001608 <ResetHandler+0x18>)
600015f2:	f44f 012a 	mov.w	r1, #11141120	; 0xaa0000
600015f6:	4a05      	ldr	r2, [pc, #20]	; (6000160c <ResetHandler+0x1c>)
600015f8:	4805      	ldr	r0, [pc, #20]	; (60001610 <ResetHandler+0x20>)
600015fa:	645a      	str	r2, [r3, #68]	; 0x44
600015fc:	6418      	str	r0, [r3, #64]	; 0x40
600015fe:	4a05      	ldr	r2, [pc, #20]	; (60001614 <ResetHandler+0x24>)
60001600:	6399      	str	r1, [r3, #56]	; 0x38
60001602:	4695      	mov	sp, r2
60001604:	f7ff ff14 	bl	60001430 <ResetHandler2>
60001608:	400ac000 	.word	0x400ac000
6000160c:	aaaaaaab 	.word	0xaaaaaaab
60001610:	00200007 	.word	0x00200007
60001614:	20078000 	.word	0x20078000

60001618 <flexspi2_psram_size>:
60001618:	4a2b      	ldr	r2, [pc, #172]	; (600016c8 <flexspi2_psram_size+0xb0>)
6000161a:	2100      	movs	r1, #0
6000161c:	2301      	movs	r3, #1
6000161e:	b410      	push	{r4}
60001620:	f8c2 00a0 	str.w	r0, [r2, #160]	; 0xa0
60001624:	f8c2 10a4 	str.w	r1, [r2, #164]	; 0xa4
60001628:	f8c2 30b0 	str.w	r3, [r2, #176]	; 0xb0
6000162c:	6953      	ldr	r3, [r2, #20]
6000162e:	07db      	lsls	r3, r3, #31
60001630:	d5fc      	bpl.n	6000162c <flexspi2_psram_size+0x14>
60001632:	2301      	movs	r3, #1
60001634:	f44f 3480 	mov.w	r4, #65536	; 0x10000
60001638:	4923      	ldr	r1, [pc, #140]	; (600016c8 <flexspi2_psram_size+0xb0>)
6000163a:	6153      	str	r3, [r2, #20]
6000163c:	f8c2 00a0 	str.w	r0, [r2, #160]	; 0xa0
60001640:	f8c2 40a4 	str.w	r4, [r2, #164]	; 0xa4
60001644:	f8c2 30b0 	str.w	r3, [r2, #176]	; 0xb0
60001648:	694b      	ldr	r3, [r1, #20]
6000164a:	07dc      	lsls	r4, r3, #31
6000164c:	d5fc      	bpl.n	60001648 <flexspi2_psram_size+0x30>
6000164e:	2301      	movs	r3, #1
60001650:	f44f 3400 	mov.w	r4, #131072	; 0x20000
60001654:	4a1c      	ldr	r2, [pc, #112]	; (600016c8 <flexspi2_psram_size+0xb0>)
60001656:	614b      	str	r3, [r1, #20]
60001658:	f8c1 00a0 	str.w	r0, [r1, #160]	; 0xa0
6000165c:	f8c1 40a4 	str.w	r4, [r1, #164]	; 0xa4
60001660:	f8c1 30b0 	str.w	r3, [r1, #176]	; 0xb0
60001664:	6953      	ldr	r3, [r2, #20]
60001666:	07d9      	lsls	r1, r3, #31
60001668:	d5fc      	bpl.n	60001664 <flexspi2_psram_size+0x4c>
6000166a:	2301      	movs	r3, #1
6000166c:	4c17      	ldr	r4, [pc, #92]	; (600016cc <flexspi2_psram_size+0xb4>)
6000166e:	4916      	ldr	r1, [pc, #88]	; (600016c8 <flexspi2_psram_size+0xb0>)
60001670:	6153      	str	r3, [r2, #20]
60001672:	f8c2 00a0 	str.w	r0, [r2, #160]	; 0xa0
60001676:	f8c2 40a4 	str.w	r4, [r2, #164]	; 0xa4
6000167a:	f8c2 30b0 	str.w	r3, [r2, #176]	; 0xb0
6000167e:	694b      	ldr	r3, [r1, #20]
60001680:	07db      	lsls	r3, r3, #31
60001682:	d5fc      	bpl.n	6000167e <flexspi2_psram_size+0x66>
60001684:	f8d1 3100 	ldr.w	r3, [r1, #256]	; 0x100
60001688:	f645 500d 	movw	r0, #23821	; 0x5d0d
6000168c:	2421      	movs	r4, #33	; 0x21
6000168e:	b29a      	uxth	r2, r3
60001690:	614c      	str	r4, [r1, #20]
60001692:	4282      	cmp	r2, r0
60001694:	d014      	beq.n	600016c0 <flexspi2_psram_size+0xa8>
60001696:	f645 519d 	movw	r1, #23965	; 0x5d9d
6000169a:	428a      	cmp	r2, r1
6000169c:	d10c      	bne.n	600016b8 <flexspi2_psram_size+0xa0>
6000169e:	f3c3 5342 	ubfx	r3, r3, #21, #3
600016a2:	2b03      	cmp	r3, #3
600016a4:	d00c      	beq.n	600016c0 <flexspi2_psram_size+0xa8>
600016a6:	f1a3 0304 	sub.w	r3, r3, #4
600016aa:	f85d 4b04 	ldr.w	r4, [sp], #4
600016ae:	fab3 f383 	clz	r3, r3
600016b2:	095b      	lsrs	r3, r3, #5
600016b4:	0118      	lsls	r0, r3, #4
600016b6:	4770      	bx	lr
600016b8:	2000      	movs	r0, #0
600016ba:	f85d 4b04 	ldr.w	r4, [sp], #4
600016be:	4770      	bx	lr
600016c0:	2008      	movs	r0, #8
600016c2:	f85d 4b04 	ldr.w	r4, [sp], #4
600016c6:	4770      	bx	lr
600016c8:	402a4000 	.word	0x402a4000
600016cc:	00030004 	.word	0x00030004

600016d0 <startup_default_early_hook>:
600016d0:	4770      	bx	lr
600016d2:	bf00      	nop

600016d4 <startup_default_middle_hook>:
600016d4:	4770      	bx	lr
600016d6:	bf00      	nop

600016d8 <startup_default_late_hook>:
600016d8:	4770      	bx	lr
600016da:	bf00      	nop

600016dc <startup_debug_reset>:
600016dc:	bf00      	nop
600016de:	4770      	bx	lr

600016e0 <configure_cache>:
600016e0:	b410      	push	{r4}
600016e2:	f04f 23e0 	mov.w	r3, #3758153728	; 0xe000e000
600016e6:	2100      	movs	r1, #0
600016e8:	2410      	movs	r4, #16
600016ea:	4832      	ldr	r0, [pc, #200]	; (600017b4 <configure_cache+0xd4>)
600016ec:	f8c3 1d94 	str.w	r1, [r3, #3476]	; 0xd94
600016f0:	f8c3 4d9c 	str.w	r4, [r3, #3484]	; 0xd9c
600016f4:	2411      	movs	r4, #17
600016f6:	f8c3 0da0 	str.w	r0, [r3, #3488]	; 0xda0
600016fa:	482f      	ldr	r0, [pc, #188]	; (600017b8 <configure_cache+0xd8>)
600016fc:	f8c3 4d9c 	str.w	r4, [r3, #3484]	; 0xd9c
60001700:	2412      	movs	r4, #18
60001702:	f8c3 0da0 	str.w	r0, [r3, #3488]	; 0xda0
60001706:	482d      	ldr	r0, [pc, #180]	; (600017bc <configure_cache+0xdc>)
60001708:	f8c3 4d9c 	str.w	r4, [r3, #3484]	; 0xd9c
6000170c:	4a2c      	ldr	r2, [pc, #176]	; (600017c0 <configure_cache+0xe0>)
6000170e:	f8c3 0da0 	str.w	r0, [r3, #3488]	; 0xda0
60001712:	4c2c      	ldr	r4, [pc, #176]	; (600017c4 <configure_cache+0xe4>)
60001714:	f042 0215 	orr.w	r2, r2, #21
60001718:	482b      	ldr	r0, [pc, #172]	; (600017c8 <configure_cache+0xe8>)
6000171a:	f8c3 4d9c 	str.w	r4, [r3, #3484]	; 0xd9c
6000171e:	f8c3 0da0 	str.w	r0, [r3, #3488]	; 0xda0
60001722:	4c2a      	ldr	r4, [pc, #168]	; (600017cc <configure_cache+0xec>)
60001724:	482a      	ldr	r0, [pc, #168]	; (600017d0 <configure_cache+0xf0>)
60001726:	f8c3 4d9c 	str.w	r4, [r3, #3484]	; 0xd9c
6000172a:	f8c3 0da0 	str.w	r0, [r3, #3488]	; 0xda0
6000172e:	4c29      	ldr	r4, [pc, #164]	; (600017d4 <configure_cache+0xf4>)
60001730:	f8c3 2d9c 	str.w	r2, [r3, #3484]	; 0xd9c
60001734:	4828      	ldr	r0, [pc, #160]	; (600017d8 <configure_cache+0xf8>)
60001736:	4a29      	ldr	r2, [pc, #164]	; (600017dc <configure_cache+0xfc>)
60001738:	f8c3 4da0 	str.w	r4, [r3, #3488]	; 0xda0
6000173c:	f8c3 0d9c 	str.w	r0, [r3, #3484]	; 0xd9c
60001740:	f8c3 2da0 	str.w	r2, [r3, #3488]	; 0xda0
60001744:	f502 22a0 	add.w	r2, r2, #327680	; 0x50000
60001748:	4c25      	ldr	r4, [pc, #148]	; (600017e0 <configure_cache+0x100>)
6000174a:	320c      	adds	r2, #12
6000174c:	4825      	ldr	r0, [pc, #148]	; (600017e4 <configure_cache+0x104>)
6000174e:	f8c3 4d9c 	str.w	r4, [r3, #3484]	; 0xd9c
60001752:	f8c3 2da0 	str.w	r2, [r3, #3488]	; 0xda0
60001756:	4a24      	ldr	r2, [pc, #144]	; (600017e8 <configure_cache+0x108>)
60001758:	f8c3 0d9c 	str.w	r0, [r3, #3484]	; 0xd9c
6000175c:	f8c3 2da0 	str.w	r2, [r3, #3488]	; 0xda0
60001760:	f102 6240 	add.w	r2, r2, #201326592	; 0xc000000
60001764:	4c21      	ldr	r4, [pc, #132]	; (600017ec <configure_cache+0x10c>)
60001766:	3202      	adds	r2, #2
60001768:	4821      	ldr	r0, [pc, #132]	; (600017f0 <configure_cache+0x110>)
6000176a:	f8c3 4d9c 	str.w	r4, [r3, #3484]	; 0xd9c
6000176e:	f8c3 2da0 	str.w	r2, [r3, #3488]	; 0xda0
60001772:	320a      	adds	r2, #10
60001774:	f8c3 0d9c 	str.w	r0, [r3, #3484]	; 0xd9c
60001778:	f8c3 2da0 	str.w	r2, [r3, #3488]	; 0xda0
6000177c:	bf00      	nop
6000177e:	bf00      	nop
60001780:	bf00      	nop
60001782:	bf00      	nop
60001784:	bf00      	nop
60001786:	2201      	movs	r2, #1
60001788:	f8c3 2d94 	str.w	r2, [r3, #3476]	; 0xd94
6000178c:	f3bf 8f4f 	dsb	sy
60001790:	f3bf 8f6f 	isb	sy
60001794:	f8c3 1f50 	str.w	r1, [r3, #3920]	; 0xf50
60001798:	f3bf 8f4f 	dsb	sy
6000179c:	f3bf 8f6f 	isb	sy
600017a0:	f8d3 2d14 	ldr.w	r2, [r3, #3348]	; 0xd14
600017a4:	f85d 4b04 	ldr.w	r4, [sp], #4
600017a8:	f442 3240 	orr.w	r2, r2, #196608	; 0x30000
600017ac:	f8c3 2d14 	str.w	r2, [r3, #3348]	; 0xd14
600017b0:	4770      	bx	lr
600017b2:	bf00      	nop
600017b4:	1000003f 	.word	0x1000003f
600017b8:	07080025 	.word	0x07080025
600017bc:	00100009 	.word	0x00100009
600017c0:	200037e0 	.word	0x200037e0
600017c4:	00200013 	.word	0x00200013
600017c8:	07020021 	.word	0x07020021
600017cc:	20000014 	.word	0x20000014
600017d0:	13080025 	.word	0x13080025
600017d4:	10000009 	.word	0x10000009
600017d8:	20200016 	.word	0x20200016
600017dc:	130b0027 	.word	0x130b0027
600017e0:	40000017 	.word	0x40000017
600017e4:	60000018 	.word	0x60000018
600017e8:	070b002f 	.word	0x070b002f
600017ec:	70000019 	.word	0x70000019
600017f0:	8000001a 	.word	0x8000001a

600017f4 <configure_external_ram>:
600017f4:	b5f0      	push	{r4, r5, r6, r7, lr}
600017f6:	4b82      	ldr	r3, [pc, #520]	; (60001a00 <configure_external_ram+0x20c>)
600017f8:	2218      	movs	r2, #24
600017fa:	4d82      	ldr	r5, [pc, #520]	; (60001a04 <configure_external_ram+0x210>)
600017fc:	2001      	movs	r0, #1
600017fe:	4f82      	ldr	r7, [pc, #520]	; (60001a08 <configure_external_ram+0x214>)
60001800:	b083      	sub	sp, #12
60001802:	f8c3 525c 	str.w	r5, [r3, #604]	; 0x25c
60001806:	4981      	ldr	r1, [pc, #516]	; (60001a0c <configure_external_ram+0x218>)
60001808:	f8c3 7260 	str.w	r7, [r3, #608]	; 0x260
6000180c:	4c80      	ldr	r4, [pc, #512]	; (60001a10 <configure_external_ram+0x21c>)
6000180e:	f8c3 5264 	str.w	r5, [r3, #612]	; 0x264
60001812:	f5a5 4530 	sub.w	r5, r5, #45056	; 0xb000
60001816:	4e7f      	ldr	r6, [pc, #508]	; (60001a14 <configure_external_ram+0x220>)
60001818:	f8c3 5268 	str.w	r5, [r3, #616]	; 0x268
6000181c:	f248 750c 	movw	r5, #34572	; 0x870c
60001820:	f8c3 426c 	str.w	r4, [r3, #620]	; 0x26c
60001824:	f8c3 4270 	str.w	r4, [r3, #624]	; 0x270
60001828:	f8c3 4274 	str.w	r4, [r3, #628]	; 0x274
6000182c:	f8c3 4278 	str.w	r4, [r3, #632]	; 0x278
60001830:	f04f 34ff 	mov.w	r4, #4294967295
60001834:	66da      	str	r2, [r3, #108]	; 0x6c
60001836:	671a      	str	r2, [r3, #112]	; 0x70
60001838:	675a      	str	r2, [r3, #116]	; 0x74
6000183a:	679a      	str	r2, [r3, #120]	; 0x78
6000183c:	67da      	str	r2, [r3, #124]	; 0x7c
6000183e:	f8c3 2080 	str.w	r2, [r3, #128]	; 0x80
60001842:	f8c3 2084 	str.w	r2, [r3, #132]	; 0x84
60001846:	f8c3 2088 	str.w	r2, [r3, #136]	; 0x88
6000184a:	f8c1 032c 	str.w	r0, [r1, #812]	; 0x32c
6000184e:	4a72      	ldr	r2, [pc, #456]	; (60001a18 <configure_external_ram+0x224>)
60001850:	f8c1 0330 	str.w	r0, [r1, #816]	; 0x330
60001854:	f8c1 0334 	str.w	r0, [r1, #820]	; 0x334
60001858:	f8c1 0338 	str.w	r0, [r1, #824]	; 0x338
6000185c:	f8c1 033c 	str.w	r0, [r1, #828]	; 0x33c
60001860:	f8c1 0350 	str.w	r0, [r1, #848]	; 0x350
60001864:	69b1      	ldr	r1, [r6, #24]
60001866:	4b6d      	ldr	r3, [pc, #436]	; (60001a1c <configure_external_ram+0x228>)
60001868:	400a      	ands	r2, r1
6000186a:	486d      	ldr	r0, [pc, #436]	; (60001a20 <configure_external_ram+0x22c>)
6000186c:	496d      	ldr	r1, [pc, #436]	; (60001a24 <configure_external_ram+0x230>)
6000186e:	4313      	orrs	r3, r2
60001870:	4a6d      	ldr	r2, [pc, #436]	; (60001a28 <configure_external_ram+0x234>)
60001872:	61b3      	str	r3, [r6, #24]
60001874:	f8d6 3084 	ldr.w	r3, [r6, #132]	; 0x84
60001878:	f043 030c 	orr.w	r3, r3, #12
6000187c:	f8c6 3084 	str.w	r3, [r6, #132]	; 0x84
60001880:	6803      	ldr	r3, [r0, #0]
60001882:	f043 0302 	orr.w	r3, r3, #2
60001886:	6003      	str	r3, [r0, #0]
60001888:	6803      	ldr	r3, [r0, #0]
6000188a:	402b      	ands	r3, r5
6000188c:	2521      	movs	r5, #33	; 0x21
6000188e:	431a      	orrs	r2, r3
60001890:	4b66      	ldr	r3, [pc, #408]	; (60001a2c <configure_external_ram+0x238>)
60001892:	6002      	str	r2, [r0, #0]
60001894:	6044      	str	r4, [r0, #4]
60001896:	688a      	ldr	r2, [r1, #8]
60001898:	4c65      	ldr	r4, [pc, #404]	; (60001a30 <configure_external_ram+0x23c>)
6000189a:	4013      	ands	r3, r2
6000189c:	4a65      	ldr	r2, [pc, #404]	; (60001a34 <configure_external_ram+0x240>)
6000189e:	f043 5300 	orr.w	r3, r3, #536870912	; 0x20000000
600018a2:	6083      	str	r3, [r0, #8]
600018a4:	68c3      	ldr	r3, [r0, #12]
600018a6:	f023 0378 	bic.w	r3, r3, #120	; 0x78
600018aa:	60c3      	str	r3, [r0, #12]
600018ac:	6a03      	ldr	r3, [r0, #32]
600018ae:	4013      	ands	r3, r2
600018b0:	4323      	orrs	r3, r4
600018b2:	6203      	str	r3, [r0, #32]
600018b4:	6a03      	ldr	r3, [r0, #32]
600018b6:	4013      	ands	r3, r2
600018b8:	4a5f      	ldr	r2, [pc, #380]	; (60001a38 <configure_external_ram+0x244>)
600018ba:	4323      	orrs	r3, r4
600018bc:	f240 6405 	movw	r4, #1541	; 0x605
600018c0:	6243      	str	r3, [r0, #36]	; 0x24
600018c2:	6282      	str	r2, [r0, #40]	; 0x28
600018c4:	62c2      	str	r2, [r0, #44]	; 0x2c
600018c6:	2200      	movs	r2, #0
600018c8:	f8d1 30b8 	ldr.w	r3, [r1, #184]	; 0xb8
600018cc:	f023 033f 	bic.w	r3, r3, #63	; 0x3f
600018d0:	f043 0301 	orr.w	r3, r3, #1
600018d4:	f8c0 30b8 	str.w	r3, [r0, #184]	; 0xb8
600018d8:	f8d1 30bc 	ldr.w	r3, [r1, #188]	; 0xbc
600018dc:	4957      	ldr	r1, [pc, #348]	; (60001a3c <configure_external_ram+0x248>)
600018de:	f023 033f 	bic.w	r3, r3, #63	; 0x3f
600018e2:	f043 0301 	orr.w	r3, r3, #1
600018e6:	f8c0 30bc 	str.w	r3, [r0, #188]	; 0xbc
600018ea:	6102      	str	r2, [r0, #16]
600018ec:	6705      	str	r5, [r0, #112]	; 0x70
600018ee:	f8c0 4080 	str.w	r4, [r0, #128]	; 0x80
600018f2:	6745      	str	r5, [r0, #116]	; 0x74
600018f4:	f8c0 4084 	str.w	r4, [r0, #132]	; 0x84
600018f8:	2402      	movs	r4, #2
600018fa:	6803      	ldr	r3, [r0, #0]
600018fc:	f023 0302 	bic.w	r3, r3, #2
60001900:	6003      	str	r3, [r0, #0]
60001902:	6181      	str	r1, [r0, #24]
60001904:	4b4e      	ldr	r3, [pc, #312]	; (60001a40 <configure_external_ram+0x24c>)
60001906:	494f      	ldr	r1, [pc, #316]	; (60001a44 <configure_external_ram+0x250>)
60001908:	61c4      	str	r4, [r0, #28]
6000190a:	f843 2b04 	str.w	r2, [r3], #4
6000190e:	428b      	cmp	r3, r1
60001910:	d1fb      	bne.n	6000190a <configure_external_ram+0x116>
60001912:	4d43      	ldr	r5, [pc, #268]	; (60001a20 <configure_external_ram+0x22c>)
60001914:	682b      	ldr	r3, [r5, #0]
60001916:	f043 0301 	orr.w	r3, r3, #1
6000191a:	602b      	str	r3, [r5, #0]
6000191c:	682c      	ldr	r4, [r5, #0]
6000191e:	f014 0401 	ands.w	r4, r4, #1
60001922:	d1fb      	bne.n	6000191c <configure_external_ram+0x128>
60001924:	4945      	ldr	r1, [pc, #276]	; (60001a3c <configure_external_ram+0x248>)
60001926:	2302      	movs	r3, #2
60001928:	f240 62f5 	movw	r2, #1781	; 0x6f5
6000192c:	4620      	mov	r0, r4
6000192e:	61a9      	str	r1, [r5, #24]
60001930:	f240 4199 	movw	r1, #1177	; 0x499
60001934:	61eb      	str	r3, [r5, #28]
60001936:	f240 4366 	movw	r3, #1126	; 0x466
6000193a:	f8c5 2200 	str.w	r2, [r5, #512]	; 0x200
6000193e:	f242 4201 	movw	r2, #9217	; 0x2401
60001942:	f8c5 3210 	str.w	r3, [r5, #528]	; 0x210
60001946:	4b40      	ldr	r3, [pc, #256]	; (60001a48 <configure_external_ram+0x254>)
60001948:	f8c5 1220 	str.w	r1, [r5, #544]	; 0x220
6000194c:	f8c5 3230 	str.w	r3, [r5, #560]	; 0x230
60001950:	f240 4335 	movw	r3, #1077	; 0x435
60001954:	f8c5 2234 	str.w	r2, [r5, #564]	; 0x234
60001958:	493c      	ldr	r1, [pc, #240]	; (60001a4c <configure_external_ram+0x258>)
6000195a:	f8c5 3240 	str.w	r3, [r5, #576]	; 0x240
6000195e:	4b3c      	ldr	r3, [pc, #240]	; (60001a50 <configure_external_ram+0x25c>)
60001960:	f8c5 1250 	str.w	r1, [r5, #592]	; 0x250
60001964:	4a3b      	ldr	r2, [pc, #236]	; (60001a54 <configure_external_ram+0x260>)
60001966:	f8c5 3254 	str.w	r3, [r5, #596]	; 0x254
6000196a:	f242 2301 	movw	r3, #8705	; 0x2201
6000196e:	f8c5 2260 	str.w	r2, [r5, #608]	; 0x260
60001972:	f8c5 3264 	str.w	r3, [r5, #612]	; 0x264
60001976:	f7ff fe4f 	bl	60001618 <flexspi2_psram_size>
6000197a:	4606      	mov	r6, r0
6000197c:	2800      	cmp	r0, #0
6000197e:	d036      	beq.n	600019ee <configure_external_ram+0x1fa>
60001980:	0283      	lsls	r3, r0, #10
60001982:	f44f 2280 	mov.w	r2, #262144	; 0x40000
60001986:	662b      	str	r3, [r5, #96]	; 0x60
60001988:	2301      	movs	r3, #1
6000198a:	f8c5 40a0 	str.w	r4, [r5, #160]	; 0xa0
6000198e:	4c24      	ldr	r4, [pc, #144]	; (60001a20 <configure_external_ram+0x22c>)
60001990:	f8c5 20a4 	str.w	r2, [r5, #164]	; 0xa4
60001994:	f8c5 30b0 	str.w	r3, [r5, #176]	; 0xb0
60001998:	6963      	ldr	r3, [r4, #20]
6000199a:	07da      	lsls	r2, r3, #31
6000199c:	d5fc      	bpl.n	60001998 <configure_external_ram+0x1a4>
6000199e:	2501      	movs	r5, #1
600019a0:	0537      	lsls	r7, r6, #20
600019a2:	6165      	str	r5, [r4, #20]
600019a4:	4638      	mov	r0, r7
600019a6:	f7ff fe37 	bl	60001618 <flexspi2_psram_size>
600019aa:	1832      	adds	r2, r6, r0
600019ac:	4b2a      	ldr	r3, [pc, #168]	; (60001a58 <configure_external_ram+0x264>)
600019ae:	b2d2      	uxtb	r2, r2
600019b0:	701a      	strb	r2, [r3, #0]
600019b2:	b178      	cbz	r0, 600019d4 <configure_external_ram+0x1e0>
600019b4:	0280      	lsls	r0, r0, #10
600019b6:	f44f 2380 	mov.w	r3, #262144	; 0x40000
600019ba:	4919      	ldr	r1, [pc, #100]	; (60001a20 <configure_external_ram+0x22c>)
600019bc:	6660      	str	r0, [r4, #100]	; 0x64
600019be:	f8c4 70a0 	str.w	r7, [r4, #160]	; 0xa0
600019c2:	f8c4 30a4 	str.w	r3, [r4, #164]	; 0xa4
600019c6:	f8c4 50b0 	str.w	r5, [r4, #176]	; 0xb0
600019ca:	694b      	ldr	r3, [r1, #20]
600019cc:	07db      	lsls	r3, r3, #31
600019ce:	d5fc      	bpl.n	600019ca <configure_external_ram+0x1d6>
600019d0:	2301      	movs	r3, #1
600019d2:	614b      	str	r3, [r1, #20]
600019d4:	4921      	ldr	r1, [pc, #132]	; (60001a5c <configure_external_ram+0x268>)
600019d6:	2400      	movs	r4, #0
600019d8:	4821      	ldr	r0, [pc, #132]	; (60001a60 <configure_external_ram+0x26c>)
600019da:	2301      	movs	r3, #1
600019dc:	9400      	str	r4, [sp, #0]
600019de:	1a40      	subs	r0, r0, r1
600019e0:	eb00 5202 	add.w	r2, r0, r2, lsl #20
600019e4:	481f      	ldr	r0, [pc, #124]	; (60001a64 <configure_external_ram+0x270>)
600019e6:	f000 f9df 	bl	60001da8 <__sm_set_pool_veneer>
600019ea:	b003      	add	sp, #12
600019ec:	bdf0      	pop	{r4, r5, r6, r7, pc}
600019ee:	4b1d      	ldr	r3, [pc, #116]	; (60001a64 <configure_external_ram+0x270>)
600019f0:	4a19      	ldr	r2, [pc, #100]	; (60001a58 <configure_external_ram+0x264>)
600019f2:	6018      	str	r0, [r3, #0]
600019f4:	7010      	strb	r0, [r2, #0]
600019f6:	60d8      	str	r0, [r3, #12]
600019f8:	e9c3 0001 	strd	r0, r0, [r3, #4]
600019fc:	b003      	add	sp, #12
600019fe:	bdf0      	pop	{r4, r5, r6, r7, pc}
60001a00:	401f8000 	.word	0x401f8000
60001a04:	0001b0f9 	.word	0x0001b0f9
60001a08:	000110f9 	.word	0x000110f9
60001a0c:	401f8400 	.word	0x401f8400
60001a10:	000170f9 	.word	0x000170f9
60001a14:	400fc000 	.word	0x400fc000
60001a18:	1ffffcff 	.word	0x1ffffcff
60001a1c:	80000300 	.word	0x80000300
60001a20:	402a4000 	.word	0x402a4000
60001a24:	402a8000 	.word	0x402a8000
60001a28:	ffff0012 	.word	0xffff0012
60001a2c:	00f737ff 	.word	0x00f737ff
60001a30:	80000040 	.word	0x80000040
60001a34:	7cf0ff00 	.word	0x7cf0ff00
60001a38:	830f00ff 	.word	0x830f00ff
60001a3c:	5af05af0 	.word	0x5af05af0
60001a40:	402a4200 	.word	0x402a4200
60001a44:	402a4300 	.word	0x402a4300
60001a48:	3018049f 	.word	0x3018049f
60001a4c:	0a1806eb 	.word	0x0a1806eb
60001a50:	26013206 	.word	0x26013206
60001a54:	0a180638 	.word	0x0a180638
60001a58:	200037a2 	.word	0x200037a2
60001a5c:	70000000 	.word	0x70000000
60001a60:	70000000 	.word	0x70000000
60001a64:	20003704 	.word	0x20003704

60001a68 <usb_pll_start>:
60001a68:	b4f0      	push	{r4, r5, r6, r7}
60001a6a:	4a15      	ldr	r2, [pc, #84]	; (60001ac0 <usb_pll_start+0x58>)
60001a6c:	2740      	movs	r7, #64	; 0x40
60001a6e:	f44f 3180 	mov.w	r1, #65536	; 0x10000
60001a72:	f44f 5680 	mov.w	r6, #4096	; 0x1000
60001a76:	f44f 5500 	mov.w	r5, #8192	; 0x2000
60001a7a:	f44f 4440 	mov.w	r4, #49152	; 0xc000
60001a7e:	f243 0042 	movw	r0, #12354	; 0x3042
60001a82:	6913      	ldr	r3, [r2, #16]
60001a84:	f013 0f02 	tst.w	r3, #2
60001a88:	d10e      	bne.n	60001aa8 <usb_pll_start+0x40>
60001a8a:	f413 5f00 	tst.w	r3, #8192	; 0x2000
60001a8e:	d00f      	beq.n	60001ab0 <usb_pll_start+0x48>
60001a90:	f413 5f80 	tst.w	r3, #4096	; 0x1000
60001a94:	d00e      	beq.n	60001ab4 <usb_pll_start+0x4c>
60001a96:	2b00      	cmp	r3, #0
60001a98:	daf3      	bge.n	60001a82 <usb_pll_start+0x1a>
60001a9a:	f413 3f80 	tst.w	r3, #65536	; 0x10000
60001a9e:	d10b      	bne.n	60001ab8 <usb_pll_start+0x50>
60001aa0:	065b      	lsls	r3, r3, #25
60001aa2:	d50b      	bpl.n	60001abc <usb_pll_start+0x54>
60001aa4:	bcf0      	pop	{r4, r5, r6, r7}
60001aa6:	4770      	bx	lr
60001aa8:	6194      	str	r4, [r2, #24]
60001aaa:	6151      	str	r1, [r2, #20]
60001aac:	6190      	str	r0, [r2, #24]
60001aae:	e7e8      	b.n	60001a82 <usb_pll_start+0x1a>
60001ab0:	6155      	str	r5, [r2, #20]
60001ab2:	e7e6      	b.n	60001a82 <usb_pll_start+0x1a>
60001ab4:	6156      	str	r6, [r2, #20]
60001ab6:	e7e4      	b.n	60001a82 <usb_pll_start+0x1a>
60001ab8:	6191      	str	r1, [r2, #24]
60001aba:	e7e2      	b.n	60001a82 <usb_pll_start+0x1a>
60001abc:	6157      	str	r7, [r2, #20]
60001abe:	e7e0      	b.n	60001a82 <usb_pll_start+0x1a>
60001ac0:	400d8000 	.word	0x400d8000

60001ac4 <tempmon_init>:
60001ac4:	4a3f      	ldr	r2, [pc, #252]	; (60001bc4 <tempmon_init+0x100>)
60001ac6:	2003      	movs	r0, #3
60001ac8:	493f      	ldr	r1, [pc, #252]	; (60001bc8 <tempmon_init+0x104>)
60001aca:	eef3 5a09 	vmov.f32	s11, #57	; 0x41c80000  25.0
60001ace:	f8d2 3080 	ldr.w	r3, [r2, #128]	; 0x80
60001ad2:	f04f 0c00 	mov.w	ip, #0
60001ad6:	ed9f 6a3d 	vldr	s12, [pc, #244]	; 60001bcc <tempmon_init+0x108>
60001ada:	f023 0301 	bic.w	r3, r3, #1
60001ade:	ed9f 5a3c 	vldr	s10, [pc, #240]	; 60001bd0 <tempmon_init+0x10c>
60001ae2:	b430      	push	{r4, r5}
60001ae4:	f8c2 3080 	str.w	r3, [r2, #128]	; 0x80
60001ae8:	f8c2 0090 	str.w	r0, [r2, #144]	; 0x90
60001aec:	f8d1 10e0 	ldr.w	r1, [r1, #224]	; 0xe0
60001af0:	4d38      	ldr	r5, [pc, #224]	; (60001bd4 <tempmon_init+0x110>)
60001af2:	b2cb      	uxtb	r3, r1
60001af4:	4c38      	ldr	r4, [pc, #224]	; (60001bd8 <tempmon_init+0x114>)
60001af6:	4839      	ldr	r0, [pc, #228]	; (60001bdc <tempmon_init+0x118>)
60001af8:	602b      	str	r3, [r5, #0]
60001afa:	ee07 3a90 	vmov	s15, r3
60001afe:	0d0b      	lsrs	r3, r1, #20
60001b00:	f3c1 210b 	ubfx	r1, r1, #8, #12
60001b04:	eef8 7ae7 	vcvt.f32.s32	s15, s15
60001b08:	ee06 3a90 	vmov	s13, r3
60001b0c:	ee07 1a10 	vmov	s14, r1
60001b10:	4b33      	ldr	r3, [pc, #204]	; (60001be0 <tempmon_init+0x11c>)
60001b12:	eeb8 7ac7 	vcvt.f32.s32	s14, s14
60001b16:	6021      	str	r1, [r4, #0]
60001b18:	eef8 6ae6 	vcvt.f32.s32	s13, s13
60001b1c:	4931      	ldr	r1, [pc, #196]	; (60001be4 <tempmon_init+0x120>)
60001b1e:	ee37 6ac6 	vsub.f32	s12, s15, s12
60001b22:	ee37 5ac5 	vsub.f32	s10, s15, s10
60001b26:	ee76 6ac7 	vsub.f32	s13, s13, s14
60001b2a:	ee77 7ae5 	vsub.f32	s15, s15, s11
60001b2e:	ee26 6a26 	vmul.f32	s12, s12, s13
60001b32:	edc3 6a00 	vstr	s13, [r3]
60001b36:	ee25 5a26 	vmul.f32	s10, s10, s13
60001b3a:	f8d2 3080 	ldr.w	r3, [r2, #128]	; 0x80
60001b3e:	ee67 4aa6 	vmul.f32	s9, s15, s13
60001b42:	edc0 7a00 	vstr	s15, [r0]
60001b46:	eec6 5a27 	vdiv.f32	s11, s12, s15
60001b4a:	4827      	ldr	r0, [pc, #156]	; (60001be8 <tempmon_init+0x124>)
60001b4c:	ee85 6a27 	vdiv.f32	s12, s10, s15
60001b50:	eec4 6aa7 	vdiv.f32	s13, s9, s15
60001b54:	ee75 5a87 	vadd.f32	s11, s11, s14
60001b58:	eefc 5ae5 	vcvt.u32.f32	s11, s11
60001b5c:	ee36 6a07 	vadd.f32	s12, s12, s14
60001b60:	ee15 4a90 	vmov	r4, s11
60001b64:	eebc 6ac6 	vcvt.u32.f32	s12, s12
60001b68:	ea43 5304 	orr.w	r3, r3, r4, lsl #20
60001b6c:	ee76 7a87 	vadd.f32	s15, s13, s14
60001b70:	f8c2 3080 	str.w	r3, [r2, #128]	; 0x80
60001b74:	ee16 3a10 	vmov	r3, s12
60001b78:	f8d2 4190 	ldr.w	r4, [r2, #400]	; 0x190
60001b7c:	eefc 7ae7 	vcvt.u32.f32	s15, s15
60001b80:	ea01 4103 	and.w	r1, r1, r3, lsl #16
60001b84:	4321      	orrs	r1, r4
60001b86:	ee17 3a90 	vmov	r3, s15
60001b8a:	f8c2 1190 	str.w	r1, [r2, #400]	; 0x190
60001b8e:	f3c3 030b 	ubfx	r3, r3, #0, #12
60001b92:	f8d2 1190 	ldr.w	r1, [r2, #400]	; 0x190
60001b96:	430b      	orrs	r3, r1
60001b98:	4914      	ldr	r1, [pc, #80]	; (60001bec <tempmon_init+0x128>)
60001b9a:	f8c2 3190 	str.w	r3, [r2, #400]	; 0x190
60001b9e:	f8d2 3080 	ldr.w	r3, [r2, #128]	; 0x80
60001ba2:	f043 0302 	orr.w	r3, r3, #2
60001ba6:	f8c2 3080 	str.w	r3, [r2, #128]	; 0x80
60001baa:	4b11      	ldr	r3, [pc, #68]	; (60001bf0 <tempmon_init+0x12c>)
60001bac:	f880 c040 	strb.w	ip, [r0, #64]	; 0x40
60001bb0:	f8c1 3140 	str.w	r3, [r1, #320]	; 0x140
60001bb4:	f04f 23e0 	mov.w	r3, #3758153728	; 0xe000e000
60001bb8:	2201      	movs	r2, #1
60001bba:	bc30      	pop	{r4, r5}
60001bbc:	f8c3 2108 	str.w	r2, [r3, #264]	; 0x108
60001bc0:	4770      	bx	lr
60001bc2:	bf00      	nop
60001bc4:	400d8100 	.word	0x400d8100
60001bc8:	401f4400 	.word	0x401f4400
60001bcc:	42aa0000 	.word	0x42aa0000
60001bd0:	42b40000 	.word	0x42b40000
60001bd4:	20003768 	.word	0x20003768
60001bd8:	20003764 	.word	0x20003764
60001bdc:	2000376c 	.word	0x2000376c
60001be0:	20003770 	.word	0x20003770
60001be4:	0fff0000 	.word	0x0fff0000
60001be8:	e000e400 	.word	0xe000e400
60001bec:	20000c00 	.word	0x20000c00
60001bf0:	0000333d 	.word	0x0000333d

60001bf4 <usb_init>:
60001bf4:	4b31      	ldr	r3, [pc, #196]	; (60001cbc <usb_init+0xc8>)
60001bf6:	f640 7261 	movw	r2, #3937	; 0xf61
60001bfa:	b510      	push	{r4, lr}
60001bfc:	f8c3 2120 	str.w	r2, [r3, #288]	; 0x120
60001c00:	f240 4404 	movw	r4, #1028	; 0x404
60001c04:	f000 f8c4 	bl	60001d90 <__usb_init_serialnumber_veneer>
60001c08:	4a2d      	ldr	r2, [pc, #180]	; (60001cc0 <usb_init+0xcc>)
60001c0a:	492e      	ldr	r1, [pc, #184]	; (60001cc4 <usb_init+0xd0>)
60001c0c:	f8d2 3080 	ldr.w	r3, [r2, #128]	; 0x80
60001c10:	482d      	ldr	r0, [pc, #180]	; (60001cc8 <usb_init+0xd4>)
60001c12:	f043 0303 	orr.w	r3, r3, #3
60001c16:	f8c2 3080 	str.w	r3, [r2, #128]	; 0x80
60001c1a:	4b2c      	ldr	r3, [pc, #176]	; (60001ccc <usb_init+0xd8>)
60001c1c:	f8c1 4160 	str.w	r4, [r1, #352]	; 0x160
60001c20:	6802      	ldr	r2, [r0, #0]
60001c22:	421a      	tst	r2, r3
60001c24:	d103      	bne.n	60001c2e <usb_init+0x3a>
60001c26:	f8d1 31a8 	ldr.w	r3, [r1, #424]	; 0x1a8
60001c2a:	079a      	lsls	r2, r3, #30
60001c2c:	d01b      	beq.n	60001c66 <usb_init+0x72>
60001c2e:	4a25      	ldr	r2, [pc, #148]	; (60001cc4 <usb_init+0xd0>)
60001c30:	f04f 4100 	mov.w	r1, #2147483648	; 0x80000000
60001c34:	4b24      	ldr	r3, [pc, #144]	; (60001cc8 <usb_init+0xd4>)
60001c36:	6359      	str	r1, [r3, #52]	; 0x34
60001c38:	f8d2 3140 	ldr.w	r3, [r2, #320]	; 0x140
60001c3c:	f043 0302 	orr.w	r3, r3, #2
60001c40:	f8c2 3140 	str.w	r3, [r2, #320]	; 0x140
60001c44:	f8d2 3140 	ldr.w	r3, [r2, #320]	; 0x140
60001c48:	079b      	lsls	r3, r3, #30
60001c4a:	d4fb      	bmi.n	60001c44 <usb_init+0x50>
60001c4c:	f44f 3000 	mov.w	r0, #131072	; 0x20000
60001c50:	f04f 21e0 	mov.w	r1, #3758153728	; 0xe000e000
60001c54:	4b1c      	ldr	r3, [pc, #112]	; (60001cc8 <usb_init+0xd4>)
60001c56:	f04f 4200 	mov.w	r2, #2147483648	; 0x80000000
60001c5a:	f8c1 028c 	str.w	r0, [r1, #652]	; 0x28c
60001c5e:	2019      	movs	r0, #25
60001c60:	639a      	str	r2, [r3, #56]	; 0x38
60001c62:	f000 f8b1 	bl	60001dc8 <__delay_veneer>
60001c66:	4a18      	ldr	r2, [pc, #96]	; (60001cc8 <usb_init+0xd4>)
60001c68:	f04f 4080 	mov.w	r0, #1073741824	; 0x40000000
60001c6c:	4c15      	ldr	r4, [pc, #84]	; (60001cc4 <usb_init+0xd0>)
60001c6e:	2100      	movs	r1, #0
60001c70:	6390      	str	r0, [r2, #56]	; 0x38
60001c72:	200a      	movs	r0, #10
60001c74:	4b16      	ldr	r3, [pc, #88]	; (60001cd0 <usb_init+0xdc>)
60001c76:	6011      	str	r1, [r2, #0]
60001c78:	f44f 7220 	mov.w	r2, #640	; 0x280
60001c7c:	f8c4 01a8 	str.w	r0, [r4, #424]	; 0x1a8
60001c80:	4618      	mov	r0, r3
60001c82:	f000 f899 	bl	60001db8 <__memset_veneer>
60001c86:	f44f 0280 	mov.w	r2, #4194304	; 0x400000
60001c8a:	4603      	mov	r3, r0
60001c8c:	f44f 0081 	mov.w	r0, #4227072	; 0x408000
60001c90:	f240 1143 	movw	r1, #323	; 0x143
60001c94:	6018      	str	r0, [r3, #0]
60001c96:	f8c4 3158 	str.w	r3, [r4, #344]	; 0x158
60001c9a:	641a      	str	r2, [r3, #64]	; 0x40
60001c9c:	4b0d      	ldr	r3, [pc, #52]	; (60001cd4 <usb_init+0xe0>)
60001c9e:	4a0e      	ldr	r2, [pc, #56]	; (60001cd8 <usb_init+0xe4>)
60001ca0:	f8c4 1148 	str.w	r1, [r4, #328]	; 0x148
60001ca4:	f8c3 2204 	str.w	r2, [r3, #516]	; 0x204
60001ca8:	f04f 22e0 	mov.w	r2, #3758153728	; 0xe000e000
60001cac:	f44f 3100 	mov.w	r1, #131072	; 0x20000
60001cb0:	2301      	movs	r3, #1
60001cb2:	f8c2 110c 	str.w	r1, [r2, #268]	; 0x10c
60001cb6:	f8c4 3140 	str.w	r3, [r4, #320]	; 0x140
60001cba:	bd10      	pop	{r4, pc}
60001cbc:	400d8000 	.word	0x400d8000
60001cc0:	400fc000 	.word	0x400fc000
60001cc4:	402e0000 	.word	0x402e0000
60001cc8:	400d9000 	.word	0x400d9000
60001ccc:	001e1c00 	.word	0x001e1c00
60001cd0:	20000000 	.word	0x20000000
60001cd4:	20000c00 	.word	0x20000c00
60001cd8:	000033a1 	.word	0x000033a1

60001cdc <_reboot_Teensyduino_>:
60001cdc:	b508      	push	{r3, lr}
60001cde:	4b0e      	ldr	r3, [pc, #56]	; (60001d18 <_reboot_Teensyduino_+0x3c>)
60001ce0:	6e1b      	ldr	r3, [r3, #96]	; 0x60
60001ce2:	079b      	lsls	r3, r3, #30
60001ce4:	d400      	bmi.n	60001ce8 <_reboot_Teensyduino_+0xc>
60001ce6:	befb      	bkpt	0x00fb
60001ce8:	b672      	cpsid	i
60001cea:	4b0c      	ldr	r3, [pc, #48]	; (60001d1c <_reboot_Teensyduino_+0x40>)
60001cec:	2000      	movs	r0, #0
60001cee:	4a0c      	ldr	r2, [pc, #48]	; (60001d20 <_reboot_Teensyduino_+0x44>)
60001cf0:	f8c3 0140 	str.w	r0, [r3, #320]	; 0x140
60001cf4:	f103 4360 	add.w	r3, r3, #3758096384	; 0xe0000000
60001cf8:	490a      	ldr	r1, [pc, #40]	; (60001d24 <_reboot_Teensyduino_+0x48>)
60001cfa:	f5a3 235f 	sub.w	r3, r3, #913408	; 0xdf000
60001cfe:	6411      	str	r1, [r2, #64]	; 0x40
60001d00:	469d      	mov	sp, r3
60001d02:	f3bf 8f4f 	dsb	sy
60001d06:	f44f 1300 	mov.w	r3, #2097152	; 0x200000
60001d0a:	4807      	ldr	r0, [pc, #28]	; (60001d28 <_reboot_Teensyduino_+0x4c>)
60001d0c:	4a07      	ldr	r2, [pc, #28]	; (60001d2c <_reboot_Teensyduino_+0x50>)
60001d0e:	69db      	ldr	r3, [r3, #28]
60001d10:	6002      	str	r2, [r0, #0]
60001d12:	689b      	ldr	r3, [r3, #8]
60001d14:	4798      	blx	r3
60001d16:	bf00      	nop
60001d18:	401f4400 	.word	0x401f4400
60001d1c:	402e0000 	.word	0x402e0000
60001d20:	400ac000 	.word	0x400ac000
60001d24:	00200003 	.word	0x00200003
60001d28:	20208000 	.word	0x20208000
60001d2c:	eb120000 	.word	0xeb120000

60001d30 <analog_init>:
60001d30:	4b10      	ldr	r3, [pc, #64]	; (60001d74 <analog_init+0x44>)
60001d32:	20a0      	movs	r0, #160	; 0xa0
60001d34:	4a10      	ldr	r2, [pc, #64]	; (60001d78 <analog_init+0x48>)
60001d36:	6ed9      	ldr	r1, [r3, #108]	; 0x6c
60001d38:	f441 3140 	orr.w	r1, r1, #196608	; 0x30000
60001d3c:	b410      	push	{r4}
60001d3e:	66d9      	str	r1, [r3, #108]	; 0x6c
60001d40:	f240 6437 	movw	r4, #1591	; 0x637
60001d44:	6ed9      	ldr	r1, [r3, #108]	; 0x6c
60001d46:	f441 7140 	orr.w	r1, r1, #768	; 0x300
60001d4a:	66d9      	str	r1, [r3, #108]	; 0x6c
60001d4c:	6454      	str	r4, [r2, #68]	; 0x44
60001d4e:	6490      	str	r0, [r2, #72]	; 0x48
60001d50:	6c93      	ldr	r3, [r2, #72]	; 0x48
60001d52:	061b      	lsls	r3, r3, #24
60001d54:	d4fc      	bmi.n	60001d50 <analog_init+0x20>
60001d56:	4a09      	ldr	r2, [pc, #36]	; (60001d7c <analog_init+0x4c>)
60001d58:	f240 6137 	movw	r1, #1591	; 0x637
60001d5c:	23a0      	movs	r3, #160	; 0xa0
60001d5e:	6451      	str	r1, [r2, #68]	; 0x44
60001d60:	6493      	str	r3, [r2, #72]	; 0x48
60001d62:	6c93      	ldr	r3, [r2, #72]	; 0x48
60001d64:	f013 0380 	ands.w	r3, r3, #128	; 0x80
60001d68:	d1fb      	bne.n	60001d62 <analog_init+0x32>
60001d6a:	4a05      	ldr	r2, [pc, #20]	; (60001d80 <analog_init+0x50>)
60001d6c:	7013      	strb	r3, [r2, #0]
60001d6e:	f85d 4b04 	ldr.w	r4, [sp], #4
60001d72:	4770      	bx	lr
60001d74:	400fc000 	.word	0x400fc000
60001d78:	400c4000 	.word	0x400c4000
60001d7c:	400c8000 	.word	0x400c8000
60001d80:	200037a1 	.word	0x200037a1

60001d84 <_init>:
60001d84:	b5f8      	push	{r3, r4, r5, r6, r7, lr}
60001d86:	bf00      	nop
60001d88:	bcf8      	pop	{r3, r4, r5, r6, r7}
60001d8a:	bc08      	pop	{r3}
60001d8c:	469e      	mov	lr, r3
60001d8e:	4770      	bx	lr

60001d90 <__usb_init_serialnumber_veneer>:
60001d90:	f85f f000 	ldr.w	pc, [pc]	; 60001d94 <__usb_init_serialnumber_veneer+0x4>
60001d94:	00003e81 	.word	0x00003e81

60001d98 <__main_veneer>:
60001d98:	f85f f000 	ldr.w	pc, [pc]	; 60001d9c <__main_veneer+0x4>
60001d9c:	00003011 	.word	0x00003011

60001da0 <____libc_init_array_veneer>:
60001da0:	f85f f000 	ldr.w	pc, [pc]	; 60001da4 <____libc_init_array_veneer+0x4>
60001da4:	00005531 	.word	0x00005531

60001da8 <__sm_set_pool_veneer>:
60001da8:	f85f f000 	ldr.w	pc, [pc]	; 60001dac <__sm_set_pool_veneer+0x4>
60001dac:	0000517d 	.word	0x0000517d

60001db0 <__set_arm_clock_veneer>:
60001db0:	f85f f000 	ldr.w	pc, [pc]	; 60001db4 <__set_arm_clock_veneer+0x4>
60001db4:	00004951 	.word	0x00004951

60001db8 <__memset_veneer>:
60001db8:	f85f f000 	ldr.w	pc, [pc]	; 60001dbc <__memset_veneer+0x4>
60001dbc:	00005481 	.word	0x00005481

60001dc0 <__pwm_init_veneer>:
60001dc0:	f85f f000 	ldr.w	pc, [pc]	; 60001dc4 <__pwm_init_veneer+0x4>
60001dc4:	00004c6d 	.word	0x00004c6d

60001dc8 <__delay_veneer>:
60001dc8:	f85f f000 	ldr.w	pc, [pc]	; 60001dcc <__delay_veneer+0x4>
60001dcc:	00002f15 	.word	0x00002f15

60001dd0 <__frame_dummy_init_array_entry>:
60001dd0:	00000045                                E...

Disassembly of section .text.itcm:

00000000 <_stext>:
	...

00000020 <register_tm_clones>:
      20:	4805      	ldr	r0, [pc, #20]	; (38 <_teensy_model_identifier+0x13>)
      22:	4b06      	ldr	r3, [pc, #24]	; (3c <_teensy_model_identifier+0x17>)
      24:	1a1b      	subs	r3, r3, r0
      26:	0fd9      	lsrs	r1, r3, #31
      28:	eb01 01a3 	add.w	r1, r1, r3, asr #2
      2c:	1049      	asrs	r1, r1, #1
      2e:	d002      	beq.n	36 <_teensy_model_identifier+0x11>
      30:	4b03      	ldr	r3, [pc, #12]	; (40 <_teensy_model_identifier+0x1b>)
      32:	b103      	cbz	r3, 36 <_teensy_model_identifier+0x11>
      34:	4718      	bx	r3
      36:	4770      	bx	lr
      38:	20000ec0 	.word	0x20000ec0
      3c:	20000ec0 	.word	0x20000ec0
      40:	00000000 	.word	0x00000000

00000044 <frame_dummy>:
      44:	b508      	push	{r3, lr}
      46:	4b05      	ldr	r3, [pc, #20]	; (5c <frame_dummy+0x18>)
      48:	b11b      	cbz	r3, 52 <frame_dummy+0xe>
      4a:	4905      	ldr	r1, [pc, #20]	; (60 <frame_dummy+0x1c>)
      4c:	4805      	ldr	r0, [pc, #20]	; (64 <frame_dummy+0x20>)
      4e:	f3af 8000 	nop.w
      52:	e8bd 4008 	ldmia.w	sp!, {r3, lr}
      56:	f7ff bfe3 	b.w	20 <register_tm_clones>
      5a:	bf00      	nop
      5c:	00000000 	.word	0x00000000
      60:	20003714 	.word	0x20003714
      64:	60009400 	.word	0x60009400

00000068 <bilinearFixedWeights(unsigned short, unsigned short, unsigned short, unsigned short, int, int)>:
      68:	e92d 43f0 	stmdb	sp!, {r4, r5, r6, r7, r8, r9, lr}
      6c:	f3c3 1e45 	ubfx	lr, r3, #5, #6
      70:	f003 091f 	and.w	r9, r3, #31
      74:	0adb      	lsrs	r3, r3, #11
      76:	f3c2 1745 	ubfx	r7, r2, #5, #6
      7a:	f002 0c1f 	and.w	ip, r2, #31
      7e:	0ad2      	lsrs	r2, r2, #11
      80:	e9dd 6407 	ldrd	r6, r4, [sp, #28]
      84:	f5c4 7580 	rsb	r5, r4, #256	; 0x100
      88:	fb04 f803 	mul.w	r8, r4, r3
      8c:	fb04 fe0e 	mul.w	lr, r4, lr
      90:	f3c1 1345 	ubfx	r3, r1, #5, #6
      94:	fb04 f909 	mul.w	r9, r4, r9
      98:	fb04 f707 	mul.w	r7, r4, r7
      9c:	fb05 ee03 	mla	lr, r5, r3, lr
      a0:	f001 031f 	and.w	r3, r1, #31
      a4:	fb04 fc0c 	mul.w	ip, r4, ip
      a8:	0ac9      	lsrs	r1, r1, #11
      aa:	fb04 f202 	mul.w	r2, r4, r2
      ae:	f3c0 1445 	ubfx	r4, r0, #5, #6
      b2:	fb05 9303 	mla	r3, r5, r3, r9
      b6:	fb05 7404 	mla	r4, r5, r4, r7
      ba:	f000 071f 	and.w	r7, r0, #31
      be:	fb05 8101 	mla	r1, r5, r1, r8
      c2:	0ac0      	lsrs	r0, r0, #11
      c4:	fb06 fe0e 	mul.w	lr, r6, lr
      c8:	fb06 f101 	mul.w	r1, r6, r1
      cc:	fb06 f303 	mul.w	r3, r6, r3
      d0:	f5c6 7680 	rsb	r6, r6, #256	; 0x100
      d4:	fb05 cc07 	mla	ip, r5, r7, ip
      d8:	fb06 e404 	mla	r4, r6, r4, lr
      dc:	fb06 330c 	mla	r3, r6, ip, r3
      e0:	fb05 2200 	mla	r2, r5, r0, r2
      e4:	f3c4 4405 	ubfx	r4, r4, #16, #6
      e8:	f3c3 4304 	ubfx	r3, r3, #16, #5
      ec:	fb06 1002 	mla	r0, r6, r2, r1
      f0:	ea43 1344 	orr.w	r3, r3, r4, lsl #5
      f4:	1400      	asrs	r0, r0, #16
      f6:	ea43 20c0 	orr.w	r0, r3, r0, lsl #11
      fa:	e8bd 83f0 	ldmia.w	sp!, {r4, r5, r6, r7, r8, r9, pc}
      fe:	bf00      	nop

00000100 <renderReference(TextureCase const&, CoordCase const&, SampleMode, unsigned long, unsigned short*) [clone .constprop.0]>:
     100:	e92d 4ff0 	stmdb	sp!, {r4, r5, r6, r7, r8, r9, sl, fp, lr}
     104:	b089      	sub	sp, #36	; 0x24
     106:	e9cd 2303 	strd	r2, r3, [sp, #12]
     10a:	2b00      	cmp	r3, #0
     10c:	f000 80ed 	beq.w	2ea <renderReference(TextureCase const&, CoordCase const&, SampleMode, unsigned long, unsigned short*) [clone .constprop.0]+0x1ea>
     110:	6843      	ldr	r3, [r0, #4]
     112:	2400      	movs	r4, #0
     114:	7b42      	ldrb	r2, [r0, #13]
     116:	ee07 3a90 	vmov	s15, r3
     11a:	9302      	str	r3, [sp, #8]
     11c:	6883      	ldr	r3, [r0, #8]
     11e:	eef8 4ae7 	vcvt.f32.s32	s9, s15
     122:	ed91 3a02 	vldr	s6, [r1, #8]
     126:	ee07 3a90 	vmov	s15, r3
     12a:	3b01      	subs	r3, #1
     12c:	edd1 3a04 	vldr	s7, [r1, #16]
     130:	9307      	str	r3, [sp, #28]
     132:	eef8 5ae7 	vcvt.f32.s32	s11, s15
     136:	790b      	ldrb	r3, [r1, #4]
     138:	ed91 4a03 	vldr	s8, [r1, #12]
     13c:	9305      	str	r3, [sp, #20]
     13e:	9b02      	ldr	r3, [sp, #8]
     140:	ed91 5a05 	vldr	s10, [r1, #20]
     144:	3b01      	subs	r3, #1
     146:	f8df 9230 	ldr.w	r9, [pc, #560]	; 378 <renderReference(TextureCase const&, CoordCase const&, SampleMode, unsigned long, unsigned short*) [clone .constprop.0]+0x278>
     14a:	f8df 8230 	ldr.w	r8, [pc, #560]	; 37c <renderReference(TextureCase const&, CoordCase const&, SampleMode, unsigned long, unsigned short*) [clone .constprop.0]+0x27c>
     14e:	9201      	str	r2, [sp, #4]
     150:	9306      	str	r3, [sp, #24]
     152:	e01b      	b.n	18c <renderReference(TextureCase const&, CoordCase const&, SampleMode, unsigned long, unsigned short*) [clone .constprop.0]+0x8c>
     154:	eebd 7ac7 	vcvt.s32.f32	s14, s14
     158:	9801      	ldr	r0, [sp, #4]
     15a:	eefd 7ae7 	vcvt.s32.f32	s15, s15
     15e:	ee17 2a10 	vmov	r2, s14
     162:	ee17 3a90 	vmov	r3, s15
     166:	2800      	cmp	r0, #0
     168:	f000 80c2 	beq.w	2f0 <renderReference(TextureCase const&, CoordCase const&, SampleMode, unsigned long, unsigned short*) [clone .constprop.0]+0x1f0>
     16c:	9807      	ldr	r0, [sp, #28]
     16e:	4003      	ands	r3, r0
     170:	9806      	ldr	r0, [sp, #24]
     172:	4002      	ands	r2, r0
     174:	9802      	ldr	r0, [sp, #8]
     176:	fb00 2203 	mla	r2, r0, r3, r2
     17a:	f838 3012 	ldrh.w	r3, [r8, r2, lsl #1]
     17e:	3401      	adds	r4, #1
     180:	f829 3b02 	strh.w	r3, [r9], #2
     184:	9b04      	ldr	r3, [sp, #16]
     186:	429c      	cmp	r4, r3
     188:	f000 80af 	beq.w	2ea <renderReference(TextureCase const&, CoordCase const&, SampleMode, unsigned long, unsigned short*) [clone .constprop.0]+0x1ea>
     18c:	ee07 4a90 	vmov	s15, r4
     190:	eeb0 7a43 	vmov.f32	s14, s6
     194:	9b05      	ldr	r3, [sp, #20]
     196:	eef8 6ae7 	vcvt.f32.s32	s13, s15
     19a:	eef0 7a44 	vmov.f32	s15, s8
     19e:	eea6 7aa3 	vfma.f32	s14, s13, s7
     1a2:	eee6 7a85 	vfma.f32	s15, s13, s10
     1a6:	ee27 7a24 	vmul.f32	s14, s14, s9
     1aa:	ee67 7aa5 	vmul.f32	s15, s15, s11
     1ae:	b14b      	cbz	r3, 1c4 <renderReference(TextureCase const&, CoordCase const&, SampleMode, unsigned long, unsigned short*) [clone .constprop.0]+0xc4>
     1b0:	edd1 2a07 	vldr	s5, [r1, #28]
     1b4:	ed91 6a06 	vldr	s12, [r1, #24]
     1b8:	eea6 6aa2 	vfma.f32	s12, s13, s5
     1bc:	ee87 7a06 	vdiv.f32	s14, s14, s12
     1c0:	eec7 7a86 	vdiv.f32	s15, s15, s12
     1c4:	9b03      	ldr	r3, [sp, #12]
     1c6:	2b00      	cmp	r3, #0
     1c8:	d0c4      	beq.n	154 <renderReference(TextureCase const&, CoordCase const&, SampleMode, unsigned long, unsigned short*) [clone .constprop.0]+0x54>
     1ca:	fefb 6a47 	vrintm.f32	s13, s14
     1ce:	febb 6a67 	vrintm.f32	s12, s15
     1d2:	eefd 6ae6 	vcvt.s32.f32	s13, s13
     1d6:	9a01      	ldr	r2, [sp, #4]
     1d8:	ee16 5a90 	vmov	r5, s13
     1dc:	eefd 6ac6 	vcvt.s32.f32	s13, s12
     1e0:	ee16 3a90 	vmov	r3, s13
     1e4:	ee06 5a90 	vmov	s13, r5
     1e8:	eeb8 6ae6 	vcvt.f32.s32	s12, s13
     1ec:	ee06 3a90 	vmov	s13, r3
     1f0:	eef8 6ae6 	vcvt.f32.s32	s13, s13
     1f4:	ee37 7a46 	vsub.f32	s14, s14, s12
     1f8:	ee77 7ae6 	vsub.f32	s15, s15, s13
     1fc:	2a00      	cmp	r2, #0
     1fe:	f000 8088 	beq.w	312 <renderReference(TextureCase const&, CoordCase const&, SampleMode, unsigned long, unsigned short*) [clone .constprop.0]+0x212>
     202:	9a07      	ldr	r2, [sp, #28]
     204:	1c5e      	adds	r6, r3, #1
     206:	4013      	ands	r3, r2
     208:	4016      	ands	r6, r2
     20a:	9a02      	ldr	r2, [sp, #8]
     20c:	fb02 f703 	mul.w	r7, r2, r3
     210:	1c6b      	adds	r3, r5, #1
     212:	fb02 f606 	mul.w	r6, r2, r6
     216:	9a06      	ldr	r2, [sp, #24]
     218:	4015      	ands	r5, r2
     21a:	4013      	ands	r3, r2
     21c:	1978      	adds	r0, r7, r5
     21e:	19aa      	adds	r2, r5, r6
     220:	18fd      	adds	r5, r7, r3
     222:	4433      	add	r3, r6
     224:	eef0 6a67 	vmov.f32	s13, s15
     228:	f838 b013 	ldrh.w	fp, [r8, r3, lsl #1]
     22c:	f838 6015 	ldrh.w	r6, [r8, r5, lsl #1]
     230:	eef0 7a47 	vmov.f32	s15, s14
     234:	f838 c010 	ldrh.w	ip, [r8, r0, lsl #1]
     238:	f3cb 1045 	ubfx	r0, fp, #5, #6
     23c:	eefe 6acc 	vcvt.s32.f32	s13, s13, #8
     240:	f838 2012 	ldrh.w	r2, [r8, r2, lsl #1]
     244:	f3c6 1345 	ubfx	r3, r6, #5, #6
     248:	f00b 0a1f 	and.w	sl, fp, #31
     24c:	f3c2 1e45 	ubfx	lr, r2, #5, #6
     250:	ea4f 2bdb 	mov.w	fp, fp, lsr #11
     254:	ee16 5a90 	vmov	r5, s13
     258:	eefe 7acc 	vcvt.s32.f32	s15, s15, #8
     25c:	3401      	adds	r4, #1
     25e:	f5c5 7780 	rsb	r7, r5, #256	; 0x100
     262:	fb05 f000 	mul.w	r0, r5, r0
     266:	fb05 fb0b 	mul.w	fp, r5, fp
     26a:	fb07 0003 	mla	r0, r7, r3, r0
     26e:	f002 031f 	and.w	r3, r2, #31
     272:	0ad2      	lsrs	r2, r2, #11
     274:	fb05 fa0a 	mul.w	sl, r5, sl
     278:	fb05 fe0e 	mul.w	lr, r5, lr
     27c:	fb05 f303 	mul.w	r3, r5, r3
     280:	fb05 f202 	mul.w	r2, r5, r2
     284:	f006 051f 	and.w	r5, r6, #31
     288:	0af6      	lsrs	r6, r6, #11
     28a:	fb07 aa05 	mla	sl, r7, r5, sl
     28e:	ee17 5a90 	vmov	r5, s15
     292:	fb07 b606 	mla	r6, r7, r6, fp
     296:	f3cc 1b45 	ubfx	fp, ip, #5, #6
     29a:	fb05 f000 	mul.w	r0, r5, r0
     29e:	fb05 fa0a 	mul.w	sl, r5, sl
     2a2:	fb05 f606 	mul.w	r6, r5, r6
     2a6:	f5c5 7580 	rsb	r5, r5, #256	; 0x100
     2aa:	fb07 ee0b 	mla	lr, r7, fp, lr
     2ae:	fb05 000e 	mla	r0, r5, lr, r0
     2b2:	f00c 0e1f 	and.w	lr, ip, #31
     2b6:	ea4f 2cdc 	mov.w	ip, ip, lsr #11
     2ba:	fb07 330e 	mla	r3, r7, lr, r3
     2be:	f3c0 4005 	ubfx	r0, r0, #16, #6
     2c2:	fb07 220c 	mla	r2, r7, ip, r2
     2c6:	fb05 a303 	mla	r3, r5, r3, sl
     2ca:	fb05 6202 	mla	r2, r5, r2, r6
     2ce:	f3c3 4304 	ubfx	r3, r3, #16, #5
     2d2:	1412      	asrs	r2, r2, #16
     2d4:	ea43 1340 	orr.w	r3, r3, r0, lsl #5
     2d8:	ea43 23c2 	orr.w	r3, r3, r2, lsl #11
     2dc:	b29b      	uxth	r3, r3
     2de:	f829 3b02 	strh.w	r3, [r9], #2
     2e2:	9b04      	ldr	r3, [sp, #16]
     2e4:	429c      	cmp	r4, r3
     2e6:	f47f af51 	bne.w	18c <renderReference(TextureCase const&, CoordCase const&, SampleMode, unsigned long, unsigned short*) [clone .constprop.0]+0x8c>
     2ea:	b009      	add	sp, #36	; 0x24
     2ec:	e8bd 8ff0 	ldmia.w	sp!, {r4, r5, r6, r7, r8, r9, sl, fp, pc}
     2f0:	2a00      	cmp	r2, #0
     2f2:	db2f      	blt.n	354 <renderReference(TextureCase const&, CoordCase const&, SampleMode, unsigned long, unsigned short*) [clone .constprop.0]+0x254>
     2f4:	9806      	ldr	r0, [sp, #24]
     2f6:	4282      	cmp	r2, r0
     2f8:	bfa8      	it	ge
     2fa:	4602      	movge	r2, r0
     2fc:	2b00      	cmp	r3, #0
     2fe:	f6ff af3c 	blt.w	17a <renderReference(TextureCase const&, CoordCase const&, SampleMode, unsigned long, unsigned short*) [clone .constprop.0]+0x7a>
     302:	9807      	ldr	r0, [sp, #28]
     304:	4283      	cmp	r3, r0
     306:	bfa8      	it	ge
     308:	4603      	movge	r3, r0
     30a:	9802      	ldr	r0, [sp, #8]
     30c:	fb00 2203 	mla	r2, r0, r3, r2
     310:	e733      	b.n	17a <renderReference(TextureCase const&, CoordCase const&, SampleMode, unsigned long, unsigned short*) [clone .constprop.0]+0x7a>
     312:	2d00      	cmp	r5, #0
     314:	db25      	blt.n	362 <renderReference(TextureCase const&, CoordCase const&, SampleMode, unsigned long, unsigned short*) [clone .constprop.0]+0x262>
     316:	9806      	ldr	r0, [sp, #24]
     318:	42a8      	cmp	r0, r5
     31a:	bfa8      	it	ge
     31c:	4628      	movge	r0, r5
     31e:	3501      	adds	r5, #1
     320:	9a06      	ldr	r2, [sp, #24]
     322:	4295      	cmp	r5, r2
     324:	bfa8      	it	ge
     326:	4615      	movge	r5, r2
     328:	2b00      	cmp	r3, #0
     32a:	db15      	blt.n	358 <renderReference(TextureCase const&, CoordCase const&, SampleMode, unsigned long, unsigned short*) [clone .constprop.0]+0x258>
     32c:	9e07      	ldr	r6, [sp, #28]
     32e:	9a02      	ldr	r2, [sp, #8]
     330:	429e      	cmp	r6, r3
     332:	bfa8      	it	ge
     334:	461e      	movge	r6, r3
     336:	3301      	adds	r3, #1
     338:	fb02 f606 	mul.w	r6, r2, r6
     33c:	9a07      	ldr	r2, [sp, #28]
     33e:	4293      	cmp	r3, r2
     340:	bfa8      	it	ge
     342:	4613      	movge	r3, r2
     344:	9a02      	ldr	r2, [sp, #8]
     346:	fb02 f303 	mul.w	r3, r2, r3
     34a:	18c2      	adds	r2, r0, r3
     34c:	442b      	add	r3, r5
     34e:	4430      	add	r0, r6
     350:	4435      	add	r5, r6
     352:	e767      	b.n	224 <renderReference(TextureCase const&, CoordCase const&, SampleMode, unsigned long, unsigned short*) [clone .constprop.0]+0x124>
     354:	4602      	mov	r2, r0
     356:	e7d1      	b.n	2fc <renderReference(TextureCase const&, CoordCase const&, SampleMode, unsigned long, unsigned short*) [clone .constprop.0]+0x1fc>
     358:	3301      	adds	r3, #1
     35a:	d007      	beq.n	36c <renderReference(TextureCase const&, CoordCase const&, SampleMode, unsigned long, unsigned short*) [clone .constprop.0]+0x26c>
     35c:	462b      	mov	r3, r5
     35e:	4602      	mov	r2, r0
     360:	e760      	b.n	224 <renderReference(TextureCase const&, CoordCase const&, SampleMode, unsigned long, unsigned short*) [clone .constprop.0]+0x124>
     362:	3501      	adds	r5, #1
     364:	d005      	beq.n	372 <renderReference(TextureCase const&, CoordCase const&, SampleMode, unsigned long, unsigned short*) [clone .constprop.0]+0x272>
     366:	4615      	mov	r5, r2
     368:	4610      	mov	r0, r2
     36a:	e7dd      	b.n	328 <renderReference(TextureCase const&, CoordCase const&, SampleMode, unsigned long, unsigned short*) [clone .constprop.0]+0x228>
     36c:	2600      	movs	r6, #0
     36e:	4633      	mov	r3, r6
     370:	e7e4      	b.n	33c <renderReference(TextureCase const&, CoordCase const&, SampleMode, unsigned long, unsigned short*) [clone .constprop.0]+0x23c>
     372:	9d01      	ldr	r5, [sp, #4]
     374:	4628      	mov	r0, r5
     376:	e7d3      	b.n	320 <renderReference(TextureCase const&, CoordCase const&, SampleMode, unsigned long, unsigned short*) [clone .constprop.0]+0x220>
     378:	20001088 	.word	0x20001088
     37c:	20001308 	.word	0x20001308

00000380 <fixedStartAndStep(TextureCase const&, CoordCase const&, unsigned long, int, long&, long&, long&, long&)>:
     380:	ed91 4a02 	vldr	s8, [r1, #8]
     384:	edd1 4a03 	vldr	s9, [r1, #12]
     388:	eef0 6a44 	vmov.f32	s13, s8
     38c:	eddf 7a5e 	vldr	s15, [pc, #376]	; 508 <fixedStartAndStep(TextureCase const&, CoordCase const&, unsigned long, int, long&, long&, long&, long&)+0x188>
     390:	eeb0 7a64 	vmov.f32	s14, s9
     394:	ed91 6a04 	vldr	s12, [r1, #16]
     398:	edd1 5a05 	vldr	s11, [r1, #20]
     39c:	eee6 6a27 	vfma.f32	s13, s12, s15
     3a0:	edd0 3a01 	vldr	s7, [r0, #4]
     3a4:	eea5 7aa7 	vfma.f32	s14, s11, s15
     3a8:	ed90 5a02 	vldr	s10, [r0, #8]
     3ac:	eef8 3ae3 	vcvt.f32.s32	s7, s7
     3b0:	eeb8 5ac5 	vcvt.f32.s32	s10, s10
     3b4:	b410      	push	{r4}
     3b6:	790c      	ldrb	r4, [r1, #4]
     3b8:	ee66 6aa3 	vmul.f32	s13, s13, s7
     3bc:	ee27 7a05 	vmul.f32	s14, s14, s10
     3c0:	9803      	ldr	r0, [sp, #12]
     3c2:	2c00      	cmp	r4, #0
     3c4:	d04e      	beq.n	464 <fixedStartAndStep(TextureCase const&, CoordCase const&, unsigned long, int, long&, long&, long&, long&)+0xe4>
     3c6:	ed91 3a06 	vldr	s6, [r1, #24]
     3ca:	2a01      	cmp	r2, #1
     3cc:	ed91 1a07 	vldr	s2, [r1, #28]
     3d0:	f04f 0101 	mov.w	r1, #1
     3d4:	eef0 2a43 	vmov.f32	s5, s6
     3d8:	fa01 f103 	lsl.w	r1, r1, r3
     3dc:	9b01      	ldr	r3, [sp, #4]
     3de:	eee1 2a27 	vfma.f32	s5, s2, s15
     3e2:	ee07 1a90 	vmov	s15, r1
     3e6:	eef8 7ae7 	vcvt.f32.s32	s15, s15
     3ea:	eec6 1aa2 	vdiv.f32	s3, s13, s5
     3ee:	ee87 2a22 	vdiv.f32	s4, s14, s5
     3f2:	ee61 6aa7 	vmul.f32	s13, s3, s15
     3f6:	fefb 6a66 	vrintm.f32	s13, s13
     3fa:	eefd 6ae6 	vcvt.s32.f32	s13, s13
     3fe:	ee22 7a27 	vmul.f32	s14, s4, s15
     402:	edc3 6a00 	vstr	s13, [r3]
     406:	9b02      	ldr	r3, [sp, #8]
     408:	febb 7a47 	vrintm.f32	s14, s14
     40c:	eebd 7ac7 	vcvt.s32.f32	s14, s14
     410:	ed83 7a00 	vstr	s14, [r3]
     414:	d83f      	bhi.n	496 <fixedStartAndStep(TextureCase const&, CoordCase const&, unsigned long, int, long&, long&, long&, long&)+0x116>
     416:	ee26 6a23 	vmul.f32	s12, s12, s7
     41a:	ee65 5a85 	vmul.f32	s11, s11, s10
     41e:	eeb5 6ac0 	vcmpe.f32	s12, #0.0
     422:	eef1 fa10 	vmrs	APSR_nzcv, fpscr
     426:	eef5 5ac0 	vcmpe.f32	s11, #0.0
     42a:	bfac      	ite	ge
     42c:	eeb6 7a00 	vmovge.f32	s14, #96	; 0x3f000000  0.5
     430:	eebe 7a00 	vmovlt.f32	s14, #224	; 0xbf000000 -0.5
     434:	eef1 fa10 	vmrs	APSR_nzcv, fpscr
     438:	eea6 7a27 	vfma.f32	s14, s12, s15
     43c:	eebd 7ac7 	vcvt.s32.f32	s14, s14
     440:	ee17 1a10 	vmov	r1, s14
     444:	bfac      	ite	ge
     446:	eeb6 7a00 	vmovge.f32	s14, #96	; 0x3f000000  0.5
     44a:	eebe 7a00 	vmovlt.f32	s14, #224	; 0xbf000000 -0.5
     44e:	eea5 7aa7 	vfma.f32	s14, s11, s15
     452:	eebd 7ac7 	vcvt.s32.f32	s14, s14
     456:	9b04      	ldr	r3, [sp, #16]
     458:	6001      	str	r1, [r0, #0]
     45a:	f85d 4b04 	ldr.w	r4, [sp], #4
     45e:	ed83 7a00 	vstr	s14, [r3]
     462:	4770      	bx	lr
     464:	2201      	movs	r2, #1
     466:	409a      	lsls	r2, r3
     468:	9b01      	ldr	r3, [sp, #4]
     46a:	ee07 2a90 	vmov	s15, r2
     46e:	eef8 7ae7 	vcvt.f32.s32	s15, s15
     472:	ee66 6aa7 	vmul.f32	s13, s13, s15
     476:	ee27 7a27 	vmul.f32	s14, s14, s15
     47a:	fefb 6a66 	vrintm.f32	s13, s13
     47e:	eefd 6ae6 	vcvt.s32.f32	s13, s13
     482:	febb 7a47 	vrintm.f32	s14, s14
     486:	eebd 7ac7 	vcvt.s32.f32	s14, s14
     48a:	edc3 6a00 	vstr	s13, [r3]
     48e:	9b02      	ldr	r3, [sp, #8]
     490:	ed83 7a00 	vstr	s14, [r3]
     494:	e7bf      	b.n	416 <fixedStartAndStep(TextureCase const&, CoordCase const&, unsigned long, int, long&, long&, long&, long&)+0x96>
     496:	3a01      	subs	r2, #1
     498:	ee07 2a10 	vmov	s14, r2
     49c:	eef8 6a47 	vcvt.f32.u32	s13, s14
     4a0:	eea6 4a26 	vfma.f32	s8, s12, s13
     4a4:	eea1 3a26 	vfma.f32	s6, s2, s13
     4a8:	eee5 4aa6 	vfma.f32	s9, s11, s13
     4ac:	ee23 4a84 	vmul.f32	s8, s7, s8
     4b0:	ee65 4a24 	vmul.f32	s9, s10, s9
     4b4:	ee84 7a03 	vdiv.f32	s14, s8, s6
     4b8:	ee84 6a83 	vdiv.f32	s12, s9, s6
     4bc:	ee37 7a61 	vsub.f32	s14, s14, s3
     4c0:	eec7 5a26 	vdiv.f32	s11, s14, s13
     4c4:	eef5 5ac0 	vcmpe.f32	s11, #0.0
     4c8:	eef1 fa10 	vmrs	APSR_nzcv, fpscr
     4cc:	bfac      	ite	ge
     4ce:	eeb6 7a00 	vmovge.f32	s14, #96	; 0x3f000000  0.5
     4d2:	eebe 7a00 	vmovlt.f32	s14, #224	; 0xbf000000 -0.5
     4d6:	eea5 7aa7 	vfma.f32	s14, s11, s15
     4da:	eebd 7ac7 	vcvt.s32.f32	s14, s14
     4de:	ee17 1a10 	vmov	r1, s14
     4e2:	ee36 7a42 	vsub.f32	s14, s12, s4
     4e6:	ee87 6a26 	vdiv.f32	s12, s14, s13
     4ea:	eeb5 6ac0 	vcmpe.f32	s12, #0.0
     4ee:	eef1 fa10 	vmrs	APSR_nzcv, fpscr
     4f2:	bfac      	ite	ge
     4f4:	eeb6 7a00 	vmovge.f32	s14, #96	; 0x3f000000  0.5
     4f8:	eebe 7a00 	vmovlt.f32	s14, #224	; 0xbf000000 -0.5
     4fc:	eea6 7a27 	vfma.f32	s14, s12, s15
     500:	eebd 7ac7 	vcvt.s32.f32	s14, s14
     504:	e7a7      	b.n	456 <fixedStartAndStep(TextureCase const&, CoordCase const&, unsigned long, int, long&, long&, long&, long&)+0xd6>
     506:	bf00      	nop
     508:	00000000 	.word	0x00000000

0000050c <renderCandidateInterior(TextureCase const&, CoordCase const&, SampleMode, unsigned long, int, unsigned short*) [clone .constprop.0]>:
     50c:	e92d 4ff0 	stmdb	sp!, {r4, r5, r6, r7, r8, r9, sl, fp, lr}
     510:	b089      	sub	sp, #36	; 0x24
     512:	461e      	mov	r6, r3
     514:	4692      	mov	sl, r2
     516:	4607      	mov	r7, r0
     518:	ab07      	add	r3, sp, #28
     51a:	4632      	mov	r2, r6
     51c:	9303      	str	r3, [sp, #12]
     51e:	ab06      	add	r3, sp, #24
     520:	9302      	str	r3, [sp, #8]
     522:	ab05      	add	r3, sp, #20
     524:	9301      	str	r3, [sp, #4]
     526:	ab04      	add	r3, sp, #16
     528:	9300      	str	r3, [sp, #0]
     52a:	2310      	movs	r3, #16
     52c:	f7ff ff28 	bl	380 <fixedStartAndStep(TextureCase const&, CoordCase const&, unsigned long, int, long&, long&, long&, long&)>
     530:	b1d6      	cbz	r6, 568 <renderCandidateInterior(TextureCase const&, CoordCase const&, SampleMode, unsigned long, int, unsigned short*) [clone .constprop.0]+0x5c>
     532:	f8d7 9004 	ldr.w	r9, [r7, #4]
     536:	e9dd 4504 	ldrd	r4, r5, [sp, #16]
     53a:	e9dd 7806 	ldrd	r7, r8, [sp, #24]
     53e:	f1ba 0f00 	cmp.w	sl, #0
     542:	d114      	bne.n	56e <renderCandidateInterior(TextureCase const&, CoordCase const&, SampleMode, unsigned long, int, unsigned short*) [clone .constprop.0]+0x62>
     544:	f1b9 0f01 	cmp.w	r9, #1
     548:	4a27      	ldr	r2, [pc, #156]	; (5e8 <renderCandidateInterior(TextureCase const&, CoordCase const&, SampleMode, unsigned long, int, unsigned short*) [clone .constprop.0]+0xdc>)
     54a:	d13d      	bne.n	5c8 <renderCandidateInterior(TextureCase const&, CoordCase const&, SampleMode, unsigned long, int, unsigned short*) [clone .constprop.0]+0xbc>
     54c:	eb02 0146 	add.w	r1, r2, r6, lsl #1
     550:	4e26      	ldr	r6, [pc, #152]	; (5ec <renderCandidateInterior(TextureCase const&, CoordCase const&, SampleMode, unsigned long, int, unsigned short*) [clone .constprop.0]+0xe0>)
     552:	1423      	asrs	r3, r4, #16
     554:	443c      	add	r4, r7
     556:	eb03 4325 	add.w	r3, r3, r5, asr #16
     55a:	4445      	add	r5, r8
     55c:	f836 3013 	ldrh.w	r3, [r6, r3, lsl #1]
     560:	f822 3b02 	strh.w	r3, [r2], #2
     564:	428a      	cmp	r2, r1
     566:	d1f4      	bne.n	552 <renderCandidateInterior(TextureCase const&, CoordCase const&, SampleMode, unsigned long, int, unsigned short*) [clone .constprop.0]+0x46>
     568:	b009      	add	sp, #36	; 0x24
     56a:	e8bd 8ff0 	ldmia.w	sp!, {r4, r5, r6, r7, r8, r9, sl, fp, pc}
     56e:	f8df a078 	ldr.w	sl, [pc, #120]	; 5e8 <renderCandidateInterior(TextureCase const&, CoordCase const&, SampleMode, unsigned long, int, unsigned short*) [clone .constprop.0]+0xdc>
     572:	eb0a 0b46 	add.w	fp, sl, r6, lsl #1
     576:	4e1d      	ldr	r6, [pc, #116]	; (5ec <renderCandidateInterior(TextureCase const&, CoordCase const&, SampleMode, unsigned long, int, unsigned short*) [clone .constprop.0]+0xe0>)
     578:	142b      	asrs	r3, r5, #16
     57a:	1422      	asrs	r2, r4, #16
     57c:	fb09 f303 	mul.w	r3, r9, r3
     580:	f102 0c01 	add.w	ip, r2, #1
     584:	eb03 0009 	add.w	r0, r3, r9
     588:	eb03 010c 	add.w	r1, r3, ip
     58c:	4413      	add	r3, r2
     58e:	4484      	add	ip, r0
     590:	4402      	add	r2, r0
     592:	f836 0013 	ldrh.w	r0, [r6, r3, lsl #1]
     596:	f836 301c 	ldrh.w	r3, [r6, ip, lsl #1]
     59a:	f3c5 2c07 	ubfx	ip, r5, #8, #8
     59e:	f836 1011 	ldrh.w	r1, [r6, r1, lsl #1]
     5a2:	4445      	add	r5, r8
     5a4:	f836 2012 	ldrh.w	r2, [r6, r2, lsl #1]
     5a8:	f8cd c004 	str.w	ip, [sp, #4]
     5ac:	f3c4 2c07 	ubfx	ip, r4, #8, #8
     5b0:	443c      	add	r4, r7
     5b2:	f8cd c000 	str.w	ip, [sp]
     5b6:	f7ff fd57 	bl	68 <bilinearFixedWeights(unsigned short, unsigned short, unsigned short, unsigned short, int, int)>
     5ba:	f82a 0b02 	strh.w	r0, [sl], #2
     5be:	45da      	cmp	sl, fp
     5c0:	d1da      	bne.n	578 <renderCandidateInterior(TextureCase const&, CoordCase const&, SampleMode, unsigned long, int, unsigned short*) [clone .constprop.0]+0x6c>
     5c2:	b009      	add	sp, #36	; 0x24
     5c4:	e8bd 8ff0 	ldmia.w	sp!, {r4, r5, r6, r7, r8, r9, sl, fp, pc}
     5c8:	eb02 0046 	add.w	r0, r2, r6, lsl #1
     5cc:	4e07      	ldr	r6, [pc, #28]	; (5ec <renderCandidateInterior(TextureCase const&, CoordCase const&, SampleMode, unsigned long, int, unsigned short*) [clone .constprop.0]+0xe0>)
     5ce:	1429      	asrs	r1, r5, #16
     5d0:	4445      	add	r5, r8
     5d2:	1423      	asrs	r3, r4, #16
     5d4:	443c      	add	r4, r7
     5d6:	fb09 3301 	mla	r3, r9, r1, r3
     5da:	f836 3013 	ldrh.w	r3, [r6, r3, lsl #1]
     5de:	f822 3b02 	strh.w	r3, [r2], #2
     5e2:	4290      	cmp	r0, r2
     5e4:	d1f3      	bne.n	5ce <renderCandidateInterior(TextureCase const&, CoordCase const&, SampleMode, unsigned long, int, unsigned short*) [clone .constprop.0]+0xc2>
     5e6:	e7bf      	b.n	568 <renderCandidateInterior(TextureCase const&, CoordCase const&, SampleMode, unsigned long, int, unsigned short*) [clone .constprop.0]+0x5c>
     5e8:	20003308 	.word	0x20003308
     5ec:	20001308 	.word	0x20001308

000005f0 <renderCandidate(TextureCase const&, CoordCase const&, SampleMode, unsigned long, int, unsigned short*) [clone .constprop.0]>:
     5f0:	e92d 4ff0 	stmdb	sp!, {r4, r5, r6, r7, r8, r9, sl, fp, lr}
     5f4:	b095      	sub	sp, #84	; 0x54
     5f6:	4698      	mov	r8, r3
     5f8:	4607      	mov	r7, r0
     5fa:	ab13      	add	r3, sp, #76	; 0x4c
     5fc:	9e1e      	ldr	r6, [sp, #120]	; 0x78
     5fe:	9206      	str	r2, [sp, #24]
     600:	4642      	mov	r2, r8
     602:	9303      	str	r3, [sp, #12]
     604:	ab12      	add	r3, sp, #72	; 0x48
     606:	9302      	str	r3, [sp, #8]
     608:	ab11      	add	r3, sp, #68	; 0x44
     60a:	9301      	str	r3, [sp, #4]
     60c:	ab10      	add	r3, sp, #64	; 0x40
     60e:	9300      	str	r3, [sp, #0]
     610:	4633      	mov	r3, r6
     612:	f7ff feb5 	bl	380 <fixedStartAndStep(TextureCase const&, CoordCase const&, unsigned long, int, long&, long&, long&, long&)>
     616:	f1b8 0f00 	cmp.w	r8, #0
     61a:	f000 80d3 	beq.w	7c4 <renderCandidate(TextureCase const&, CoordCase const&, SampleMode, unsigned long, int, unsigned short*) [clone .constprop.0]+0x1d4>
     61e:	68ba      	ldr	r2, [r7, #8]
     620:	2301      	movs	r3, #1
     622:	6879      	ldr	r1, [r7, #4]
     624:	40b3      	lsls	r3, r6
     626:	7b78      	ldrb	r0, [r7, #13]
     628:	3a01      	subs	r2, #1
     62a:	4f71      	ldr	r7, [pc, #452]	; (7f0 <renderCandidate(TextureCase const&, CoordCase const&, SampleMode, unsigned long, int, unsigned short*) [clone .constprop.0]+0x200>)
     62c:	f8dd b048 	ldr.w	fp, [sp, #72]	; 0x48
     630:	920b      	str	r2, [sp, #44]	; 0x2c
     632:	eb07 0248 	add.w	r2, r7, r8, lsl #1
     636:	f8df a1bc 	ldr.w	sl, [pc, #444]	; 7f4 <renderCandidate(TextureCase const&, CoordCase const&, SampleMode, unsigned long, int, unsigned short*) [clone .constprop.0]+0x204>
     63a:	9109      	str	r1, [sp, #36]	; 0x24
     63c:	9005      	str	r0, [sp, #20]
     63e:	9207      	str	r2, [sp, #28]
     640:	e9dd 4510 	ldrd	r4, r5, [sp, #64]	; 0x40
     644:	eba3 0905 	sub.w	r9, r3, r5
     648:	eba3 0804 	sub.w	r8, r3, r4
     64c:	f1c3 0301 	rsb	r3, r3, #1
     650:	f109 39ff 	add.w	r9, r9, #4294967295
     654:	f108 38ff 	add.w	r8, r8, #4294967295
     658:	930d      	str	r3, [sp, #52]	; 0x34
     65a:	1e4b      	subs	r3, r1, #1
     65c:	930a      	str	r3, [sp, #40]	; 0x28
     65e:	9b13      	ldr	r3, [sp, #76]	; 0x4c
     660:	9308      	str	r3, [sp, #32]
     662:	f1a6 0308 	sub.w	r3, r6, #8
     666:	930e      	str	r3, [sp, #56]	; 0x38
     668:	e026      	b.n	6b8 <renderCandidate(TextureCase const&, CoordCase const&, SampleMode, unsigned long, int, unsigned short*) [clone .constprop.0]+0xc8>
     66a:	2c00      	cmp	r4, #0
     66c:	f280 80a1 	bge.w	7b2 <renderCandidate(TextureCase const&, CoordCase const&, SampleMode, unsigned long, int, unsigned short*) [clone .constprop.0]+0x1c2>
     670:	9b0d      	ldr	r3, [sp, #52]	; 0x34
     672:	4443      	add	r3, r8
     674:	4133      	asrs	r3, r6
     676:	425b      	negs	r3, r3
     678:	2d00      	cmp	r5, #0
     67a:	f280 8097 	bge.w	7ac <renderCandidate(TextureCase const&, CoordCase const&, SampleMode, unsigned long, int, unsigned short*) [clone .constprop.0]+0x1bc>
     67e:	9a0d      	ldr	r2, [sp, #52]	; 0x34
     680:	444a      	add	r2, r9
     682:	4132      	asrs	r2, r6
     684:	4252      	negs	r2, r2
     686:	9905      	ldr	r1, [sp, #20]
     688:	2900      	cmp	r1, #0
     68a:	d058      	beq.n	73e <renderCandidate(TextureCase const&, CoordCase const&, SampleMode, unsigned long, int, unsigned short*) [clone .constprop.0]+0x14e>
     68c:	990b      	ldr	r1, [sp, #44]	; 0x2c
     68e:	400a      	ands	r2, r1
     690:	990a      	ldr	r1, [sp, #40]	; 0x28
     692:	400b      	ands	r3, r1
     694:	9909      	ldr	r1, [sp, #36]	; 0x24
     696:	fb01 3302 	mla	r3, r1, r2, r3
     69a:	f83a 0013 	ldrh.w	r0, [sl, r3, lsl #1]
     69e:	9b08      	ldr	r3, [sp, #32]
     6a0:	445c      	add	r4, fp
     6a2:	f827 0b02 	strh.w	r0, [r7], #2
     6a6:	eba8 080b 	sub.w	r8, r8, fp
     6aa:	441d      	add	r5, r3
     6ac:	eba9 0903 	sub.w	r9, r9, r3
     6b0:	9b07      	ldr	r3, [sp, #28]
     6b2:	429f      	cmp	r7, r3
     6b4:	f000 8086 	beq.w	7c4 <renderCandidate(TextureCase const&, CoordCase const&, SampleMode, unsigned long, int, unsigned short*) [clone .constprop.0]+0x1d4>
     6b8:	9b06      	ldr	r3, [sp, #24]
     6ba:	2b00      	cmp	r3, #0
     6bc:	d0d5      	beq.n	66a <renderCandidate(TextureCase const&, CoordCase const&, SampleMode, unsigned long, int, unsigned short*) [clone .constprop.0]+0x7a>
     6be:	2c00      	cmp	r4, #0
     6c0:	da7d      	bge.n	7be <renderCandidate(TextureCase const&, CoordCase const&, SampleMode, unsigned long, int, unsigned short*) [clone .constprop.0]+0x1ce>
     6c2:	fa48 fe06 	asr.w	lr, r8, r6
     6c6:	f1ce 0e00 	rsb	lr, lr, #0
     6ca:	2d00      	cmp	r5, #0
     6cc:	da74      	bge.n	7b8 <renderCandidate(TextureCase const&, CoordCase const&, SampleMode, unsigned long, int, unsigned short*) [clone .constprop.0]+0x1c8>
     6ce:	fa49 f306 	asr.w	r3, r9, r6
     6d2:	425b      	negs	r3, r3
     6d4:	fa0e fc06 	lsl.w	ip, lr, r6
     6d8:	fa03 f206 	lsl.w	r2, r3, r6
     6dc:	990e      	ldr	r1, [sp, #56]	; 0x38
     6de:	eba4 0c0c 	sub.w	ip, r4, ip
     6e2:	1aaa      	subs	r2, r5, r2
     6e4:	ea2c 7cec 	bic.w	ip, ip, ip, asr #31
     6e8:	ea22 72e2 	bic.w	r2, r2, r2, asr #31
     6ec:	fa4c fc01 	asr.w	ip, ip, r1
     6f0:	410a      	asrs	r2, r1
     6f2:	9905      	ldr	r1, [sp, #20]
     6f4:	920c      	str	r2, [sp, #48]	; 0x30
     6f6:	b391      	cbz	r1, 75e <renderCandidate(TextureCase const&, CoordCase const&, SampleMode, unsigned long, int, unsigned short*) [clone .constprop.0]+0x16e>
     6f8:	990b      	ldr	r1, [sp, #44]	; 0x2c
     6fa:	1c58      	adds	r0, r3, #1
     6fc:	9a09      	ldr	r2, [sp, #36]	; 0x24
     6fe:	4008      	ands	r0, r1
     700:	400b      	ands	r3, r1
     702:	fb02 f103 	mul.w	r1, r2, r3
     706:	fb02 f300 	mul.w	r3, r2, r0
     70a:	f10e 0001 	add.w	r0, lr, #1
     70e:	9a0a      	ldr	r2, [sp, #40]	; 0x28
     710:	ea0e 0e02 	and.w	lr, lr, r2
     714:	4002      	ands	r2, r0
     716:	eb01 000e 	add.w	r0, r1, lr
     71a:	449e      	add	lr, r3
     71c:	4411      	add	r1, r2
     71e:	4413      	add	r3, r2
     720:	9a0c      	ldr	r2, [sp, #48]	; 0x30
     722:	f83a 3013 	ldrh.w	r3, [sl, r3, lsl #1]
     726:	f83a 1011 	ldrh.w	r1, [sl, r1, lsl #1]
     72a:	f83a 0010 	ldrh.w	r0, [sl, r0, lsl #1]
     72e:	e9cd c200 	strd	ip, r2, [sp]
     732:	f83a 201e 	ldrh.w	r2, [sl, lr, lsl #1]
     736:	f7ff fc97 	bl	68 <bilinearFixedWeights(unsigned short, unsigned short, unsigned short, unsigned short, int, int)>
     73a:	b280      	uxth	r0, r0
     73c:	e7af      	b.n	69e <renderCandidate(TextureCase const&, CoordCase const&, SampleMode, unsigned long, int, unsigned short*) [clone .constprop.0]+0xae>
     73e:	2b00      	cmp	r3, #0
     740:	db43      	blt.n	7ca <renderCandidate(TextureCase const&, CoordCase const&, SampleMode, unsigned long, int, unsigned short*) [clone .constprop.0]+0x1da>
     742:	990a      	ldr	r1, [sp, #40]	; 0x28
     744:	428b      	cmp	r3, r1
     746:	bfa8      	it	ge
     748:	460b      	movge	r3, r1
     74a:	2a00      	cmp	r2, #0
     74c:	dba5      	blt.n	69a <renderCandidate(TextureCase const&, CoordCase const&, SampleMode, unsigned long, int, unsigned short*) [clone .constprop.0]+0xaa>
     74e:	990b      	ldr	r1, [sp, #44]	; 0x2c
     750:	428a      	cmp	r2, r1
     752:	bfa8      	it	ge
     754:	460a      	movge	r2, r1
     756:	9909      	ldr	r1, [sp, #36]	; 0x24
     758:	fb01 3302 	mla	r3, r1, r2, r3
     75c:	e79d      	b.n	69a <renderCandidate(TextureCase const&, CoordCase const&, SampleMode, unsigned long, int, unsigned short*) [clone .constprop.0]+0xaa>
     75e:	f1be 0f00 	cmp.w	lr, #0
     762:	db39      	blt.n	7d8 <renderCandidate(TextureCase const&, CoordCase const&, SampleMode, unsigned long, int, unsigned short*) [clone .constprop.0]+0x1e8>
     764:	980a      	ldr	r0, [sp, #40]	; 0x28
     766:	f10e 0101 	add.w	r1, lr, #1
     76a:	4570      	cmp	r0, lr
     76c:	bfa8      	it	ge
     76e:	4670      	movge	r0, lr
     770:	9a0a      	ldr	r2, [sp, #40]	; 0x28
     772:	4291      	cmp	r1, r2
     774:	bfa8      	it	ge
     776:	4611      	movge	r1, r2
     778:	2b00      	cmp	r3, #0
     77a:	db28      	blt.n	7ce <renderCandidate(TextureCase const&, CoordCase const&, SampleMode, unsigned long, int, unsigned short*) [clone .constprop.0]+0x1de>
     77c:	9a0b      	ldr	r2, [sp, #44]	; 0x2c
     77e:	429a      	cmp	r2, r3
     780:	bfa8      	it	ge
     782:	461a      	movge	r2, r3
     784:	3301      	adds	r3, #1
     786:	4696      	mov	lr, r2
     788:	9a09      	ldr	r2, [sp, #36]	; 0x24
     78a:	fb02 f20e 	mul.w	r2, r2, lr
     78e:	920f      	str	r2, [sp, #60]	; 0x3c
     790:	9a0b      	ldr	r2, [sp, #44]	; 0x2c
     792:	4293      	cmp	r3, r2
     794:	bfa8      	it	ge
     796:	4613      	movge	r3, r2
     798:	9a09      	ldr	r2, [sp, #36]	; 0x24
     79a:	fb02 f303 	mul.w	r3, r2, r3
     79e:	9a0f      	ldr	r2, [sp, #60]	; 0x3c
     7a0:	eb00 0e03 	add.w	lr, r0, r3
     7a4:	440b      	add	r3, r1
     7a6:	4410      	add	r0, r2
     7a8:	4411      	add	r1, r2
     7aa:	e7b9      	b.n	720 <renderCandidate(TextureCase const&, CoordCase const&, SampleMode, unsigned long, int, unsigned short*) [clone .constprop.0]+0x130>
     7ac:	fa45 f206 	asr.w	r2, r5, r6
     7b0:	e769      	b.n	686 <renderCandidate(TextureCase const&, CoordCase const&, SampleMode, unsigned long, int, unsigned short*) [clone .constprop.0]+0x96>
     7b2:	fa44 f306 	asr.w	r3, r4, r6
     7b6:	e75f      	b.n	678 <renderCandidate(TextureCase const&, CoordCase const&, SampleMode, unsigned long, int, unsigned short*) [clone .constprop.0]+0x88>
     7b8:	fa45 f306 	asr.w	r3, r5, r6
     7bc:	e78a      	b.n	6d4 <renderCandidate(TextureCase const&, CoordCase const&, SampleMode, unsigned long, int, unsigned short*) [clone .constprop.0]+0xe4>
     7be:	fa44 fe06 	asr.w	lr, r4, r6
     7c2:	e782      	b.n	6ca <renderCandidate(TextureCase const&, CoordCase const&, SampleMode, unsigned long, int, unsigned short*) [clone .constprop.0]+0xda>
     7c4:	b015      	add	sp, #84	; 0x54
     7c6:	e8bd 8ff0 	ldmia.w	sp!, {r4, r5, r6, r7, r8, r9, sl, fp, pc}
     7ca:	460b      	mov	r3, r1
     7cc:	e7bd      	b.n	74a <renderCandidate(TextureCase const&, CoordCase const&, SampleMode, unsigned long, int, unsigned short*) [clone .constprop.0]+0x15a>
     7ce:	3301      	adds	r3, #1
     7d0:	d007      	beq.n	7e2 <renderCandidate(TextureCase const&, CoordCase const&, SampleMode, unsigned long, int, unsigned short*) [clone .constprop.0]+0x1f2>
     7d2:	460b      	mov	r3, r1
     7d4:	4686      	mov	lr, r0
     7d6:	e7a3      	b.n	720 <renderCandidate(TextureCase const&, CoordCase const&, SampleMode, unsigned long, int, unsigned short*) [clone .constprop.0]+0x130>
     7d8:	f1be 3fff 	cmp.w	lr, #4294967295
     7dc:	d004      	beq.n	7e8 <renderCandidate(TextureCase const&, CoordCase const&, SampleMode, unsigned long, int, unsigned short*) [clone .constprop.0]+0x1f8>
     7de:	4608      	mov	r0, r1
     7e0:	e7ca      	b.n	778 <renderCandidate(TextureCase const&, CoordCase const&, SampleMode, unsigned long, int, unsigned short*) [clone .constprop.0]+0x188>
     7e2:	2300      	movs	r3, #0
     7e4:	930f      	str	r3, [sp, #60]	; 0x3c
     7e6:	e7d3      	b.n	790 <renderCandidate(TextureCase const&, CoordCase const&, SampleMode, unsigned long, int, unsigned short*) [clone .constprop.0]+0x1a0>
     7e8:	9905      	ldr	r1, [sp, #20]
     7ea:	4608      	mov	r0, r1
     7ec:	e7c0      	b.n	770 <renderCandidate(TextureCase const&, CoordCase const&, SampleMode, unsigned long, int, unsigned short*) [clone .constprop.0]+0x180>
     7ee:	bf00      	nop
     7f0:	20003308 	.word	0x20003308
     7f4:	20001308 	.word	0x20001308

000007f8 <runOne(TextureCase const&, CoordCase const&, SampleMode, unsigned long, int, bool) [clone .constprop.0]>:
     7f8:	e92d 4ff0 	stmdb	sp!, {r4, r5, r6, r7, r8, r9, sl, fp, lr}
     7fc:	ed2d 8b06 	vpush	{d8-d10}
     800:	b099      	sub	sp, #100	; 0x64
     802:	4683      	mov	fp, r0
     804:	468a      	mov	sl, r1
     806:	ee0a 2a10 	vmov	s20, r2
     80a:	f89d 40a0 	ldrb.w	r4, [sp, #160]	; 0xa0
     80e:	461d      	mov	r5, r3
     810:	9405      	str	r4, [sp, #20]
     812:	2c00      	cmp	r4, #0
     814:	f040 80ba 	bne.w	98c <runOne(TextureCase const&, CoordCase const&, SampleMode, unsigned long, int, bool) [clone .constprop.0]+0x194>
     818:	f7ff fc72 	bl	100 <renderReference(TextureCase const&, CoordCase const&, SampleMode, unsigned long, unsigned short*) [clone .constprop.0]>
     81c:	2310      	movs	r3, #16
     81e:	ee1a 2a10 	vmov	r2, s20
     822:	4658      	mov	r0, fp
     824:	9300      	str	r3, [sp, #0]
     826:	462b      	mov	r3, r5
     828:	f7ff fee2 	bl	5f0 <renderCandidate(TextureCase const&, CoordCase const&, SampleMode, unsigned long, int, unsigned short*) [clone .constprop.0]>
     82c:	2d00      	cmp	r5, #0
     82e:	f000 8407 	beq.w	1040 <runOne(TextureCase const&, CoordCase const&, SampleMode, unsigned long, int, bool) [clone .constprop.0]+0x848>
     832:	f8df 92f4 	ldr.w	r9, [pc, #756]	; b28 <runOne(TextureCase const&, CoordCase const&, SampleMode, unsigned long, int, bool) [clone .constprop.0]+0x330>
     836:	2300      	movs	r3, #0
     838:	006a      	lsls	r2, r5, #1
     83a:	4fb8      	ldr	r7, [pc, #736]	; (b1c <runOne(TextureCase const&, CoordCase const&, SampleMode, unsigned long, int, bool) [clone .constprop.0]+0x324>)
     83c:	eb09 0c45 	add.w	ip, r9, r5, lsl #1
     840:	464e      	mov	r6, r9
     842:	ee07 ba90 	vmov	s15, fp
     846:	ee07 aa10 	vmov	s14, sl
     84a:	46e3      	mov	fp, ip
     84c:	9504      	str	r5, [sp, #16]
     84e:	f8cd 9024 	str.w	r9, [sp, #36]	; 0x24
     852:	4698      	mov	r8, r3
     854:	469a      	mov	sl, r3
     856:	461d      	mov	r5, r3
     858:	469e      	mov	lr, r3
     85a:	469c      	mov	ip, r3
     85c:	4699      	mov	r9, r3
     85e:	9703      	str	r7, [sp, #12]
     860:	9206      	str	r2, [sp, #24]
     862:	9307      	str	r3, [sp, #28]
     864:	9302      	str	r3, [sp, #8]
     866:	f837 2b02 	ldrh.w	r2, [r7], #2
     86a:	f836 4b02 	ldrh.w	r4, [r6], #2
     86e:	0ad0      	lsrs	r0, r2, #11
     870:	4294      	cmp	r4, r2
     872:	f004 031f 	and.w	r3, r4, #31
     876:	ebc0 20d4 	rsb	r0, r0, r4, lsr #11
     87a:	f3c4 1145 	ubfx	r1, r4, #5, #6
     87e:	f002 041f 	and.w	r4, r2, #31
     882:	f3c2 1245 	ubfx	r2, r2, #5, #6
     886:	bf18      	it	ne
     888:	f10a 0a01 	addne.w	sl, sl, #1
     88c:	2800      	cmp	r0, #0
     88e:	eba3 0304 	sub.w	r3, r3, r4
     892:	eba1 0102 	sub.w	r1, r1, r2
     896:	fb00 f200 	mul.w	r2, r0, r0
     89a:	bfb8      	it	lt
     89c:	4240      	neglt	r0, r0
     89e:	2b00      	cmp	r3, #0
     8a0:	fb01 2201 	mla	r2, r1, r1, r2
     8a4:	fb03 2203 	mla	r2, r3, r3, r2
     8a8:	bfb8      	it	lt
     8aa:	425b      	neglt	r3, r3
     8ac:	2900      	cmp	r1, #0
     8ae:	bfb8      	it	lt
     8b0:	4249      	neglt	r1, r1
     8b2:	4283      	cmp	r3, r0
     8b4:	eb01 0400 	add.w	r4, r1, r0
     8b8:	441c      	add	r4, r3
     8ba:	bfb8      	it	lt
     8bc:	4603      	movlt	r3, r0
     8be:	428b      	cmp	r3, r1
     8c0:	bfb8      	it	lt
     8c2:	460b      	movlt	r3, r1
     8c4:	2b01      	cmp	r3, #1
     8c6:	dd02      	ble.n	8ce <runOne(TextureCase const&, CoordCase const&, SampleMode, unsigned long, int, bool) [clone .constprop.0]+0xd6>
     8c8:	9902      	ldr	r1, [sp, #8]
     8ca:	3101      	adds	r1, #1
     8cc:	9102      	str	r1, [sp, #8]
     8ce:	4598      	cmp	r8, r3
     8d0:	bf38      	it	cc
     8d2:	4698      	movcc	r8, r3
     8d4:	1965      	adds	r5, r4, r5
     8d6:	eb49 79e4 	adc.w	r9, r9, r4, asr #31
     8da:	eb12 0e0e 	adds.w	lr, r2, lr
     8de:	eb4c 7ce2 	adc.w	ip, ip, r2, asr #31
     8e2:	455e      	cmp	r6, fp
     8e4:	d1bf      	bne.n	866 <runOne(TextureCase const&, CoordCase const&, SampleMode, unsigned long, int, bool) [clone .constprop.0]+0x6e>
     8e6:	950e      	str	r5, [sp, #56]	; 0x38
     8e8:	ee17 ba90 	vmov	fp, s15
     8ec:	9d04      	ldr	r5, [sp, #16]
     8ee:	f8cd c044 	str.w	ip, [sp, #68]	; 0x44
     8f2:	2d05      	cmp	r5, #5
     8f4:	e9cd 8a07 	strd	r8, sl, [sp, #28]
     8f8:	e9cd 9e0f 	strd	r9, lr, [sp, #60]	; 0x3c
     8fc:	e9dd 3908 	ldrd	r3, r9, [sp, #32]
     900:	ee17 aa10 	vmov	sl, s14
     904:	fab3 f383 	clz	r3, r3
     908:	ea4f 1353 	mov.w	r3, r3, lsr #5
     90c:	930d      	str	r3, [sp, #52]	; 0x34
     90e:	f240 8390 	bls.w	1032 <runOne(TextureCase const&, CoordCase const&, SampleMode, unsigned long, int, bool) [clone .constprop.0]+0x83a>
     912:	2d10      	cmp	r5, #16
     914:	f240 8389 	bls.w	102a <runOne(TextureCase const&, CoordCase const&, SampleMode, unsigned long, int, bool) [clone .constprop.0]+0x832>
     918:	2d40      	cmp	r5, #64	; 0x40
     91a:	f240 838e 	bls.w	103a <runOne(TextureCase const&, CoordCase const&, SampleMode, unsigned long, int, bool) [clone .constprop.0]+0x842>
     91e:	2d80      	cmp	r5, #128	; 0x80
     920:	bf94      	ite	ls
     922:	2330      	movls	r3, #48	; 0x30
     924:	2314      	movhi	r3, #20
     926:	9304      	str	r3, [sp, #16]
     928:	4b7d      	ldr	r3, [pc, #500]	; (b20 <runOne(TextureCase const&, CoordCase const&, SampleMode, unsigned long, int, bool) [clone .constprop.0]+0x328>)
     92a:	2700      	movs	r7, #0
     92c:	4e7d      	ldr	r6, [pc, #500]	; (b24 <runOne(TextureCase const&, CoordCase const&, SampleMode, unsigned long, int, bool) [clone .constprop.0]+0x32c>)
     92e:	685b      	ldr	r3, [r3, #4]
     930:	46b8      	mov	r8, r7
     932:	930a      	str	r3, [sp, #40]	; 0x28
     934:	f002 fb42 	bl	2fbc <micros>
     938:	4b7b      	ldr	r3, [pc, #492]	; (b28 <runOne(TextureCase const&, CoordCase const&, SampleMode, unsigned long, int, bool) [clone .constprop.0]+0x330>)
     93a:	4651      	mov	r1, sl
     93c:	ee1a aa10 	vmov	sl, s20
     940:	9009      	str	r0, [sp, #36]	; 0x24
     942:	930c      	str	r3, [sp, #48]	; 0x30
     944:	4658      	mov	r0, fp
     946:	9b06      	ldr	r3, [sp, #24]
     948:	4652      	mov	r2, sl
     94a:	eb09 0403 	add.w	r4, r9, r3
     94e:	462b      	mov	r3, r5
     950:	f7ff fbd6 	bl	100 <renderReference(TextureCase const&, CoordCase const&, SampleMode, unsigned long, unsigned short*) [clone .constprop.0]>
     954:	b1c5      	cbz	r5, 988 <runOne(TextureCase const&, CoordCase const&, SampleMode, unsigned long, int, bool) [clone .constprop.0]+0x190>
     956:	4648      	mov	r0, r9
     958:	4b74      	ldr	r3, [pc, #464]	; (b2c <runOne(TextureCase const&, CoordCase const&, SampleMode, unsigned long, int, bool) [clone .constprop.0]+0x334>)
     95a:	f830 2b02 	ldrh.w	r2, [r0], #2
     95e:	4053      	eors	r3, r2
     960:	4284      	cmp	r4, r0
     962:	fb06 f303 	mul.w	r3, r6, r3
     966:	d1f8      	bne.n	95a <runOne(TextureCase const&, CoordCase const&, SampleMode, unsigned long, int, bool) [clone .constprop.0]+0x162>
     968:	4443      	add	r3, r8
     96a:	9a04      	ldr	r2, [sp, #16]
     96c:	405f      	eors	r7, r3
     96e:	f108 0301 	add.w	r3, r8, #1
     972:	429a      	cmp	r2, r3
     974:	f000 8091 	beq.w	a9a <runOne(TextureCase const&, CoordCase const&, SampleMode, unsigned long, int, bool) [clone .constprop.0]+0x2a2>
     978:	4698      	mov	r8, r3
     97a:	4652      	mov	r2, sl
     97c:	462b      	mov	r3, r5
     97e:	4658      	mov	r0, fp
     980:	f7ff fbbe 	bl	100 <renderReference(TextureCase const&, CoordCase const&, SampleMode, unsigned long, unsigned short*) [clone .constprop.0]>
     984:	2d00      	cmp	r5, #0
     986:	d1e6      	bne.n	956 <runOne(TextureCase const&, CoordCase const&, SampleMode, unsigned long, int, bool) [clone .constprop.0]+0x15e>
     988:	4b68      	ldr	r3, [pc, #416]	; (b2c <runOne(TextureCase const&, CoordCase const&, SampleMode, unsigned long, int, bool) [clone .constprop.0]+0x334>)
     98a:	e7ed      	b.n	968 <runOne(TextureCase const&, CoordCase const&, SampleMode, unsigned long, int, bool) [clone .constprop.0]+0x170>
     98c:	7909      	ldrb	r1, [r1, #4]
     98e:	2900      	cmp	r1, #0
     990:	d156      	bne.n	a40 <runOne(TextureCase const&, CoordCase const&, SampleMode, unsigned long, int, bool) [clone .constprop.0]+0x248>
     992:	2b00      	cmp	r3, #0
     994:	f000 8303 	beq.w	f9e <runOne(TextureCase const&, CoordCase const&, SampleMode, unsigned long, int, bool) [clone .constprop.0]+0x7a6>
     998:	6844      	ldr	r4, [r0, #4]
     99a:	4696      	mov	lr, r2
     99c:	6886      	ldr	r6, [r0, #8]
     99e:	ee07 4a90 	vmov	s15, r4
     9a2:	ed9a 5a02 	vldr	s10, [sl, #8]
     9a6:	edda 4a04 	vldr	s9, [sl, #16]
     9aa:	1e67      	subs	r7, r4, #1
     9ac:	eeb8 6ae7 	vcvt.f32.s32	s12, s15
     9b0:	ee07 6a90 	vmov	s15, r6
     9b4:	ed9a 4a03 	vldr	s8, [sl, #12]
     9b8:	f106 3cff 	add.w	ip, r6, #4294967295
     9bc:	eef8 5ae7 	vcvt.f32.s32	s11, s15
     9c0:	edda 3a05 	vldr	s7, [sl, #20]
     9c4:	2a00      	cmp	r2, #0
     9c6:	d147      	bne.n	a58 <runOne(TextureCase const&, CoordCase const&, SampleMode, unsigned long, int, bool) [clone .constprop.0]+0x260>
     9c8:	4611      	mov	r1, r2
     9ca:	e023      	b.n	a14 <runOne(TextureCase const&, CoordCase const&, SampleMode, unsigned long, int, bool) [clone .constprop.0]+0x21c>
     9cc:	eeb5 7ac0 	vcmpe.f32	s14, #0.0
     9d0:	eef1 fa10 	vmrs	APSR_nzcv, fpscr
     9d4:	d434      	bmi.n	a40 <runOne(TextureCase const&, CoordCase const&, SampleMode, unsigned long, int, bool) [clone .constprop.0]+0x248>
     9d6:	eeb4 6ae7 	vcmpe.f32	s12, s15
     9da:	eef1 fa10 	vmrs	APSR_nzcv, fpscr
     9de:	d92f      	bls.n	a40 <runOne(TextureCase const&, CoordCase const&, SampleMode, unsigned long, int, bool) [clone .constprop.0]+0x248>
     9e0:	eef4 5ac7 	vcmpe.f32	s11, s14
     9e4:	eef1 fa10 	vmrs	APSR_nzcv, fpscr
     9e8:	d92a      	bls.n	a40 <runOne(TextureCase const&, CoordCase const&, SampleMode, unsigned long, int, bool) [clone .constprop.0]+0x248>
     9ea:	eefd 7ae7 	vcvt.s32.f32	s15, s15
     9ee:	ee17 3a90 	vmov	r3, s15
     9f2:	eefd 7ac7 	vcvt.s32.f32	s15, s14
     9f6:	42a3      	cmp	r3, r4
     9f8:	ee17 2a90 	vmov	r2, s15
     9fc:	bfb4      	ite	lt
     9fe:	2000      	movlt	r0, #0
     a00:	2001      	movge	r0, #1
     a02:	4313      	orrs	r3, r2
     a04:	ea50 70d3 	orrs.w	r0, r0, r3, lsr #31
     a08:	d11a      	bne.n	a40 <runOne(TextureCase const&, CoordCase const&, SampleMode, unsigned long, int, bool) [clone .constprop.0]+0x248>
     a0a:	42b2      	cmp	r2, r6
     a0c:	da18      	bge.n	a40 <runOne(TextureCase const&, CoordCase const&, SampleMode, unsigned long, int, bool) [clone .constprop.0]+0x248>
     a0e:	428d      	cmp	r5, r1
     a10:	f000 82c5 	beq.w	f9e <runOne(TextureCase const&, CoordCase const&, SampleMode, unsigned long, int, bool) [clone .constprop.0]+0x7a6>
     a14:	ee07 1a90 	vmov	s15, r1
     a18:	eeb0 7a44 	vmov.f32	s14, s8
     a1c:	3101      	adds	r1, #1
     a1e:	eef8 6a67 	vcvt.f32.u32	s13, s15
     a22:	eef0 7a45 	vmov.f32	s15, s10
     a26:	eea6 7aa3 	vfma.f32	s14, s13, s7
     a2a:	eee4 7aa6 	vfma.f32	s15, s9, s13
     a2e:	ee27 7a25 	vmul.f32	s14, s14, s11
     a32:	ee67 7a86 	vmul.f32	s15, s15, s12
     a36:	eef5 7ac0 	vcmpe.f32	s15, #0.0
     a3a:	eef1 fa10 	vmrs	APSR_nzcv, fpscr
     a3e:	d5c5      	bpl.n	9cc <runOne(TextureCase const&, CoordCase const&, SampleMode, unsigned long, int, bool) [clone .constprop.0]+0x1d4>
     a40:	b019      	add	sp, #100	; 0x64
     a42:	ecbd 8b06 	vpop	{d8-d10}
     a46:	e8bd 8ff0 	ldmia.w	sp!, {r4, r5, r6, r7, r8, r9, sl, fp, pc}
     a4a:	4297      	cmp	r7, r2
     a4c:	ddf8      	ble.n	a40 <runOne(TextureCase const&, CoordCase const&, SampleMode, unsigned long, int, bool) [clone .constprop.0]+0x248>
     a4e:	459c      	cmp	ip, r3
     a50:	ddf6      	ble.n	a40 <runOne(TextureCase const&, CoordCase const&, SampleMode, unsigned long, int, bool) [clone .constprop.0]+0x248>
     a52:	428d      	cmp	r5, r1
     a54:	f000 82a3 	beq.w	f9e <runOne(TextureCase const&, CoordCase const&, SampleMode, unsigned long, int, bool) [clone .constprop.0]+0x7a6>
     a58:	ee07 1a90 	vmov	s15, r1
     a5c:	eeb0 7a45 	vmov.f32	s14, s10
     a60:	3101      	adds	r1, #1
     a62:	eef8 6a67 	vcvt.f32.u32	s13, s15
     a66:	eef0 7a44 	vmov.f32	s15, s8
     a6a:	eea4 7aa6 	vfma.f32	s14, s9, s13
     a6e:	eee3 7aa6 	vfma.f32	s15, s7, s13
     a72:	ee26 7a07 	vmul.f32	s14, s12, s14
     a76:	ee65 7aa7 	vmul.f32	s15, s11, s15
     a7a:	febb 7a47 	vrintm.f32	s14, s14
     a7e:	eebd 7ac7 	vcvt.s32.f32	s14, s14
     a82:	fefb 7a67 	vrintm.f32	s15, s15
     a86:	eefd 7ae7 	vcvt.s32.f32	s15, s15
     a8a:	ee17 2a10 	vmov	r2, s14
     a8e:	ee17 3a90 	vmov	r3, s15
     a92:	ea53 0002 	orrs.w	r0, r3, r2
     a96:	d5d8      	bpl.n	a4a <runOne(TextureCase const&, CoordCase const&, SampleMode, unsigned long, int, bool) [clone .constprop.0]+0x252>
     a98:	e7d2      	b.n	a40 <runOne(TextureCase const&, CoordCase const&, SampleMode, unsigned long, int, bool) [clone .constprop.0]+0x248>
     a9a:	468a      	mov	sl, r1
     a9c:	930b      	str	r3, [sp, #44]	; 0x2c
     a9e:	f002 fa8d 	bl	2fbc <micros>
     aa2:	9b09      	ldr	r3, [sp, #36]	; 0x24
     aa4:	990a      	ldr	r1, [sp, #40]	; 0x28
     aa6:	1ac3      	subs	r3, r0, r3
     aa8:	9309      	str	r3, [sp, #36]	; 0x24
     aaa:	4b1d      	ldr	r3, [pc, #116]	; (b20 <runOne(TextureCase const&, CoordCase const&, SampleMode, unsigned long, int, bool) [clone .constprop.0]+0x328>)
     aac:	685a      	ldr	r2, [r3, #4]
     aae:	1a52      	subs	r2, r2, r1
     ab0:	491f      	ldr	r1, [pc, #124]	; (b30 <runOne(TextureCase const&, CoordCase const&, SampleMode, unsigned long, int, bool) [clone .constprop.0]+0x338>)
     ab2:	ee0a 2a90 	vmov	s21, r2
     ab6:	680a      	ldr	r2, [r1, #0]
     ab8:	4057      	eors	r7, r2
     aba:	9a05      	ldr	r2, [sp, #20]
     abc:	600f      	str	r7, [r1, #0]
     abe:	685b      	ldr	r3, [r3, #4]
     ac0:	930a      	str	r3, [sp, #40]	; 0x28
     ac2:	2a00      	cmp	r2, #0
     ac4:	f000 8283 	beq.w	fce <runOne(TextureCase const&, CoordCase const&, SampleMode, unsigned long, int, bool) [clone .constprop.0]+0x7d6>
     ac8:	f002 fa78 	bl	2fbc <micros>
     acc:	2600      	movs	r6, #0
     ace:	9b06      	ldr	r3, [sp, #24]
     ad0:	9a03      	ldr	r2, [sp, #12]
     ad2:	46b1      	mov	r9, r6
     ad4:	9413      	str	r4, [sp, #76]	; 0x4c
     ad6:	189f      	adds	r7, r3, r2
     ad8:	4633      	mov	r3, r6
     ada:	ee1a 2a10 	vmov	r2, s20
     ade:	4e11      	ldr	r6, [pc, #68]	; (b24 <runOne(TextureCase const&, CoordCase const&, SampleMode, unsigned long, int, bool) [clone .constprop.0]+0x32c>)
     ae0:	461c      	mov	r4, r3
     ae2:	9012      	str	r0, [sp, #72]	; 0x48
     ae4:	462b      	mov	r3, r5
     ae6:	4651      	mov	r1, sl
     ae8:	4658      	mov	r0, fp
     aea:	9204      	str	r2, [sp, #16]
     aec:	f7ff fd0e 	bl	50c <renderCandidateInterior(TextureCase const&, CoordCase const&, SampleMode, unsigned long, int, unsigned short*) [clone .constprop.0]>
     af0:	9a04      	ldr	r2, [sp, #16]
     af2:	2d00      	cmp	r5, #0
     af4:	f000 8297 	beq.w	1026 <runOne(TextureCase const&, CoordCase const&, SampleMode, unsigned long, int, bool) [clone .constprop.0]+0x82e>
     af8:	9903      	ldr	r1, [sp, #12]
     afa:	4b0c      	ldr	r3, [pc, #48]	; (b2c <runOne(TextureCase const&, CoordCase const&, SampleMode, unsigned long, int, bool) [clone .constprop.0]+0x334>)
     afc:	f831 0b02 	ldrh.w	r0, [r1], #2
     b00:	4043      	eors	r3, r0
     b02:	42b9      	cmp	r1, r7
     b04:	fb06 f303 	mul.w	r3, r6, r3
     b08:	d1f8      	bne.n	afc <runOne(TextureCase const&, CoordCase const&, SampleMode, unsigned long, int, bool) [clone .constprop.0]+0x304>
     b0a:	444b      	add	r3, r9
     b0c:	45c8      	cmp	r8, r9
     b0e:	ea84 0403 	eor.w	r4, r4, r3
     b12:	f109 0301 	add.w	r3, r9, #1
     b16:	d00d      	beq.n	b34 <runOne(TextureCase const&, CoordCase const&, SampleMode, unsigned long, int, bool) [clone .constprop.0]+0x33c>
     b18:	4699      	mov	r9, r3
     b1a:	e7e3      	b.n	ae4 <runOne(TextureCase const&, CoordCase const&, SampleMode, unsigned long, int, bool) [clone .constprop.0]+0x2ec>
     b1c:	20003308 	.word	0x20003308
     b20:	e0001000 	.word	0xe0001000
     b24:	01000193 	.word	0x01000193
     b28:	20001088 	.word	0x20001088
     b2c:	811c9dc5 	.word	0x811c9dc5
     b30:	20003588 	.word	0x20003588
     b34:	46a0      	mov	r8, r4
     b36:	9c13      	ldr	r4, [sp, #76]	; 0x4c
     b38:	f002 fa40 	bl	2fbc <micros>
     b3c:	9b12      	ldr	r3, [sp, #72]	; 0x48
     b3e:	4ab7      	ldr	r2, [pc, #732]	; (e1c <runOne(TextureCase const&, CoordCase const&, SampleMode, unsigned long, int, bool) [clone .constprop.0]+0x624>)
     b40:	4641      	mov	r1, r8
     b42:	1ac7      	subs	r7, r0, r3
     b44:	4bb6      	ldr	r3, [pc, #728]	; (e20 <runOne(TextureCase const&, CoordCase const&, SampleMode, unsigned long, int, bool) [clone .constprop.0]+0x628>)
     b46:	685e      	ldr	r6, [r3, #4]
     b48:	9b0a      	ldr	r3, [sp, #40]	; 0x28
     b4a:	1af6      	subs	r6, r6, r3
     b4c:	6813      	ldr	r3, [r2, #0]
     b4e:	4059      	eors	r1, r3
     b50:	6011      	str	r1, [r2, #0]
     b52:	2f00      	cmp	r7, #0
     b54:	f000 8238 	beq.w	fc8 <runOne(TextureCase const&, CoordCase const&, SampleMode, unsigned long, int, bool) [clone .constprop.0]+0x7d0>
     b58:	ee07 7a90 	vmov	s15, r7
     b5c:	eddf 6ab1 	vldr	s13, [pc, #708]	; e24 <runOne(TextureCase const&, CoordCase const&, SampleMode, unsigned long, int, bool) [clone .constprop.0]+0x62c>
     b60:	eeb8 7a67 	vcvt.f32.u32	s14, s15
     b64:	eddd 7a09 	vldr	s15, [sp, #36]	; 0x24
     b68:	eef8 7a67 	vcvt.f32.u32	s15, s15
     b6c:	ee77 7ac7 	vsub.f32	s15, s15, s14
     b70:	ee67 7aa6 	vmul.f32	s15, s15, s13
     b74:	ee87 9a87 	vdiv.f32	s18, s15, s14
     b78:	2d00      	cmp	r5, #0
     b7a:	f000 821e 	beq.w	fba <runOne(TextureCase const&, CoordCase const&, SampleMode, unsigned long, int, bool) [clone .constprop.0]+0x7c2>
     b7e:	eddd 7a08 	vldr	s15, [sp, #32]
     b82:	9b06      	ldr	r3, [sp, #24]
     b84:	eeb8 7a67 	vcvt.f32.u32	s14, s15
     b88:	eddf 7aa6 	vldr	s15, [pc, #664]	; e24 <runOne(TextureCase const&, CoordCase const&, SampleMode, unsigned long, int, bool) [clone .constprop.0]+0x62c>
     b8c:	442b      	add	r3, r5
     b8e:	ee27 7a27 	vmul.f32	s14, s14, s15
     b92:	ee07 5a90 	vmov	s15, r5
     b96:	ee08 3a90 	vmov	s17, r3
     b9a:	eef8 7ae7 	vcvt.f32.s32	s15, s15
     b9e:	eef8 8ae8 	vcvt.f32.s32	s17, s17
     ba2:	e9dd 010e 	ldrd	r0, r1, [sp, #56]	; 0x38
     ba6:	eec7 9a27 	vdiv.f32	s19, s14, s15
     baa:	f004 fc23 	bl	53f4 <__aeabi_ul2f>
     bae:	ee07 0a90 	vmov	s15, r0
     bb2:	ee87 8aa8 	vdiv.f32	s16, s15, s17
     bb6:	e9dd 0110 	ldrd	r0, r1, [sp, #64]	; 0x40
     bba:	f004 fc1b 	bl	53f4 <__aeabi_ul2f>
     bbe:	ee07 0a90 	vmov	s15, r0
     bc2:	ee87 0aa8 	vdiv.f32	s0, s15, s17
     bc6:	eeb5 0a40 	vcmp.f32	s0, #0.0
     bca:	eef1 fa10 	vmrs	APSR_nzcv, fpscr
     bce:	f100 824b 	bmi.w	1068 <runOne(TextureCase const&, CoordCase const&, SampleMode, unsigned long, int, bool) [clone .constprop.0]+0x870>
     bd2:	eef1 8ac0 	vsqrt.f32	s17, s0
     bd6:	2105      	movs	r1, #5
     bd8:	4893      	ldr	r0, [pc, #588]	; (e28 <runOne(TextureCase const&, CoordCase const&, SampleMode, unsigned long, int, bool) [clone .constprop.0]+0x630>)
     bda:	f003 fd93 	bl	4704 <usb_serial_write>
     bde:	f8db 8000 	ldr.w	r8, [fp]
     be2:	f1b8 0f00 	cmp.w	r8, #0
     be6:	d006      	beq.n	bf6 <runOne(TextureCase const&, CoordCase const&, SampleMode, unsigned long, int, bool) [clone .constprop.0]+0x3fe>
     be8:	4640      	mov	r0, r8
     bea:	f004 fcc9 	bl	5580 <strlen>
     bee:	4601      	mov	r1, r0
     bf0:	4640      	mov	r0, r8
     bf2:	f003 fd87 	bl	4704 <usb_serial_write>
     bf6:	2101      	movs	r1, #1
     bf8:	488c      	ldr	r0, [pc, #560]	; (e2c <runOne(TextureCase const&, CoordCase const&, SampleMode, unsigned long, int, bool) [clone .constprop.0]+0x634>)
     bfa:	f003 fd83 	bl	4704 <usb_serial_write>
     bfe:	f8da 8000 	ldr.w	r8, [sl]
     c02:	f1b8 0f00 	cmp.w	r8, #0
     c06:	d006      	beq.n	c16 <runOne(TextureCase const&, CoordCase const&, SampleMode, unsigned long, int, bool) [clone .constprop.0]+0x41e>
     c08:	4640      	mov	r0, r8
     c0a:	f004 fcb9 	bl	5580 <strlen>
     c0e:	4601      	mov	r1, r0
     c10:	4640      	mov	r0, r8
     c12:	f003 fd77 	bl	4704 <usb_serial_write>
     c16:	2106      	movs	r1, #6
     c18:	4885      	ldr	r0, [pc, #532]	; (e30 <runOne(TextureCase const&, CoordCase const&, SampleMode, unsigned long, int, bool) [clone .constprop.0]+0x638>)
     c1a:	f003 fd73 	bl	4704 <usb_serial_write>
     c1e:	ee1a 3a10 	vmov	r3, s20
     c22:	4884      	ldr	r0, [pc, #528]	; (e34 <runOne(TextureCase const&, CoordCase const&, SampleMode, unsigned long, int, bool) [clone .constprop.0]+0x63c>)
     c24:	2b00      	cmp	r3, #0
     c26:	4b84      	ldr	r3, [pc, #528]	; (e38 <runOne(TextureCase const&, CoordCase const&, SampleMode, unsigned long, int, bool) [clone .constprop.0]+0x640>)
     c28:	bf0e      	itee	eq
     c2a:	2107      	moveq	r1, #7
     c2c:	4618      	movne	r0, r3
     c2e:	2108      	movne	r1, #8
     c30:	f003 fd68 	bl	4704 <usb_serial_write>
     c34:	2109      	movs	r1, #9
     c36:	4881      	ldr	r0, [pc, #516]	; (e3c <runOne(TextureCase const&, CoordCase const&, SampleMode, unsigned long, int, bool) [clone .constprop.0]+0x644>)
     c38:	f003 fd64 	bl	4704 <usb_serial_write>
     c3c:	9b05      	ldr	r3, [sp, #20]
     c3e:	4880      	ldr	r0, [pc, #512]	; (e40 <runOne(TextureCase const&, CoordCase const&, SampleMode, unsigned long, int, bool) [clone .constprop.0]+0x648>)
     c40:	2b00      	cmp	r3, #0
     c42:	4b80      	ldr	r3, [pc, #512]	; (e44 <runOne(TextureCase const&, CoordCase const&, SampleMode, unsigned long, int, bool) [clone .constprop.0]+0x64c>)
     c44:	bf12      	itee	ne
     c46:	2110      	movne	r1, #16
     c48:	4618      	moveq	r0, r3
     c4a:	210b      	moveq	r1, #11
     c4c:	f003 fd5a 	bl	4704 <usb_serial_write>
     c50:	2106      	movs	r1, #6
     c52:	487d      	ldr	r0, [pc, #500]	; (e48 <runOne(TextureCase const&, CoordCase const&, SampleMode, unsigned long, int, bool) [clone .constprop.0]+0x650>)
     c54:	f003 fd56 	bl	4704 <usb_serial_write>
     c58:	9905      	ldr	r1, [sp, #20]
     c5a:	487c      	ldr	r0, [pc, #496]	; (e4c <runOne(TextureCase const&, CoordCase const&, SampleMode, unsigned long, int, bool) [clone .constprop.0]+0x654>)
     c5c:	f001 fe94 	bl	2988 <Print::print(long)>
     c60:	210d      	movs	r1, #13
     c62:	487b      	ldr	r0, [pc, #492]	; (e50 <runOne(TextureCase const&, CoordCase const&, SampleMode, unsigned long, int, bool) [clone .constprop.0]+0x658>)
     c64:	f003 fd4e 	bl	4704 <usb_serial_write>
     c68:	f89a 1004 	ldrb.w	r1, [sl, #4]
     c6c:	4877      	ldr	r0, [pc, #476]	; (e4c <runOne(TextureCase const&, CoordCase const&, SampleMode, unsigned long, int, bool) [clone .constprop.0]+0x654>)
     c6e:	f001 fe8b 	bl	2988 <Print::print(long)>
     c72:	2106      	movs	r1, #6
     c74:	4877      	ldr	r0, [pc, #476]	; (e54 <runOne(TextureCase const&, CoordCase const&, SampleMode, unsigned long, int, bool) [clone .constprop.0]+0x65c>)
     c76:	f003 fd45 	bl	4704 <usb_serial_write>
     c7a:	f89b 300d 	ldrb.w	r3, [fp, #13]
     c7e:	4876      	ldr	r0, [pc, #472]	; (e58 <runOne(TextureCase const&, CoordCase const&, SampleMode, unsigned long, int, bool) [clone .constprop.0]+0x660>)
     c80:	2b00      	cmp	r3, #0
     c82:	4b76      	ldr	r3, [pc, #472]	; (e5c <runOne(TextureCase const&, CoordCase const&, SampleMode, unsigned long, int, bool) [clone .constprop.0]+0x664>)
     c84:	bf12      	itee	ne
     c86:	2109      	movne	r1, #9
     c88:	4618      	moveq	r0, r3
     c8a:	2105      	moveq	r1, #5
     c8c:	f003 fd3a 	bl	4704 <usb_serial_write>
     c90:	2105      	movs	r1, #5
     c92:	4873      	ldr	r0, [pc, #460]	; (e60 <runOne(TextureCase const&, CoordCase const&, SampleMode, unsigned long, int, bool) [clone .constprop.0]+0x668>)
     c94:	f003 fd36 	bl	4704 <usb_serial_write>
     c98:	f8db 1004 	ldr.w	r1, [fp, #4]
     c9c:	486b      	ldr	r0, [pc, #428]	; (e4c <runOne(TextureCase const&, CoordCase const&, SampleMode, unsigned long, int, bool) [clone .constprop.0]+0x654>)
     c9e:	f001 fe73 	bl	2988 <Print::print(long)>
     ca2:	2101      	movs	r1, #1
     ca4:	486f      	ldr	r0, [pc, #444]	; (e64 <runOne(TextureCase const&, CoordCase const&, SampleMode, unsigned long, int, bool) [clone .constprop.0]+0x66c>)
     ca6:	f003 fd2d 	bl	4704 <usb_serial_write>
     caa:	f8db 1008 	ldr.w	r1, [fp, #8]
     cae:	4867      	ldr	r0, [pc, #412]	; (e4c <runOne(TextureCase const&, CoordCase const&, SampleMode, unsigned long, int, bool) [clone .constprop.0]+0x654>)
     cb0:	f001 fe6a 	bl	2988 <Print::print(long)>
     cb4:	2106      	movs	r1, #6
     cb6:	486c      	ldr	r0, [pc, #432]	; (e68 <runOne(TextureCase const&, CoordCase const&, SampleMode, unsigned long, int, bool) [clone .constprop.0]+0x670>)
     cb8:	f003 fd24 	bl	4704 <usb_serial_write>
     cbc:	2110      	movs	r1, #16
     cbe:	4863      	ldr	r0, [pc, #396]	; (e4c <runOne(TextureCase const&, CoordCase const&, SampleMode, unsigned long, int, bool) [clone .constprop.0]+0x654>)
     cc0:	f001 fe62 	bl	2988 <Print::print(long)>
     cc4:	2105      	movs	r1, #5
     cc6:	4869      	ldr	r0, [pc, #420]	; (e6c <runOne(TextureCase const&, CoordCase const&, SampleMode, unsigned long, int, bool) [clone .constprop.0]+0x674>)
     cc8:	f003 fd1c 	bl	4704 <usb_serial_write>
     ccc:	2300      	movs	r3, #0
     cce:	220a      	movs	r2, #10
     cd0:	4629      	mov	r1, r5
     cd2:	485e      	ldr	r0, [pc, #376]	; (e4c <runOne(TextureCase const&, CoordCase const&, SampleMode, unsigned long, int, bool) [clone .constprop.0]+0x654>)
     cd4:	f001 fecc 	bl	2a70 <Print::printNumber(unsigned long, unsigned char, unsigned char)>
     cd8:	2109      	movs	r1, #9
     cda:	4865      	ldr	r0, [pc, #404]	; (e70 <runOne(TextureCase const&, CoordCase const&, SampleMode, unsigned long, int, bool) [clone .constprop.0]+0x678>)
     cdc:	f003 fd12 	bl	4704 <usb_serial_write>
     ce0:	990d      	ldr	r1, [sp, #52]	; 0x34
     ce2:	485a      	ldr	r0, [pc, #360]	; (e4c <runOne(TextureCase const&, CoordCase const&, SampleMode, unsigned long, int, bool) [clone .constprop.0]+0x654>)
     ce4:	f001 fe50 	bl	2988 <Print::print(long)>
     ce8:	2112      	movs	r1, #18
     cea:	4862      	ldr	r0, [pc, #392]	; (e74 <runOne(TextureCase const&, CoordCase const&, SampleMode, unsigned long, int, bool) [clone .constprop.0]+0x67c>)
     cec:	f003 fd0a 	bl	4704 <usb_serial_write>
     cf0:	2300      	movs	r3, #0
     cf2:	220a      	movs	r2, #10
     cf4:	9908      	ldr	r1, [sp, #32]
     cf6:	4855      	ldr	r0, [pc, #340]	; (e4c <runOne(TextureCase const&, CoordCase const&, SampleMode, unsigned long, int, bool) [clone .constprop.0]+0x654>)
     cf8:	f001 feba 	bl	2a70 <Print::printNumber(unsigned long, unsigned char, unsigned char)>
     cfc:	210e      	movs	r1, #14
     cfe:	485e      	ldr	r0, [pc, #376]	; (e78 <runOne(TextureCase const&, CoordCase const&, SampleMode, unsigned long, int, bool) [clone .constprop.0]+0x680>)
     d00:	f003 fd00 	bl	4704 <usb_serial_write>
     d04:	eeb7 0ae9 	vcvt.f64.f32	d0, s19
     d08:	2103      	movs	r1, #3
     d0a:	4850      	ldr	r0, [pc, #320]	; (e4c <runOne(TextureCase const&, CoordCase const&, SampleMode, unsigned long, int, bool) [clone .constprop.0]+0x654>)
     d0c:	f001 ff04 	bl	2b18 <Print::printFloat(double, unsigned char)>
     d10:	2117      	movs	r1, #23
     d12:	485a      	ldr	r0, [pc, #360]	; (e7c <runOne(TextureCase const&, CoordCase const&, SampleMode, unsigned long, int, bool) [clone .constprop.0]+0x684>)
     d14:	f003 fcf6 	bl	4704 <usb_serial_write>
     d18:	2300      	movs	r3, #0
     d1a:	220a      	movs	r2, #10
     d1c:	9907      	ldr	r1, [sp, #28]
     d1e:	484b      	ldr	r0, [pc, #300]	; (e4c <runOne(TextureCase const&, CoordCase const&, SampleMode, unsigned long, int, bool) [clone .constprop.0]+0x654>)
     d20:	f001 fea6 	bl	2a70 <Print::printNumber(unsigned long, unsigned char, unsigned char)>
     d24:	2118      	movs	r1, #24
     d26:	4856      	ldr	r0, [pc, #344]	; (e80 <runOne(TextureCase const&, CoordCase const&, SampleMode, unsigned long, int, bool) [clone .constprop.0]+0x688>)
     d28:	f003 fcec 	bl	4704 <usb_serial_write>
     d2c:	eeb7 0ac8 	vcvt.f64.f32	d0, s16
     d30:	2105      	movs	r1, #5
     d32:	4846      	ldr	r0, [pc, #280]	; (e4c <runOne(TextureCase const&, CoordCase const&, SampleMode, unsigned long, int, bool) [clone .constprop.0]+0x654>)
     d34:	f001 fef0 	bl	2b18 <Print::printFloat(double, unsigned char)>
     d38:	2106      	movs	r1, #6
     d3a:	4852      	ldr	r0, [pc, #328]	; (e84 <runOne(TextureCase const&, CoordCase const&, SampleMode, unsigned long, int, bool) [clone .constprop.0]+0x68c>)
     d3c:	f003 fce2 	bl	4704 <usb_serial_write>
     d40:	eeb7 0ae8 	vcvt.f64.f32	d0, s17
     d44:	2105      	movs	r1, #5
     d46:	4841      	ldr	r0, [pc, #260]	; (e4c <runOne(TextureCase const&, CoordCase const&, SampleMode, unsigned long, int, bool) [clone .constprop.0]+0x654>)
     d48:	f001 fee6 	bl	2b18 <Print::printFloat(double, unsigned char)>
     d4c:	210c      	movs	r1, #12
     d4e:	484e      	ldr	r0, [pc, #312]	; (e88 <runOne(TextureCase const&, CoordCase const&, SampleMode, unsigned long, int, bool) [clone .constprop.0]+0x690>)
     d50:	f003 fcd8 	bl	4704 <usb_serial_write>
     d54:	2300      	movs	r3, #0
     d56:	9902      	ldr	r1, [sp, #8]
     d58:	220a      	movs	r2, #10
     d5a:	483c      	ldr	r0, [pc, #240]	; (e4c <runOne(TextureCase const&, CoordCase const&, SampleMode, unsigned long, int, bool) [clone .constprop.0]+0x654>)
     d5c:	f001 fe88 	bl	2a70 <Print::printNumber(unsigned long, unsigned char, unsigned char)>
     d60:	210d      	movs	r1, #13
     d62:	484a      	ldr	r0, [pc, #296]	; (e8c <runOne(TextureCase const&, CoordCase const&, SampleMode, unsigned long, int, bool) [clone .constprop.0]+0x694>)
     d64:	f003 fcce 	bl	4704 <usb_serial_write>
     d68:	4b49      	ldr	r3, [pc, #292]	; (e90 <runOne(TextureCase const&, CoordCase const&, SampleMode, unsigned long, int, bool) [clone .constprop.0]+0x698>)
     d6a:	b145      	cbz	r5, d7e <runOne(TextureCase const&, CoordCase const&, SampleMode, unsigned long, int, bool) [clone .constprop.0]+0x586>
     d6c:	4949      	ldr	r1, [pc, #292]	; (e94 <runOne(TextureCase const&, CoordCase const&, SampleMode, unsigned long, int, bool) [clone .constprop.0]+0x69c>)
     d6e:	9a0c      	ldr	r2, [sp, #48]	; 0x30
     d70:	f832 0b02 	ldrh.w	r0, [r2], #2
     d74:	4043      	eors	r3, r0
     d76:	42a2      	cmp	r2, r4
     d78:	fb01 f303 	mul.w	r3, r1, r3
     d7c:	d1f8      	bne.n	d70 <runOne(TextureCase const&, CoordCase const&, SampleMode, unsigned long, int, bool) [clone .constprop.0]+0x578>
     d7e:	4c46      	ldr	r4, [pc, #280]	; (e98 <runOne(TextureCase const&, CoordCase const&, SampleMode, unsigned long, int, bool) [clone .constprop.0]+0x6a0>)
     d80:	f3c3 3203 	ubfx	r2, r3, #12, #4
     d84:	f814 e002 	ldrb.w	lr, [r4, r2]
     d88:	0f1a      	lsrs	r2, r3, #28
     d8a:	5ca0      	ldrb	r0, [r4, r2]
     d8c:	f3c3 2203 	ubfx	r2, r3, #8, #4
     d90:	f814 c002 	ldrb.w	ip, [r4, r2]
     d94:	f3c3 6203 	ubfx	r2, r3, #24, #4
     d98:	5ca1      	ldrb	r1, [r4, r2]
     d9a:	2200      	movs	r2, #0
     d9c:	f36e 0207 	bfi	r2, lr, #0, #8
     da0:	f36c 220f 	bfi	r2, ip, #8, #8
     da4:	f04f 0c00 	mov.w	ip, #0
     da8:	f360 0c07 	bfi	ip, r0, #0, #8
     dac:	a815      	add	r0, sp, #84	; 0x54
     dae:	f361 2c0f 	bfi	ip, r1, #8, #8
     db2:	f3c3 1103 	ubfx	r1, r3, #4, #4
     db6:	5c61      	ldrb	r1, [r4, r1]
     db8:	f361 4217 	bfi	r2, r1, #16, #8
     dbc:	f3c3 5103 	ubfx	r1, r3, #20, #4
     dc0:	5c61      	ldrb	r1, [r4, r1]
     dc2:	f361 4c17 	bfi	ip, r1, #16, #8
     dc6:	f003 010f 	and.w	r1, r3, #15
     dca:	f3c3 4303 	ubfx	r3, r3, #16, #4
     dce:	5c61      	ldrb	r1, [r4, r1]
     dd0:	5ce3      	ldrb	r3, [r4, r3]
     dd2:	f361 621f 	bfi	r2, r1, #24, #8
     dd6:	f363 6c1f 	bfi	ip, r3, #24, #8
     dda:	2300      	movs	r3, #0
     ddc:	9216      	str	r2, [sp, #88]	; 0x58
     dde:	f8cd c054 	str.w	ip, [sp, #84]	; 0x54
     de2:	f88d 305c 	strb.w	r3, [sp, #92]	; 0x5c
     de6:	f004 fbcb 	bl	5580 <strlen>
     dea:	4601      	mov	r1, r0
     dec:	a815      	add	r0, sp, #84	; 0x54
     dee:	f003 fc89 	bl	4704 <usb_serial_write>
     df2:	210e      	movs	r1, #14
     df4:	4829      	ldr	r0, [pc, #164]	; (e9c <runOne(TextureCase const&, CoordCase const&, SampleMode, unsigned long, int, bool) [clone .constprop.0]+0x6a4>)
     df6:	f003 fc85 	bl	4704 <usb_serial_write>
     dfa:	2d00      	cmp	r5, #0
     dfc:	f000 8132 	beq.w	1064 <runOne(TextureCase const&, CoordCase const&, SampleMode, unsigned long, int, bool) [clone .constprop.0]+0x86c>
     e00:	9b06      	ldr	r3, [sp, #24]
     e02:	9d03      	ldr	r5, [sp, #12]
     e04:	4926      	ldr	r1, [pc, #152]	; (ea0 <runOne(TextureCase const&, CoordCase const&, SampleMode, unsigned long, int, bool) [clone .constprop.0]+0x6a8>)
     e06:	441d      	add	r5, r3
     e08:	4822      	ldr	r0, [pc, #136]	; (e94 <runOne(TextureCase const&, CoordCase const&, SampleMode, unsigned long, int, bool) [clone .constprop.0]+0x69c>)
     e0a:	4b21      	ldr	r3, [pc, #132]	; (e90 <runOne(TextureCase const&, CoordCase const&, SampleMode, unsigned long, int, bool) [clone .constprop.0]+0x698>)
     e0c:	f831 2b02 	ldrh.w	r2, [r1], #2
     e10:	4053      	eors	r3, r2
     e12:	428d      	cmp	r5, r1
     e14:	fb00 f303 	mul.w	r3, r0, r3
     e18:	d1f8      	bne.n	e0c <runOne(TextureCase const&, CoordCase const&, SampleMode, unsigned long, int, bool) [clone .constprop.0]+0x614>
     e1a:	e043      	b.n	ea4 <runOne(TextureCase const&, CoordCase const&, SampleMode, unsigned long, int, bool) [clone .constprop.0]+0x6ac>
     e1c:	20003588 	.word	0x20003588
     e20:	e0001000 	.word	0xe0001000
     e24:	42c80000 	.word	0x42c80000
     e28:	20000430 	.word	0x20000430
     e2c:	20000438 	.word	0x20000438
     e30:	2000043c 	.word	0x2000043c
     e34:	20000428 	.word	0x20000428
     e38:	2000041c 	.word	0x2000041c
     e3c:	20000584 	.word	0x20000584
     e40:	20000408 	.word	0x20000408
     e44:	200003fc 	.word	0x200003fc
     e48:	20000564 	.word	0x20000564
     e4c:	20000930 	.word	0x20000930
     e50:	2000056c 	.word	0x2000056c
     e54:	2000057c 	.word	0x2000057c
     e58:	200003f0 	.word	0x200003f0
     e5c:	20000758 	.word	0x20000758
     e60:	200004bc 	.word	0x200004bc
     e64:	200004c4 	.word	0x200004c4
     e68:	200004c8 	.word	0x200004c8
     e6c:	200004d0 	.word	0x200004d0
     e70:	200004d8 	.word	0x200004d8
     e74:	200004e4 	.word	0x200004e4
     e78:	200004f8 	.word	0x200004f8
     e7c:	20000508 	.word	0x20000508
     e80:	20000520 	.word	0x20000520
     e84:	2000053c 	.word	0x2000053c
     e88:	20000544 	.word	0x20000544
     e8c:	20000554 	.word	0x20000554
     e90:	811c9dc5 	.word	0x811c9dc5
     e94:	01000193 	.word	0x01000193
     e98:	20000444 	.word	0x20000444
     e9c:	20000458 	.word	0x20000458
     ea0:	20003308 	.word	0x20003308
     ea4:	f3c3 3203 	ubfx	r2, r3, #12, #4
     ea8:	f3c3 6103 	ubfx	r1, r3, #24, #4
     eac:	f814 c002 	ldrb.w	ip, [r4, r2]
     eb0:	0f1a      	lsrs	r2, r3, #28
     eb2:	5c60      	ldrb	r0, [r4, r1]
     eb4:	2100      	movs	r1, #0
     eb6:	5ca5      	ldrb	r5, [r4, r2]
     eb8:	f3c3 2203 	ubfx	r2, r3, #8, #4
     ebc:	f36c 0107 	bfi	r1, ip, #0, #8
     ec0:	5ca2      	ldrb	r2, [r4, r2]
     ec2:	f362 210f 	bfi	r1, r2, #8, #8
     ec6:	2200      	movs	r2, #0
     ec8:	f365 0207 	bfi	r2, r5, #0, #8
     ecc:	f360 220f 	bfi	r2, r0, #8, #8
     ed0:	f3c3 1003 	ubfx	r0, r3, #4, #4
     ed4:	5c20      	ldrb	r0, [r4, r0]
     ed6:	f360 4117 	bfi	r1, r0, #16, #8
     eda:	f3c3 5003 	ubfx	r0, r3, #20, #4
     ede:	5c20      	ldrb	r0, [r4, r0]
     ee0:	f360 4217 	bfi	r2, r0, #16, #8
     ee4:	f003 000f 	and.w	r0, r3, #15
     ee8:	f3c3 4303 	ubfx	r3, r3, #16, #4
     eec:	5c20      	ldrb	r0, [r4, r0]
     eee:	5ce3      	ldrb	r3, [r4, r3]
     ef0:	2400      	movs	r4, #0
     ef2:	f360 611f 	bfi	r1, r0, #24, #8
     ef6:	a815      	add	r0, sp, #84	; 0x54
     ef8:	f363 621f 	bfi	r2, r3, #24, #8
     efc:	f88d 405c 	strb.w	r4, [sp, #92]	; 0x5c
     f00:	e9cd 2115 	strd	r2, r1, [sp, #84]	; 0x54
     f04:	f004 fb3c 	bl	5580 <strlen>
     f08:	4601      	mov	r1, r0
     f0a:	a815      	add	r0, sp, #84	; 0x54
     f0c:	f003 fbfa 	bl	4704 <usb_serial_write>
     f10:	210d      	movs	r1, #13
     f12:	4858      	ldr	r0, [pc, #352]	; (1074 <runOne(TextureCase const&, CoordCase const&, SampleMode, unsigned long, int, bool) [clone .constprop.0]+0x87c>)
     f14:	f003 fbf6 	bl	4704 <usb_serial_write>
     f18:	4623      	mov	r3, r4
     f1a:	9909      	ldr	r1, [sp, #36]	; 0x24
     f1c:	220a      	movs	r2, #10
     f1e:	4856      	ldr	r0, [pc, #344]	; (1078 <runOne(TextureCase const&, CoordCase const&, SampleMode, unsigned long, int, bool) [clone .constprop.0]+0x880>)
     f20:	f001 fda6 	bl	2a70 <Print::printNumber(unsigned long, unsigned char, unsigned char)>
     f24:	210e      	movs	r1, #14
     f26:	4855      	ldr	r0, [pc, #340]	; (107c <runOne(TextureCase const&, CoordCase const&, SampleMode, unsigned long, int, bool) [clone .constprop.0]+0x884>)
     f28:	f003 fbec 	bl	4704 <usb_serial_write>
     f2c:	4623      	mov	r3, r4
     f2e:	4639      	mov	r1, r7
     f30:	220a      	movs	r2, #10
     f32:	4851      	ldr	r0, [pc, #324]	; (1078 <runOne(TextureCase const&, CoordCase const&, SampleMode, unsigned long, int, bool) [clone .constprop.0]+0x880>)
     f34:	f001 fd9c 	bl	2a70 <Print::printNumber(unsigned long, unsigned char, unsigned char)>
     f38:	210c      	movs	r1, #12
     f3a:	4851      	ldr	r0, [pc, #324]	; (1080 <runOne(TextureCase const&, CoordCase const&, SampleMode, unsigned long, int, bool) [clone .constprop.0]+0x888>)
     f3c:	f003 fbe2 	bl	4704 <usb_serial_write>
     f40:	4623      	mov	r3, r4
     f42:	ee1a 1a90 	vmov	r1, s21
     f46:	220a      	movs	r2, #10
     f48:	484b      	ldr	r0, [pc, #300]	; (1078 <runOne(TextureCase const&, CoordCase const&, SampleMode, unsigned long, int, bool) [clone .constprop.0]+0x880>)
     f4a:	f001 fd91 	bl	2a70 <Print::printNumber(unsigned long, unsigned char, unsigned char)>
     f4e:	210d      	movs	r1, #13
     f50:	484c      	ldr	r0, [pc, #304]	; (1084 <runOne(TextureCase const&, CoordCase const&, SampleMode, unsigned long, int, bool) [clone .constprop.0]+0x88c>)
     f52:	f003 fbd7 	bl	4704 <usb_serial_write>
     f56:	4623      	mov	r3, r4
     f58:	220a      	movs	r2, #10
     f5a:	4631      	mov	r1, r6
     f5c:	4846      	ldr	r0, [pc, #280]	; (1078 <runOne(TextureCase const&, CoordCase const&, SampleMode, unsigned long, int, bool) [clone .constprop.0]+0x880>)
     f5e:	f001 fd87 	bl	2a70 <Print::printNumber(unsigned long, unsigned char, unsigned char)>
     f62:	2109      	movs	r1, #9
     f64:	4848      	ldr	r0, [pc, #288]	; (1088 <runOne(TextureCase const&, CoordCase const&, SampleMode, unsigned long, int, bool) [clone .constprop.0]+0x890>)
     f66:	f003 fbcd 	bl	4704 <usb_serial_write>
     f6a:	4623      	mov	r3, r4
     f6c:	220a      	movs	r2, #10
     f6e:	990b      	ldr	r1, [sp, #44]	; 0x2c
     f70:	4841      	ldr	r0, [pc, #260]	; (1078 <runOne(TextureCase const&, CoordCase const&, SampleMode, unsigned long, int, bool) [clone .constprop.0]+0x880>)
     f72:	f001 fd7d 	bl	2a70 <Print::printNumber(unsigned long, unsigned char, unsigned char)>
     f76:	2107      	movs	r1, #7
     f78:	4844      	ldr	r0, [pc, #272]	; (108c <runOne(TextureCase const&, CoordCase const&, SampleMode, unsigned long, int, bool) [clone .constprop.0]+0x894>)
     f7a:	f003 fbc3 	bl	4704 <usb_serial_write>
     f7e:	eeb7 0ac9 	vcvt.f64.f32	d0, s18
     f82:	2103      	movs	r1, #3
     f84:	483c      	ldr	r0, [pc, #240]	; (1078 <runOne(TextureCase const&, CoordCase const&, SampleMode, unsigned long, int, bool) [clone .constprop.0]+0x880>)
     f86:	f001 fdc7 	bl	2b18 <Print::printFloat(double, unsigned char)>
     f8a:	483b      	ldr	r0, [pc, #236]	; (1078 <runOne(TextureCase const&, CoordCase const&, SampleMode, unsigned long, int, bool) [clone .constprop.0]+0x880>)
     f8c:	f001 fd62 	bl	2a54 <Print::println()>
     f90:	b019      	add	sp, #100	; 0x64
     f92:	ecbd 8b06 	vpop	{d8-d10}
     f96:	e8bd 4ff0 	ldmia.w	sp!, {r4, r5, r6, r7, r8, r9, sl, fp, lr}
     f9a:	f003 bbe7 	b.w	476c <usb_serial_flush_output>
     f9e:	462b      	mov	r3, r5
     fa0:	ee1a 2a10 	vmov	r2, s20
     fa4:	4658      	mov	r0, fp
     fa6:	4651      	mov	r1, sl
     fa8:	f7ff f8aa 	bl	100 <renderReference(TextureCase const&, CoordCase const&, SampleMode, unsigned long, unsigned short*) [clone .constprop.0]>
     fac:	462b      	mov	r3, r5
     fae:	ee1a 2a10 	vmov	r2, s20
     fb2:	4658      	mov	r0, fp
     fb4:	f7ff faaa 	bl	50c <renderCandidateInterior(TextureCase const&, CoordCase const&, SampleMode, unsigned long, int, unsigned short*) [clone .constprop.0]>
     fb8:	e438      	b.n	82c <runOne(TextureCase const&, CoordCase const&, SampleMode, unsigned long, int, bool) [clone .constprop.0]+0x34>
     fba:	ed9f 8a35 	vldr	s16, [pc, #212]	; 1090 <runOne(TextureCase const&, CoordCase const&, SampleMode, unsigned long, int, bool) [clone .constprop.0]+0x898>
     fbe:	eef0 9a48 	vmov.f32	s19, s16
     fc2:	eef0 8a48 	vmov.f32	s17, s16
     fc6:	e606      	b.n	bd6 <runOne(TextureCase const&, CoordCase const&, SampleMode, unsigned long, int, bool) [clone .constprop.0]+0x3de>
     fc8:	ed9f 9a31 	vldr	s18, [pc, #196]	; 1090 <runOne(TextureCase const&, CoordCase const&, SampleMode, unsigned long, int, bool) [clone .constprop.0]+0x898>
     fcc:	e5d4      	b.n	b78 <runOne(TextureCase const&, CoordCase const&, SampleMode, unsigned long, int, bool) [clone .constprop.0]+0x380>
     fce:	f001 fff5 	bl	2fbc <micros>
     fd2:	9a03      	ldr	r2, [sp, #12]
     fd4:	9b06      	ldr	r3, [sp, #24]
     fd6:	9413      	str	r4, [sp, #76]	; 0x4c
     fd8:	189f      	adds	r7, r3, r2
     fda:	9a05      	ldr	r2, [sp, #20]
     fdc:	4e2d      	ldr	r6, [pc, #180]	; (1094 <runOne(TextureCase const&, CoordCase const&, SampleMode, unsigned long, int, bool) [clone .constprop.0]+0x89c>)
     fde:	4691      	mov	r9, r2
     fe0:	4614      	mov	r4, r2
     fe2:	ee1a 2a10 	vmov	r2, s20
     fe6:	9012      	str	r0, [sp, #72]	; 0x48
     fe8:	2310      	movs	r3, #16
     fea:	4651      	mov	r1, sl
     fec:	4658      	mov	r0, fp
     fee:	9204      	str	r2, [sp, #16]
     ff0:	9300      	str	r3, [sp, #0]
     ff2:	462b      	mov	r3, r5
     ff4:	f7ff fafc 	bl	5f0 <renderCandidate(TextureCase const&, CoordCase const&, SampleMode, unsigned long, int, unsigned short*) [clone .constprop.0]>
     ff8:	9a04      	ldr	r2, [sp, #16]
     ffa:	b195      	cbz	r5, 1022 <runOne(TextureCase const&, CoordCase const&, SampleMode, unsigned long, int, bool) [clone .constprop.0]+0x82a>
     ffc:	9903      	ldr	r1, [sp, #12]
     ffe:	4b26      	ldr	r3, [pc, #152]	; (1098 <runOne(TextureCase const&, CoordCase const&, SampleMode, unsigned long, int, bool) [clone .constprop.0]+0x8a0>)
    1000:	f831 0b02 	ldrh.w	r0, [r1], #2
    1004:	4043      	eors	r3, r0
    1006:	428f      	cmp	r7, r1
    1008:	fb06 f303 	mul.w	r3, r6, r3
    100c:	d1f8      	bne.n	1000 <runOne(TextureCase const&, CoordCase const&, SampleMode, unsigned long, int, bool) [clone .constprop.0]+0x808>
    100e:	444b      	add	r3, r9
    1010:	45c8      	cmp	r8, r9
    1012:	ea84 0403 	eor.w	r4, r4, r3
    1016:	f109 0301 	add.w	r3, r9, #1
    101a:	f43f ad8b 	beq.w	b34 <runOne(TextureCase const&, CoordCase const&, SampleMode, unsigned long, int, bool) [clone .constprop.0]+0x33c>
    101e:	4699      	mov	r9, r3
    1020:	e7e2      	b.n	fe8 <runOne(TextureCase const&, CoordCase const&, SampleMode, unsigned long, int, bool) [clone .constprop.0]+0x7f0>
    1022:	4b1d      	ldr	r3, [pc, #116]	; (1098 <runOne(TextureCase const&, CoordCase const&, SampleMode, unsigned long, int, bool) [clone .constprop.0]+0x8a0>)
    1024:	e7f3      	b.n	100e <runOne(TextureCase const&, CoordCase const&, SampleMode, unsigned long, int, bool) [clone .constprop.0]+0x816>
    1026:	4b1c      	ldr	r3, [pc, #112]	; (1098 <runOne(TextureCase const&, CoordCase const&, SampleMode, unsigned long, int, bool) [clone .constprop.0]+0x8a0>)
    1028:	e56f      	b.n	b0a <runOne(TextureCase const&, CoordCase const&, SampleMode, unsigned long, int, bool) [clone .constprop.0]+0x312>
    102a:	f44f 7380 	mov.w	r3, #256	; 0x100
    102e:	9304      	str	r3, [sp, #16]
    1030:	e47a      	b.n	928 <runOne(TextureCase const&, CoordCase const&, SampleMode, unsigned long, int, bool) [clone .constprop.0]+0x130>
    1032:	f44f 7300 	mov.w	r3, #512	; 0x200
    1036:	9304      	str	r3, [sp, #16]
    1038:	e476      	b.n	928 <runOne(TextureCase const&, CoordCase const&, SampleMode, unsigned long, int, bool) [clone .constprop.0]+0x130>
    103a:	2360      	movs	r3, #96	; 0x60
    103c:	9304      	str	r3, [sp, #16]
    103e:	e473      	b.n	928 <runOne(TextureCase const&, CoordCase const&, SampleMode, unsigned long, int, bool) [clone .constprop.0]+0x130>
    1040:	2301      	movs	r3, #1
    1042:	f8df 905c 	ldr.w	r9, [pc, #92]	; 10a0 <runOne(TextureCase const&, CoordCase const&, SampleMode, unsigned long, int, bool) [clone .constprop.0]+0x8a8>
    1046:	9502      	str	r5, [sp, #8]
    1048:	930d      	str	r3, [sp, #52]	; 0x34
    104a:	f44f 7300 	mov.w	r3, #512	; 0x200
    104e:	9506      	str	r5, [sp, #24]
    1050:	9304      	str	r3, [sp, #16]
    1052:	4b12      	ldr	r3, [pc, #72]	; (109c <runOne(TextureCase const&, CoordCase const&, SampleMode, unsigned long, int, bool) [clone .constprop.0]+0x8a4>)
    1054:	e9cd 5507 	strd	r5, r5, [sp, #28]
    1058:	e9cd 5510 	strd	r5, r5, [sp, #64]	; 0x40
    105c:	e9cd 550e 	strd	r5, r5, [sp, #56]	; 0x38
    1060:	9303      	str	r3, [sp, #12]
    1062:	e461      	b.n	928 <runOne(TextureCase const&, CoordCase const&, SampleMode, unsigned long, int, bool) [clone .constprop.0]+0x130>
    1064:	4b0c      	ldr	r3, [pc, #48]	; (1098 <runOne(TextureCase const&, CoordCase const&, SampleMode, unsigned long, int, bool) [clone .constprop.0]+0x8a0>)
    1066:	e71d      	b.n	ea4 <runOne(TextureCase const&, CoordCase const&, SampleMode, unsigned long, int, bool) [clone .constprop.0]+0x6ac>
    1068:	f004 f8d6 	bl	5218 <sqrtf>
    106c:	eef0 8a40 	vmov.f32	s17, s0
    1070:	e5b1      	b.n	bd6 <runOne(TextureCase const&, CoordCase const&, SampleMode, unsigned long, int, bool) [clone .constprop.0]+0x3de>
    1072:	bf00      	nop
    1074:	20000468 	.word	0x20000468
    1078:	20000930 	.word	0x20000930
    107c:	20000478 	.word	0x20000478
    1080:	20000488 	.word	0x20000488
    1084:	20000498 	.word	0x20000498
    1088:	200004a8 	.word	0x200004a8
    108c:	200004b4 	.word	0x200004b4
    1090:	00000000 	.word	0x00000000
    1094:	01000193 	.word	0x01000193
    1098:	811c9dc5 	.word	0x811c9dc5
    109c:	20003308 	.word	0x20003308
    10a0:	20001088 	.word	0x20001088

000010a4 <setup>:
    10a4:	e92d 4ff0 	stmdb	sp!, {r4, r5, r6, r7, r8, r9, sl, fp, lr}
    10a8:	4ca2      	ldr	r4, [pc, #648]	; (1334 <setup+0x290>)
    10aa:	f240 26ee 	movw	r6, #750	; 0x2ee
    10ae:	4da2      	ldr	r5, [pc, #648]	; (1338 <setup+0x294>)
    10b0:	f8df 92c0 	ldr.w	r9, [pc, #704]	; 1374 <setup+0x2d0>
    10b4:	f8df 8284 	ldr.w	r8, [pc, #644]	; 133c <setup+0x298>
    10b8:	6827      	ldr	r7, [r4, #0]
    10ba:	ed2d 8b10 	vpush	{d8-d15}
    10be:	b09b      	sub	sp, #108	; 0x6c
    10c0:	f003 fb9e 	bl	4800 <yield>
    10c4:	782b      	ldrb	r3, [r5, #0]
    10c6:	2b00      	cmp	r3, #0
    10c8:	f000 8101 	beq.w	12ce <setup+0x22a>
    10cc:	f899 3000 	ldrb.w	r3, [r9]
    10d0:	07da      	lsls	r2, r3, #31
    10d2:	f140 80fc 	bpl.w	12ce <setup+0x22a>
    10d6:	6823      	ldr	r3, [r4, #0]
    10d8:	f8d8 2000 	ldr.w	r2, [r8]
    10dc:	1a9b      	subs	r3, r3, r2
    10de:	2b0e      	cmp	r3, #14
    10e0:	f240 80f5 	bls.w	12ce <setup+0x22a>
    10e4:	f8d4 9000 	ldr.w	r9, [r4]
    10e8:	f241 3687 	movw	r6, #4999	; 0x1387
    10ec:	f8df 8284 	ldr.w	r8, [pc, #644]	; 1374 <setup+0x2d0>
    10f0:	4f92      	ldr	r7, [pc, #584]	; (133c <setup+0x298>)
    10f2:	f003 fb85 	bl	4800 <yield>
    10f6:	782b      	ldrb	r3, [r5, #0]
    10f8:	200a      	movs	r0, #10
    10fa:	2b00      	cmp	r3, #0
    10fc:	f000 80f2 	beq.w	12e4 <setup+0x240>
    1100:	f898 3000 	ldrb.w	r3, [r8]
    1104:	07db      	lsls	r3, r3, #31
    1106:	f140 80ed 	bpl.w	12e4 <setup+0x240>
    110a:	6823      	ldr	r3, [r4, #0]
    110c:	683a      	ldr	r2, [r7, #0]
    110e:	1a9b      	subs	r3, r3, r2
    1110:	2b0e      	cmp	r3, #14
    1112:	f240 80e7 	bls.w	12e4 <setup+0x240>
    1116:	6826      	ldr	r6, [r4, #0]
    1118:	f643 2597 	movw	r5, #14999	; 0x3a97
    111c:	6823      	ldr	r3, [r4, #0]
    111e:	1b9b      	subs	r3, r3, r6
    1120:	42ab      	cmp	r3, r5
    1122:	d906      	bls.n	1132 <setup+0x8e>
    1124:	e012      	b.n	114c <setup+0xa8>
    1126:	f001 fef5 	bl	2f14 <delay>
    112a:	6823      	ldr	r3, [r4, #0]
    112c:	1b9b      	subs	r3, r3, r6
    112e:	42ab      	cmp	r3, r5
    1130:	d80c      	bhi.n	114c <setup+0xa8>
    1132:	f003 fa4f 	bl	45d4 <usb_serial_available>
    1136:	4603      	mov	r3, r0
    1138:	200a      	movs	r0, #10
    113a:	2b00      	cmp	r3, #0
    113c:	ddf3      	ble.n	1126 <setup+0x82>
    113e:	e001      	b.n	1144 <setup+0xa0>
    1140:	f003 faba 	bl	46b8 <usb_serial_getchar>
    1144:	f003 fa46 	bl	45d4 <usb_serial_available>
    1148:	2800      	cmp	r0, #0
    114a:	dcf9      	bgt.n	1140 <setup+0x9c>
    114c:	2064      	movs	r0, #100	; 0x64
    114e:	2400      	movs	r4, #0
    1150:	f001 fee0 	bl	2f14 <delay>
    1154:	f04f 20e0 	mov.w	r0, #3758153728	; 0xe000e000
    1158:	4b79      	ldr	r3, [pc, #484]	; (1340 <setup+0x29c>)
    115a:	2115      	movs	r1, #21
    115c:	f8d0 2dfc 	ldr.w	r2, [r0, #3580]	; 0xdfc
    1160:	f8df b214 	ldr.w	fp, [pc, #532]	; 1378 <setup+0x2d4>
    1164:	f042 7280 	orr.w	r2, r2, #16777216	; 0x1000000
    1168:	ed9f 8a76 	vldr	s16, [pc, #472]	; 1344 <setup+0x2a0>
    116c:	f8df a20c 	ldr.w	sl, [pc, #524]	; 137c <setup+0x2d8>
    1170:	46d9      	mov	r9, fp
    1172:	f8c0 2dfc 	str.w	r2, [r0, #3580]	; 0xdfc
    1176:	605c      	str	r4, [r3, #4]
    1178:	681a      	ldr	r2, [r3, #0]
    117a:	4873      	ldr	r0, [pc, #460]	; (1348 <setup+0x2a4>)
    117c:	f042 0201 	orr.w	r2, r2, #1
    1180:	601a      	str	r2, [r3, #0]
    1182:	f003 fabf 	bl	4704 <usb_serial_write>
    1186:	4871      	ldr	r0, [pc, #452]	; (134c <setup+0x2a8>)
    1188:	f001 fc64 	bl	2a54 <Print::println()>
    118c:	210e      	movs	r1, #14
    118e:	4870      	ldr	r0, [pc, #448]	; (1350 <setup+0x2ac>)
    1190:	f003 fab8 	bl	4704 <usb_serial_write>
    1194:	486d      	ldr	r0, [pc, #436]	; (134c <setup+0x2a8>)
    1196:	f001 fc5d 	bl	2a54 <Print::println()>
    119a:	212a      	movs	r1, #42	; 0x2a
    119c:	486d      	ldr	r0, [pc, #436]	; (1354 <setup+0x2b0>)
    119e:	f003 fab1 	bl	4704 <usb_serial_write>
    11a2:	4621      	mov	r1, r4
    11a4:	4869      	ldr	r0, [pc, #420]	; (134c <setup+0x2a8>)
    11a6:	f001 fbef 	bl	2988 <Print::print(long)>
    11aa:	4868      	ldr	r0, [pc, #416]	; (134c <setup+0x2a8>)
    11ac:	f001 fc52 	bl	2a54 <Print::println()>
    11b0:	2113      	movs	r1, #19
    11b2:	4869      	ldr	r0, [pc, #420]	; (1358 <setup+0x2b4>)
    11b4:	f003 faa6 	bl	4704 <usb_serial_write>
    11b8:	211e      	movs	r1, #30
    11ba:	4868      	ldr	r0, [pc, #416]	; (135c <setup+0x2b8>)
    11bc:	f003 faa2 	bl	4704 <usb_serial_write>
    11c0:	4862      	ldr	r0, [pc, #392]	; (134c <setup+0x2a8>)
    11c2:	f001 fc47 	bl	2a54 <Print::println()>
    11c6:	2123      	movs	r1, #35	; 0x23
    11c8:	4865      	ldr	r0, [pc, #404]	; (1360 <setup+0x2bc>)
    11ca:	f003 fa9b 	bl	4704 <usb_serial_write>
    11ce:	485f      	ldr	r0, [pc, #380]	; (134c <setup+0x2a8>)
    11d0:	f001 fc40 	bl	2a54 <Print::println()>
    11d4:	f8d9 0008 	ldr.w	r0, [r9, #8]
    11d8:	f8d9 3004 	ldr.w	r3, [r9, #4]
    11dc:	eb00 2200 	add.w	r2, r0, r0, lsl #8
    11e0:	f899 b00c 	ldrb.w	fp, [r9, #12]
    11e4:	9305      	str	r3, [sp, #20]
    11e6:	eb03 1303 	add.w	r3, r3, r3, lsl #4
    11ea:	2800      	cmp	r0, #0
    11ec:	9007      	str	r0, [sp, #28]
    11ee:	4413      	add	r3, r2
    11f0:	eb0b 420b 	add.w	r2, fp, fp, lsl #16
    11f4:	f103 5391 	add.w	r3, r3, #304087040	; 0x12200000
    11f8:	f503 13a2 	add.w	r3, r3, #1327104	; 0x144000
    11fc:	f503 53b3 	add.w	r3, r3, #5728	; 0x1660
    1200:	f103 0318 	add.w	r3, r3, #24
    1204:	eb03 0102 	add.w	r1, r3, r2
    1208:	4b56      	ldr	r3, [pc, #344]	; (1364 <setup+0x2c0>)
    120a:	6019      	str	r1, [r3, #0]
    120c:	f340 80c8 	ble.w	13a0 <setup+0x2fc>
    1210:	9b05      	ldr	r3, [sp, #20]
    1212:	f04f 0800 	mov.w	r8, #0
    1216:	ee07 9a90 	vmov	s15, r9
    121a:	460a      	mov	r2, r1
    121c:	4403      	add	r3, r0
    121e:	46c6      	mov	lr, r8
    1220:	46c1      	mov	r9, r8
    1222:	3b02      	subs	r3, #2
    1224:	9308      	str	r3, [sp, #32]
    1226:	1e43      	subs	r3, r0, #1
    1228:	9306      	str	r3, [sp, #24]
    122a:	9b05      	ldr	r3, [sp, #20]
    122c:	2b00      	cmp	r3, #0
    122e:	f340 80a7 	ble.w	1380 <setup+0x2dc>
    1232:	4b4d      	ldr	r3, [pc, #308]	; (1368 <setup+0x2c4>)
    1234:	ebce 1c8e 	rsb	ip, lr, lr, lsl #6
    1238:	ebce 144e 	rsb	r4, lr, lr, lsl #5
    123c:	2000      	movs	r0, #0
    123e:	fba3 350e 	umull	r3, r5, r3, lr
    1242:	ea4f 036e 	mov.w	r3, lr, asr #1
    1246:	9303      	str	r3, [sp, #12]
    1248:	08ad      	lsrs	r5, r5, #2
    124a:	4b48      	ldr	r3, [pc, #288]	; (136c <setup+0x2c8>)
    124c:	eb03 0748 	add.w	r7, r3, r8, lsl #1
    1250:	9b05      	ldr	r3, [sp, #20]
    1252:	3b01      	subs	r3, #1
    1254:	9304      	str	r3, [sp, #16]
    1256:	e016      	b.n	1286 <setup+0x1e2>
    1258:	f1bb 0f00 	cmp.w	fp, #0
    125c:	d063      	beq.n	1326 <setup+0x282>
    125e:	4b44      	ldr	r3, [pc, #272]	; (1370 <setup+0x2cc>)
    1260:	fba3 1300 	umull	r1, r3, r3, r0
    1264:	f241 519f 	movw	r1, #5535	; 0x159f
    1268:	eb05 0353 	add.w	r3, r5, r3, lsr #1
    126c:	f013 0f01 	tst.w	r3, #1
    1270:	f64f 0382 	movw	r3, #63618	; 0xf882
    1274:	bf08      	it	eq
    1276:	460b      	moveq	r3, r1
    1278:	3001      	adds	r0, #1
    127a:	f827 3f02 	strh.w	r3, [r7, #2]!
    127e:	9b05      	ldr	r3, [sp, #20]
    1280:	341f      	adds	r4, #31
    1282:	4283      	cmp	r3, r0
    1284:	d07c      	beq.n	1380 <setup+0x2dc>
    1286:	f1bb 0f01 	cmp.w	fp, #1
    128a:	d037      	beq.n	12fc <setup+0x258>
    128c:	f1bb 0f02 	cmp.w	fp, #2
    1290:	d1e2      	bne.n	1258 <setup+0x1b4>
    1292:	ea82 3142 	eor.w	r1, r2, r2, lsl #13
    1296:	f04f 0901 	mov.w	r9, #1
    129a:	ea81 4151 	eor.w	r1, r1, r1, lsr #17
    129e:	ea81 1141 	eor.w	r1, r1, r1, lsl #5
    12a2:	ea81 3341 	eor.w	r3, r1, r1, lsl #13
    12a6:	ea83 4353 	eor.w	r3, r3, r3, lsr #17
    12aa:	ea83 1343 	eor.w	r3, r3, r3, lsl #5
    12ae:	ea83 3243 	eor.w	r2, r3, r3, lsl #13
    12b2:	f003 063f 	and.w	r6, r3, #63	; 0x3f
    12b6:	ea82 4252 	eor.w	r2, r2, r2, lsr #17
    12ba:	f002 031f 	and.w	r3, r2, #31
    12be:	ea82 1242 	eor.w	r2, r2, r2, lsl #5
    12c2:	ea43 1346 	orr.w	r3, r3, r6, lsl #5
    12c6:	ea43 23c1 	orr.w	r3, r3, r1, lsl #11
    12ca:	b29b      	uxth	r3, r3
    12cc:	e7d4      	b.n	1278 <setup+0x1d4>
    12ce:	6823      	ldr	r3, [r4, #0]
    12d0:	782a      	ldrb	r2, [r5, #0]
    12d2:	1bdb      	subs	r3, r3, r7
    12d4:	b17a      	cbz	r2, 12f6 <setup+0x252>
    12d6:	f5b3 6ffa 	cmp.w	r3, #2000	; 0x7d0
    12da:	f63f af03 	bhi.w	10e4 <setup+0x40>
    12de:	f003 fa8f 	bl	4800 <yield>
    12e2:	e6ed      	b.n	10c0 <setup+0x1c>
    12e4:	6823      	ldr	r3, [r4, #0]
    12e6:	eba3 0309 	sub.w	r3, r3, r9
    12ea:	42b3      	cmp	r3, r6
    12ec:	f63f af13 	bhi.w	1116 <setup+0x72>
    12f0:	f001 fe10 	bl	2f14 <delay>
    12f4:	e6fd      	b.n	10f2 <setup+0x4e>
    12f6:	42b3      	cmp	r3, r6
    12f8:	d9f1      	bls.n	12de <setup+0x23a>
    12fa:	e6f3      	b.n	10e4 <setup+0x40>
    12fc:	9b06      	ldr	r3, [sp, #24]
    12fe:	9e04      	ldr	r6, [sp, #16]
    1300:	fb9c f1f3 	sdiv	r1, ip, r3
    1304:	9b08      	ldr	r3, [sp, #32]
    1306:	f001 013f 	and.w	r1, r1, #63	; 0x3f
    130a:	fbb4 f3f3 	udiv	r3, r4, r3
    130e:	f003 031f 	and.w	r3, r3, #31
    1312:	ea43 1341 	orr.w	r3, r3, r1, lsl #5
    1316:	ebc0 1140 	rsb	r1, r0, r0, lsl #5
    131a:	fbb1 f1f6 	udiv	r1, r1, r6
    131e:	ea43 23c1 	orr.w	r3, r3, r1, lsl #11
    1322:	b29b      	uxth	r3, r3
    1324:	e7a8      	b.n	1278 <setup+0x1d4>
    1326:	9b03      	ldr	r3, [sp, #12]
    1328:	ea83 0360 	eor.w	r3, r3, r0, asr #1
    132c:	f343 0300 	sbfx	r3, r3, #0, #1
    1330:	b29b      	uxth	r3, r3
    1332:	e7a1      	b.n	1278 <setup+0x1d4>
    1334:	2000377c 	.word	0x2000377c
    1338:	200037aa 	.word	0x200037aa
    133c:	2000378c 	.word	0x2000378c
    1340:	e0001000 	.word	0xe0001000
    1344:	00000000 	.word	0x00000000
    1348:	200005f0 	.word	0x200005f0
    134c:	20000930 	.word	0x20000930
    1350:	20000608 	.word	0x20000608
    1354:	20000618 	.word	0x20000618
    1358:	20000644 	.word	0x20000644
    135c:	20000658 	.word	0x20000658
    1360:	20000678 	.word	0x20000678
    1364:	20000940 	.word	0x20000940
    1368:	cccccccd 	.word	0xcccccccd
    136c:	20001306 	.word	0x20001306
    1370:	aaaaaaab 	.word	0xaaaaaaab
    1374:	200037a9 	.word	0x200037a9
    1378:	200003a0 	.word	0x200003a0
    137c:	20000444 	.word	0x20000444
    1380:	9b05      	ldr	r3, [sp, #20]
    1382:	f10e 0e01 	add.w	lr, lr, #1
    1386:	4498      	add	r8, r3
    1388:	9b07      	ldr	r3, [sp, #28]
    138a:	4573      	cmp	r3, lr
    138c:	f47f af4d 	bne.w	122a <setup+0x186>
    1390:	46cc      	mov	ip, r9
    1392:	ee17 9a90 	vmov	r9, s15
    1396:	f1bc 0f00 	cmp.w	ip, #0
    139a:	d001      	beq.n	13a0 <setup+0x2fc>
    139c:	4bc6      	ldr	r3, [pc, #792]	; (16b8 <setup+0x614>)
    139e:	601a      	str	r2, [r3, #0]
    13a0:	f8df b354 	ldr.w	fp, [pc, #852]	; 16f8 <setup+0x654>
    13a4:	ee0d 9a90 	vmov	s27, r9
    13a8:	eddf 8ac4 	vldr	s17, [pc, #784]	; 16bc <setup+0x618>
    13ac:	46d9      	mov	r9, fp
    13ae:	4bc4      	ldr	r3, [pc, #784]	; (16c0 <setup+0x61c>)
    13b0:	ee0b 9a90 	vmov	s23, r9
    13b4:	ee1d 9a90 	vmov	r9, s27
    13b8:	9311      	str	r3, [sp, #68]	; 0x44
    13ba:	9b11      	ldr	r3, [sp, #68]	; 0x44
    13bc:	f853 5b04 	ldr.w	r5, [r3], #4
    13c0:	9311      	str	r3, [sp, #68]	; 0x44
    13c2:	eb05 0345 	add.w	r3, r5, r5, lsl #1
    13c6:	ee09 3a90 	vmov	s19, r3
    13ca:	4bbe      	ldr	r3, [pc, #760]	; (16c4 <setup+0x620>)
    13cc:	eb03 0345 	add.w	r3, r3, r5, lsl #1
    13d0:	9304      	str	r3, [sp, #16]
    13d2:	4bbd      	ldr	r3, [pc, #756]	; (16c8 <setup+0x624>)
    13d4:	eb03 0345 	add.w	r3, r3, r5, lsl #1
    13d8:	9306      	str	r3, [sp, #24]
    13da:	2300      	movs	r3, #0
    13dc:	930c      	str	r3, [sp, #48]	; 0x30
    13de:	f89d 6030 	ldrb.w	r6, [sp, #48]	; 0x30
    13e2:	462b      	mov	r3, r5
    13e4:	4648      	mov	r0, r9
    13e6:	ee1b 1a90 	vmov	r1, s23
    13ea:	4632      	mov	r2, r6
    13ec:	f7fe fe88 	bl	100 <renderReference(TextureCase const&, CoordCase const&, SampleMode, unsigned long, unsigned short*) [clone .constprop.0]>
    13f0:	2308      	movs	r3, #8
    13f2:	4632      	mov	r2, r6
    13f4:	4648      	mov	r0, r9
    13f6:	9300      	str	r3, [sp, #0]
    13f8:	462b      	mov	r3, r5
    13fa:	f7ff f8f9 	bl	5f0 <renderCandidate(TextureCase const&, CoordCase const&, SampleMode, unsigned long, int, unsigned short*) [clone .constprop.0]>
    13fe:	2d00      	cmp	r5, #0
    1400:	f001 8247 	beq.w	2892 <setup+0x17ee>
    1404:	2700      	movs	r7, #0
    1406:	f8df e2c0 	ldr.w	lr, [pc, #704]	; 16c8 <setup+0x624>
    140a:	f8df c2b8 	ldr.w	ip, [pc, #696]	; 16c4 <setup+0x620>
    140e:	46b8      	mov	r8, r7
    1410:	46bb      	mov	fp, r7
    1412:	970b      	str	r7, [sp, #44]	; 0x2c
    1414:	970d      	str	r7, [sp, #52]	; 0x34
    1416:	9703      	str	r7, [sp, #12]
    1418:	9708      	str	r7, [sp, #32]
    141a:	f83e 2b02 	ldrh.w	r2, [lr], #2
    141e:	f83c 4b02 	ldrh.w	r4, [ip], #2
    1422:	0ad0      	lsrs	r0, r2, #11
    1424:	42a2      	cmp	r2, r4
    1426:	f004 031f 	and.w	r3, r4, #31
    142a:	ebc0 20d4 	rsb	r0, r0, r4, lsr #11
    142e:	f3c4 1145 	ubfx	r1, r4, #5, #6
    1432:	f002 041f 	and.w	r4, r2, #31
    1436:	f3c2 1245 	ubfx	r2, r2, #5, #6
    143a:	bf18      	it	ne
    143c:	f10b 0b01 	addne.w	fp, fp, #1
    1440:	2800      	cmp	r0, #0
    1442:	eba3 0304 	sub.w	r3, r3, r4
    1446:	eba1 0102 	sub.w	r1, r1, r2
    144a:	fb00 f200 	mul.w	r2, r0, r0
    144e:	bfb8      	it	lt
    1450:	4240      	neglt	r0, r0
    1452:	2b00      	cmp	r3, #0
    1454:	fb01 2201 	mla	r2, r1, r1, r2
    1458:	fb03 2203 	mla	r2, r3, r3, r2
    145c:	bfb8      	it	lt
    145e:	425b      	neglt	r3, r3
    1460:	2900      	cmp	r1, #0
    1462:	bfb8      	it	lt
    1464:	4249      	neglt	r1, r1
    1466:	4283      	cmp	r3, r0
    1468:	eb01 0400 	add.w	r4, r1, r0
    146c:	441c      	add	r4, r3
    146e:	bfb8      	it	lt
    1470:	4603      	movlt	r3, r0
    1472:	428b      	cmp	r3, r1
    1474:	bfb8      	it	lt
    1476:	460b      	movlt	r3, r1
    1478:	2b01      	cmp	r3, #1
    147a:	dd02      	ble.n	1482 <setup+0x3de>
    147c:	9908      	ldr	r1, [sp, #32]
    147e:	3101      	adds	r1, #1
    1480:	9108      	str	r1, [sp, #32]
    1482:	9903      	ldr	r1, [sp, #12]
    1484:	4299      	cmp	r1, r3
    1486:	bf38      	it	cc
    1488:	4619      	movcc	r1, r3
    148a:	eb14 0808 	adds.w	r8, r4, r8
    148e:	9b0d      	ldr	r3, [sp, #52]	; 0x34
    1490:	9103      	str	r1, [sp, #12]
    1492:	eb43 73e4 	adc.w	r3, r3, r4, asr #31
    1496:	19d7      	adds	r7, r2, r7
    1498:	930d      	str	r3, [sp, #52]	; 0x34
    149a:	9b0b      	ldr	r3, [sp, #44]	; 0x2c
    149c:	eb43 73e2 	adc.w	r3, r3, r2, asr #31
    14a0:	930b      	str	r3, [sp, #44]	; 0x2c
    14a2:	9b04      	ldr	r3, [sp, #16]
    14a4:	4563      	cmp	r3, ip
    14a6:	d1b8      	bne.n	141a <setup+0x376>
    14a8:	fabb f48b 	clz	r4, fp
    14ac:	2d05      	cmp	r5, #5
    14ae:	f8cd 8040 	str.w	r8, [sp, #64]	; 0x40
    14b2:	ea4f 1454 	mov.w	r4, r4, lsr #5
    14b6:	f241 81f4 	bls.w	28a2 <setup+0x17fe>
    14ba:	2d10      	cmp	r5, #16
    14bc:	f241 822a 	bls.w	2914 <setup+0x1870>
    14c0:	2d40      	cmp	r5, #64	; 0x40
    14c2:	f241 822e 	bls.w	2922 <setup+0x187e>
    14c6:	2d80      	cmp	r5, #128	; 0x80
    14c8:	bf94      	ite	ls
    14ca:	f04f 0830 	movls.w	r8, #48	; 0x30
    14ce:	f04f 0814 	movhi.w	r8, #20
    14d2:	4b7e      	ldr	r3, [pc, #504]	; (16cc <setup+0x628>)
    14d4:	685b      	ldr	r3, [r3, #4]
    14d6:	9312      	str	r3, [sp, #72]	; 0x48
    14d8:	2300      	movs	r3, #0
    14da:	9309      	str	r3, [sp, #36]	; 0x24
    14dc:	f001 fd6e 	bl	2fbc <micros>
    14e0:	9b09      	ldr	r3, [sp, #36]	; 0x24
    14e2:	ee1b 1a90 	vmov	r1, s23
    14e6:	900a      	str	r0, [sp, #40]	; 0x28
    14e8:	930e      	str	r3, [sp, #56]	; 0x38
    14ea:	4623      	mov	r3, r4
    14ec:	462c      	mov	r4, r5
    14ee:	461d      	mov	r5, r3
    14f0:	4623      	mov	r3, r4
    14f2:	4632      	mov	r2, r6
    14f4:	4648      	mov	r0, r9
    14f6:	f7fe fe03 	bl	100 <renderReference(TextureCase const&, CoordCase const&, SampleMode, unsigned long, unsigned short*) [clone .constprop.0]>
    14fa:	2c00      	cmp	r4, #0
    14fc:	f001 8155 	beq.w	27aa <setup+0x1706>
    1500:	4a70      	ldr	r2, [pc, #448]	; (16c4 <setup+0x620>)
    1502:	f8df c1d4 	ldr.w	ip, [pc, #468]	; 16d8 <setup+0x634>
    1506:	f832 3b02 	ldrh.w	r3, [r2], #2
    150a:	ea83 0c0c 	eor.w	ip, r3, ip
    150e:	4b70      	ldr	r3, [pc, #448]	; (16d0 <setup+0x62c>)
    1510:	fb03 fc0c 	mul.w	ip, r3, ip
    1514:	9b04      	ldr	r3, [sp, #16]
    1516:	429a      	cmp	r2, r3
    1518:	d1f5      	bne.n	1506 <setup+0x462>
    151a:	9a0e      	ldr	r2, [sp, #56]	; 0x38
    151c:	9b09      	ldr	r3, [sp, #36]	; 0x24
    151e:	4494      	add	ip, r2
    1520:	ea83 030c 	eor.w	r3, r3, ip
    1524:	f102 0c01 	add.w	ip, r2, #1
    1528:	45e0      	cmp	r8, ip
    152a:	9309      	str	r3, [sp, #36]	; 0x24
    152c:	f041 8165 	bne.w	27fa <setup+0x1756>
    1530:	462a      	mov	r2, r5
    1532:	f8cd c04c 	str.w	ip, [sp, #76]	; 0x4c
    1536:	4625      	mov	r5, r4
    1538:	4614      	mov	r4, r2
    153a:	f001 fd3f 	bl	2fbc <micros>
    153e:	9a0a      	ldr	r2, [sp, #40]	; 0x28
    1540:	9912      	ldr	r1, [sp, #72]	; 0x48
    1542:	1a82      	subs	r2, r0, r2
    1544:	2000      	movs	r0, #0
    1546:	920f      	str	r2, [sp, #60]	; 0x3c
    1548:	4a60      	ldr	r2, [pc, #384]	; (16cc <setup+0x628>)
    154a:	900a      	str	r0, [sp, #40]	; 0x28
    154c:	6853      	ldr	r3, [r2, #4]
    154e:	4861      	ldr	r0, [pc, #388]	; (16d4 <setup+0x630>)
    1550:	1a5b      	subs	r3, r3, r1
    1552:	9909      	ldr	r1, [sp, #36]	; 0x24
    1554:	ee0e 3a10 	vmov	s28, r3
    1558:	6803      	ldr	r3, [r0, #0]
    155a:	4059      	eors	r1, r3
    155c:	6001      	str	r1, [r0, #0]
    155e:	6853      	ldr	r3, [r2, #4]
    1560:	9309      	str	r3, [sp, #36]	; 0x24
    1562:	f001 fd2b 	bl	2fbc <micros>
    1566:	f8dd 8028 	ldr.w	r8, [sp, #40]	; 0x28
    156a:	9012      	str	r0, [sp, #72]	; 0x48
    156c:	2308      	movs	r3, #8
    156e:	4632      	mov	r2, r6
    1570:	ee1b 1a90 	vmov	r1, s23
    1574:	4648      	mov	r0, r9
    1576:	9300      	str	r3, [sp, #0]
    1578:	462b      	mov	r3, r5
    157a:	f7ff f839 	bl	5f0 <renderCandidate(TextureCase const&, CoordCase const&, SampleMode, unsigned long, int, unsigned short*) [clone .constprop.0]>
    157e:	2d00      	cmp	r5, #0
    1580:	f001 8110 	beq.w	27a4 <setup+0x1700>
    1584:	f8df c140 	ldr.w	ip, [pc, #320]	; 16c8 <setup+0x624>
    1588:	4953      	ldr	r1, [pc, #332]	; (16d8 <setup+0x634>)
    158a:	f83c 3b02 	ldrh.w	r3, [ip], #2
    158e:	4059      	eors	r1, r3
    1590:	4b4f      	ldr	r3, [pc, #316]	; (16d0 <setup+0x62c>)
    1592:	fb03 f101 	mul.w	r1, r3, r1
    1596:	9b06      	ldr	r3, [sp, #24]
    1598:	4563      	cmp	r3, ip
    159a:	d1f6      	bne.n	158a <setup+0x4e6>
    159c:	4441      	add	r1, r8
    159e:	9b0a      	ldr	r3, [sp, #40]	; 0x28
    15a0:	404b      	eors	r3, r1
    15a2:	990e      	ldr	r1, [sp, #56]	; 0x38
    15a4:	4541      	cmp	r1, r8
    15a6:	930a      	str	r3, [sp, #40]	; 0x28
    15a8:	f108 0301 	add.w	r3, r8, #1
    15ac:	f041 8122 	bne.w	27f4 <setup+0x1750>
    15b0:	f001 fd04 	bl	2fbc <micros>
    15b4:	4b45      	ldr	r3, [pc, #276]	; (16cc <setup+0x628>)
    15b6:	9909      	ldr	r1, [sp, #36]	; 0x24
    15b8:	685b      	ldr	r3, [r3, #4]
    15ba:	9a0a      	ldr	r2, [sp, #40]	; 0x28
    15bc:	1a59      	subs	r1, r3, r1
    15be:	ee0e 1a90 	vmov	s29, r1
    15c2:	4944      	ldr	r1, [pc, #272]	; (16d4 <setup+0x630>)
    15c4:	680b      	ldr	r3, [r1, #0]
    15c6:	405a      	eors	r2, r3
    15c8:	9b12      	ldr	r3, [sp, #72]	; 0x48
    15ca:	1ac3      	subs	r3, r0, r3
    15cc:	600a      	str	r2, [r1, #0]
    15ce:	9309      	str	r3, [sp, #36]	; 0x24
    15d0:	f001 8198 	beq.w	2904 <setup+0x1860>
    15d4:	eddd 7a0f 	vldr	s15, [sp, #60]	; 0x3c
    15d8:	ee07 3a10 	vmov	s14, r3
    15dc:	eef8 7a67 	vcvt.f32.u32	s15, s15
    15e0:	eeb8 7a47 	vcvt.f32.u32	s14, s14
    15e4:	ee77 7ac7 	vsub.f32	s15, s15, s14
    15e8:	ee67 7aa8 	vmul.f32	s15, s15, s17
    15ec:	ee87 aa87 	vdiv.f32	s20, s15, s14
    15f0:	2d00      	cmp	r5, #0
    15f2:	f001 817f 	beq.w	28f4 <setup+0x1850>
    15f6:	ee07 ba90 	vmov	s15, fp
    15fa:	990d      	ldr	r1, [sp, #52]	; 0x34
    15fc:	9810      	ldr	r0, [sp, #64]	; 0x40
    15fe:	eeb8 7a67 	vcvt.f32.u32	s14, s15
    1602:	ee07 5a90 	vmov	s15, r5
    1606:	eeb8 9ae9 	vcvt.f32.s32	s18, s19
    160a:	eef8 7ae7 	vcvt.f32.s32	s15, s15
    160e:	ee27 7a28 	vmul.f32	s14, s14, s17
    1612:	ee87 ba27 	vdiv.f32	s22, s14, s15
    1616:	f003 feed 	bl	53f4 <__aeabi_ul2f>
    161a:	ee07 0a90 	vmov	s15, r0
    161e:	990b      	ldr	r1, [sp, #44]	; 0x2c
    1620:	4638      	mov	r0, r7
    1622:	eec7 aa89 	vdiv.f32	s21, s15, s18
    1626:	f003 fee5 	bl	53f4 <__aeabi_ul2f>
    162a:	ee07 0a90 	vmov	s15, r0
    162e:	ee87 0a89 	vdiv.f32	s0, s15, s18
    1632:	eeb5 0a40 	vcmp.f32	s0, #0.0
    1636:	eef1 fa10 	vmrs	APSR_nzcv, fpscr
    163a:	f101 817d 	bmi.w	2938 <setup+0x1894>
    163e:	eeb1 9ac0 	vsqrt.f32	s18, s0
    1642:	2105      	movs	r1, #5
    1644:	4825      	ldr	r0, [pc, #148]	; (16dc <setup+0x638>)
    1646:	f003 f85d 	bl	4704 <usb_serial_write>
    164a:	f8d9 7000 	ldr.w	r7, [r9]
    164e:	b137      	cbz	r7, 165e <setup+0x5ba>
    1650:	4638      	mov	r0, r7
    1652:	f003 ff95 	bl	5580 <strlen>
    1656:	4601      	mov	r1, r0
    1658:	4638      	mov	r0, r7
    165a:	f003 f853 	bl	4704 <usb_serial_write>
    165e:	2101      	movs	r1, #1
    1660:	481f      	ldr	r0, [pc, #124]	; (16e0 <setup+0x63c>)
    1662:	f003 f84f 	bl	4704 <usb_serial_write>
    1666:	ee1b 3a90 	vmov	r3, s23
    166a:	f8d3 8000 	ldr.w	r8, [r3]
    166e:	f1b8 0f00 	cmp.w	r8, #0
    1672:	d006      	beq.n	1682 <setup+0x5de>
    1674:	4640      	mov	r0, r8
    1676:	f003 ff83 	bl	5580 <strlen>
    167a:	4601      	mov	r1, r0
    167c:	4640      	mov	r0, r8
    167e:	f003 f841 	bl	4704 <usb_serial_write>
    1682:	2106      	movs	r1, #6
    1684:	4817      	ldr	r0, [pc, #92]	; (16e4 <setup+0x640>)
    1686:	f003 f83d 	bl	4704 <usb_serial_write>
    168a:	9b0c      	ldr	r3, [sp, #48]	; 0x30
    168c:	4a16      	ldr	r2, [pc, #88]	; (16e8 <setup+0x644>)
    168e:	2b00      	cmp	r3, #0
    1690:	4b16      	ldr	r3, [pc, #88]	; (16ec <setup+0x648>)
    1692:	bf06      	itte	eq
    1694:	4613      	moveq	r3, r2
    1696:	2107      	moveq	r1, #7
    1698:	2108      	movne	r1, #8
    169a:	4618      	mov	r0, r3
    169c:	ee0c 3a90 	vmov	s25, r3
    16a0:	f003 f830 	bl	4704 <usb_serial_write>
    16a4:	2109      	movs	r1, #9
    16a6:	4812      	ldr	r0, [pc, #72]	; (16f0 <setup+0x64c>)
    16a8:	f003 f82c 	bl	4704 <usb_serial_write>
    16ac:	210b      	movs	r1, #11
    16ae:	4811      	ldr	r0, [pc, #68]	; (16f4 <setup+0x650>)
    16b0:	f003 f828 	bl	4704 <usb_serial_write>
    16b4:	2106      	movs	r1, #6
    16b6:	e021      	b.n	16fc <setup+0x658>
    16b8:	20000940 	.word	0x20000940
    16bc:	42c80000 	.word	0x42c80000
    16c0:	20000590 	.word	0x20000590
    16c4:	20001088 	.word	0x20001088
    16c8:	20003308 	.word	0x20003308
    16cc:	e0001000 	.word	0xe0001000
    16d0:	01000193 	.word	0x01000193
    16d4:	20003588 	.word	0x20003588
    16d8:	811c9dc5 	.word	0x811c9dc5
    16dc:	20000430 	.word	0x20000430
    16e0:	20000438 	.word	0x20000438
    16e4:	2000043c 	.word	0x2000043c
    16e8:	20000428 	.word	0x20000428
    16ec:	2000041c 	.word	0x2000041c
    16f0:	20000584 	.word	0x20000584
    16f4:	200003fc 	.word	0x200003fc
    16f8:	20000280 	.word	0x20000280
    16fc:	48cf      	ldr	r0, [pc, #828]	; (1a3c <setup+0x998>)
    16fe:	f003 f801 	bl	4704 <usb_serial_write>
    1702:	2100      	movs	r1, #0
    1704:	48ce      	ldr	r0, [pc, #824]	; (1a40 <setup+0x99c>)
    1706:	f001 f93f 	bl	2988 <Print::print(long)>
    170a:	210d      	movs	r1, #13
    170c:	48cd      	ldr	r0, [pc, #820]	; (1a44 <setup+0x9a0>)
    170e:	f002 fff9 	bl	4704 <usb_serial_write>
    1712:	ee1b 3a90 	vmov	r3, s23
    1716:	48ca      	ldr	r0, [pc, #808]	; (1a40 <setup+0x99c>)
    1718:	791b      	ldrb	r3, [r3, #4]
    171a:	4619      	mov	r1, r3
    171c:	ee0c 3a10 	vmov	s24, r3
    1720:	f001 f932 	bl	2988 <Print::print(long)>
    1724:	2106      	movs	r1, #6
    1726:	48c8      	ldr	r0, [pc, #800]	; (1a48 <setup+0x9a4>)
    1728:	f002 ffec 	bl	4704 <usb_serial_write>
    172c:	f899 300d 	ldrb.w	r3, [r9, #13]
    1730:	4ac6      	ldr	r2, [pc, #792]	; (1a4c <setup+0x9a8>)
    1732:	2b00      	cmp	r3, #0
    1734:	4bc6      	ldr	r3, [pc, #792]	; (1a50 <setup+0x9ac>)
    1736:	bf1a      	itte	ne
    1738:	4613      	movne	r3, r2
    173a:	2109      	movne	r1, #9
    173c:	2105      	moveq	r1, #5
    173e:	4618      	mov	r0, r3
    1740:	ee0d 3a10 	vmov	s26, r3
    1744:	f002 ffde 	bl	4704 <usb_serial_write>
    1748:	2105      	movs	r1, #5
    174a:	48c2      	ldr	r0, [pc, #776]	; (1a54 <setup+0x9b0>)
    174c:	f002 ffda 	bl	4704 <usb_serial_write>
    1750:	9905      	ldr	r1, [sp, #20]
    1752:	48bb      	ldr	r0, [pc, #748]	; (1a40 <setup+0x99c>)
    1754:	f001 f918 	bl	2988 <Print::print(long)>
    1758:	2101      	movs	r1, #1
    175a:	48bf      	ldr	r0, [pc, #764]	; (1a58 <setup+0x9b4>)
    175c:	f002 ffd2 	bl	4704 <usb_serial_write>
    1760:	9907      	ldr	r1, [sp, #28]
    1762:	48b7      	ldr	r0, [pc, #732]	; (1a40 <setup+0x99c>)
    1764:	f001 f910 	bl	2988 <Print::print(long)>
    1768:	2106      	movs	r1, #6
    176a:	48bc      	ldr	r0, [pc, #752]	; (1a5c <setup+0x9b8>)
    176c:	f002 ffca 	bl	4704 <usb_serial_write>
    1770:	2108      	movs	r1, #8
    1772:	48b3      	ldr	r0, [pc, #716]	; (1a40 <setup+0x99c>)
    1774:	f001 f908 	bl	2988 <Print::print(long)>
    1778:	2105      	movs	r1, #5
    177a:	48b9      	ldr	r0, [pc, #740]	; (1a60 <setup+0x9bc>)
    177c:	f002 ffc2 	bl	4704 <usb_serial_write>
    1780:	2300      	movs	r3, #0
    1782:	220a      	movs	r2, #10
    1784:	4629      	mov	r1, r5
    1786:	48ae      	ldr	r0, [pc, #696]	; (1a40 <setup+0x99c>)
    1788:	f001 f972 	bl	2a70 <Print::printNumber(unsigned long, unsigned char, unsigned char)>
    178c:	2109      	movs	r1, #9
    178e:	48b5      	ldr	r0, [pc, #724]	; (1a64 <setup+0x9c0>)
    1790:	f002 ffb8 	bl	4704 <usb_serial_write>
    1794:	4621      	mov	r1, r4
    1796:	48aa      	ldr	r0, [pc, #680]	; (1a40 <setup+0x99c>)
    1798:	f001 f8f6 	bl	2988 <Print::print(long)>
    179c:	2112      	movs	r1, #18
    179e:	48b2      	ldr	r0, [pc, #712]	; (1a68 <setup+0x9c4>)
    17a0:	f002 ffb0 	bl	4704 <usb_serial_write>
    17a4:	2300      	movs	r3, #0
    17a6:	220a      	movs	r2, #10
    17a8:	4659      	mov	r1, fp
    17aa:	48a5      	ldr	r0, [pc, #660]	; (1a40 <setup+0x99c>)
    17ac:	f001 f960 	bl	2a70 <Print::printNumber(unsigned long, unsigned char, unsigned char)>
    17b0:	210e      	movs	r1, #14
    17b2:	48ae      	ldr	r0, [pc, #696]	; (1a6c <setup+0x9c8>)
    17b4:	f002 ffa6 	bl	4704 <usb_serial_write>
    17b8:	eeb7 0acb 	vcvt.f64.f32	d0, s22
    17bc:	2103      	movs	r1, #3
    17be:	48a0      	ldr	r0, [pc, #640]	; (1a40 <setup+0x99c>)
    17c0:	f001 f9aa 	bl	2b18 <Print::printFloat(double, unsigned char)>
    17c4:	2117      	movs	r1, #23
    17c6:	48aa      	ldr	r0, [pc, #680]	; (1a70 <setup+0x9cc>)
    17c8:	f002 ff9c 	bl	4704 <usb_serial_write>
    17cc:	2300      	movs	r3, #0
    17ce:	220a      	movs	r2, #10
    17d0:	9903      	ldr	r1, [sp, #12]
    17d2:	489b      	ldr	r0, [pc, #620]	; (1a40 <setup+0x99c>)
    17d4:	f001 f94c 	bl	2a70 <Print::printNumber(unsigned long, unsigned char, unsigned char)>
    17d8:	2118      	movs	r1, #24
    17da:	48a6      	ldr	r0, [pc, #664]	; (1a74 <setup+0x9d0>)
    17dc:	f002 ff92 	bl	4704 <usb_serial_write>
    17e0:	eeb7 0aea 	vcvt.f64.f32	d0, s21
    17e4:	2105      	movs	r1, #5
    17e6:	4896      	ldr	r0, [pc, #600]	; (1a40 <setup+0x99c>)
    17e8:	f001 f996 	bl	2b18 <Print::printFloat(double, unsigned char)>
    17ec:	2106      	movs	r1, #6
    17ee:	48a2      	ldr	r0, [pc, #648]	; (1a78 <setup+0x9d4>)
    17f0:	f002 ff88 	bl	4704 <usb_serial_write>
    17f4:	eeb7 0ac9 	vcvt.f64.f32	d0, s18
    17f8:	2105      	movs	r1, #5
    17fa:	4891      	ldr	r0, [pc, #580]	; (1a40 <setup+0x99c>)
    17fc:	f001 f98c 	bl	2b18 <Print::printFloat(double, unsigned char)>
    1800:	210c      	movs	r1, #12
    1802:	489e      	ldr	r0, [pc, #632]	; (1a7c <setup+0x9d8>)
    1804:	f002 ff7e 	bl	4704 <usb_serial_write>
    1808:	9908      	ldr	r1, [sp, #32]
    180a:	2300      	movs	r3, #0
    180c:	220a      	movs	r2, #10
    180e:	488c      	ldr	r0, [pc, #560]	; (1a40 <setup+0x99c>)
    1810:	f001 f92e 	bl	2a70 <Print::printNumber(unsigned long, unsigned char, unsigned char)>
    1814:	210d      	movs	r1, #13
    1816:	489a      	ldr	r0, [pc, #616]	; (1a80 <setup+0x9dc>)
    1818:	f002 ff74 	bl	4704 <usb_serial_write>
    181c:	2d00      	cmp	r5, #0
    181e:	f001 805c 	beq.w	28da <setup+0x1836>
    1822:	4a98      	ldr	r2, [pc, #608]	; (1a84 <setup+0x9e0>)
    1824:	4b98      	ldr	r3, [pc, #608]	; (1a88 <setup+0x9e4>)
    1826:	f832 1b02 	ldrh.w	r1, [r2], #2
    182a:	404b      	eors	r3, r1
    182c:	4997      	ldr	r1, [pc, #604]	; (1a8c <setup+0x9e8>)
    182e:	fb01 f303 	mul.w	r3, r1, r3
    1832:	9904      	ldr	r1, [sp, #16]
    1834:	4291      	cmp	r1, r2
    1836:	d1f6      	bne.n	1826 <setup+0x782>
    1838:	f3c3 1103 	ubfx	r1, r3, #4, #4
    183c:	f3c3 2003 	ubfx	r0, r3, #8, #4
    1840:	f3c3 4b03 	ubfx	fp, r3, #16, #4
    1844:	f3c3 5403 	ubfx	r4, r3, #20, #4
    1848:	ea4f 7c13 	mov.w	ip, r3, lsr #28
    184c:	f3c3 6203 	ubfx	r2, r3, #24, #4
    1850:	f3c3 3e03 	ubfx	lr, r3, #12, #4
    1854:	f003 030f 	and.w	r3, r3, #15
    1858:	f81a 2002 	ldrb.w	r2, [sl, r2]
    185c:	f81a e00e 	ldrb.w	lr, [sl, lr]
    1860:	9203      	str	r2, [sp, #12]
    1862:	f81a 2001 	ldrb.w	r2, [sl, r1]
    1866:	2100      	movs	r1, #0
    1868:	f81a 0000 	ldrb.w	r0, [sl, r0]
    186c:	f36e 0107 	bfi	r1, lr, #0, #8
    1870:	f81a 3003 	ldrb.w	r3, [sl, r3]
    1874:	f81a c00c 	ldrb.w	ip, [sl, ip]
    1878:	f360 210f 	bfi	r1, r0, #8, #8
    187c:	f81a 4004 	ldrb.w	r4, [sl, r4]
    1880:	f81a b00b 	ldrb.w	fp, [sl, fp]
    1884:	a817      	add	r0, sp, #92	; 0x5c
    1886:	f362 4117 	bfi	r1, r2, #16, #8
    188a:	9a03      	ldr	r2, [sp, #12]
    188c:	f363 611f 	bfi	r1, r3, #24, #8
    1890:	2300      	movs	r3, #0
    1892:	f36c 0307 	bfi	r3, ip, #0, #8
    1896:	9118      	str	r1, [sp, #96]	; 0x60
    1898:	f362 230f 	bfi	r3, r2, #8, #8
    189c:	f364 4317 	bfi	r3, r4, #16, #8
    18a0:	f36b 631f 	bfi	r3, fp, #24, #8
    18a4:	9317      	str	r3, [sp, #92]	; 0x5c
    18a6:	2300      	movs	r3, #0
    18a8:	f88d 3064 	strb.w	r3, [sp, #100]	; 0x64
    18ac:	f003 fe68 	bl	5580 <strlen>
    18b0:	4601      	mov	r1, r0
    18b2:	a817      	add	r0, sp, #92	; 0x5c
    18b4:	f002 ff26 	bl	4704 <usb_serial_write>
    18b8:	210e      	movs	r1, #14
    18ba:	4875      	ldr	r0, [pc, #468]	; (1a90 <setup+0x9ec>)
    18bc:	f002 ff22 	bl	4704 <usb_serial_write>
    18c0:	2d00      	cmp	r5, #0
    18c2:	f000 87fe 	beq.w	28c2 <setup+0x181e>
    18c6:	4a73      	ldr	r2, [pc, #460]	; (1a94 <setup+0x9f0>)
    18c8:	4b6f      	ldr	r3, [pc, #444]	; (1a88 <setup+0x9e4>)
    18ca:	f832 1b02 	ldrh.w	r1, [r2], #2
    18ce:	404b      	eors	r3, r1
    18d0:	496e      	ldr	r1, [pc, #440]	; (1a8c <setup+0x9e8>)
    18d2:	fb01 f303 	mul.w	r3, r1, r3
    18d6:	9906      	ldr	r1, [sp, #24]
    18d8:	4291      	cmp	r1, r2
    18da:	d1f6      	bne.n	18ca <setup+0x826>
    18dc:	f3c3 1103 	ubfx	r1, r3, #4, #4
    18e0:	f3c3 2003 	ubfx	r0, r3, #8, #4
    18e4:	f3c3 5e03 	ubfx	lr, r3, #20, #4
    18e8:	f3c3 4203 	ubfx	r2, r3, #16, #4
    18ec:	f003 0b0f 	and.w	fp, r3, #15
    18f0:	f3c3 3c03 	ubfx	ip, r3, #12, #4
    18f4:	0f1c      	lsrs	r4, r3, #28
    18f6:	f3c3 6303 	ubfx	r3, r3, #24, #4
    18fa:	f81a 3003 	ldrb.w	r3, [sl, r3]
    18fe:	f81a c00c 	ldrb.w	ip, [sl, ip]
    1902:	9303      	str	r3, [sp, #12]
    1904:	f81a 3001 	ldrb.w	r3, [sl, r1]
    1908:	f81a 100b 	ldrb.w	r1, [sl, fp]
    190c:	f81a b002 	ldrb.w	fp, [sl, r2]
    1910:	2200      	movs	r2, #0
    1912:	f81a 0000 	ldrb.w	r0, [sl, r0]
    1916:	f36c 0207 	bfi	r2, ip, #0, #8
    191a:	f81a 4004 	ldrb.w	r4, [sl, r4]
    191e:	f81a e00e 	ldrb.w	lr, [sl, lr]
    1922:	f360 220f 	bfi	r2, r0, #8, #8
    1926:	a817      	add	r0, sp, #92	; 0x5c
    1928:	f363 4217 	bfi	r2, r3, #16, #8
    192c:	2300      	movs	r3, #0
    192e:	f361 621f 	bfi	r2, r1, #24, #8
    1932:	f364 0307 	bfi	r3, r4, #0, #8
    1936:	2400      	movs	r4, #0
    1938:	9218      	str	r2, [sp, #96]	; 0x60
    193a:	9a03      	ldr	r2, [sp, #12]
    193c:	f88d 4064 	strb.w	r4, [sp, #100]	; 0x64
    1940:	f362 230f 	bfi	r3, r2, #8, #8
    1944:	f36e 4317 	bfi	r3, lr, #16, #8
    1948:	f36b 631f 	bfi	r3, fp, #24, #8
    194c:	9317      	str	r3, [sp, #92]	; 0x5c
    194e:	f003 fe17 	bl	5580 <strlen>
    1952:	4601      	mov	r1, r0
    1954:	a817      	add	r0, sp, #92	; 0x5c
    1956:	f002 fed5 	bl	4704 <usb_serial_write>
    195a:	210d      	movs	r1, #13
    195c:	484e      	ldr	r0, [pc, #312]	; (1a98 <setup+0x9f4>)
    195e:	f002 fed1 	bl	4704 <usb_serial_write>
    1962:	4623      	mov	r3, r4
    1964:	220a      	movs	r2, #10
    1966:	990f      	ldr	r1, [sp, #60]	; 0x3c
    1968:	4835      	ldr	r0, [pc, #212]	; (1a40 <setup+0x99c>)
    196a:	f001 f881 	bl	2a70 <Print::printNumber(unsigned long, unsigned char, unsigned char)>
    196e:	210e      	movs	r1, #14
    1970:	484a      	ldr	r0, [pc, #296]	; (1a9c <setup+0x9f8>)
    1972:	f002 fec7 	bl	4704 <usb_serial_write>
    1976:	4623      	mov	r3, r4
    1978:	220a      	movs	r2, #10
    197a:	9909      	ldr	r1, [sp, #36]	; 0x24
    197c:	4830      	ldr	r0, [pc, #192]	; (1a40 <setup+0x99c>)
    197e:	f001 f877 	bl	2a70 <Print::printNumber(unsigned long, unsigned char, unsigned char)>
    1982:	210c      	movs	r1, #12
    1984:	4846      	ldr	r0, [pc, #280]	; (1aa0 <setup+0x9fc>)
    1986:	f002 febd 	bl	4704 <usb_serial_write>
    198a:	4623      	mov	r3, r4
    198c:	220a      	movs	r2, #10
    198e:	ee1e 1a10 	vmov	r1, s28
    1992:	482b      	ldr	r0, [pc, #172]	; (1a40 <setup+0x99c>)
    1994:	f001 f86c 	bl	2a70 <Print::printNumber(unsigned long, unsigned char, unsigned char)>
    1998:	210d      	movs	r1, #13
    199a:	4842      	ldr	r0, [pc, #264]	; (1aa4 <setup+0xa00>)
    199c:	f002 feb2 	bl	4704 <usb_serial_write>
    19a0:	4623      	mov	r3, r4
    19a2:	220a      	movs	r2, #10
    19a4:	ee1e 1a90 	vmov	r1, s29
    19a8:	4825      	ldr	r0, [pc, #148]	; (1a40 <setup+0x99c>)
    19aa:	f001 f861 	bl	2a70 <Print::printNumber(unsigned long, unsigned char, unsigned char)>
    19ae:	2109      	movs	r1, #9
    19b0:	483d      	ldr	r0, [pc, #244]	; (1aa8 <setup+0xa04>)
    19b2:	f002 fea7 	bl	4704 <usb_serial_write>
    19b6:	4623      	mov	r3, r4
    19b8:	220a      	movs	r2, #10
    19ba:	9913      	ldr	r1, [sp, #76]	; 0x4c
    19bc:	4820      	ldr	r0, [pc, #128]	; (1a40 <setup+0x99c>)
    19be:	f001 f857 	bl	2a70 <Print::printNumber(unsigned long, unsigned char, unsigned char)>
    19c2:	2107      	movs	r1, #7
    19c4:	4839      	ldr	r0, [pc, #228]	; (1aac <setup+0xa08>)
    19c6:	f002 fe9d 	bl	4704 <usb_serial_write>
    19ca:	2103      	movs	r1, #3
    19cc:	eeb7 0aca 	vcvt.f64.f32	d0, s20
    19d0:	481b      	ldr	r0, [pc, #108]	; (1a40 <setup+0x99c>)
    19d2:	f001 f8a1 	bl	2b18 <Print::printFloat(double, unsigned char)>
    19d6:	481a      	ldr	r0, [pc, #104]	; (1a40 <setup+0x99c>)
    19d8:	f001 f83c 	bl	2a54 <Print::println()>
    19dc:	f002 fec6 	bl	476c <usb_serial_flush_output>
    19e0:	462b      	mov	r3, r5
    19e2:	4632      	mov	r2, r6
    19e4:	4648      	mov	r0, r9
    19e6:	ee1b 1a90 	vmov	r1, s23
    19ea:	f7fe fb89 	bl	100 <renderReference(TextureCase const&, CoordCase const&, SampleMode, unsigned long, unsigned short*) [clone .constprop.0]>
    19ee:	230a      	movs	r3, #10
    19f0:	4632      	mov	r2, r6
    19f2:	4648      	mov	r0, r9
    19f4:	9300      	str	r3, [sp, #0]
    19f6:	462b      	mov	r3, r5
    19f8:	f7fe fdfa 	bl	5f0 <renderCandidate(TextureCase const&, CoordCase const&, SampleMode, unsigned long, int, unsigned short*) [clone .constprop.0]>
    19fc:	2d00      	cmp	r5, #0
    19fe:	f000 8754 	beq.w	28aa <setup+0x1806>
    1a02:	f8df e090 	ldr.w	lr, [pc, #144]	; 1a94 <setup+0x9f0>
    1a06:	46a3      	mov	fp, r4
    1a08:	f8df c078 	ldr.w	ip, [pc, #120]	; 1a84 <setup+0x9e0>
    1a0c:	940e      	str	r4, [sp, #56]	; 0x38
    1a0e:	940f      	str	r4, [sp, #60]	; 0x3c
    1a10:	940d      	str	r4, [sp, #52]	; 0x34
    1a12:	9403      	str	r4, [sp, #12]
    1a14:	e9cd 4409 	strd	r4, r4, [sp, #36]	; 0x24
    1a18:	f83c 4b02 	ldrh.w	r4, [ip], #2
    1a1c:	f83e 2b02 	ldrh.w	r2, [lr], #2
    1a20:	f004 031f 	and.w	r3, r4, #31
    1a24:	f3c4 1145 	ubfx	r1, r4, #5, #6
    1a28:	0ad0      	lsrs	r0, r2, #11
    1a2a:	42a2      	cmp	r2, r4
    1a2c:	ebc0 20d4 	rsb	r0, r0, r4, lsr #11
    1a30:	d03e      	beq.n	1ab0 <setup+0xa0c>
    1a32:	9c03      	ldr	r4, [sp, #12]
    1a34:	3401      	adds	r4, #1
    1a36:	9403      	str	r4, [sp, #12]
    1a38:	e03a      	b.n	1ab0 <setup+0xa0c>
    1a3a:	bf00      	nop
    1a3c:	20000564 	.word	0x20000564
    1a40:	20000930 	.word	0x20000930
    1a44:	2000056c 	.word	0x2000056c
    1a48:	2000057c 	.word	0x2000057c
    1a4c:	200003f0 	.word	0x200003f0
    1a50:	20000758 	.word	0x20000758
    1a54:	200004bc 	.word	0x200004bc
    1a58:	200004c4 	.word	0x200004c4
    1a5c:	200004c8 	.word	0x200004c8
    1a60:	200004d0 	.word	0x200004d0
    1a64:	200004d8 	.word	0x200004d8
    1a68:	200004e4 	.word	0x200004e4
    1a6c:	200004f8 	.word	0x200004f8
    1a70:	20000508 	.word	0x20000508
    1a74:	20000520 	.word	0x20000520
    1a78:	2000053c 	.word	0x2000053c
    1a7c:	20000544 	.word	0x20000544
    1a80:	20000554 	.word	0x20000554
    1a84:	20001088 	.word	0x20001088
    1a88:	811c9dc5 	.word	0x811c9dc5
    1a8c:	01000193 	.word	0x01000193
    1a90:	20000458 	.word	0x20000458
    1a94:	20003308 	.word	0x20003308
    1a98:	20000468 	.word	0x20000468
    1a9c:	20000478 	.word	0x20000478
    1aa0:	20000488 	.word	0x20000488
    1aa4:	20000498 	.word	0x20000498
    1aa8:	200004a8 	.word	0x200004a8
    1aac:	200004b4 	.word	0x200004b4
    1ab0:	f002 041f 	and.w	r4, r2, #31
    1ab4:	f3c2 1245 	ubfx	r2, r2, #5, #6
    1ab8:	2800      	cmp	r0, #0
    1aba:	eba3 0304 	sub.w	r3, r3, r4
    1abe:	eba1 0102 	sub.w	r1, r1, r2
    1ac2:	fb00 f200 	mul.w	r2, r0, r0
    1ac6:	bfb8      	it	lt
    1ac8:	4240      	neglt	r0, r0
    1aca:	2b00      	cmp	r3, #0
    1acc:	fb01 2201 	mla	r2, r1, r1, r2
    1ad0:	fb03 2203 	mla	r2, r3, r3, r2
    1ad4:	bfb8      	it	lt
    1ad6:	425b      	neglt	r3, r3
    1ad8:	2900      	cmp	r1, #0
    1ada:	bfb8      	it	lt
    1adc:	4249      	neglt	r1, r1
    1ade:	4283      	cmp	r3, r0
    1ae0:	eb01 0400 	add.w	r4, r1, r0
    1ae4:	441c      	add	r4, r3
    1ae6:	bfb8      	it	lt
    1ae8:	4603      	movlt	r3, r0
    1aea:	428b      	cmp	r3, r1
    1aec:	bfb8      	it	lt
    1aee:	460b      	movlt	r3, r1
    1af0:	2b01      	cmp	r3, #1
    1af2:	dd02      	ble.n	1afa <setup+0xa56>
    1af4:	990a      	ldr	r1, [sp, #40]	; 0x28
    1af6:	3101      	adds	r1, #1
    1af8:	910a      	str	r1, [sp, #40]	; 0x28
    1afa:	9909      	ldr	r1, [sp, #36]	; 0x24
    1afc:	4299      	cmp	r1, r3
    1afe:	bf38      	it	cc
    1b00:	4619      	movcc	r1, r3
    1b02:	eb14 0b0b 	adds.w	fp, r4, fp
    1b06:	9b0d      	ldr	r3, [sp, #52]	; 0x34
    1b08:	9109      	str	r1, [sp, #36]	; 0x24
    1b0a:	eb43 73e4 	adc.w	r3, r3, r4, asr #31
    1b0e:	990f      	ldr	r1, [sp, #60]	; 0x3c
    1b10:	930d      	str	r3, [sp, #52]	; 0x34
    1b12:	9b0e      	ldr	r3, [sp, #56]	; 0x38
    1b14:	18d3      	adds	r3, r2, r3
    1b16:	eb41 72e2 	adc.w	r2, r1, r2, asr #31
    1b1a:	e9cd 320e 	strd	r3, r2, [sp, #56]	; 0x38
    1b1e:	9b04      	ldr	r3, [sp, #16]
    1b20:	4563      	cmp	r3, ip
    1b22:	f47f af79 	bne.w	1a18 <setup+0x974>
    1b26:	9b03      	ldr	r3, [sp, #12]
    1b28:	2d05      	cmp	r5, #5
    1b2a:	f8cd b04c 	str.w	fp, [sp, #76]	; 0x4c
    1b2e:	fab3 f483 	clz	r4, r3
    1b32:	ea4f 1454 	mov.w	r4, r4, lsr #5
    1b36:	f240 86c0 	bls.w	28ba <setup+0x1816>
    1b3a:	2d10      	cmp	r5, #16
    1b3c:	f240 86e6 	bls.w	290c <setup+0x1868>
    1b40:	2d40      	cmp	r5, #64	; 0x40
    1b42:	f240 86f5 	bls.w	2930 <setup+0x188c>
    1b46:	2d80      	cmp	r5, #128	; 0x80
    1b48:	bf94      	ite	ls
    1b4a:	f04f 0b30 	movls.w	fp, #48	; 0x30
    1b4e:	f04f 0b14 	movhi.w	fp, #20
    1b52:	4bc8      	ldr	r3, [pc, #800]	; (1e74 <setup+0xdd0>)
    1b54:	685b      	ldr	r3, [r3, #4]
    1b56:	9314      	str	r3, [sp, #80]	; 0x50
    1b58:	2300      	movs	r3, #0
    1b5a:	930b      	str	r3, [sp, #44]	; 0x2c
    1b5c:	f001 fa2e 	bl	2fbc <micros>
    1b60:	9b0b      	ldr	r3, [sp, #44]	; 0x2c
    1b62:	ee1b 1a90 	vmov	r1, s23
    1b66:	9008      	str	r0, [sp, #32]
    1b68:	9310      	str	r3, [sp, #64]	; 0x40
    1b6a:	4623      	mov	r3, r4
    1b6c:	462c      	mov	r4, r5
    1b6e:	461d      	mov	r5, r3
    1b70:	4623      	mov	r3, r4
    1b72:	4632      	mov	r2, r6
    1b74:	4648      	mov	r0, r9
    1b76:	f7fe fac3 	bl	100 <renderReference(TextureCase const&, CoordCase const&, SampleMode, unsigned long, unsigned short*) [clone .constprop.0]>
    1b7a:	2c00      	cmp	r4, #0
    1b7c:	f000 861c 	beq.w	27b8 <setup+0x1714>
    1b80:	4abd      	ldr	r2, [pc, #756]	; (1e78 <setup+0xdd4>)
    1b82:	f8df c304 	ldr.w	ip, [pc, #772]	; 1e88 <setup+0xde4>
    1b86:	f832 3b02 	ldrh.w	r3, [r2], #2
    1b8a:	ea83 0c0c 	eor.w	ip, r3, ip
    1b8e:	4bbb      	ldr	r3, [pc, #748]	; (1e7c <setup+0xdd8>)
    1b90:	fb03 fc0c 	mul.w	ip, r3, ip
    1b94:	9b04      	ldr	r3, [sp, #16]
    1b96:	4293      	cmp	r3, r2
    1b98:	d1f5      	bne.n	1b86 <setup+0xae2>
    1b9a:	9a10      	ldr	r2, [sp, #64]	; 0x40
    1b9c:	9b0b      	ldr	r3, [sp, #44]	; 0x2c
    1b9e:	4494      	add	ip, r2
    1ba0:	ea83 030c 	eor.w	r3, r3, ip
    1ba4:	f102 0c01 	add.w	ip, r2, #1
    1ba8:	45e3      	cmp	fp, ip
    1baa:	930b      	str	r3, [sp, #44]	; 0x2c
    1bac:	f040 860b 	bne.w	27c6 <setup+0x1722>
    1bb0:	462a      	mov	r2, r5
    1bb2:	f8cd c054 	str.w	ip, [sp, #84]	; 0x54
    1bb6:	4625      	mov	r5, r4
    1bb8:	4614      	mov	r4, r2
    1bba:	f001 f9ff 	bl	2fbc <micros>
    1bbe:	9a08      	ldr	r2, [sp, #32]
    1bc0:	9914      	ldr	r1, [sp, #80]	; 0x50
    1bc2:	1a82      	subs	r2, r0, r2
    1bc4:	2000      	movs	r0, #0
    1bc6:	9212      	str	r2, [sp, #72]	; 0x48
    1bc8:	4aaa      	ldr	r2, [pc, #680]	; (1e74 <setup+0xdd0>)
    1bca:	9008      	str	r0, [sp, #32]
    1bcc:	6853      	ldr	r3, [r2, #4]
    1bce:	48ac      	ldr	r0, [pc, #688]	; (1e80 <setup+0xddc>)
    1bd0:	1a5b      	subs	r3, r3, r1
    1bd2:	990b      	ldr	r1, [sp, #44]	; 0x2c
    1bd4:	ee0e 3a10 	vmov	s28, r3
    1bd8:	6803      	ldr	r3, [r0, #0]
    1bda:	4059      	eors	r1, r3
    1bdc:	6001      	str	r1, [r0, #0]
    1bde:	6853      	ldr	r3, [r2, #4]
    1be0:	930b      	str	r3, [sp, #44]	; 0x2c
    1be2:	f001 f9eb 	bl	2fbc <micros>
    1be6:	f8dd b020 	ldr.w	fp, [sp, #32]
    1bea:	9014      	str	r0, [sp, #80]	; 0x50
    1bec:	230a      	movs	r3, #10
    1bee:	4632      	mov	r2, r6
    1bf0:	ee1b 1a90 	vmov	r1, s23
    1bf4:	4648      	mov	r0, r9
    1bf6:	9300      	str	r3, [sp, #0]
    1bf8:	462b      	mov	r3, r5
    1bfa:	f7fe fcf9 	bl	5f0 <renderCandidate(TextureCase const&, CoordCase const&, SampleMode, unsigned long, int, unsigned short*) [clone .constprop.0]>
    1bfe:	2d00      	cmp	r5, #0
    1c00:	f000 85d7 	beq.w	27b2 <setup+0x170e>
    1c04:	4b9f      	ldr	r3, [pc, #636]	; (1e84 <setup+0xde0>)
    1c06:	49a0      	ldr	r1, [pc, #640]	; (1e88 <setup+0xde4>)
    1c08:	f833 2b02 	ldrh.w	r2, [r3], #2
    1c0c:	4051      	eors	r1, r2
    1c0e:	4a9b      	ldr	r2, [pc, #620]	; (1e7c <setup+0xdd8>)
    1c10:	fb02 f101 	mul.w	r1, r2, r1
    1c14:	9a06      	ldr	r2, [sp, #24]
    1c16:	429a      	cmp	r2, r3
    1c18:	d1f6      	bne.n	1c08 <setup+0xb64>
    1c1a:	4459      	add	r1, fp
    1c1c:	9b08      	ldr	r3, [sp, #32]
    1c1e:	404b      	eors	r3, r1
    1c20:	9910      	ldr	r1, [sp, #64]	; 0x40
    1c22:	4559      	cmp	r1, fp
    1c24:	9308      	str	r3, [sp, #32]
    1c26:	f10b 0301 	add.w	r3, fp, #1
    1c2a:	f040 85ea 	bne.w	2802 <setup+0x175e>
    1c2e:	f001 f9c5 	bl	2fbc <micros>
    1c32:	4b90      	ldr	r3, [pc, #576]	; (1e74 <setup+0xdd0>)
    1c34:	990b      	ldr	r1, [sp, #44]	; 0x2c
    1c36:	685b      	ldr	r3, [r3, #4]
    1c38:	9a08      	ldr	r2, [sp, #32]
    1c3a:	1a59      	subs	r1, r3, r1
    1c3c:	ee0e 1a90 	vmov	s29, r1
    1c40:	498f      	ldr	r1, [pc, #572]	; (1e80 <setup+0xddc>)
    1c42:	680b      	ldr	r3, [r1, #0]
    1c44:	405a      	eors	r2, r3
    1c46:	9b14      	ldr	r3, [sp, #80]	; 0x50
    1c48:	1ac3      	subs	r3, r0, r3
    1c4a:	600a      	str	r2, [r1, #0]
    1c4c:	9308      	str	r3, [sp, #32]
    1c4e:	f000 85fc 	beq.w	284a <setup+0x17a6>
    1c52:	eddd 7a12 	vldr	s15, [sp, #72]	; 0x48
    1c56:	ee07 3a10 	vmov	s14, r3
    1c5a:	eef8 7a67 	vcvt.f32.u32	s15, s15
    1c5e:	eeb8 7a47 	vcvt.f32.u32	s14, s14
    1c62:	ee77 7ac7 	vsub.f32	s15, s15, s14
    1c66:	ee67 7aa8 	vmul.f32	s15, s15, s17
    1c6a:	ee87 aa87 	vdiv.f32	s20, s15, s14
    1c6e:	2d00      	cmp	r5, #0
    1c70:	f000 85e3 	beq.w	283a <setup+0x1796>
    1c74:	eddd 7a03 	vldr	s15, [sp, #12]
    1c78:	990d      	ldr	r1, [sp, #52]	; 0x34
    1c7a:	9813      	ldr	r0, [sp, #76]	; 0x4c
    1c7c:	eeb8 7a67 	vcvt.f32.u32	s14, s15
    1c80:	ee07 5a90 	vmov	s15, r5
    1c84:	eeb8 9ae9 	vcvt.f32.s32	s18, s19
    1c88:	eef8 7ae7 	vcvt.f32.s32	s15, s15
    1c8c:	ee27 7a28 	vmul.f32	s14, s14, s17
    1c90:	ee87 ba27 	vdiv.f32	s22, s14, s15
    1c94:	f003 fbae 	bl	53f4 <__aeabi_ul2f>
    1c98:	ee07 0a90 	vmov	s15, r0
    1c9c:	eec7 aa89 	vdiv.f32	s21, s15, s18
    1ca0:	e9dd 010e 	ldrd	r0, r1, [sp, #56]	; 0x38
    1ca4:	f003 fba6 	bl	53f4 <__aeabi_ul2f>
    1ca8:	ee07 0a90 	vmov	s15, r0
    1cac:	ee87 0a89 	vdiv.f32	s0, s15, s18
    1cb0:	eeb5 0a40 	vcmp.f32	s0, #0.0
    1cb4:	eef1 fa10 	vmrs	APSR_nzcv, fpscr
    1cb8:	f100 8644 	bmi.w	2944 <setup+0x18a0>
    1cbc:	eeb1 9ac0 	vsqrt.f32	s18, s0
    1cc0:	2105      	movs	r1, #5
    1cc2:	4872      	ldr	r0, [pc, #456]	; (1e8c <setup+0xde8>)
    1cc4:	f002 fd1e 	bl	4704 <usb_serial_write>
    1cc8:	b137      	cbz	r7, 1cd8 <setup+0xc34>
    1cca:	4638      	mov	r0, r7
    1ccc:	f003 fc58 	bl	5580 <strlen>
    1cd0:	4601      	mov	r1, r0
    1cd2:	4638      	mov	r0, r7
    1cd4:	f002 fd16 	bl	4704 <usb_serial_write>
    1cd8:	2101      	movs	r1, #1
    1cda:	486d      	ldr	r0, [pc, #436]	; (1e90 <setup+0xdec>)
    1cdc:	f002 fd12 	bl	4704 <usb_serial_write>
    1ce0:	f1b8 0f00 	cmp.w	r8, #0
    1ce4:	d006      	beq.n	1cf4 <setup+0xc50>
    1ce6:	4640      	mov	r0, r8
    1ce8:	f003 fc4a 	bl	5580 <strlen>
    1cec:	4601      	mov	r1, r0
    1cee:	4640      	mov	r0, r8
    1cf0:	f002 fd08 	bl	4704 <usb_serial_write>
    1cf4:	2106      	movs	r1, #6
    1cf6:	4867      	ldr	r0, [pc, #412]	; (1e94 <setup+0xdf0>)
    1cf8:	f002 fd04 	bl	4704 <usb_serial_write>
    1cfc:	ee1c 0a90 	vmov	r0, s25
    1d00:	f003 fc3e 	bl	5580 <strlen>
    1d04:	4601      	mov	r1, r0
    1d06:	ee0f 0a10 	vmov	s30, r0
    1d0a:	ee1c 0a90 	vmov	r0, s25
    1d0e:	f002 fcf9 	bl	4704 <usb_serial_write>
    1d12:	2109      	movs	r1, #9
    1d14:	4860      	ldr	r0, [pc, #384]	; (1e98 <setup+0xdf4>)
    1d16:	f002 fcf5 	bl	4704 <usb_serial_write>
    1d1a:	210b      	movs	r1, #11
    1d1c:	485f      	ldr	r0, [pc, #380]	; (1e9c <setup+0xdf8>)
    1d1e:	f002 fcf1 	bl	4704 <usb_serial_write>
    1d22:	2106      	movs	r1, #6
    1d24:	485e      	ldr	r0, [pc, #376]	; (1ea0 <setup+0xdfc>)
    1d26:	f002 fced 	bl	4704 <usb_serial_write>
    1d2a:	2100      	movs	r1, #0
    1d2c:	485d      	ldr	r0, [pc, #372]	; (1ea4 <setup+0xe00>)
    1d2e:	f000 fe2b 	bl	2988 <Print::print(long)>
    1d32:	210d      	movs	r1, #13
    1d34:	485c      	ldr	r0, [pc, #368]	; (1ea8 <setup+0xe04>)
    1d36:	f002 fce5 	bl	4704 <usb_serial_write>
    1d3a:	ee1c 1a10 	vmov	r1, s24
    1d3e:	4859      	ldr	r0, [pc, #356]	; (1ea4 <setup+0xe00>)
    1d40:	f000 fe22 	bl	2988 <Print::print(long)>
    1d44:	2106      	movs	r1, #6
    1d46:	4859      	ldr	r0, [pc, #356]	; (1eac <setup+0xe08>)
    1d48:	f002 fcdc 	bl	4704 <usb_serial_write>
    1d4c:	ee1d 0a10 	vmov	r0, s26
    1d50:	f003 fc16 	bl	5580 <strlen>
    1d54:	4601      	mov	r1, r0
    1d56:	ee0f 0a90 	vmov	s31, r0
    1d5a:	ee1d 0a10 	vmov	r0, s26
    1d5e:	f002 fcd1 	bl	4704 <usb_serial_write>
    1d62:	2105      	movs	r1, #5
    1d64:	4852      	ldr	r0, [pc, #328]	; (1eb0 <setup+0xe0c>)
    1d66:	f002 fccd 	bl	4704 <usb_serial_write>
    1d6a:	9905      	ldr	r1, [sp, #20]
    1d6c:	484d      	ldr	r0, [pc, #308]	; (1ea4 <setup+0xe00>)
    1d6e:	f000 fe0b 	bl	2988 <Print::print(long)>
    1d72:	2101      	movs	r1, #1
    1d74:	484f      	ldr	r0, [pc, #316]	; (1eb4 <setup+0xe10>)
    1d76:	f002 fcc5 	bl	4704 <usb_serial_write>
    1d7a:	9907      	ldr	r1, [sp, #28]
    1d7c:	4849      	ldr	r0, [pc, #292]	; (1ea4 <setup+0xe00>)
    1d7e:	f000 fe03 	bl	2988 <Print::print(long)>
    1d82:	2106      	movs	r1, #6
    1d84:	484c      	ldr	r0, [pc, #304]	; (1eb8 <setup+0xe14>)
    1d86:	f002 fcbd 	bl	4704 <usb_serial_write>
    1d8a:	210a      	movs	r1, #10
    1d8c:	4845      	ldr	r0, [pc, #276]	; (1ea4 <setup+0xe00>)
    1d8e:	f000 fdfb 	bl	2988 <Print::print(long)>
    1d92:	2105      	movs	r1, #5
    1d94:	4849      	ldr	r0, [pc, #292]	; (1ebc <setup+0xe18>)
    1d96:	f002 fcb5 	bl	4704 <usb_serial_write>
    1d9a:	2300      	movs	r3, #0
    1d9c:	220a      	movs	r2, #10
    1d9e:	4629      	mov	r1, r5
    1da0:	4840      	ldr	r0, [pc, #256]	; (1ea4 <setup+0xe00>)
    1da2:	f000 fe65 	bl	2a70 <Print::printNumber(unsigned long, unsigned char, unsigned char)>
    1da6:	2109      	movs	r1, #9
    1da8:	4845      	ldr	r0, [pc, #276]	; (1ec0 <setup+0xe1c>)
    1daa:	f002 fcab 	bl	4704 <usb_serial_write>
    1dae:	4621      	mov	r1, r4
    1db0:	483c      	ldr	r0, [pc, #240]	; (1ea4 <setup+0xe00>)
    1db2:	f000 fde9 	bl	2988 <Print::print(long)>
    1db6:	2112      	movs	r1, #18
    1db8:	4842      	ldr	r0, [pc, #264]	; (1ec4 <setup+0xe20>)
    1dba:	f002 fca3 	bl	4704 <usb_serial_write>
    1dbe:	2300      	movs	r3, #0
    1dc0:	220a      	movs	r2, #10
    1dc2:	9903      	ldr	r1, [sp, #12]
    1dc4:	4837      	ldr	r0, [pc, #220]	; (1ea4 <setup+0xe00>)
    1dc6:	f000 fe53 	bl	2a70 <Print::printNumber(unsigned long, unsigned char, unsigned char)>
    1dca:	210e      	movs	r1, #14
    1dcc:	483e      	ldr	r0, [pc, #248]	; (1ec8 <setup+0xe24>)
    1dce:	f002 fc99 	bl	4704 <usb_serial_write>
    1dd2:	eeb7 0acb 	vcvt.f64.f32	d0, s22
    1dd6:	2103      	movs	r1, #3
    1dd8:	4832      	ldr	r0, [pc, #200]	; (1ea4 <setup+0xe00>)
    1dda:	f000 fe9d 	bl	2b18 <Print::printFloat(double, unsigned char)>
    1dde:	2117      	movs	r1, #23
    1de0:	483a      	ldr	r0, [pc, #232]	; (1ecc <setup+0xe28>)
    1de2:	f002 fc8f 	bl	4704 <usb_serial_write>
    1de6:	2300      	movs	r3, #0
    1de8:	220a      	movs	r2, #10
    1dea:	9909      	ldr	r1, [sp, #36]	; 0x24
    1dec:	482d      	ldr	r0, [pc, #180]	; (1ea4 <setup+0xe00>)
    1dee:	f000 fe3f 	bl	2a70 <Print::printNumber(unsigned long, unsigned char, unsigned char)>
    1df2:	2118      	movs	r1, #24
    1df4:	4836      	ldr	r0, [pc, #216]	; (1ed0 <setup+0xe2c>)
    1df6:	f002 fc85 	bl	4704 <usb_serial_write>
    1dfa:	eeb7 0aea 	vcvt.f64.f32	d0, s21
    1dfe:	2105      	movs	r1, #5
    1e00:	4828      	ldr	r0, [pc, #160]	; (1ea4 <setup+0xe00>)
    1e02:	f000 fe89 	bl	2b18 <Print::printFloat(double, unsigned char)>
    1e06:	2106      	movs	r1, #6
    1e08:	4832      	ldr	r0, [pc, #200]	; (1ed4 <setup+0xe30>)
    1e0a:	f002 fc7b 	bl	4704 <usb_serial_write>
    1e0e:	eeb7 0ac9 	vcvt.f64.f32	d0, s18
    1e12:	2105      	movs	r1, #5
    1e14:	4823      	ldr	r0, [pc, #140]	; (1ea4 <setup+0xe00>)
    1e16:	f000 fe7f 	bl	2b18 <Print::printFloat(double, unsigned char)>
    1e1a:	210c      	movs	r1, #12
    1e1c:	482e      	ldr	r0, [pc, #184]	; (1ed8 <setup+0xe34>)
    1e1e:	f002 fc71 	bl	4704 <usb_serial_write>
    1e22:	990a      	ldr	r1, [sp, #40]	; 0x28
    1e24:	2300      	movs	r3, #0
    1e26:	220a      	movs	r2, #10
    1e28:	481e      	ldr	r0, [pc, #120]	; (1ea4 <setup+0xe00>)
    1e2a:	f000 fe21 	bl	2a70 <Print::printNumber(unsigned long, unsigned char, unsigned char)>
    1e2e:	210d      	movs	r1, #13
    1e30:	482a      	ldr	r0, [pc, #168]	; (1edc <setup+0xe38>)
    1e32:	f002 fc67 	bl	4704 <usb_serial_write>
    1e36:	2d00      	cmp	r5, #0
    1e38:	f000 84f3 	beq.w	2822 <setup+0x177e>
    1e3c:	4a0e      	ldr	r2, [pc, #56]	; (1e78 <setup+0xdd4>)
    1e3e:	4b12      	ldr	r3, [pc, #72]	; (1e88 <setup+0xde4>)
    1e40:	f832 1b02 	ldrh.w	r1, [r2], #2
    1e44:	404b      	eors	r3, r1
    1e46:	490d      	ldr	r1, [pc, #52]	; (1e7c <setup+0xdd8>)
    1e48:	fb01 f303 	mul.w	r3, r1, r3
    1e4c:	9904      	ldr	r1, [sp, #16]
    1e4e:	4291      	cmp	r1, r2
    1e50:	d1f6      	bne.n	1e40 <setup+0xd9c>
    1e52:	f003 0b0f 	and.w	fp, r3, #15
    1e56:	f3c3 1003 	ubfx	r0, r3, #4, #4
    1e5a:	f3c3 2403 	ubfx	r4, r3, #8, #4
    1e5e:	f3c3 3e03 	ubfx	lr, r3, #12, #4
    1e62:	f3c3 4203 	ubfx	r2, r3, #16, #4
    1e66:	f3c3 6c03 	ubfx	ip, r3, #24, #4
    1e6a:	f3c3 5103 	ubfx	r1, r3, #20, #4
    1e6e:	0f1b      	lsrs	r3, r3, #28
    1e70:	e036      	b.n	1ee0 <setup+0xe3c>
    1e72:	bf00      	nop
    1e74:	e0001000 	.word	0xe0001000
    1e78:	20001088 	.word	0x20001088
    1e7c:	01000193 	.word	0x01000193
    1e80:	20003588 	.word	0x20003588
    1e84:	20003308 	.word	0x20003308
    1e88:	811c9dc5 	.word	0x811c9dc5
    1e8c:	20000430 	.word	0x20000430
    1e90:	20000438 	.word	0x20000438
    1e94:	2000043c 	.word	0x2000043c
    1e98:	20000584 	.word	0x20000584
    1e9c:	200003fc 	.word	0x200003fc
    1ea0:	20000564 	.word	0x20000564
    1ea4:	20000930 	.word	0x20000930
    1ea8:	2000056c 	.word	0x2000056c
    1eac:	2000057c 	.word	0x2000057c
    1eb0:	200004bc 	.word	0x200004bc
    1eb4:	200004c4 	.word	0x200004c4
    1eb8:	200004c8 	.word	0x200004c8
    1ebc:	200004d0 	.word	0x200004d0
    1ec0:	200004d8 	.word	0x200004d8
    1ec4:	200004e4 	.word	0x200004e4
    1ec8:	200004f8 	.word	0x200004f8
    1ecc:	20000508 	.word	0x20000508
    1ed0:	20000520 	.word	0x20000520
    1ed4:	2000053c 	.word	0x2000053c
    1ed8:	20000544 	.word	0x20000544
    1edc:	20000554 	.word	0x20000554
    1ee0:	f81a 3003 	ldrb.w	r3, [sl, r3]
    1ee4:	f81a e00e 	ldrb.w	lr, [sl, lr]
    1ee8:	9303      	str	r3, [sp, #12]
    1eea:	f81a 3004 	ldrb.w	r3, [sl, r4]
    1eee:	f81a 400c 	ldrb.w	r4, [sl, ip]
    1ef2:	f81a c001 	ldrb.w	ip, [sl, r1]
    1ef6:	f81a 100b 	ldrb.w	r1, [sl, fp]
    1efa:	f81a b002 	ldrb.w	fp, [sl, r2]
    1efe:	2200      	movs	r2, #0
    1f00:	f81a 0000 	ldrb.w	r0, [sl, r0]
    1f04:	f36e 0207 	bfi	r2, lr, #0, #8
    1f08:	f363 220f 	bfi	r2, r3, #8, #8
    1f0c:	2300      	movs	r3, #0
    1f0e:	f360 4217 	bfi	r2, r0, #16, #8
    1f12:	a817      	add	r0, sp, #92	; 0x5c
    1f14:	f361 621f 	bfi	r2, r1, #24, #8
    1f18:	9218      	str	r2, [sp, #96]	; 0x60
    1f1a:	9a03      	ldr	r2, [sp, #12]
    1f1c:	f362 0307 	bfi	r3, r2, #0, #8
    1f20:	f364 230f 	bfi	r3, r4, #8, #8
    1f24:	f36c 4317 	bfi	r3, ip, #16, #8
    1f28:	f36b 631f 	bfi	r3, fp, #24, #8
    1f2c:	9317      	str	r3, [sp, #92]	; 0x5c
    1f2e:	2300      	movs	r3, #0
    1f30:	f88d 3064 	strb.w	r3, [sp, #100]	; 0x64
    1f34:	f003 fb24 	bl	5580 <strlen>
    1f38:	4601      	mov	r1, r0
    1f3a:	a817      	add	r0, sp, #92	; 0x5c
    1f3c:	f002 fbe2 	bl	4704 <usb_serial_write>
    1f40:	210e      	movs	r1, #14
    1f42:	48c6      	ldr	r0, [pc, #792]	; (225c <setup+0x11b8>)
    1f44:	f002 fbde 	bl	4704 <usb_serial_write>
    1f48:	2d00      	cmp	r5, #0
    1f4a:	f000 845d 	beq.w	2808 <setup+0x1764>
    1f4e:	4ac4      	ldr	r2, [pc, #784]	; (2260 <setup+0x11bc>)
    1f50:	4bc4      	ldr	r3, [pc, #784]	; (2264 <setup+0x11c0>)
    1f52:	f832 1b02 	ldrh.w	r1, [r2], #2
    1f56:	404b      	eors	r3, r1
    1f58:	49c3      	ldr	r1, [pc, #780]	; (2268 <setup+0x11c4>)
    1f5a:	fb01 f303 	mul.w	r3, r1, r3
    1f5e:	9906      	ldr	r1, [sp, #24]
    1f60:	4291      	cmp	r1, r2
    1f62:	d1f6      	bne.n	1f52 <setup+0xeae>
    1f64:	f003 0b0f 	and.w	fp, r3, #15
    1f68:	f3c3 1403 	ubfx	r4, r3, #4, #4
    1f6c:	f3c3 3e03 	ubfx	lr, r3, #12, #4
    1f70:	f3c3 2c03 	ubfx	ip, r3, #8, #4
    1f74:	f3c3 5003 	ubfx	r0, r3, #20, #4
    1f78:	f3c3 4203 	ubfx	r2, r3, #16, #4
    1f7c:	f3c3 6103 	ubfx	r1, r3, #24, #4
    1f80:	0f1b      	lsrs	r3, r3, #28
    1f82:	f81a 3003 	ldrb.w	r3, [sl, r3]
    1f86:	f81a e00e 	ldrb.w	lr, [sl, lr]
    1f8a:	9303      	str	r3, [sp, #12]
    1f8c:	f81a 300c 	ldrb.w	r3, [sl, ip]
    1f90:	f81a c001 	ldrb.w	ip, [sl, r1]
    1f94:	f81a 1004 	ldrb.w	r1, [sl, r4]
    1f98:	f81a 4000 	ldrb.w	r4, [sl, r0]
    1f9c:	f81a 000b 	ldrb.w	r0, [sl, fp]
    1fa0:	f81a b002 	ldrb.w	fp, [sl, r2]
    1fa4:	2200      	movs	r2, #0
    1fa6:	f36e 0207 	bfi	r2, lr, #0, #8
    1faa:	f363 220f 	bfi	r2, r3, #8, #8
    1fae:	2300      	movs	r3, #0
    1fb0:	f361 4217 	bfi	r2, r1, #16, #8
    1fb4:	f360 621f 	bfi	r2, r0, #24, #8
    1fb8:	a817      	add	r0, sp, #92	; 0x5c
    1fba:	9218      	str	r2, [sp, #96]	; 0x60
    1fbc:	9a03      	ldr	r2, [sp, #12]
    1fbe:	f362 0307 	bfi	r3, r2, #0, #8
    1fc2:	f36c 230f 	bfi	r3, ip, #8, #8
    1fc6:	f364 4317 	bfi	r3, r4, #16, #8
    1fca:	2400      	movs	r4, #0
    1fcc:	f36b 631f 	bfi	r3, fp, #24, #8
    1fd0:	f88d 4064 	strb.w	r4, [sp, #100]	; 0x64
    1fd4:	9317      	str	r3, [sp, #92]	; 0x5c
    1fd6:	f003 fad3 	bl	5580 <strlen>
    1fda:	4601      	mov	r1, r0
    1fdc:	a817      	add	r0, sp, #92	; 0x5c
    1fde:	f002 fb91 	bl	4704 <usb_serial_write>
    1fe2:	210d      	movs	r1, #13
    1fe4:	48a1      	ldr	r0, [pc, #644]	; (226c <setup+0x11c8>)
    1fe6:	f002 fb8d 	bl	4704 <usb_serial_write>
    1fea:	4623      	mov	r3, r4
    1fec:	220a      	movs	r2, #10
    1fee:	9912      	ldr	r1, [sp, #72]	; 0x48
    1ff0:	489f      	ldr	r0, [pc, #636]	; (2270 <setup+0x11cc>)
    1ff2:	f000 fd3d 	bl	2a70 <Print::printNumber(unsigned long, unsigned char, unsigned char)>
    1ff6:	210e      	movs	r1, #14
    1ff8:	489e      	ldr	r0, [pc, #632]	; (2274 <setup+0x11d0>)
    1ffa:	f002 fb83 	bl	4704 <usb_serial_write>
    1ffe:	4623      	mov	r3, r4
    2000:	220a      	movs	r2, #10
    2002:	9908      	ldr	r1, [sp, #32]
    2004:	489a      	ldr	r0, [pc, #616]	; (2270 <setup+0x11cc>)
    2006:	f000 fd33 	bl	2a70 <Print::printNumber(unsigned long, unsigned char, unsigned char)>
    200a:	210c      	movs	r1, #12
    200c:	489a      	ldr	r0, [pc, #616]	; (2278 <setup+0x11d4>)
    200e:	f002 fb79 	bl	4704 <usb_serial_write>
    2012:	4623      	mov	r3, r4
    2014:	220a      	movs	r2, #10
    2016:	ee1e 1a10 	vmov	r1, s28
    201a:	4895      	ldr	r0, [pc, #596]	; (2270 <setup+0x11cc>)
    201c:	f000 fd28 	bl	2a70 <Print::printNumber(unsigned long, unsigned char, unsigned char)>
    2020:	210d      	movs	r1, #13
    2022:	4896      	ldr	r0, [pc, #600]	; (227c <setup+0x11d8>)
    2024:	f002 fb6e 	bl	4704 <usb_serial_write>
    2028:	4623      	mov	r3, r4
    202a:	220a      	movs	r2, #10
    202c:	ee1e 1a90 	vmov	r1, s29
    2030:	488f      	ldr	r0, [pc, #572]	; (2270 <setup+0x11cc>)
    2032:	f000 fd1d 	bl	2a70 <Print::printNumber(unsigned long, unsigned char, unsigned char)>
    2036:	2109      	movs	r1, #9
    2038:	4891      	ldr	r0, [pc, #580]	; (2280 <setup+0x11dc>)
    203a:	f002 fb63 	bl	4704 <usb_serial_write>
    203e:	4623      	mov	r3, r4
    2040:	220a      	movs	r2, #10
    2042:	9915      	ldr	r1, [sp, #84]	; 0x54
    2044:	488a      	ldr	r0, [pc, #552]	; (2270 <setup+0x11cc>)
    2046:	f000 fd13 	bl	2a70 <Print::printNumber(unsigned long, unsigned char, unsigned char)>
    204a:	2107      	movs	r1, #7
    204c:	488d      	ldr	r0, [pc, #564]	; (2284 <setup+0x11e0>)
    204e:	f002 fb59 	bl	4704 <usb_serial_write>
    2052:	2103      	movs	r1, #3
    2054:	eeb7 0aca 	vcvt.f64.f32	d0, s20
    2058:	4885      	ldr	r0, [pc, #532]	; (2270 <setup+0x11cc>)
    205a:	f000 fd5d 	bl	2b18 <Print::printFloat(double, unsigned char)>
    205e:	4884      	ldr	r0, [pc, #528]	; (2270 <setup+0x11cc>)
    2060:	f000 fcf8 	bl	2a54 <Print::println()>
    2064:	f002 fb82 	bl	476c <usb_serial_flush_output>
    2068:	462b      	mov	r3, r5
    206a:	4632      	mov	r2, r6
    206c:	4648      	mov	r0, r9
    206e:	ee1b 1a90 	vmov	r1, s23
    2072:	f7fe f845 	bl	100 <renderReference(TextureCase const&, CoordCase const&, SampleMode, unsigned long, unsigned short*) [clone .constprop.0]>
    2076:	230c      	movs	r3, #12
    2078:	4632      	mov	r2, r6
    207a:	4648      	mov	r0, r9
    207c:	9300      	str	r3, [sp, #0]
    207e:	462b      	mov	r3, r5
    2080:	f7fe fab6 	bl	5f0 <renderCandidate(TextureCase const&, CoordCase const&, SampleMode, unsigned long, int, unsigned short*) [clone .constprop.0]>
    2084:	2d00      	cmp	r5, #0
    2086:	f000 83a7 	beq.w	27d8 <setup+0x1734>
    208a:	f8df e1d4 	ldr.w	lr, [pc, #468]	; 2260 <setup+0x11bc>
    208e:	46a3      	mov	fp, r4
    2090:	f8df c1f8 	ldr.w	ip, [pc, #504]	; 228c <setup+0x11e8>
    2094:	940e      	str	r4, [sp, #56]	; 0x38
    2096:	940f      	str	r4, [sp, #60]	; 0x3c
    2098:	940d      	str	r4, [sp, #52]	; 0x34
    209a:	9403      	str	r4, [sp, #12]
    209c:	e9cd 440a 	strd	r4, r4, [sp, #40]	; 0x28
    20a0:	f83c 4b02 	ldrh.w	r4, [ip], #2
    20a4:	f83e 2b02 	ldrh.w	r2, [lr], #2
    20a8:	f004 031f 	and.w	r3, r4, #31
    20ac:	f3c4 1145 	ubfx	r1, r4, #5, #6
    20b0:	0ad0      	lsrs	r0, r2, #11
    20b2:	42a2      	cmp	r2, r4
    20b4:	ebc0 20d4 	rsb	r0, r0, r4, lsr #11
    20b8:	d002      	beq.n	20c0 <setup+0x101c>
    20ba:	9c03      	ldr	r4, [sp, #12]
    20bc:	3401      	adds	r4, #1
    20be:	9403      	str	r4, [sp, #12]
    20c0:	f002 041f 	and.w	r4, r2, #31
    20c4:	f3c2 1245 	ubfx	r2, r2, #5, #6
    20c8:	2800      	cmp	r0, #0
    20ca:	eba3 0304 	sub.w	r3, r3, r4
    20ce:	eba1 0102 	sub.w	r1, r1, r2
    20d2:	fb00 f200 	mul.w	r2, r0, r0
    20d6:	bfb8      	it	lt
    20d8:	4240      	neglt	r0, r0
    20da:	2b00      	cmp	r3, #0
    20dc:	fb01 2201 	mla	r2, r1, r1, r2
    20e0:	fb03 2203 	mla	r2, r3, r3, r2
    20e4:	bfb8      	it	lt
    20e6:	425b      	neglt	r3, r3
    20e8:	2900      	cmp	r1, #0
    20ea:	bfb8      	it	lt
    20ec:	4249      	neglt	r1, r1
    20ee:	4283      	cmp	r3, r0
    20f0:	eb01 0400 	add.w	r4, r1, r0
    20f4:	441c      	add	r4, r3
    20f6:	bfb8      	it	lt
    20f8:	4603      	movlt	r3, r0
    20fa:	428b      	cmp	r3, r1
    20fc:	bfb8      	it	lt
    20fe:	460b      	movlt	r3, r1
    2100:	2b01      	cmp	r3, #1
    2102:	dd02      	ble.n	210a <setup+0x1066>
    2104:	990a      	ldr	r1, [sp, #40]	; 0x28
    2106:	3101      	adds	r1, #1
    2108:	910a      	str	r1, [sp, #40]	; 0x28
    210a:	990b      	ldr	r1, [sp, #44]	; 0x2c
    210c:	4299      	cmp	r1, r3
    210e:	bf38      	it	cc
    2110:	4619      	movcc	r1, r3
    2112:	eb14 0b0b 	adds.w	fp, r4, fp
    2116:	9b0d      	ldr	r3, [sp, #52]	; 0x34
    2118:	910b      	str	r1, [sp, #44]	; 0x2c
    211a:	eb43 73e4 	adc.w	r3, r3, r4, asr #31
    211e:	990f      	ldr	r1, [sp, #60]	; 0x3c
    2120:	930d      	str	r3, [sp, #52]	; 0x34
    2122:	9b0e      	ldr	r3, [sp, #56]	; 0x38
    2124:	18d3      	adds	r3, r2, r3
    2126:	eb41 72e2 	adc.w	r2, r1, r2, asr #31
    212a:	e9cd 320e 	strd	r3, r2, [sp, #56]	; 0x38
    212e:	9b04      	ldr	r3, [sp, #16]
    2130:	4563      	cmp	r3, ip
    2132:	d1b5      	bne.n	20a0 <setup+0xffc>
    2134:	9b03      	ldr	r3, [sp, #12]
    2136:	2d05      	cmp	r5, #5
    2138:	f8cd b04c 	str.w	fp, [sp, #76]	; 0x4c
    213c:	fab3 f483 	clz	r4, r3
    2140:	ea4f 1454 	mov.w	r4, r4, lsr #5
    2144:	f240 8350 	bls.w	27e8 <setup+0x1744>
    2148:	2d10      	cmp	r5, #16
    214a:	f240 83e7 	bls.w	291c <setup+0x1878>
    214e:	2d40      	cmp	r5, #64	; 0x40
    2150:	f240 83eb 	bls.w	292a <setup+0x1886>
    2154:	2d80      	cmp	r5, #128	; 0x80
    2156:	bf94      	ite	ls
    2158:	f04f 0b30 	movls.w	fp, #48	; 0x30
    215c:	f04f 0b14 	movhi.w	fp, #20
    2160:	4b49      	ldr	r3, [pc, #292]	; (2288 <setup+0x11e4>)
    2162:	685b      	ldr	r3, [r3, #4]
    2164:	9314      	str	r3, [sp, #80]	; 0x50
    2166:	2300      	movs	r3, #0
    2168:	9308      	str	r3, [sp, #32]
    216a:	f000 ff27 	bl	2fbc <micros>
    216e:	9b08      	ldr	r3, [sp, #32]
    2170:	ee1b 1a90 	vmov	r1, s23
    2174:	9009      	str	r0, [sp, #36]	; 0x24
    2176:	9310      	str	r3, [sp, #64]	; 0x40
    2178:	4623      	mov	r3, r4
    217a:	462c      	mov	r4, r5
    217c:	461d      	mov	r5, r3
    217e:	4623      	mov	r3, r4
    2180:	4632      	mov	r2, r6
    2182:	4648      	mov	r0, r9
    2184:	f7fd ffbc 	bl	100 <renderReference(TextureCase const&, CoordCase const&, SampleMode, unsigned long, unsigned short*) [clone .constprop.0]>
    2188:	2c00      	cmp	r4, #0
    218a:	f000 8319 	beq.w	27c0 <setup+0x171c>
    218e:	4a3f      	ldr	r2, [pc, #252]	; (228c <setup+0x11e8>)
    2190:	f8df c0d0 	ldr.w	ip, [pc, #208]	; 2264 <setup+0x11c0>
    2194:	f832 3b02 	ldrh.w	r3, [r2], #2
    2198:	ea83 0c0c 	eor.w	ip, r3, ip
    219c:	4b32      	ldr	r3, [pc, #200]	; (2268 <setup+0x11c4>)
    219e:	fb03 fc0c 	mul.w	ip, r3, ip
    21a2:	9b04      	ldr	r3, [sp, #16]
    21a4:	4293      	cmp	r3, r2
    21a6:	d1f5      	bne.n	2194 <setup+0x10f0>
    21a8:	9a10      	ldr	r2, [sp, #64]	; 0x40
    21aa:	9b08      	ldr	r3, [sp, #32]
    21ac:	4494      	add	ip, r2
    21ae:	ea83 030c 	eor.w	r3, r3, ip
    21b2:	f102 0c01 	add.w	ip, r2, #1
    21b6:	45e3      	cmp	fp, ip
    21b8:	9308      	str	r3, [sp, #32]
    21ba:	f040 8308 	bne.w	27ce <setup+0x172a>
    21be:	462a      	mov	r2, r5
    21c0:	f8cd c054 	str.w	ip, [sp, #84]	; 0x54
    21c4:	4625      	mov	r5, r4
    21c6:	4614      	mov	r4, r2
    21c8:	f000 fef8 	bl	2fbc <micros>
    21cc:	9a09      	ldr	r2, [sp, #36]	; 0x24
    21ce:	9914      	ldr	r1, [sp, #80]	; 0x50
    21d0:	1a82      	subs	r2, r0, r2
    21d2:	2000      	movs	r0, #0
    21d4:	9212      	str	r2, [sp, #72]	; 0x48
    21d6:	4a2c      	ldr	r2, [pc, #176]	; (2288 <setup+0x11e4>)
    21d8:	9009      	str	r0, [sp, #36]	; 0x24
    21da:	6853      	ldr	r3, [r2, #4]
    21dc:	482c      	ldr	r0, [pc, #176]	; (2290 <setup+0x11ec>)
    21de:	1a5b      	subs	r3, r3, r1
    21e0:	9908      	ldr	r1, [sp, #32]
    21e2:	ee0e 3a10 	vmov	s28, r3
    21e6:	6803      	ldr	r3, [r0, #0]
    21e8:	4059      	eors	r1, r3
    21ea:	6001      	str	r1, [r0, #0]
    21ec:	6853      	ldr	r3, [r2, #4]
    21ee:	9308      	str	r3, [sp, #32]
    21f0:	f000 fee4 	bl	2fbc <micros>
    21f4:	f8dd b024 	ldr.w	fp, [sp, #36]	; 0x24
    21f8:	9014      	str	r0, [sp, #80]	; 0x50
    21fa:	230c      	movs	r3, #12
    21fc:	4632      	mov	r2, r6
    21fe:	ee1b 1a90 	vmov	r1, s23
    2202:	4648      	mov	r0, r9
    2204:	9300      	str	r3, [sp, #0]
    2206:	462b      	mov	r3, r5
    2208:	f7fe f9f2 	bl	5f0 <renderCandidate(TextureCase const&, CoordCase const&, SampleMode, unsigned long, int, unsigned short*) [clone .constprop.0]>
    220c:	2d00      	cmp	r5, #0
    220e:	f000 82c7 	beq.w	27a0 <setup+0x16fc>
    2212:	4b13      	ldr	r3, [pc, #76]	; (2260 <setup+0x11bc>)
    2214:	4913      	ldr	r1, [pc, #76]	; (2264 <setup+0x11c0>)
    2216:	f833 2b02 	ldrh.w	r2, [r3], #2
    221a:	4051      	eors	r1, r2
    221c:	4a12      	ldr	r2, [pc, #72]	; (2268 <setup+0x11c4>)
    221e:	fb02 f101 	mul.w	r1, r2, r1
    2222:	9a06      	ldr	r2, [sp, #24]
    2224:	429a      	cmp	r2, r3
    2226:	d1f6      	bne.n	2216 <setup+0x1172>
    2228:	4459      	add	r1, fp
    222a:	9b09      	ldr	r3, [sp, #36]	; 0x24
    222c:	404b      	eors	r3, r1
    222e:	9910      	ldr	r1, [sp, #64]	; 0x40
    2230:	458b      	cmp	fp, r1
    2232:	9309      	str	r3, [sp, #36]	; 0x24
    2234:	f10b 0301 	add.w	r3, fp, #1
    2238:	f040 82cc 	bne.w	27d4 <setup+0x1730>
    223c:	f000 febe 	bl	2fbc <micros>
    2240:	4b11      	ldr	r3, [pc, #68]	; (2288 <setup+0x11e4>)
    2242:	9908      	ldr	r1, [sp, #32]
    2244:	685b      	ldr	r3, [r3, #4]
    2246:	9a09      	ldr	r2, [sp, #36]	; 0x24
    2248:	eba3 0b01 	sub.w	fp, r3, r1
    224c:	4910      	ldr	r1, [pc, #64]	; (2290 <setup+0x11ec>)
    224e:	680b      	ldr	r3, [r1, #0]
    2250:	405a      	eors	r2, r3
    2252:	9b14      	ldr	r3, [sp, #80]	; 0x50
    2254:	1ac3      	subs	r3, r0, r3
    2256:	600a      	str	r2, [r1, #0]
    2258:	e01c      	b.n	2294 <setup+0x11f0>
    225a:	bf00      	nop
    225c:	20000458 	.word	0x20000458
    2260:	20003308 	.word	0x20003308
    2264:	811c9dc5 	.word	0x811c9dc5
    2268:	01000193 	.word	0x01000193
    226c:	20000468 	.word	0x20000468
    2270:	20000930 	.word	0x20000930
    2274:	20000478 	.word	0x20000478
    2278:	20000488 	.word	0x20000488
    227c:	20000498 	.word	0x20000498
    2280:	200004a8 	.word	0x200004a8
    2284:	200004b4 	.word	0x200004b4
    2288:	e0001000 	.word	0xe0001000
    228c:	20001088 	.word	0x20001088
    2290:	20003588 	.word	0x20003588
    2294:	9308      	str	r3, [sp, #32]
    2296:	f000 82f9 	beq.w	288c <setup+0x17e8>
    229a:	eddd 7a12 	vldr	s15, [sp, #72]	; 0x48
    229e:	ee07 3a10 	vmov	s14, r3
    22a2:	eef8 7a67 	vcvt.f32.u32	s15, s15
    22a6:	eeb8 7a47 	vcvt.f32.u32	s14, s14
    22aa:	ee77 7ac7 	vsub.f32	s15, s15, s14
    22ae:	ee67 7aa8 	vmul.f32	s15, s15, s17
    22b2:	ee87 aa87 	vdiv.f32	s20, s15, s14
    22b6:	2d00      	cmp	r5, #0
    22b8:	f000 82e1 	beq.w	287e <setup+0x17da>
    22bc:	eddd 7a03 	vldr	s15, [sp, #12]
    22c0:	990d      	ldr	r1, [sp, #52]	; 0x34
    22c2:	9813      	ldr	r0, [sp, #76]	; 0x4c
    22c4:	eeb8 7a67 	vcvt.f32.u32	s14, s15
    22c8:	ee07 5a90 	vmov	s15, r5
    22cc:	eeb8 9ae9 	vcvt.f32.s32	s18, s19
    22d0:	eef8 7ae7 	vcvt.f32.s32	s15, s15
    22d4:	ee27 7a28 	vmul.f32	s14, s14, s17
    22d8:	ee87 ba27 	vdiv.f32	s22, s14, s15
    22dc:	f003 f88a 	bl	53f4 <__aeabi_ul2f>
    22e0:	ee07 0a90 	vmov	s15, r0
    22e4:	eec7 aa89 	vdiv.f32	s21, s15, s18
    22e8:	e9dd 010e 	ldrd	r0, r1, [sp, #56]	; 0x38
    22ec:	f003 f882 	bl	53f4 <__aeabi_ul2f>
    22f0:	ee07 0a90 	vmov	s15, r0
    22f4:	ee87 0a89 	vdiv.f32	s0, s15, s18
    22f8:	eeb5 0a40 	vcmp.f32	s0, #0.0
    22fc:	eef1 fa10 	vmrs	APSR_nzcv, fpscr
    2300:	f100 8326 	bmi.w	2950 <setup+0x18ac>
    2304:	eeb1 9ac0 	vsqrt.f32	s18, s0
    2308:	2105      	movs	r1, #5
    230a:	48d3      	ldr	r0, [pc, #844]	; (2658 <setup+0x15b4>)
    230c:	f002 f9fa 	bl	4704 <usb_serial_write>
    2310:	b137      	cbz	r7, 2320 <setup+0x127c>
    2312:	4638      	mov	r0, r7
    2314:	f003 f934 	bl	5580 <strlen>
    2318:	4601      	mov	r1, r0
    231a:	4638      	mov	r0, r7
    231c:	f002 f9f2 	bl	4704 <usb_serial_write>
    2320:	2101      	movs	r1, #1
    2322:	48ce      	ldr	r0, [pc, #824]	; (265c <setup+0x15b8>)
    2324:	f002 f9ee 	bl	4704 <usb_serial_write>
    2328:	f1b8 0f00 	cmp.w	r8, #0
    232c:	d006      	beq.n	233c <setup+0x1298>
    232e:	4640      	mov	r0, r8
    2330:	f003 f926 	bl	5580 <strlen>
    2334:	4601      	mov	r1, r0
    2336:	4640      	mov	r0, r8
    2338:	f002 f9e4 	bl	4704 <usb_serial_write>
    233c:	2106      	movs	r1, #6
    233e:	48c8      	ldr	r0, [pc, #800]	; (2660 <setup+0x15bc>)
    2340:	f002 f9e0 	bl	4704 <usb_serial_write>
    2344:	ee1f 1a10 	vmov	r1, s30
    2348:	ee1c 0a90 	vmov	r0, s25
    234c:	f002 f9da 	bl	4704 <usb_serial_write>
    2350:	2109      	movs	r1, #9
    2352:	48c4      	ldr	r0, [pc, #784]	; (2664 <setup+0x15c0>)
    2354:	f002 f9d6 	bl	4704 <usb_serial_write>
    2358:	210b      	movs	r1, #11
    235a:	48c3      	ldr	r0, [pc, #780]	; (2668 <setup+0x15c4>)
    235c:	f002 f9d2 	bl	4704 <usb_serial_write>
    2360:	2106      	movs	r1, #6
    2362:	48c2      	ldr	r0, [pc, #776]	; (266c <setup+0x15c8>)
    2364:	f002 f9ce 	bl	4704 <usb_serial_write>
    2368:	2100      	movs	r1, #0
    236a:	48c1      	ldr	r0, [pc, #772]	; (2670 <setup+0x15cc>)
    236c:	f000 fb0c 	bl	2988 <Print::print(long)>
    2370:	210d      	movs	r1, #13
    2372:	48c0      	ldr	r0, [pc, #768]	; (2674 <setup+0x15d0>)
    2374:	f002 f9c6 	bl	4704 <usb_serial_write>
    2378:	ee1c 1a10 	vmov	r1, s24
    237c:	48bc      	ldr	r0, [pc, #752]	; (2670 <setup+0x15cc>)
    237e:	f000 fb03 	bl	2988 <Print::print(long)>
    2382:	2106      	movs	r1, #6
    2384:	48bc      	ldr	r0, [pc, #752]	; (2678 <setup+0x15d4>)
    2386:	f002 f9bd 	bl	4704 <usb_serial_write>
    238a:	ee1f 1a90 	vmov	r1, s31
    238e:	ee1d 0a10 	vmov	r0, s26
    2392:	f002 f9b7 	bl	4704 <usb_serial_write>
    2396:	2105      	movs	r1, #5
    2398:	48b8      	ldr	r0, [pc, #736]	; (267c <setup+0x15d8>)
    239a:	f002 f9b3 	bl	4704 <usb_serial_write>
    239e:	9905      	ldr	r1, [sp, #20]
    23a0:	48b3      	ldr	r0, [pc, #716]	; (2670 <setup+0x15cc>)
    23a2:	f000 faf1 	bl	2988 <Print::print(long)>
    23a6:	2101      	movs	r1, #1
    23a8:	48b5      	ldr	r0, [pc, #724]	; (2680 <setup+0x15dc>)
    23aa:	f002 f9ab 	bl	4704 <usb_serial_write>
    23ae:	9907      	ldr	r1, [sp, #28]
    23b0:	48af      	ldr	r0, [pc, #700]	; (2670 <setup+0x15cc>)
    23b2:	f000 fae9 	bl	2988 <Print::print(long)>
    23b6:	2106      	movs	r1, #6
    23b8:	48b2      	ldr	r0, [pc, #712]	; (2684 <setup+0x15e0>)
    23ba:	f002 f9a3 	bl	4704 <usb_serial_write>
    23be:	210c      	movs	r1, #12
    23c0:	48ab      	ldr	r0, [pc, #684]	; (2670 <setup+0x15cc>)
    23c2:	f000 fae1 	bl	2988 <Print::print(long)>
    23c6:	2105      	movs	r1, #5
    23c8:	48af      	ldr	r0, [pc, #700]	; (2688 <setup+0x15e4>)
    23ca:	f002 f99b 	bl	4704 <usb_serial_write>
    23ce:	2300      	movs	r3, #0
    23d0:	220a      	movs	r2, #10
    23d2:	4629      	mov	r1, r5
    23d4:	48a6      	ldr	r0, [pc, #664]	; (2670 <setup+0x15cc>)
    23d6:	f000 fb4b 	bl	2a70 <Print::printNumber(unsigned long, unsigned char, unsigned char)>
    23da:	2109      	movs	r1, #9
    23dc:	48ab      	ldr	r0, [pc, #684]	; (268c <setup+0x15e8>)
    23de:	f002 f991 	bl	4704 <usb_serial_write>
    23e2:	4621      	mov	r1, r4
    23e4:	48a2      	ldr	r0, [pc, #648]	; (2670 <setup+0x15cc>)
    23e6:	f000 facf 	bl	2988 <Print::print(long)>
    23ea:	2112      	movs	r1, #18
    23ec:	48a8      	ldr	r0, [pc, #672]	; (2690 <setup+0x15ec>)
    23ee:	f002 f989 	bl	4704 <usb_serial_write>
    23f2:	2300      	movs	r3, #0
    23f4:	220a      	movs	r2, #10
    23f6:	9903      	ldr	r1, [sp, #12]
    23f8:	489d      	ldr	r0, [pc, #628]	; (2670 <setup+0x15cc>)
    23fa:	f000 fb39 	bl	2a70 <Print::printNumber(unsigned long, unsigned char, unsigned char)>
    23fe:	210e      	movs	r1, #14
    2400:	48a4      	ldr	r0, [pc, #656]	; (2694 <setup+0x15f0>)
    2402:	f002 f97f 	bl	4704 <usb_serial_write>
    2406:	eeb7 0acb 	vcvt.f64.f32	d0, s22
    240a:	2103      	movs	r1, #3
    240c:	4898      	ldr	r0, [pc, #608]	; (2670 <setup+0x15cc>)
    240e:	f000 fb83 	bl	2b18 <Print::printFloat(double, unsigned char)>
    2412:	2117      	movs	r1, #23
    2414:	48a0      	ldr	r0, [pc, #640]	; (2698 <setup+0x15f4>)
    2416:	f002 f975 	bl	4704 <usb_serial_write>
    241a:	2300      	movs	r3, #0
    241c:	220a      	movs	r2, #10
    241e:	990b      	ldr	r1, [sp, #44]	; 0x2c
    2420:	4893      	ldr	r0, [pc, #588]	; (2670 <setup+0x15cc>)
    2422:	f000 fb25 	bl	2a70 <Print::printNumber(unsigned long, unsigned char, unsigned char)>
    2426:	2118      	movs	r1, #24
    2428:	489c      	ldr	r0, [pc, #624]	; (269c <setup+0x15f8>)
    242a:	f002 f96b 	bl	4704 <usb_serial_write>
    242e:	eeb7 0aea 	vcvt.f64.f32	d0, s21
    2432:	2105      	movs	r1, #5
    2434:	488e      	ldr	r0, [pc, #568]	; (2670 <setup+0x15cc>)
    2436:	f000 fb6f 	bl	2b18 <Print::printFloat(double, unsigned char)>
    243a:	2106      	movs	r1, #6
    243c:	4898      	ldr	r0, [pc, #608]	; (26a0 <setup+0x15fc>)
    243e:	f002 f961 	bl	4704 <usb_serial_write>
    2442:	eeb7 0ac9 	vcvt.f64.f32	d0, s18
    2446:	2105      	movs	r1, #5
    2448:	4889      	ldr	r0, [pc, #548]	; (2670 <setup+0x15cc>)
    244a:	f000 fb65 	bl	2b18 <Print::printFloat(double, unsigned char)>
    244e:	210c      	movs	r1, #12
    2450:	4894      	ldr	r0, [pc, #592]	; (26a4 <setup+0x1600>)
    2452:	f002 f957 	bl	4704 <usb_serial_write>
    2456:	990a      	ldr	r1, [sp, #40]	; 0x28
    2458:	2300      	movs	r3, #0
    245a:	220a      	movs	r2, #10
    245c:	4884      	ldr	r0, [pc, #528]	; (2670 <setup+0x15cc>)
    245e:	f000 fb07 	bl	2a70 <Print::printNumber(unsigned long, unsigned char, unsigned char)>
    2462:	210d      	movs	r1, #13
    2464:	4890      	ldr	r0, [pc, #576]	; (26a8 <setup+0x1604>)
    2466:	f002 f94d 	bl	4704 <usb_serial_write>
    246a:	2d00      	cmp	r5, #0
    246c:	f000 81fc 	beq.w	2868 <setup+0x17c4>
    2470:	4a8e      	ldr	r2, [pc, #568]	; (26ac <setup+0x1608>)
    2472:	4b8f      	ldr	r3, [pc, #572]	; (26b0 <setup+0x160c>)
    2474:	f832 1b02 	ldrh.w	r1, [r2], #2
    2478:	404b      	eors	r3, r1
    247a:	498e      	ldr	r1, [pc, #568]	; (26b4 <setup+0x1610>)
    247c:	fb01 f303 	mul.w	r3, r1, r3
    2480:	9904      	ldr	r1, [sp, #16]
    2482:	4291      	cmp	r1, r2
    2484:	d1f6      	bne.n	2474 <setup+0x13d0>
    2486:	f3c3 6003 	ubfx	r0, r3, #24, #4
    248a:	f3c3 3403 	ubfx	r4, r3, #12, #4
    248e:	f003 0e0f 	and.w	lr, r3, #15
    2492:	f3c3 2c03 	ubfx	ip, r3, #8, #4
    2496:	f3c3 1703 	ubfx	r7, r3, #4, #4
    249a:	f3c3 5203 	ubfx	r2, r3, #20, #4
    249e:	f3c3 4103 	ubfx	r1, r3, #16, #4
    24a2:	0f1b      	lsrs	r3, r3, #28
    24a4:	f81a 8003 	ldrb.w	r8, [sl, r3]
    24a8:	f81a 4004 	ldrb.w	r4, [sl, r4]
    24ac:	f81a 300c 	ldrb.w	r3, [sl, ip]
    24b0:	f81a c000 	ldrb.w	ip, [sl, r0]
    24b4:	f81a 0007 	ldrb.w	r0, [sl, r7]
    24b8:	f81a 7002 	ldrb.w	r7, [sl, r2]
    24bc:	f81a 200e 	ldrb.w	r2, [sl, lr]
    24c0:	f81a e001 	ldrb.w	lr, [sl, r1]
    24c4:	2100      	movs	r1, #0
    24c6:	f364 0107 	bfi	r1, r4, #0, #8
    24ca:	f363 210f 	bfi	r1, r3, #8, #8
    24ce:	2300      	movs	r3, #0
    24d0:	f368 0307 	bfi	r3, r8, #0, #8
    24d4:	f360 4117 	bfi	r1, r0, #16, #8
    24d8:	a817      	add	r0, sp, #92	; 0x5c
    24da:	f36c 230f 	bfi	r3, ip, #8, #8
    24de:	f362 611f 	bfi	r1, r2, #24, #8
    24e2:	f367 4317 	bfi	r3, r7, #16, #8
    24e6:	9118      	str	r1, [sp, #96]	; 0x60
    24e8:	f36e 631f 	bfi	r3, lr, #24, #8
    24ec:	9317      	str	r3, [sp, #92]	; 0x5c
    24ee:	2300      	movs	r3, #0
    24f0:	f88d 3064 	strb.w	r3, [sp, #100]	; 0x64
    24f4:	f003 f844 	bl	5580 <strlen>
    24f8:	4601      	mov	r1, r0
    24fa:	a817      	add	r0, sp, #92	; 0x5c
    24fc:	f002 f902 	bl	4704 <usb_serial_write>
    2500:	210e      	movs	r1, #14
    2502:	486d      	ldr	r0, [pc, #436]	; (26b8 <setup+0x1614>)
    2504:	f002 f8fe 	bl	4704 <usb_serial_write>
    2508:	2d00      	cmp	r5, #0
    250a:	f000 81a2 	beq.w	2852 <setup+0x17ae>
    250e:	4a6b      	ldr	r2, [pc, #428]	; (26bc <setup+0x1618>)
    2510:	4b67      	ldr	r3, [pc, #412]	; (26b0 <setup+0x160c>)
    2512:	f832 1b02 	ldrh.w	r1, [r2], #2
    2516:	404b      	eors	r3, r1
    2518:	4966      	ldr	r1, [pc, #408]	; (26b4 <setup+0x1610>)
    251a:	fb01 f303 	mul.w	r3, r1, r3
    251e:	9906      	ldr	r1, [sp, #24]
    2520:	4291      	cmp	r1, r2
    2522:	d1f6      	bne.n	2512 <setup+0x146e>
    2524:	f003 0e0f 	and.w	lr, r3, #15
    2528:	f3c3 1403 	ubfx	r4, r3, #4, #4
    252c:	f3c3 3c03 	ubfx	ip, r3, #12, #4
    2530:	f3c3 5003 	ubfx	r0, r3, #20, #4
    2534:	f3c3 4203 	ubfx	r2, r3, #16, #4
    2538:	f3c3 6103 	ubfx	r1, r3, #24, #4
    253c:	0f1f      	lsrs	r7, r3, #28
    253e:	f3c3 2303 	ubfx	r3, r3, #8, #4
    2542:	f81a c00c 	ldrb.w	ip, [sl, ip]
    2546:	f81a 8001 	ldrb.w	r8, [sl, r1]
    254a:	f81a 1004 	ldrb.w	r1, [sl, r4]
    254e:	f81a 4000 	ldrb.w	r4, [sl, r0]
    2552:	f81a 000e 	ldrb.w	r0, [sl, lr]
    2556:	f81a e002 	ldrb.w	lr, [sl, r2]
    255a:	2200      	movs	r2, #0
    255c:	f81a 3003 	ldrb.w	r3, [sl, r3]
    2560:	f36c 0207 	bfi	r2, ip, #0, #8
    2564:	f81a 7007 	ldrb.w	r7, [sl, r7]
    2568:	f363 220f 	bfi	r2, r3, #8, #8
    256c:	2300      	movs	r3, #0
    256e:	f367 0307 	bfi	r3, r7, #0, #8
    2572:	f361 4217 	bfi	r2, r1, #16, #8
    2576:	ee1b 7a90 	vmov	r7, s23
    257a:	f368 230f 	bfi	r3, r8, #8, #8
    257e:	f360 621f 	bfi	r2, r0, #24, #8
    2582:	f04f 0800 	mov.w	r8, #0
    2586:	a817      	add	r0, sp, #92	; 0x5c
    2588:	f364 4317 	bfi	r3, r4, #16, #8
    258c:	9218      	str	r2, [sp, #96]	; 0x60
    258e:	f88d 8064 	strb.w	r8, [sp, #100]	; 0x64
    2592:	2401      	movs	r4, #1
    2594:	f36e 631f 	bfi	r3, lr, #24, #8
    2598:	9317      	str	r3, [sp, #92]	; 0x5c
    259a:	f002 fff1 	bl	5580 <strlen>
    259e:	4601      	mov	r1, r0
    25a0:	a817      	add	r0, sp, #92	; 0x5c
    25a2:	f002 f8af 	bl	4704 <usb_serial_write>
    25a6:	210d      	movs	r1, #13
    25a8:	4845      	ldr	r0, [pc, #276]	; (26c0 <setup+0x161c>)
    25aa:	f002 f8ab 	bl	4704 <usb_serial_write>
    25ae:	4643      	mov	r3, r8
    25b0:	220a      	movs	r2, #10
    25b2:	9912      	ldr	r1, [sp, #72]	; 0x48
    25b4:	482e      	ldr	r0, [pc, #184]	; (2670 <setup+0x15cc>)
    25b6:	f000 fa5b 	bl	2a70 <Print::printNumber(unsigned long, unsigned char, unsigned char)>
    25ba:	210e      	movs	r1, #14
    25bc:	4841      	ldr	r0, [pc, #260]	; (26c4 <setup+0x1620>)
    25be:	f002 f8a1 	bl	4704 <usb_serial_write>
    25c2:	4643      	mov	r3, r8
    25c4:	220a      	movs	r2, #10
    25c6:	9908      	ldr	r1, [sp, #32]
    25c8:	4829      	ldr	r0, [pc, #164]	; (2670 <setup+0x15cc>)
    25ca:	f000 fa51 	bl	2a70 <Print::printNumber(unsigned long, unsigned char, unsigned char)>
    25ce:	210c      	movs	r1, #12
    25d0:	483d      	ldr	r0, [pc, #244]	; (26c8 <setup+0x1624>)
    25d2:	f002 f897 	bl	4704 <usb_serial_write>
    25d6:	4643      	mov	r3, r8
    25d8:	220a      	movs	r2, #10
    25da:	ee1e 1a10 	vmov	r1, s28
    25de:	4824      	ldr	r0, [pc, #144]	; (2670 <setup+0x15cc>)
    25e0:	f000 fa46 	bl	2a70 <Print::printNumber(unsigned long, unsigned char, unsigned char)>
    25e4:	210d      	movs	r1, #13
    25e6:	4839      	ldr	r0, [pc, #228]	; (26cc <setup+0x1628>)
    25e8:	f002 f88c 	bl	4704 <usb_serial_write>
    25ec:	4643      	mov	r3, r8
    25ee:	220a      	movs	r2, #10
    25f0:	4659      	mov	r1, fp
    25f2:	481f      	ldr	r0, [pc, #124]	; (2670 <setup+0x15cc>)
    25f4:	f000 fa3c 	bl	2a70 <Print::printNumber(unsigned long, unsigned char, unsigned char)>
    25f8:	2109      	movs	r1, #9
    25fa:	4835      	ldr	r0, [pc, #212]	; (26d0 <setup+0x162c>)
    25fc:	f002 f882 	bl	4704 <usb_serial_write>
    2600:	4643      	mov	r3, r8
    2602:	220a      	movs	r2, #10
    2604:	9915      	ldr	r1, [sp, #84]	; 0x54
    2606:	481a      	ldr	r0, [pc, #104]	; (2670 <setup+0x15cc>)
    2608:	f000 fa32 	bl	2a70 <Print::printNumber(unsigned long, unsigned char, unsigned char)>
    260c:	2107      	movs	r1, #7
    260e:	4831      	ldr	r0, [pc, #196]	; (26d4 <setup+0x1630>)
    2610:	f002 f878 	bl	4704 <usb_serial_write>
    2614:	eeb7 0aca 	vcvt.f64.f32	d0, s20
    2618:	2103      	movs	r1, #3
    261a:	4815      	ldr	r0, [pc, #84]	; (2670 <setup+0x15cc>)
    261c:	f000 fa7c 	bl	2b18 <Print::printFloat(double, unsigned char)>
    2620:	4813      	ldr	r0, [pc, #76]	; (2670 <setup+0x15cc>)
    2622:	f000 fa17 	bl	2a54 <Print::println()>
    2626:	f002 f8a1 	bl	476c <usb_serial_flush_output>
    262a:	462b      	mov	r3, r5
    262c:	4632      	mov	r2, r6
    262e:	ee1b 1a90 	vmov	r1, s23
    2632:	4648      	mov	r0, r9
    2634:	f8cd 8000 	str.w	r8, [sp]
    2638:	f7fe f8de 	bl	7f8 <runOne(TextureCase const&, CoordCase const&, SampleMode, unsigned long, int, bool) [clone .constprop.0]>
    263c:	462b      	mov	r3, r5
    263e:	4632      	mov	r2, r6
    2640:	ee1b 1a90 	vmov	r1, s23
    2644:	4648      	mov	r0, r9
    2646:	9400      	str	r4, [sp, #0]
    2648:	f7fe f8d6 	bl	7f8 <runOne(TextureCase const&, CoordCase const&, SampleMode, unsigned long, int, bool) [clone .constprop.0]>
    264c:	9b0c      	ldr	r3, [sp, #48]	; 0x30
    264e:	2b00      	cmp	r3, #0
    2650:	f000 80cd 	beq.w	27ee <setup+0x174a>
    2654:	e040      	b.n	26d8 <setup+0x1634>
    2656:	bf00      	nop
    2658:	20000430 	.word	0x20000430
    265c:	20000438 	.word	0x20000438
    2660:	2000043c 	.word	0x2000043c
    2664:	20000584 	.word	0x20000584
    2668:	200003fc 	.word	0x200003fc
    266c:	20000564 	.word	0x20000564
    2670:	20000930 	.word	0x20000930
    2674:	2000056c 	.word	0x2000056c
    2678:	2000057c 	.word	0x2000057c
    267c:	200004bc 	.word	0x200004bc
    2680:	200004c4 	.word	0x200004c4
    2684:	200004c8 	.word	0x200004c8
    2688:	200004d0 	.word	0x200004d0
    268c:	200004d8 	.word	0x200004d8
    2690:	200004e4 	.word	0x200004e4
    2694:	200004f8 	.word	0x200004f8
    2698:	20000508 	.word	0x20000508
    269c:	20000520 	.word	0x20000520
    26a0:	2000053c 	.word	0x2000053c
    26a4:	20000544 	.word	0x20000544
    26a8:	20000554 	.word	0x20000554
    26ac:	20001088 	.word	0x20001088
    26b0:	811c9dc5 	.word	0x811c9dc5
    26b4:	01000193 	.word	0x01000193
    26b8:	20000458 	.word	0x20000458
    26bc:	20003308 	.word	0x20003308
    26c0:	20000468 	.word	0x20000468
    26c4:	20000478 	.word	0x20000478
    26c8:	20000488 	.word	0x20000488
    26cc:	20000498 	.word	0x20000498
    26d0:	200004a8 	.word	0x200004a8
    26d4:	200004b4 	.word	0x200004b4
    26d8:	9b11      	ldr	r3, [sp, #68]	; 0x44
    26da:	4aa0      	ldr	r2, [pc, #640]	; (295c <setup+0x18b8>)
    26dc:	4293      	cmp	r3, r2
    26de:	f47e ae6c 	bne.w	13ba <setup+0x316>
    26e2:	f107 0920 	add.w	r9, r7, #32
    26e6:	4b9e      	ldr	r3, [pc, #632]	; (2960 <setup+0x18bc>)
    26e8:	4599      	cmp	r9, r3
    26ea:	f47e ae60 	bne.w	13ae <setup+0x30a>
    26ee:	ee1d 9a90 	vmov	r9, s27
    26f2:	4b9c      	ldr	r3, [pc, #624]	; (2964 <setup+0x18c0>)
    26f4:	f109 0910 	add.w	r9, r9, #16
    26f8:	454b      	cmp	r3, r9
    26fa:	f47e ad6b 	bne.w	11d4 <setup+0x130>
    26fe:	2105      	movs	r1, #5
    2700:	4899      	ldr	r0, [pc, #612]	; (2968 <setup+0x18c4>)
    2702:	f001 ffff 	bl	4704 <usb_serial_write>
    2706:	4b99      	ldr	r3, [pc, #612]	; (296c <setup+0x18c8>)
    2708:	4642      	mov	r2, r8
    270a:	4641      	mov	r1, r8
    270c:	681b      	ldr	r3, [r3, #0]
    270e:	f88d 8064 	strb.w	r8, [sp, #100]	; 0x64
    2712:	f3c3 3003 	ubfx	r0, r3, #12, #4
    2716:	f81a 0000 	ldrb.w	r0, [sl, r0]
    271a:	f360 0207 	bfi	r2, r0, #0, #8
    271e:	0f18      	lsrs	r0, r3, #28
    2720:	f81a 0000 	ldrb.w	r0, [sl, r0]
    2724:	f360 0107 	bfi	r1, r0, #0, #8
    2728:	f3c3 2003 	ubfx	r0, r3, #8, #4
    272c:	f81a 0000 	ldrb.w	r0, [sl, r0]
    2730:	f360 220f 	bfi	r2, r0, #8, #8
    2734:	f3c3 6003 	ubfx	r0, r3, #24, #4
    2738:	f81a 0000 	ldrb.w	r0, [sl, r0]
    273c:	f360 210f 	bfi	r1, r0, #8, #8
    2740:	f3c3 1003 	ubfx	r0, r3, #4, #4
    2744:	f81a 0000 	ldrb.w	r0, [sl, r0]
    2748:	f360 4217 	bfi	r2, r0, #16, #8
    274c:	f3c3 5003 	ubfx	r0, r3, #20, #4
    2750:	f81a 0000 	ldrb.w	r0, [sl, r0]
    2754:	f360 4117 	bfi	r1, r0, #16, #8
    2758:	f003 000f 	and.w	r0, r3, #15
    275c:	f3c3 4303 	ubfx	r3, r3, #16, #4
    2760:	f81a 0000 	ldrb.w	r0, [sl, r0]
    2764:	f81a 3003 	ldrb.w	r3, [sl, r3]
    2768:	f360 621f 	bfi	r2, r0, #24, #8
    276c:	a817      	add	r0, sp, #92	; 0x5c
    276e:	f363 611f 	bfi	r1, r3, #24, #8
    2772:	e9cd 1217 	strd	r1, r2, [sp, #92]	; 0x5c
    2776:	f002 ff03 	bl	5580 <strlen>
    277a:	4601      	mov	r1, r0
    277c:	a817      	add	r0, sp, #92	; 0x5c
    277e:	f001 ffc1 	bl	4704 <usb_serial_write>
    2782:	487b      	ldr	r0, [pc, #492]	; (2970 <setup+0x18cc>)
    2784:	f000 f966 	bl	2a54 <Print::println()>
    2788:	2113      	movs	r1, #19
    278a:	487a      	ldr	r0, [pc, #488]	; (2974 <setup+0x18d0>)
    278c:	f001 ffba 	bl	4704 <usb_serial_write>
    2790:	4877      	ldr	r0, [pc, #476]	; (2970 <setup+0x18cc>)
    2792:	b01b      	add	sp, #108	; 0x6c
    2794:	ecbd 8b10 	vpop	{d8-d15}
    2798:	e8bd 4ff0 	ldmia.w	sp!, {r4, r5, r6, r7, r8, r9, sl, fp, lr}
    279c:	f000 b95a 	b.w	2a54 <Print::println()>
    27a0:	4975      	ldr	r1, [pc, #468]	; (2978 <setup+0x18d4>)
    27a2:	e541      	b.n	2228 <setup+0x1184>
    27a4:	4974      	ldr	r1, [pc, #464]	; (2978 <setup+0x18d4>)
    27a6:	f7fe bef9 	b.w	159c <setup+0x4f8>
    27aa:	f8df c1cc 	ldr.w	ip, [pc, #460]	; 2978 <setup+0x18d4>
    27ae:	f7fe beb4 	b.w	151a <setup+0x476>
    27b2:	4971      	ldr	r1, [pc, #452]	; (2978 <setup+0x18d4>)
    27b4:	f7ff ba31 	b.w	1c1a <setup+0xb76>
    27b8:	f8df c1bc 	ldr.w	ip, [pc, #444]	; 2978 <setup+0x18d4>
    27bc:	f7ff b9ed 	b.w	1b9a <setup+0xaf6>
    27c0:	f8df c1b4 	ldr.w	ip, [pc, #436]	; 2978 <setup+0x18d4>
    27c4:	e4f0      	b.n	21a8 <setup+0x1104>
    27c6:	f8cd c040 	str.w	ip, [sp, #64]	; 0x40
    27ca:	f7ff b9d1 	b.w	1b70 <setup+0xacc>
    27ce:	f8cd c040 	str.w	ip, [sp, #64]	; 0x40
    27d2:	e4d4      	b.n	217e <setup+0x10da>
    27d4:	469b      	mov	fp, r3
    27d6:	e510      	b.n	21fa <setup+0x1156>
    27d8:	2401      	movs	r4, #1
    27da:	9503      	str	r5, [sp, #12]
    27dc:	9513      	str	r5, [sp, #76]	; 0x4c
    27de:	950f      	str	r5, [sp, #60]	; 0x3c
    27e0:	e9cd 550a 	strd	r5, r5, [sp, #40]	; 0x28
    27e4:	e9cd 550d 	strd	r5, r5, [sp, #52]	; 0x34
    27e8:	f44f 7b00 	mov.w	fp, #512	; 0x200
    27ec:	e4b8      	b.n	2160 <setup+0x10bc>
    27ee:	940c      	str	r4, [sp, #48]	; 0x30
    27f0:	f7fe bdf5 	b.w	13de <setup+0x33a>
    27f4:	4698      	mov	r8, r3
    27f6:	f7fe beb9 	b.w	156c <setup+0x4c8>
    27fa:	f8cd c038 	str.w	ip, [sp, #56]	; 0x38
    27fe:	f7fe be77 	b.w	14f0 <setup+0x44c>
    2802:	469b      	mov	fp, r3
    2804:	f7ff b9f2 	b.w	1bec <setup+0xb48>
    2808:	2101      	movs	r1, #1
    280a:	220c      	movs	r2, #12
    280c:	2308      	movs	r3, #8
    280e:	f04f 0c0d 	mov.w	ip, #13
    2812:	4608      	mov	r0, r1
    2814:	f04f 0e09 	mov.w	lr, #9
    2818:	4614      	mov	r4, r2
    281a:	f04f 0b05 	mov.w	fp, #5
    281e:	f7ff bbb0 	b.w	1f82 <setup+0xede>
    2822:	2101      	movs	r1, #1
    2824:	220c      	movs	r2, #12
    2826:	2308      	movs	r3, #8
    2828:	f04f 0e09 	mov.w	lr, #9
    282c:	468c      	mov	ip, r1
    282e:	240d      	movs	r4, #13
    2830:	4610      	mov	r0, r2
    2832:	f04f 0b05 	mov.w	fp, #5
    2836:	f7ff bb53 	b.w	1ee0 <setup+0xe3c>
    283a:	eef0 aa48 	vmov.f32	s21, s16
    283e:	eeb0 ba48 	vmov.f32	s22, s16
    2842:	eeb0 9a48 	vmov.f32	s18, s16
    2846:	f7ff ba3b 	b.w	1cc0 <setup+0xc1c>
    284a:	eeb0 aa48 	vmov.f32	s20, s16
    284e:	f7ff ba0e 	b.w	1c6e <setup+0xbca>
    2852:	2101      	movs	r1, #1
    2854:	220c      	movs	r2, #12
    2856:	230d      	movs	r3, #13
    2858:	2708      	movs	r7, #8
    285a:	4608      	mov	r0, r1
    285c:	f04f 0c09 	mov.w	ip, #9
    2860:	4614      	mov	r4, r2
    2862:	f04f 0e05 	mov.w	lr, #5
    2866:	e66c      	b.n	2542 <setup+0x149e>
    2868:	210c      	movs	r1, #12
    286a:	2201      	movs	r2, #1
    286c:	2308      	movs	r3, #8
    286e:	f04f 0c0d 	mov.w	ip, #13
    2872:	460f      	mov	r7, r1
    2874:	f04f 0e05 	mov.w	lr, #5
    2878:	2409      	movs	r4, #9
    287a:	4610      	mov	r0, r2
    287c:	e612      	b.n	24a4 <setup+0x1400>
    287e:	eef0 aa48 	vmov.f32	s21, s16
    2882:	eeb0 ba48 	vmov.f32	s22, s16
    2886:	eeb0 9a48 	vmov.f32	s18, s16
    288a:	e53d      	b.n	2308 <setup+0x1264>
    288c:	eeb0 aa48 	vmov.f32	s20, s16
    2890:	e511      	b.n	22b6 <setup+0x1212>
    2892:	46ab      	mov	fp, r5
    2894:	2401      	movs	r4, #1
    2896:	462f      	mov	r7, r5
    2898:	9508      	str	r5, [sp, #32]
    289a:	9503      	str	r5, [sp, #12]
    289c:	950b      	str	r5, [sp, #44]	; 0x2c
    289e:	9510      	str	r5, [sp, #64]	; 0x40
    28a0:	950d      	str	r5, [sp, #52]	; 0x34
    28a2:	f44f 7800 	mov.w	r8, #512	; 0x200
    28a6:	f7fe be14 	b.w	14d2 <setup+0x42e>
    28aa:	2401      	movs	r4, #1
    28ac:	9509      	str	r5, [sp, #36]	; 0x24
    28ae:	9503      	str	r5, [sp, #12]
    28b0:	950a      	str	r5, [sp, #40]	; 0x28
    28b2:	9513      	str	r5, [sp, #76]	; 0x4c
    28b4:	950d      	str	r5, [sp, #52]	; 0x34
    28b6:	e9cd 550e 	strd	r5, r5, [sp, #56]	; 0x38
    28ba:	f44f 7b00 	mov.w	fp, #512	; 0x200
    28be:	f7ff b948 	b.w	1b52 <setup+0xaae>
    28c2:	2301      	movs	r3, #1
    28c4:	220c      	movs	r2, #12
    28c6:	2408      	movs	r4, #8
    28c8:	f04f 0c09 	mov.w	ip, #9
    28cc:	f04f 0b05 	mov.w	fp, #5
    28d0:	469e      	mov	lr, r3
    28d2:	200d      	movs	r0, #13
    28d4:	4611      	mov	r1, r2
    28d6:	f7ff b810 	b.w	18fa <setup+0x856>
    28da:	2201      	movs	r2, #1
    28dc:	f04f 0b0c 	mov.w	fp, #12
    28e0:	2305      	movs	r3, #5
    28e2:	f04f 0e09 	mov.w	lr, #9
    28e6:	f04f 0c08 	mov.w	ip, #8
    28ea:	4614      	mov	r4, r2
    28ec:	200d      	movs	r0, #13
    28ee:	4659      	mov	r1, fp
    28f0:	f7fe bfb2 	b.w	1858 <setup+0x7b4>
    28f4:	eef0 aa48 	vmov.f32	s21, s16
    28f8:	eeb0 ba48 	vmov.f32	s22, s16
    28fc:	eeb0 9a48 	vmov.f32	s18, s16
    2900:	f7fe be9f 	b.w	1642 <setup+0x59e>
    2904:	eeb0 aa48 	vmov.f32	s20, s16
    2908:	f7fe be72 	b.w	15f0 <setup+0x54c>
    290c:	f44f 7b80 	mov.w	fp, #256	; 0x100
    2910:	f7ff b91f 	b.w	1b52 <setup+0xaae>
    2914:	f44f 7880 	mov.w	r8, #256	; 0x100
    2918:	f7fe bddb 	b.w	14d2 <setup+0x42e>
    291c:	f44f 7b80 	mov.w	fp, #256	; 0x100
    2920:	e41e      	b.n	2160 <setup+0x10bc>
    2922:	f04f 0860 	mov.w	r8, #96	; 0x60
    2926:	f7fe bdd4 	b.w	14d2 <setup+0x42e>
    292a:	f04f 0b60 	mov.w	fp, #96	; 0x60
    292e:	e417      	b.n	2160 <setup+0x10bc>
    2930:	f04f 0b60 	mov.w	fp, #96	; 0x60
    2934:	f7ff b90d 	b.w	1b52 <setup+0xaae>
    2938:	f002 fc6e 	bl	5218 <sqrtf>
    293c:	eeb0 9a40 	vmov.f32	s18, s0
    2940:	f7fe be7f 	b.w	1642 <setup+0x59e>
    2944:	f002 fc68 	bl	5218 <sqrtf>
    2948:	eeb0 9a40 	vmov.f32	s18, s0
    294c:	f7ff b9b8 	b.w	1cc0 <setup+0xc1c>
    2950:	f002 fc62 	bl	5218 <sqrtf>
    2954:	eeb0 9a40 	vmov.f32	s18, s0
    2958:	e4d6      	b.n	2308 <setup+0x1264>
    295a:	bf00      	nop
    295c:	200005bc 	.word	0x200005bc
    2960:	200003a0 	.word	0x200003a0
    2964:	200003f0 	.word	0x200003f0
    2968:	2000069c 	.word	0x2000069c
    296c:	20003588 	.word	0x20003588
    2970:	20000930 	.word	0x20000930
    2974:	200006a4 	.word	0x200006a4
    2978:	811c9dc5 	.word	0x811c9dc5

0000297c <loop>:
    297c:	4770      	bx	lr
    297e:	bf00      	nop

00002980 <usb_serial_class::write(unsigned char)>:
    2980:	4608      	mov	r0, r1
    2982:	f001 bea9 	b.w	46d8 <usb_serial_putchar>
    2986:	bf00      	nop

00002988 <Print::print(long)>:
    2988:	2900      	cmp	r1, #0
    298a:	b5f0      	push	{r4, r5, r6, r7, lr}
    298c:	b08b      	sub	sp, #44	; 0x2c
    298e:	db42      	blt.n	2a16 <Print::print(long)+0x8e>
    2990:	d03b      	beq.n	2a0a <Print::print(long)+0x82>
    2992:	4b2f      	ldr	r3, [pc, #188]	; (2a50 <Print::print(long)+0xc8>)
    2994:	2909      	cmp	r1, #9
    2996:	fba3 3c01 	umull	r3, ip, r3, r1
    299a:	ea4f 0cdc 	mov.w	ip, ip, lsr #3
    299e:	eb0c 038c 	add.w	r3, ip, ip, lsl #2
    29a2:	eba1 0343 	sub.w	r3, r1, r3, lsl #1
    29a6:	f103 0330 	add.w	r3, r3, #48	; 0x30
    29aa:	f88d 3025 	strb.w	r3, [sp, #37]	; 0x25
    29ae:	dd4b      	ble.n	2a48 <Print::print(long)+0xc0>
    29b0:	2700      	movs	r7, #0
    29b2:	2121      	movs	r1, #33	; 0x21
    29b4:	4e26      	ldr	r6, [pc, #152]	; (2a50 <Print::print(long)+0xc8>)
    29b6:	fba6 320c 	umull	r3, r2, r6, ip
    29ba:	1e4b      	subs	r3, r1, #1
    29bc:	460d      	mov	r5, r1
    29be:	46e6      	mov	lr, ip
    29c0:	08d2      	lsrs	r2, r2, #3
    29c2:	b2d9      	uxtb	r1, r3
    29c4:	f1be 0f09 	cmp.w	lr, #9
    29c8:	eb02 0382 	add.w	r3, r2, r2, lsl #2
    29cc:	f101 0428 	add.w	r4, r1, #40	; 0x28
    29d0:	ebac 0343 	sub.w	r3, ip, r3, lsl #1
    29d4:	4694      	mov	ip, r2
    29d6:	446c      	add	r4, sp
    29d8:	f103 0330 	add.w	r3, r3, #48	; 0x30
    29dc:	f804 3c24 	strb.w	r3, [r4, #-36]
    29e0:	d8e9      	bhi.n	29b6 <Print::print(long)+0x2e>
    29e2:	b357      	cbz	r7, 2a3a <Print::print(long)+0xb2>
    29e4:	3d02      	subs	r5, #2
    29e6:	b2ed      	uxtb	r5, r5
    29e8:	4629      	mov	r1, r5
    29ea:	f1c5 0222 	rsb	r2, r5, #34	; 0x22
    29ee:	f105 0328 	add.w	r3, r5, #40	; 0x28
    29f2:	eb0d 0503 	add.w	r5, sp, r3
    29f6:	232d      	movs	r3, #45	; 0x2d
    29f8:	f805 3c24 	strb.w	r3, [r5, #-36]
    29fc:	6803      	ldr	r3, [r0, #0]
    29fe:	ac01      	add	r4, sp, #4
    2a00:	685b      	ldr	r3, [r3, #4]
    2a02:	4421      	add	r1, r4
    2a04:	4798      	blx	r3
    2a06:	b00b      	add	sp, #44	; 0x2c
    2a08:	bdf0      	pop	{r4, r5, r6, r7, pc}
    2a0a:	2330      	movs	r3, #48	; 0x30
    2a0c:	2201      	movs	r2, #1
    2a0e:	2121      	movs	r1, #33	; 0x21
    2a10:	f88d 3025 	strb.w	r3, [sp, #37]	; 0x25
    2a14:	e7f2      	b.n	29fc <Print::print(long)+0x74>
    2a16:	424a      	negs	r2, r1
    2a18:	4b0d      	ldr	r3, [pc, #52]	; (2a50 <Print::print(long)+0xc8>)
    2a1a:	3109      	adds	r1, #9
    2a1c:	fba3 3c02 	umull	r3, ip, r3, r2
    2a20:	ea4f 0cdc 	mov.w	ip, ip, lsr #3
    2a24:	eb0c 038c 	add.w	r3, ip, ip, lsl #2
    2a28:	eba2 0243 	sub.w	r2, r2, r3, lsl #1
    2a2c:	f102 0230 	add.w	r2, r2, #48	; 0x30
    2a30:	f88d 2025 	strb.w	r2, [sp, #37]	; 0x25
    2a34:	da04      	bge.n	2a40 <Print::print(long)+0xb8>
    2a36:	272d      	movs	r7, #45	; 0x2d
    2a38:	e7bb      	b.n	29b2 <Print::print(long)+0x2a>
    2a3a:	f1c1 0222 	rsb	r2, r1, #34	; 0x22
    2a3e:	e7dd      	b.n	29fc <Print::print(long)+0x74>
    2a40:	2120      	movs	r1, #32
    2a42:	2202      	movs	r2, #2
    2a44:	460d      	mov	r5, r1
    2a46:	e7d2      	b.n	29ee <Print::print(long)+0x66>
    2a48:	2201      	movs	r2, #1
    2a4a:	2121      	movs	r1, #33	; 0x21
    2a4c:	e7d6      	b.n	29fc <Print::print(long)+0x74>
    2a4e:	bf00      	nop
    2a50:	cccccccd 	.word	0xcccccccd

00002a54 <Print::println()>:
    2a54:	b500      	push	{lr}
    2a56:	6803      	ldr	r3, [r0, #0]
    2a58:	b083      	sub	sp, #12
    2a5a:	f640 2c0d 	movw	ip, #2573	; 0xa0d
    2a5e:	2202      	movs	r2, #2
    2a60:	a901      	add	r1, sp, #4
    2a62:	685b      	ldr	r3, [r3, #4]
    2a64:	f8ad c004 	strh.w	ip, [sp, #4]
    2a68:	4798      	blx	r3
    2a6a:	b003      	add	sp, #12
    2a6c:	f85d fb04 	ldr.w	pc, [sp], #4

00002a70 <Print::printNumber(unsigned long, unsigned char, unsigned char)>:
    2a70:	b570      	push	{r4, r5, r6, lr}
    2a72:	4606      	mov	r6, r0
    2a74:	b08a      	sub	sp, #40	; 0x28
    2a76:	b95a      	cbnz	r2, 2a90 <Print::printNumber(unsigned long, unsigned char, unsigned char)+0x20>
    2a78:	6803      	ldr	r3, [r0, #0]
    2a7a:	b2c9      	uxtb	r1, r1
    2a7c:	4a25      	ldr	r2, [pc, #148]	; (2b14 <Print::printNumber(unsigned long, unsigned char, unsigned char)+0xa4>)
    2a7e:	681b      	ldr	r3, [r3, #0]
    2a80:	4293      	cmp	r3, r2
    2a82:	d143      	bne.n	2b0c <Print::printNumber(unsigned long, unsigned char, unsigned char)+0x9c>
    2a84:	4608      	mov	r0, r1
    2a86:	b00a      	add	sp, #40	; 0x28
    2a88:	e8bd 4070 	ldmia.w	sp!, {r4, r5, r6, lr}
    2a8c:	f001 be24 	b.w	46d8 <usb_serial_putchar>
    2a90:	2a01      	cmp	r2, #1
    2a92:	bf08      	it	eq
    2a94:	220a      	moveq	r2, #10
    2a96:	b399      	cbz	r1, 2b00 <Print::printNumber(unsigned long, unsigned char, unsigned char)+0x90>
    2a98:	f04f 0e21 	mov.w	lr, #33	; 0x21
    2a9c:	e001      	b.n	2aa2 <Print::printNumber(unsigned long, unsigned char, unsigned char)+0x32>
    2a9e:	fa5f fe80 	uxtb.w	lr, r0
    2aa2:	f10e 30ff 	add.w	r0, lr, #4294967295
    2aa6:	fbb1 f5f2 	udiv	r5, r1, r2
    2aaa:	fb02 1415 	mls	r4, r2, r5, r1
    2aae:	fa5f fc84 	uxtb.w	ip, r4
    2ab2:	2c09      	cmp	r4, #9
    2ab4:	f10c 0437 	add.w	r4, ip, #55	; 0x37
    2ab8:	f10c 0c30 	add.w	ip, ip, #48	; 0x30
    2abc:	bf98      	it	ls
    2abe:	fa5f f48c 	uxtbls.w	r4, ip
    2ac2:	f10e 0c28 	add.w	ip, lr, #40	; 0x28
    2ac6:	bf88      	it	hi
    2ac8:	b2e4      	uxtbhi	r4, r4
    2aca:	4291      	cmp	r1, r2
    2acc:	44ec      	add	ip, sp
    2ace:	4629      	mov	r1, r5
    2ad0:	f80c 4c24 	strb.w	r4, [ip, #-36]
    2ad4:	d2e3      	bcs.n	2a9e <Print::printNumber(unsigned long, unsigned char, unsigned char)+0x2e>
    2ad6:	b14b      	cbz	r3, 2aec <Print::printNumber(unsigned long, unsigned char, unsigned char)+0x7c>
    2ad8:	f10e 3eff 	add.w	lr, lr, #4294967295
    2adc:	222d      	movs	r2, #45	; 0x2d
    2ade:	fa5f fe8e 	uxtb.w	lr, lr
    2ae2:	f10e 0328 	add.w	r3, lr, #40	; 0x28
    2ae6:	446b      	add	r3, sp
    2ae8:	f803 2c24 	strb.w	r2, [r3, #-36]
    2aec:	6833      	ldr	r3, [r6, #0]
    2aee:	a901      	add	r1, sp, #4
    2af0:	f1ce 0222 	rsb	r2, lr, #34	; 0x22
    2af4:	4630      	mov	r0, r6
    2af6:	685b      	ldr	r3, [r3, #4]
    2af8:	4471      	add	r1, lr
    2afa:	4798      	blx	r3
    2afc:	b00a      	add	sp, #40	; 0x28
    2afe:	bd70      	pop	{r4, r5, r6, pc}
    2b00:	2230      	movs	r2, #48	; 0x30
    2b02:	f04f 0e21 	mov.w	lr, #33	; 0x21
    2b06:	f88d 2025 	strb.w	r2, [sp, #37]	; 0x25
    2b0a:	e7e4      	b.n	2ad6 <Print::printNumber(unsigned long, unsigned char, unsigned char)+0x66>
    2b0c:	b00a      	add	sp, #40	; 0x28
    2b0e:	e8bd 4070 	ldmia.w	sp!, {r4, r5, r6, lr}
    2b12:	4718      	bx	r3
    2b14:	00002981 	.word	0x00002981

00002b18 <Print::printFloat(double, unsigned char)>:
    2b18:	eeb4 0b40 	vcmp.f64	d0, d0
    2b1c:	e92d 41f0 	stmdb	sp!, {r4, r5, r6, r7, r8, lr}
    2b20:	eef1 fa10 	vmrs	APSR_nzcv, fpscr
    2b24:	4605      	mov	r5, r0
    2b26:	ed2d 8b02 	vpush	{d8}
    2b2a:	b08c      	sub	sp, #48	; 0x30
    2b2c:	f180 81e9 	bvs.w	2f02 <Print::printFloat(double, unsigned char)+0x3ea>
    2b30:	eeb0 7bc0 	vabs.f64	d7, d0
    2b34:	ed9f 6bd4 	vldr	d6, [pc, #848]	; 2e88 <Print::printFloat(double, unsigned char)+0x370>
    2b38:	eeb4 7b46 	vcmp.f64	d7, d6
    2b3c:	eef1 fa10 	vmrs	APSR_nzcv, fpscr
    2b40:	f300 8198 	bgt.w	2e74 <Print::printFloat(double, unsigned char)+0x35c>
    2b44:	ed9f 7bd2 	vldr	d7, [pc, #840]	; 2e90 <Print::printFloat(double, unsigned char)+0x378>
    2b48:	eeb4 0bc7 	vcmpe.f64	d0, d7
    2b4c:	eef1 fa10 	vmrs	APSR_nzcv, fpscr
    2b50:	f300 8186 	bgt.w	2e60 <Print::printFloat(double, unsigned char)+0x348>
    2b54:	ed9f 7bd0 	vldr	d7, [pc, #832]	; 2e98 <Print::printFloat(double, unsigned char)+0x380>
    2b58:	eeb4 0bc7 	vcmpe.f64	d0, d7
    2b5c:	eef1 fa10 	vmrs	APSR_nzcv, fpscr
    2b60:	f100 817e 	bmi.w	2e60 <Print::printFloat(double, unsigned char)+0x348>
    2b64:	eeb5 0bc0 	vcmpe.f64	d0, #0.0
    2b68:	460c      	mov	r4, r1
    2b6a:	eef1 fa10 	vmrs	APSR_nzcv, fpscr
    2b6e:	f100 8185 	bmi.w	2e7c <Print::printFloat(double, unsigned char)+0x364>
    2b72:	2600      	movs	r6, #0
    2b74:	eeb6 8b00 	vmov.f64	d8, #96	; 0x3f000000  0.5
    2b78:	b144      	cbz	r4, 2b8c <Print::printFloat(double, unsigned char)+0x74>
    2b7a:	2300      	movs	r3, #0
    2b7c:	ed9f 6bc8 	vldr	d6, [pc, #800]	; 2ea0 <Print::printFloat(double, unsigned char)+0x388>
    2b80:	3301      	adds	r3, #1
    2b82:	ee28 8b06 	vmul.f64	d8, d8, d6
    2b86:	b2da      	uxtb	r2, r3
    2b88:	4294      	cmp	r4, r2
    2b8a:	d8f9      	bhi.n	2b80 <Print::printFloat(double, unsigned char)+0x68>
    2b8c:	ee30 8b08 	vadd.f64	d8, d0, d8
    2b90:	eefc 7bc8 	vcvt.u32.f64	s15, d8
    2b94:	ee17 8a90 	vmov	r8, s15
    2b98:	f1b8 0f00 	cmp.w	r8, #0
    2b9c:	f040 8188 	bne.w	2eb0 <Print::printFloat(double, unsigned char)+0x398>
    2ba0:	2330      	movs	r3, #48	; 0x30
    2ba2:	f88d 302d 	strb.w	r3, [sp, #45]	; 0x2d
    2ba6:	2321      	movs	r3, #33	; 0x21
    2ba8:	b13e      	cbz	r6, 2bba <Print::printFloat(double, unsigned char)+0xa2>
    2baa:	3b01      	subs	r3, #1
    2bac:	212d      	movs	r1, #45	; 0x2d
    2bae:	b2db      	uxtb	r3, r3
    2bb0:	f103 0230 	add.w	r2, r3, #48	; 0x30
    2bb4:	446a      	add	r2, sp
    2bb6:	f802 1c24 	strb.w	r1, [r2, #-36]
    2bba:	682a      	ldr	r2, [r5, #0]
    2bbc:	a903      	add	r1, sp, #12
    2bbe:	4628      	mov	r0, r5
    2bc0:	6856      	ldr	r6, [r2, #4]
    2bc2:	4419      	add	r1, r3
    2bc4:	f1c3 0222 	rsb	r2, r3, #34	; 0x22
    2bc8:	47b0      	blx	r6
    2bca:	4606      	mov	r6, r0
    2bcc:	2c00      	cmp	r4, #0
    2bce:	f000 8141 	beq.w	2e54 <Print::printFloat(double, unsigned char)+0x33c>
    2bd2:	ee07 8a90 	vmov	s15, r8
    2bd6:	232e      	movs	r3, #46	; 0x2e
    2bd8:	2c0f      	cmp	r4, #15
    2bda:	4622      	mov	r2, r4
    2bdc:	eeb8 0b67 	vcvt.f64.u32	d0, s15
    2be0:	f88d 300c 	strb.w	r3, [sp, #12]
    2be4:	eeb2 7b04 	vmov.f64	d7, #36	; 0x41200000  10.0
    2be8:	bf28      	it	cs
    2bea:	220f      	movcs	r2, #15
    2bec:	2c01      	cmp	r4, #1
    2bee:	ee38 0b40 	vsub.f64	d0, d8, d0
    2bf2:	ee20 0b07 	vmul.f64	d0, d0, d7
    2bf6:	eefc 6bc0 	vcvt.u32.f64	s13, d0
    2bfa:	edcd 6a01 	vstr	s13, [sp, #4]
    2bfe:	f89d 3004 	ldrb.w	r3, [sp, #4]
    2c02:	ee06 3a90 	vmov	s13, r3
    2c06:	f103 0330 	add.w	r3, r3, #48	; 0x30
    2c0a:	eeb8 6be6 	vcvt.f64.s32	d6, s13
    2c0e:	f88d 300d 	strb.w	r3, [sp, #13]
    2c12:	ee30 0b46 	vsub.f64	d0, d0, d6
    2c16:	f000 8116 	beq.w	2e46 <Print::printFloat(double, unsigned char)+0x32e>
    2c1a:	ee20 0b07 	vmul.f64	d0, d0, d7
    2c1e:	2c02      	cmp	r4, #2
    2c20:	eefc 6bc0 	vcvt.u32.f64	s13, d0
    2c24:	edcd 6a01 	vstr	s13, [sp, #4]
    2c28:	f89d 3004 	ldrb.w	r3, [sp, #4]
    2c2c:	ee06 3a90 	vmov	s13, r3
    2c30:	f103 0330 	add.w	r3, r3, #48	; 0x30
    2c34:	eeb8 6be6 	vcvt.f64.s32	d6, s13
    2c38:	f88d 300e 	strb.w	r3, [sp, #14]
    2c3c:	ee30 0b46 	vsub.f64	d0, d0, d6
    2c40:	f000 8101 	beq.w	2e46 <Print::printFloat(double, unsigned char)+0x32e>
    2c44:	ee20 0b07 	vmul.f64	d0, d0, d7
    2c48:	2c03      	cmp	r4, #3
    2c4a:	eefc 6bc0 	vcvt.u32.f64	s13, d0
    2c4e:	edcd 6a01 	vstr	s13, [sp, #4]
    2c52:	f89d 3004 	ldrb.w	r3, [sp, #4]
    2c56:	ee06 3a90 	vmov	s13, r3
    2c5a:	f103 0330 	add.w	r3, r3, #48	; 0x30
    2c5e:	eeb8 6be6 	vcvt.f64.s32	d6, s13
    2c62:	f88d 300f 	strb.w	r3, [sp, #15]
    2c66:	ee30 0b46 	vsub.f64	d0, d0, d6
    2c6a:	f000 80ec 	beq.w	2e46 <Print::printFloat(double, unsigned char)+0x32e>
    2c6e:	ee20 0b07 	vmul.f64	d0, d0, d7
    2c72:	2c04      	cmp	r4, #4
    2c74:	eefc 6bc0 	vcvt.u32.f64	s13, d0
    2c78:	edcd 6a01 	vstr	s13, [sp, #4]
    2c7c:	f89d 3004 	ldrb.w	r3, [sp, #4]
    2c80:	ee06 3a90 	vmov	s13, r3
    2c84:	f103 0330 	add.w	r3, r3, #48	; 0x30
    2c88:	eeb8 6be6 	vcvt.f64.s32	d6, s13
    2c8c:	f88d 3010 	strb.w	r3, [sp, #16]
    2c90:	ee30 0b46 	vsub.f64	d0, d0, d6
    2c94:	f000 80d7 	beq.w	2e46 <Print::printFloat(double, unsigned char)+0x32e>
    2c98:	ee20 0b07 	vmul.f64	d0, d0, d7
    2c9c:	2c05      	cmp	r4, #5
    2c9e:	eefc 6bc0 	vcvt.u32.f64	s13, d0
    2ca2:	edcd 6a01 	vstr	s13, [sp, #4]
    2ca6:	f89d 3004 	ldrb.w	r3, [sp, #4]
    2caa:	ee06 3a90 	vmov	s13, r3
    2cae:	f103 0330 	add.w	r3, r3, #48	; 0x30
    2cb2:	eeb8 6be6 	vcvt.f64.s32	d6, s13
    2cb6:	f88d 3011 	strb.w	r3, [sp, #17]
    2cba:	ee30 0b46 	vsub.f64	d0, d0, d6
    2cbe:	f000 80c2 	beq.w	2e46 <Print::printFloat(double, unsigned char)+0x32e>
    2cc2:	ee20 0b07 	vmul.f64	d0, d0, d7
    2cc6:	2c06      	cmp	r4, #6
    2cc8:	eefc 6bc0 	vcvt.u32.f64	s13, d0
    2ccc:	edcd 6a01 	vstr	s13, [sp, #4]
    2cd0:	f89d 3004 	ldrb.w	r3, [sp, #4]
    2cd4:	ee06 3a90 	vmov	s13, r3
    2cd8:	f103 0330 	add.w	r3, r3, #48	; 0x30
    2cdc:	eeb8 6be6 	vcvt.f64.s32	d6, s13
    2ce0:	f88d 3012 	strb.w	r3, [sp, #18]
    2ce4:	ee30 0b46 	vsub.f64	d0, d0, d6
    2ce8:	f000 80ad 	beq.w	2e46 <Print::printFloat(double, unsigned char)+0x32e>
    2cec:	ee20 0b07 	vmul.f64	d0, d0, d7
    2cf0:	2c07      	cmp	r4, #7
    2cf2:	eefc 6bc0 	vcvt.u32.f64	s13, d0
    2cf6:	edcd 6a01 	vstr	s13, [sp, #4]
    2cfa:	f89d 3004 	ldrb.w	r3, [sp, #4]
    2cfe:	ee06 3a90 	vmov	s13, r3
    2d02:	f103 0330 	add.w	r3, r3, #48	; 0x30
    2d06:	eeb8 6be6 	vcvt.f64.s32	d6, s13
    2d0a:	f88d 3013 	strb.w	r3, [sp, #19]
    2d0e:	ee30 0b46 	vsub.f64	d0, d0, d6
    2d12:	f000 8098 	beq.w	2e46 <Print::printFloat(double, unsigned char)+0x32e>
    2d16:	ee20 0b07 	vmul.f64	d0, d0, d7
    2d1a:	2c08      	cmp	r4, #8
    2d1c:	eefc 6bc0 	vcvt.u32.f64	s13, d0
    2d20:	edcd 6a01 	vstr	s13, [sp, #4]
    2d24:	f89d 3004 	ldrb.w	r3, [sp, #4]
    2d28:	ee06 3a90 	vmov	s13, r3
    2d2c:	f103 0330 	add.w	r3, r3, #48	; 0x30
    2d30:	eeb8 6be6 	vcvt.f64.s32	d6, s13
    2d34:	f88d 3014 	strb.w	r3, [sp, #20]
    2d38:	ee30 0b46 	vsub.f64	d0, d0, d6
    2d3c:	f000 8083 	beq.w	2e46 <Print::printFloat(double, unsigned char)+0x32e>
    2d40:	ee20 0b07 	vmul.f64	d0, d0, d7
    2d44:	2c09      	cmp	r4, #9
    2d46:	eefc 7bc0 	vcvt.u32.f64	s15, d0
    2d4a:	edcd 7a01 	vstr	s15, [sp, #4]
    2d4e:	f89d 3004 	ldrb.w	r3, [sp, #4]
    2d52:	ee07 3a90 	vmov	s15, r3
    2d56:	f103 0330 	add.w	r3, r3, #48	; 0x30
    2d5a:	eeb8 7be7 	vcvt.f64.s32	d7, s15
    2d5e:	f88d 3015 	strb.w	r3, [sp, #21]
    2d62:	ee30 0b47 	vsub.f64	d0, d0, d7
    2d66:	d06e      	beq.n	2e46 <Print::printFloat(double, unsigned char)+0x32e>
    2d68:	eeb2 6b04 	vmov.f64	d6, #36	; 0x41200000  10.0
    2d6c:	2c0a      	cmp	r4, #10
    2d6e:	ee20 0b06 	vmul.f64	d0, d0, d6
    2d72:	eefc 7bc0 	vcvt.u32.f64	s15, d0
    2d76:	edcd 7a01 	vstr	s15, [sp, #4]
    2d7a:	f89d 3004 	ldrb.w	r3, [sp, #4]
    2d7e:	ee07 3a90 	vmov	s15, r3
    2d82:	f103 0330 	add.w	r3, r3, #48	; 0x30
    2d86:	eeb8 7be7 	vcvt.f64.s32	d7, s15
    2d8a:	f88d 3016 	strb.w	r3, [sp, #22]
    2d8e:	ee30 0b47 	vsub.f64	d0, d0, d7
    2d92:	d058      	beq.n	2e46 <Print::printFloat(double, unsigned char)+0x32e>
    2d94:	ee20 0b06 	vmul.f64	d0, d0, d6
    2d98:	2c0b      	cmp	r4, #11
    2d9a:	eefc 7bc0 	vcvt.u32.f64	s15, d0
    2d9e:	edcd 7a01 	vstr	s15, [sp, #4]
    2da2:	f89d 3004 	ldrb.w	r3, [sp, #4]
    2da6:	ee07 3a90 	vmov	s15, r3
    2daa:	f103 0330 	add.w	r3, r3, #48	; 0x30
    2dae:	eeb8 7be7 	vcvt.f64.s32	d7, s15
    2db2:	f88d 3017 	strb.w	r3, [sp, #23]
    2db6:	ee30 7b47 	vsub.f64	d7, d0, d7
    2dba:	d044      	beq.n	2e46 <Print::printFloat(double, unsigned char)+0x32e>
    2dbc:	ee27 7b06 	vmul.f64	d7, d7, d6
    2dc0:	2c0c      	cmp	r4, #12
    2dc2:	eefc 5bc7 	vcvt.u32.f64	s11, d7
    2dc6:	edcd 5a01 	vstr	s11, [sp, #4]
    2dca:	f89d 3004 	ldrb.w	r3, [sp, #4]
    2dce:	ee05 3a90 	vmov	s11, r3
    2dd2:	f103 0330 	add.w	r3, r3, #48	; 0x30
    2dd6:	eeb8 5be5 	vcvt.f64.s32	d5, s11
    2dda:	f88d 3018 	strb.w	r3, [sp, #24]
    2dde:	ee37 7b45 	vsub.f64	d7, d7, d5
    2de2:	d030      	beq.n	2e46 <Print::printFloat(double, unsigned char)+0x32e>
    2de4:	ee27 7b06 	vmul.f64	d7, d7, d6
    2de8:	2c0d      	cmp	r4, #13
    2dea:	eefc 5bc7 	vcvt.u32.f64	s11, d7
    2dee:	edcd 5a01 	vstr	s11, [sp, #4]
    2df2:	f89d 3004 	ldrb.w	r3, [sp, #4]
    2df6:	ee05 3a90 	vmov	s11, r3
    2dfa:	f103 0330 	add.w	r3, r3, #48	; 0x30
    2dfe:	eeb8 5be5 	vcvt.f64.s32	d5, s11
    2e02:	f88d 3019 	strb.w	r3, [sp, #25]
    2e06:	ee37 7b45 	vsub.f64	d7, d7, d5
    2e0a:	d01c      	beq.n	2e46 <Print::printFloat(double, unsigned char)+0x32e>
    2e0c:	ee27 7b06 	vmul.f64	d7, d7, d6
    2e10:	2c0e      	cmp	r4, #14
    2e12:	eefc 5bc7 	vcvt.u32.f64	s11, d7
    2e16:	edcd 5a01 	vstr	s11, [sp, #4]
    2e1a:	f89d 3004 	ldrb.w	r3, [sp, #4]
    2e1e:	ee05 3a90 	vmov	s11, r3
    2e22:	f103 0330 	add.w	r3, r3, #48	; 0x30
    2e26:	eeb8 5be5 	vcvt.f64.s32	d5, s11
    2e2a:	f88d 301a 	strb.w	r3, [sp, #26]
    2e2e:	ee37 7b45 	vsub.f64	d7, d7, d5
    2e32:	d008      	beq.n	2e46 <Print::printFloat(double, unsigned char)+0x32e>
    2e34:	ee27 7b06 	vmul.f64	d7, d7, d6
    2e38:	eebc 7bc7 	vcvt.u32.f64	s14, d7
    2e3c:	ee17 3a10 	vmov	r3, s14
    2e40:	3330      	adds	r3, #48	; 0x30
    2e42:	f88d 301b 	strb.w	r3, [sp, #27]
    2e46:	3201      	adds	r2, #1
    2e48:	682b      	ldr	r3, [r5, #0]
    2e4a:	a903      	add	r1, sp, #12
    2e4c:	4628      	mov	r0, r5
    2e4e:	685b      	ldr	r3, [r3, #4]
    2e50:	b2d2      	uxtb	r2, r2
    2e52:	4798      	blx	r3
    2e54:	4630      	mov	r0, r6
    2e56:	b00c      	add	sp, #48	; 0x30
    2e58:	ecbd 8b02 	vpop	{d8}
    2e5c:	e8bd 81f0 	ldmia.w	sp!, {r4, r5, r6, r7, r8, pc}
    2e60:	682b      	ldr	r3, [r5, #0]
    2e62:	2203      	movs	r2, #3
    2e64:	4910      	ldr	r1, [pc, #64]	; (2ea8 <Print::printFloat(double, unsigned char)+0x390>)
    2e66:	685b      	ldr	r3, [r3, #4]
    2e68:	b00c      	add	sp, #48	; 0x30
    2e6a:	ecbd 8b02 	vpop	{d8}
    2e6e:	e8bd 41f0 	ldmia.w	sp!, {r4, r5, r6, r7, r8, lr}
    2e72:	4718      	bx	r3
    2e74:	6803      	ldr	r3, [r0, #0]
    2e76:	2203      	movs	r2, #3
    2e78:	490c      	ldr	r1, [pc, #48]	; (2eac <Print::printFloat(double, unsigned char)+0x394>)
    2e7a:	e7f4      	b.n	2e66 <Print::printFloat(double, unsigned char)+0x34e>
    2e7c:	eeb1 0b40 	vneg.f64	d0, d0
    2e80:	2601      	movs	r6, #1
    2e82:	e677      	b.n	2b74 <Print::printFloat(double, unsigned char)+0x5c>
    2e84:	f3af 8000 	nop.w
    2e88:	ffffffff 	.word	0xffffffff
    2e8c:	7fefffff 	.word	0x7fefffff
    2e90:	e0000000 	.word	0xe0000000
    2e94:	41efffff 	.word	0x41efffff
    2e98:	e0000000 	.word	0xe0000000
    2e9c:	c1efffff 	.word	0xc1efffff
    2ea0:	9999999a 	.word	0x9999999a
    2ea4:	3fb99999 	.word	0x3fb99999
    2ea8:	200005c4 	.word	0x200005c4
    2eac:	200005c0 	.word	0x200005c0
    2eb0:	4f16      	ldr	r7, [pc, #88]	; (2f0c <Print::printFloat(double, unsigned char)+0x3f4>)
    2eb2:	f1b8 0f09 	cmp.w	r8, #9
    2eb6:	fba7 3e08 	umull	r3, lr, r7, r8
    2eba:	ea4f 0ede 	mov.w	lr, lr, lsr #3
    2ebe:	eb0e 038e 	add.w	r3, lr, lr, lsl #2
    2ec2:	eba8 0343 	sub.w	r3, r8, r3, lsl #1
    2ec6:	f103 0330 	add.w	r3, r3, #48	; 0x30
    2eca:	f88d 302d 	strb.w	r3, [sp, #45]	; 0x2d
    2ece:	f04f 0321 	mov.w	r3, #33	; 0x21
    2ed2:	f67f ae69 	bls.w	2ba8 <Print::printFloat(double, unsigned char)+0x90>
    2ed6:	3b01      	subs	r3, #1
    2ed8:	fba7 210e 	umull	r2, r1, r7, lr
    2edc:	4670      	mov	r0, lr
    2ede:	b2db      	uxtb	r3, r3
    2ee0:	08c9      	lsrs	r1, r1, #3
    2ee2:	2809      	cmp	r0, #9
    2ee4:	f103 0230 	add.w	r2, r3, #48	; 0x30
    2ee8:	eb0d 0c02 	add.w	ip, sp, r2
    2eec:	eb01 0281 	add.w	r2, r1, r1, lsl #2
    2ef0:	ebae 0242 	sub.w	r2, lr, r2, lsl #1
    2ef4:	468e      	mov	lr, r1
    2ef6:	f102 0230 	add.w	r2, r2, #48	; 0x30
    2efa:	f80c 2c24 	strb.w	r2, [ip, #-36]
    2efe:	d8ea      	bhi.n	2ed6 <Print::printFloat(double, unsigned char)+0x3be>
    2f00:	e652      	b.n	2ba8 <Print::printFloat(double, unsigned char)+0x90>
    2f02:	6803      	ldr	r3, [r0, #0]
    2f04:	2203      	movs	r2, #3
    2f06:	4902      	ldr	r1, [pc, #8]	; (2f10 <Print::printFloat(double, unsigned char)+0x3f8>)
    2f08:	e7ad      	b.n	2e66 <Print::printFloat(double, unsigned char)+0x34e>
    2f0a:	bf00      	nop
    2f0c:	cccccccd 	.word	0xcccccccd
    2f10:	200005bc 	.word	0x200005bc

00002f14 <delay>:
    2f14:	2800      	cmp	r0, #0
    2f16:	d046      	beq.n	2fa6 <delay+0x92>
    2f18:	2101      	movs	r1, #1
    2f1a:	e92d 4ff8 	stmdb	sp!, {r3, r4, r5, r6, r7, r8, r9, sl, fp, lr}
    2f1e:	4681      	mov	r9, r0
    2f20:	4c21      	ldr	r4, [pc, #132]	; (2fa8 <delay+0x94>)
    2f22:	4d22      	ldr	r5, [pc, #136]	; (2fac <delay+0x98>)
    2f24:	4e22      	ldr	r6, [pc, #136]	; (2fb0 <delay+0x9c>)
    2f26:	e854 3f00 	ldrex	r3, [r4]
    2f2a:	682a      	ldr	r2, [r5, #0]
    2f2c:	6830      	ldr	r0, [r6, #0]
    2f2e:	e844 1300 	strex	r3, r1, [r4]
    2f32:	2b00      	cmp	r3, #0
    2f34:	d1f7      	bne.n	2f26 <delay+0x12>
    2f36:	491f      	ldr	r1, [pc, #124]	; (2fb4 <delay+0xa0>)
    2f38:	684b      	ldr	r3, [r1, #4]
    2f3a:	f44f 7b7a 	mov.w	fp, #1000	; 0x3e8
    2f3e:	f8df a078 	ldr.w	sl, [pc, #120]	; 2fb8 <delay+0xa4>
    2f42:	1a1b      	subs	r3, r3, r0
    2f44:	2701      	movs	r7, #1
    2f46:	fb0b f802 	mul.w	r8, fp, r2
    2f4a:	f8da 2000 	ldr.w	r2, [sl]
    2f4e:	fba3 3202 	umull	r3, r2, r3, r2
    2f52:	455a      	cmp	r2, fp
    2f54:	bf94      	ite	ls
    2f56:	4490      	addls	r8, r2
    2f58:	44d8      	addhi	r8, fp
    2f5a:	e854 3f00 	ldrex	r3, [r4]
    2f5e:	682a      	ldr	r2, [r5, #0]
    2f60:	6830      	ldr	r0, [r6, #0]
    2f62:	e844 7300 	strex	r3, r7, [r4]
    2f66:	2b00      	cmp	r3, #0
    2f68:	d1f7      	bne.n	2f5a <delay+0x46>
    2f6a:	684b      	ldr	r3, [r1, #4]
    2f6c:	f8da c000 	ldr.w	ip, [sl]
    2f70:	1a1b      	subs	r3, r3, r0
    2f72:	fb0b f202 	mul.w	r2, fp, r2
    2f76:	fba3 3c0c 	umull	r3, ip, r3, ip
    2f7a:	f5bc 7f7a 	cmp.w	ip, #1000	; 0x3e8
    2f7e:	bf94      	ite	ls
    2f80:	4462      	addls	r2, ip
    2f82:	f502 727a 	addhi.w	r2, r2, #1000	; 0x3e8
    2f86:	eba2 0208 	sub.w	r2, r2, r8
    2f8a:	f5b2 7f7a 	cmp.w	r2, #1000	; 0x3e8
    2f8e:	d306      	bcc.n	2f9e <delay+0x8a>
    2f90:	f1b9 0901 	subs.w	r9, r9, #1
    2f94:	f508 787a 	add.w	r8, r8, #1000	; 0x3e8
    2f98:	d1df      	bne.n	2f5a <delay+0x46>
    2f9a:	e8bd 8ff8 	ldmia.w	sp!, {r3, r4, r5, r6, r7, r8, r9, sl, fp, pc}
    2f9e:	f001 fc2f 	bl	4800 <yield>
    2fa2:	4904      	ldr	r1, [pc, #16]	; (2fb4 <delay+0xa0>)
    2fa4:	e7d9      	b.n	2f5a <delay+0x46>
    2fa6:	4770      	bx	lr
    2fa8:	20003780 	.word	0x20003780
    2fac:	2000377c 	.word	0x2000377c
    2fb0:	20003778 	.word	0x20003778
    2fb4:	e0001000 	.word	0xe0001000
    2fb8:	20003774 	.word	0x20003774

00002fbc <micros>:
    2fbc:	b430      	push	{r4, r5}
    2fbe:	4b0f      	ldr	r3, [pc, #60]	; (2ffc <micros+0x40>)
    2fc0:	f04f 0c01 	mov.w	ip, #1
    2fc4:	4d0e      	ldr	r5, [pc, #56]	; (3000 <micros+0x44>)
    2fc6:	4c0f      	ldr	r4, [pc, #60]	; (3004 <micros+0x48>)
    2fc8:	e853 2f00 	ldrex	r2, [r3]
    2fcc:	6828      	ldr	r0, [r5, #0]
    2fce:	6821      	ldr	r1, [r4, #0]
    2fd0:	e843 c200 	strex	r2, ip, [r3]
    2fd4:	2a00      	cmp	r2, #0
    2fd6:	d1f7      	bne.n	2fc8 <micros+0xc>
    2fd8:	4b0b      	ldr	r3, [pc, #44]	; (3008 <micros+0x4c>)
    2fda:	685b      	ldr	r3, [r3, #4]
    2fdc:	4a0b      	ldr	r2, [pc, #44]	; (300c <micros+0x50>)
    2fde:	1a5b      	subs	r3, r3, r1
    2fe0:	f44f 717a 	mov.w	r1, #1000	; 0x3e8
    2fe4:	6812      	ldr	r2, [r2, #0]
    2fe6:	fb01 f000 	mul.w	r0, r1, r0
    2fea:	fba3 3202 	umull	r3, r2, r3, r2
    2fee:	bc30      	pop	{r4, r5}
    2ff0:	428a      	cmp	r2, r1
    2ff2:	bf94      	ite	ls
    2ff4:	1880      	addls	r0, r0, r2
    2ff6:	1840      	addhi	r0, r0, r1
    2ff8:	4770      	bx	lr
    2ffa:	bf00      	nop
    2ffc:	20003780 	.word	0x20003780
    3000:	2000377c 	.word	0x2000377c
    3004:	20003778 	.word	0x20003778
    3008:	e0001000 	.word	0xe0001000
    300c:	20003774 	.word	0x20003774

00003010 <main>:
    3010:	b508      	push	{r3, lr}
    3012:	f7fe f847 	bl	10a4 <setup>
    3016:	f7ff fcb1 	bl	297c <loop>
    301a:	f001 fbf1 	bl	4800 <yield>
    301e:	e7fa      	b.n	3016 <main+0x6>

00003020 <memcpy>:
    3020:	4684      	mov	ip, r0
    3022:	ea41 0300 	orr.w	r3, r1, r0
    3026:	f013 0303 	ands.w	r3, r3, #3
    302a:	d16d      	bne.n	3108 <memcpy+0xe8>
    302c:	3a40      	subs	r2, #64	; 0x40
    302e:	d341      	bcc.n	30b4 <memcpy+0x94>
    3030:	f851 3b04 	ldr.w	r3, [r1], #4
    3034:	f840 3b04 	str.w	r3, [r0], #4
    3038:	f851 3b04 	ldr.w	r3, [r1], #4
    303c:	f840 3b04 	str.w	r3, [r0], #4
    3040:	f851 3b04 	ldr.w	r3, [r1], #4
    3044:	f840 3b04 	str.w	r3, [r0], #4
    3048:	f851 3b04 	ldr.w	r3, [r1], #4
    304c:	f840 3b04 	str.w	r3, [r0], #4
    3050:	f851 3b04 	ldr.w	r3, [r1], #4
    3054:	f840 3b04 	str.w	r3, [r0], #4
    3058:	f851 3b04 	ldr.w	r3, [r1], #4
    305c:	f840 3b04 	str.w	r3, [r0], #4
    3060:	f851 3b04 	ldr.w	r3, [r1], #4
    3064:	f840 3b04 	str.w	r3, [r0], #4
    3068:	f851 3b04 	ldr.w	r3, [r1], #4
    306c:	f840 3b04 	str.w	r3, [r0], #4
    3070:	f851 3b04 	ldr.w	r3, [r1], #4
    3074:	f840 3b04 	str.w	r3, [r0], #4
    3078:	f851 3b04 	ldr.w	r3, [r1], #4
    307c:	f840 3b04 	str.w	r3, [r0], #4
    3080:	f851 3b04 	ldr.w	r3, [r1], #4
    3084:	f840 3b04 	str.w	r3, [r0], #4
    3088:	f851 3b04 	ldr.w	r3, [r1], #4
    308c:	f840 3b04 	str.w	r3, [r0], #4
    3090:	f851 3b04 	ldr.w	r3, [r1], #4
    3094:	f840 3b04 	str.w	r3, [r0], #4
    3098:	f851 3b04 	ldr.w	r3, [r1], #4
    309c:	f840 3b04 	str.w	r3, [r0], #4
    30a0:	f851 3b04 	ldr.w	r3, [r1], #4
    30a4:	f840 3b04 	str.w	r3, [r0], #4
    30a8:	f851 3b04 	ldr.w	r3, [r1], #4
    30ac:	f840 3b04 	str.w	r3, [r0], #4
    30b0:	3a40      	subs	r2, #64	; 0x40
    30b2:	d2bd      	bcs.n	3030 <memcpy+0x10>
    30b4:	3230      	adds	r2, #48	; 0x30
    30b6:	d311      	bcc.n	30dc <memcpy+0xbc>
    30b8:	f851 3b04 	ldr.w	r3, [r1], #4
    30bc:	f840 3b04 	str.w	r3, [r0], #4
    30c0:	f851 3b04 	ldr.w	r3, [r1], #4
    30c4:	f840 3b04 	str.w	r3, [r0], #4
    30c8:	f851 3b04 	ldr.w	r3, [r1], #4
    30cc:	f840 3b04 	str.w	r3, [r0], #4
    30d0:	f851 3b04 	ldr.w	r3, [r1], #4
    30d4:	f840 3b04 	str.w	r3, [r0], #4
    30d8:	3a10      	subs	r2, #16
    30da:	d2ed      	bcs.n	30b8 <memcpy+0x98>
    30dc:	320c      	adds	r2, #12
    30de:	d305      	bcc.n	30ec <memcpy+0xcc>
    30e0:	f851 3b04 	ldr.w	r3, [r1], #4
    30e4:	f840 3b04 	str.w	r3, [r0], #4
    30e8:	3a04      	subs	r2, #4
    30ea:	d2f9      	bcs.n	30e0 <memcpy+0xc0>
    30ec:	3204      	adds	r2, #4
    30ee:	d008      	beq.n	3102 <memcpy+0xe2>
    30f0:	07d2      	lsls	r2, r2, #31
    30f2:	bf1c      	itt	ne
    30f4:	f811 3b01 	ldrbne.w	r3, [r1], #1
    30f8:	f800 3b01 	strbne.w	r3, [r0], #1
    30fc:	d301      	bcc.n	3102 <memcpy+0xe2>
    30fe:	880b      	ldrh	r3, [r1, #0]
    3100:	8003      	strh	r3, [r0, #0]
    3102:	4660      	mov	r0, ip
    3104:	4770      	bx	lr
    3106:	bf00      	nop
    3108:	2a08      	cmp	r2, #8
    310a:	d313      	bcc.n	3134 <memcpy+0x114>
    310c:	078b      	lsls	r3, r1, #30
    310e:	d08d      	beq.n	302c <memcpy+0xc>
    3110:	f010 0303 	ands.w	r3, r0, #3
    3114:	d08a      	beq.n	302c <memcpy+0xc>
    3116:	f1c3 0304 	rsb	r3, r3, #4
    311a:	1ad2      	subs	r2, r2, r3
    311c:	07db      	lsls	r3, r3, #31
    311e:	bf1c      	itt	ne
    3120:	f811 3b01 	ldrbne.w	r3, [r1], #1
    3124:	f800 3b01 	strbne.w	r3, [r0], #1
    3128:	d380      	bcc.n	302c <memcpy+0xc>
    312a:	f831 3b02 	ldrh.w	r3, [r1], #2
    312e:	f820 3b02 	strh.w	r3, [r0], #2
    3132:	e77b      	b.n	302c <memcpy+0xc>
    3134:	3a04      	subs	r2, #4
    3136:	d3d9      	bcc.n	30ec <memcpy+0xcc>
    3138:	3a01      	subs	r2, #1
    313a:	f811 3b01 	ldrb.w	r3, [r1], #1
    313e:	f800 3b01 	strb.w	r3, [r0], #1
    3142:	d2f9      	bcs.n	3138 <memcpy+0x118>
    3144:	780b      	ldrb	r3, [r1, #0]
    3146:	7003      	strb	r3, [r0, #0]
    3148:	784b      	ldrb	r3, [r1, #1]
    314a:	7043      	strb	r3, [r0, #1]
    314c:	788b      	ldrb	r3, [r1, #2]
    314e:	7083      	strb	r3, [r0, #2]
    3150:	4660      	mov	r0, ip
    3152:	4770      	bx	lr

00003154 <ultoa>:
    3154:	f101 3cff 	add.w	ip, r1, #4294967295
    3158:	b5f0      	push	{r4, r5, r6, r7, lr}
    315a:	4665      	mov	r5, ip
    315c:	2400      	movs	r4, #0
    315e:	e005      	b.n	316c <ultoa+0x18>
    3160:	4290      	cmp	r0, r2
    3162:	f805 7f01 	strb.w	r7, [r5, #1]!
    3166:	d30f      	bcc.n	3188 <ultoa+0x34>
    3168:	3401      	adds	r4, #1
    316a:	4670      	mov	r0, lr
    316c:	fbb0 fef2 	udiv	lr, r0, r2
    3170:	fb02 031e 	mls	r3, r2, lr, r0
    3174:	2b09      	cmp	r3, #9
    3176:	f103 0730 	add.w	r7, r3, #48	; 0x30
    317a:	f103 0637 	add.w	r6, r3, #55	; 0x37
    317e:	d9ef      	bls.n	3160 <ultoa+0xc>
    3180:	4290      	cmp	r0, r2
    3182:	f805 6f01 	strb.w	r6, [r5, #1]!
    3186:	d2ef      	bcs.n	3168 <ultoa+0x14>
    3188:	1c63      	adds	r3, r4, #1
    318a:	2200      	movs	r2, #0
    318c:	18c8      	adds	r0, r1, r3
    318e:	54ca      	strb	r2, [r1, r3]
    3190:	b17c      	cbz	r4, 31b2 <ultoa+0x5e>
    3192:	4662      	mov	r2, ip
    3194:	f81c 5f01 	ldrb.w	r5, [ip, #1]!
    3198:	f810 ed01 	ldrb.w	lr, [r0, #-1]!
    319c:	eba1 030c 	sub.w	r3, r1, ip
    31a0:	3202      	adds	r2, #2
    31a2:	f88c e000 	strb.w	lr, [ip]
    31a6:	3b01      	subs	r3, #1
    31a8:	1a52      	subs	r2, r2, r1
    31aa:	7005      	strb	r5, [r0, #0]
    31ac:	4423      	add	r3, r4
    31ae:	429a      	cmp	r2, r3
    31b0:	dbef      	blt.n	3192 <ultoa+0x3e>
    31b2:	4608      	mov	r0, r1
    31b4:	bdf0      	pop	{r4, r5, r6, r7, pc}
    31b6:	bf00      	nop

000031b8 <unused_interrupt_vector>:
    31b8:	b672      	cpsid	i
    31ba:	f3ef 8305 	mrs	r3, IPSR
    31be:	4c50      	ldr	r4, [pc, #320]	; (3300 <unused_interrupt_vector+0x148>)
    31c0:	f8c4 3084 	str.w	r3, [r4, #132]	; 0x84
    31c4:	f01e 0f04 	tst.w	lr, #4
    31c8:	bf0c      	ite	eq
    31ca:	f3ef 8208 	mrseq	r2, MSP
    31ce:	f3ef 8209 	mrsne	r2, PSP
    31d2:	f04f 23e0 	mov.w	r3, #3758153728	; 0xe000e000
    31d6:	4d4b      	ldr	r5, [pc, #300]	; (3304 <unused_interrupt_vector+0x14c>)
    31d8:	f8d3 0d28 	ldr.w	r0, [r3, #3368]	; 0xd28
    31dc:	f8d3 1d2c 	ldr.w	r1, [r3, #3372]	; 0xd2c
    31e0:	e9c4 0122 	strd	r0, r1, [r4, #136]	; 0x88
    31e4:	f8d3 1d34 	ldr.w	r1, [r3, #3380]	; 0xd34
    31e8:	f8d3 3d38 	ldr.w	r3, [r3, #3384]	; 0xd38
    31ec:	e9c4 1324 	strd	r1, r3, [r4, #144]	; 0x90
    31f0:	6993      	ldr	r3, [r2, #24]
    31f2:	f8c4 3098 	str.w	r3, [r4, #152]	; 0x98
    31f6:	69d3      	ldr	r3, [r2, #28]
    31f8:	f8c4 309c 	str.w	r3, [r4, #156]	; 0x9c
    31fc:	f000 f8a0 	bl	3340 <tempmonGetTemp>
    3200:	ed84 0a28 	vstr	s0, [r4, #160]	; 0xa0
    3204:	f001 ffa8 	bl	5158 <rtc_get>
    3208:	230b      	movs	r3, #11
    320a:	f8c4 00a4 	str.w	r0, [r4, #164]	; 0xa4
